
../build/blue_fire_kernel32.elf:     file format elf32-i386
../build/blue_fire_kernel32.elf
architecture: i386, flags 0x00000112:
EXEC_P, HAS_SYMS, D_PAGED
start address 0xc0000000

Program Header:
    LOAD off    0x00001000 vaddr 0xc0000000 paddr 0x00100000 align 2**12
         filesz 0x00005000 memsz 0x00005000 flags rwx
    LOAD off    0x00006000 vaddr 0xc0005000 paddr 0x00115000 align 2**12
         filesz 0x00000000 memsz 0x00023000 flags rw-
   STACK off    0x00000000 vaddr 0x00000000 paddr 0x00000000 align 2**4
         filesz 0x00000000 memsz 0x00000000 flags rwx

Sections:
Idx Name          Size      VMA       LMA       File off  Algn
  0 .text         00004000  c0000000  00100000  00001000  2**4
                  CONTENTS, ALLOC, LOAD, READONLY, CODE
  1 .eh_frame     00000750  c0004000  00104000  00005000  2**2
                  CONTENTS, ALLOC, LOAD, READONLY, DATA
  2 .data         000008a0  c0004760  00104760  00005760  2**5
                  CONTENTS, ALLOC, LOAD, DATA
  3 .bss          00023000  c0005000  00115000  00006000  2**5
                  ALLOC
  4 .comment      00000029  00000000  00000000  00006000  2**0
                  CONTENTS, READONLY
SYMBOL TABLE:
c0000000 l    d  .text	00000000 .text
c0004000 l    d  .eh_frame	00000000 .eh_frame
c0004760 l    d  .data	00000000 .data
c0005000 l    d  .bss	00000000 .bss
00000000 l    d  .comment	00000000 .comment
00000000 l    df *ABS*	00000000 assembly/start.asm
c0000002 l       .text	00000000 not_used_space
c000000c l       .text	00000000 entry
c0000013 l       .text	00000000 setup_and_enable_paging
c0000035 l       .text	00000000 Map_I_PAGE_TAB
c0000056 l       .text	00000000 Map_K_PAGE_TAB
c000008c l       .text	00000000 paging_enabled
00000000 l    df *ABS*	00000000 assembly/exception_top.asm
c000011d l       .text	00000000 COMMON_EXC
00000000 l    df *ABS*	00000000 assembly/interrupt_top.asm
c0000197 l       .text	00000000 COMMON_ISR
00000000 l    df *ABS*	00000000 clock.c
c00001be l     F .text	0000001e outport08
00000000 l    df *ABS*	00000000 console.c
c0015004 l     O .bss	00000018 vir_cons
00000000 l    df *ABS*	00000000 exception_handler.c
c000046b l     F .text	0000016e dump_registers
00000000 l    df *ABS*	00000000 interrupt_controller.c
c00007d8 l     F .text	0000001d inport08
c00007f5 l     F .text	0000001e outport08
c0015020 l     O .bss	00000004 code.1172
c0015024 l     O .bss	00000004 val.1173
00000000 l    df *ABS*	00000000 interrupt_handler.c
c0000f8e l     F .text	0000001d inport08
c0000fab l     F .text	0000001e outport08
c0015440 l     O .bss	00000001 mask.1129
c0015441 l     O .bss	00000001 mask.1133
00000000 l    df *ABS*	00000000 main.c
00000000 l    df *ABS*	00000000 mem.c
c0001457 l     F .text	00000021 k_update_segment_regs
c0001461 l       .text	00000000 update_sel
00000000 l    df *ABS*	00000000 paging.c
c00016f4 l     F .text	00000009 invlpg
c00016fd l     F .text	0000000b reload_CR3
00000000 l    df *ABS*	00000000 video.c
c0001ab9 l     F .text	0000001e outport08
c0001ad7 l     F .text	00000024 memset16
00000000 l    df *ABS*	00000000 ctype.c
00000000 l    df *ABS*	00000000 string.c
00000000 l    df *ABS*	00000000 vsnprintf.c
c0001f83 l     F .text	0000005e skip_atoi
c0001fe1 l     F .text	000003a6 number
00000000 l    df *ABS*	00000000 
c0000fc9 g     F .text	000000a6 interrupt_handler_middle
c00017da g     F .text	00000127 map_page
c0000154 g       .text	00000000 irq_01
c000016c g       .text	00000000 irq_07
c00011e3 g     F .text	00000070 register_interrupt_handler
c001501c g     O .bss	00000004 spurious_interrupt_show
c0027c88 g     O .bss	00000004 VIRTUAL_KERNEL_END
c0001afb g     F .text	00000086 video_move_cursor
c0001cfc g     F .text	00000058 video_place_char
c0015460 g     O .bss	00000006 idt_ptr
c00000c0 g       .text	00000000 exc_00
c00000fe g       .text	00000000 exc_0B
c0000004 g       .text	00000000 var_system_memory_amount
c00002fb g     F .text	00000033 initialize_boot_console
c0000184 g       .text	00000000 irq_0D
c0000a15 g     F .text	00000579 initialize_IDT
c00001dc g     F .text	0000004e stop_clock
c0001d54 g     F .text	000001a1 video_put_char
c0000000 g       .text	00000000 KERNEL_TEXT
c00000d2 g       .text	00000000 exc_03
c0004760 g     O .data	00000004 free_frames
c0028000 g       .bss	00000000 KERNEL_END_CODE
c00015f5 g     F .text	000000ff initialize_GDT
c00008e3 g     F .text	00000071 set_IDT_gate
c0000273 g     F .text	00000026 clock_handler
c0015c80 g     O .bss	00010000 gdt
c0002387 g     F .text	000005cf vsnprintf
c0000299 g     F .text	00000062 initialize_clock
c00000ea g       .text	00000000 exc_07
c00000d8 g       .text	00000000 exc_04
c0000160 g       .text	00000000 irq_04
c0000813 g     F .text	000000d0 reprogram_PIC_8259
c0001a36 g     F .text	00000083 dump_free_frames
c000178e g     F .text	0000004c init_free_frames
c0000150 g       .text	00000000 irq_00
c0001f41 g     F .text	00000042 strnlen
c0000168 g       .text	00000000 irq_06
c0004766 g     O .data	00000002 crt_height
00010000 g       *ABS*	00000000 KERNEL_STACK_SIZE
c000017c g       .text	00000000 irq_0B
c0000954 g     F .text	00000027 spurious_interrupt
c0001b99 g     F .text	00000085 video_clrscr
c0000190 g       .text	00000000 irq_unhandled
c0025c80 g     O .bss	00002000 gdt_busy_entry
c000106f g     F .text	000000b8 disable_IRQ
c00000fa g       .text	00000000 exc_0A
c0000170 g       .text	00000000 irq_08
c0000000 g       .text	00000000 _start
c000128e g     F .text	00000129 k_main
c000015c g       .text	00000000 irq_03
c0001957 g     F .text	000000df dump_dirty_pages
c000035b g     F .text	00000049 kplacechar
c000097b g     F .text	0000009a fake_keyboard
c00000f4 g       .text	00000000 exc_09
c0000106 g       .text	00000000 exc_0D
c0004780 g     O .data	00000100 _ctype
c0000448 g     F .text	00000023 get_console_addr
00001000 g       *ABS*	00000000 PAGE_SIZE
c0000008 g       .text	00000000 stage2_return_address
c0000164 g       .text	00000000 irq_05
c0001755 g     F .text	00000039 push_frame
c0015444 g     O .bss	00000004 pf_panic
c0028000 g       .bss	00000000 KERNEL_END_BSS
c0015000 g       .bss	00000000 _stack_end
c0027c80 g     O .bss	00000006 gdt_ptr
c00003a4 g     F .text	00000022 kset_color
c0004764 g     O .data	00000002 crt_width
c00013b7 g     F .text	00000050 print_ok
c0001b81 g     F .text	00000018 video_set_color
c0015480 g     O .bss	00000800 idt
c0001554 g     F .text	000000a1 remove_GDT_entry
c000022a g     F .text	00000049 delay
c0004760 g       .data	00000000 KERNEL_DATA
c0001407 g     F .text	00000050 print_failed
c00000c6 g       .text	00000000 exc_01
c0000102 g       .text	00000000 exc_0C
c0015000 g     O .bss	00000004 ticks
c0015040 g     O .bss	00000400 interrupt_handlers
c0001127 g     F .text	000000bc enable_IRQ
c0000180 g       .text	00000000 irq_0C
c0000178 g       .text	00000000 irq_0A
c0015000 g       .bss	00000000 KERNEL_END_STACK
c0000188 g       .text	00000000 irq_0E
c000010e g       .text	00000000 exc_0F
00100000 g       *ABS*	00000000 PHYSICAL_KERNEL_START
c00000cc g       .text	00000000 exc_02
c0001ef5 g     F .text	00000017 initialize_video
c00003c6 g     F .text	00000082 kprintf
c00005d9 g     F .text	000001ff exception_handler_middle
c0001901 g     F .text	00000056 initialize_paging
c0004000 g       .text	00000000 KERNEL_END_TEXT
c0000114 g       .text	00000000 exc_unhandled
c000032e g     F .text	0000002d kputchar
c0001253 g     F .text	0000003b unregister_interrupt_handler
c0000174 g       .text	00000000 irq_09
c0000158 g       .text	00000000 irq_02
c00000e4 g       .text	00000000 exc_06
c0001478 g     F .text	000000dc setup_GDT_entry
c000018c g       .text	00000000 irq_0F
c0001f0c g     F .text	00000035 strlen
c00000f0 g       .text	00000000 exc_08
c00000de g       .text	00000000 exc_05
c0005000 g       .bss	00000000 _stack
c0000000 g       *ABS*	00000000 VIRTUAL_KERNEL_START
c0001708 g     F .text	0000004d pop_frame
c0001c1e g     F .text	000000de video_scroll_console
c000010a g       .text	00000000 exc_0E
c0015000 g       .bss	00000000 KERNEL_BSS
c0005000 g       .data	00000000 KERNEL_END_DATA



Disassembly of section .text:

c0000000 <KERNEL_TEXT>:
KERNEL_TEXT():
c0000000:	eb 0a                	jmp    c000000c <entry>

c0000002 <not_used_space>:
	...

c0000004 <var_system_memory_amount>:
var_system_memory_amount():
c0000004:	00 00                	add    %al,(%eax)
	...

c0000008 <stage2_return_address>:
stage2_return_address():
c0000008:	00 00                	add    %al,(%eax)
	...

c000000c <entry>:
entry():
c000000c:	66 ba f2 03          	mov    $0x3f2,%dx
c0000010:	b0 0c                	mov    $0xc,%al
c0000012:	ee                   	out    %al,(%dx)

c0000013 <setup_and_enable_paging>:
setup_and_enable_paging():
c0000013:	bf 00 10 00 00       	mov    $0x1000,%edi
c0000018:	b8 00 00 00 00       	mov    $0x0,%eax
c000001d:	b9 00 10 00 00       	mov    $0x1000,%ecx
c0000022:	fc                   	cld    
c0000023:	f3 aa                	rep stos %al,%es:(%edi)
c0000025:	b8 03 00 00 00       	mov    $0x3,%eax
c000002a:	b9 00 04 00 00       	mov    $0x400,%ecx
c000002f:	bf 00 30 00 00       	mov    $0x3000,%edi
c0000034:	fc                   	cld    

c0000035 <Map_I_PAGE_TAB>:
Map_I_PAGE_TAB():
c0000035:	ab                   	stos   %eax,%es:(%edi)
c0000036:	05 00 10 00 00       	add    $0x1000,%eax
c000003b:	e2 f8                	loop   c0000035 <Map_I_PAGE_TAB>
c000003d:	c7 05 00 10 00 00 07 	movl   $0x3007,0x1000
c0000044:	30 00 00 
c0000047:	b8 03 00 10 00       	mov    $0x100003,%eax
c000004c:	b9 00 04 00 00       	mov    $0x400,%ecx
c0000051:	bf 00 20 00 00       	mov    $0x2000,%edi

c0000056 <Map_K_PAGE_TAB>:
Map_K_PAGE_TAB():
c0000056:	ab                   	stos   %eax,%es:(%edi)
c0000057:	05 00 10 00 00       	add    $0x1000,%eax
c000005c:	e2 f8                	loop   c0000056 <Map_K_PAGE_TAB>
c000005e:	c7 05 00 1c 00 00 07 	movl   $0x2007,0x1c00
c0000065:	20 00 00 
c0000068:	c7 05 fc 1f 00 00 07 	movl   $0x1007,0x1ffc
c000006f:	10 00 00 
c0000072:	b8 00 10 00 00       	mov    $0x1000,%eax
c0000077:	0f 22 d8             	mov    %eax,%cr3
c000007a:	0f 20 c0             	mov    %cr0,%eax
c000007d:	0d 00 00 01 80       	or     $0x80010000,%eax
c0000082:	0f 22 c0             	mov    %eax,%cr0
c0000085:	ea 8c 00 00 c0 08 00 	ljmp   $0x8,$0xc000008c

c000008c <paging_enabled>:
paging_enabled():
c000008c:	b8 10 00 00 00       	mov    $0x10,%eax
c0000091:	8e d8                	mov    %eax,%ds
c0000093:	8e c0                	mov    %eax,%es
c0000095:	8e d0                	mov    %eax,%ss
c0000097:	90                   	nop
c0000098:	8e e0                	mov    %eax,%fs
c000009a:	8e e8                	mov    %eax,%gs
c000009c:	8f 05 08 00 00 c0    	popl   0xc0000008
c00000a2:	8f 05 04 00 00 c0    	popl   0xc0000004
c00000a8:	bc 00 50 01 c0       	mov    $0xc0015000,%esp
c00000ad:	e9 dc 11 00 00       	jmp    c000128e <k_main>
c00000b2:	66 90                	xchg   %ax,%ax
c00000b4:	66 90                	xchg   %ax,%ax
c00000b6:	66 90                	xchg   %ax,%ax
c00000b8:	66 90                	xchg   %ax,%ax
c00000ba:	66 90                	xchg   %ax,%ax
c00000bc:	66 90                	xchg   %ax,%ax
c00000be:	66 90                	xchg   %ax,%ax

c00000c0 <exc_00>:
exc_00():
c00000c0:	6a 00                	push   $0x0
c00000c2:	6a 00                	push   $0x0
c00000c4:	eb 57                	jmp    c000011d <COMMON_EXC>

c00000c6 <exc_01>:
exc_01():
c00000c6:	6a 00                	push   $0x0
c00000c8:	6a 01                	push   $0x1
c00000ca:	eb 51                	jmp    c000011d <COMMON_EXC>

c00000cc <exc_02>:
exc_02():
c00000cc:	6a 00                	push   $0x0
c00000ce:	6a 02                	push   $0x2
c00000d0:	eb 4b                	jmp    c000011d <COMMON_EXC>

c00000d2 <exc_03>:
exc_03():
c00000d2:	6a 00                	push   $0x0
c00000d4:	6a 03                	push   $0x3
c00000d6:	eb 45                	jmp    c000011d <COMMON_EXC>

c00000d8 <exc_04>:
exc_04():
c00000d8:	6a 00                	push   $0x0
c00000da:	6a 04                	push   $0x4
c00000dc:	eb 3f                	jmp    c000011d <COMMON_EXC>

c00000de <exc_05>:
exc_05():
c00000de:	6a 00                	push   $0x0
c00000e0:	6a 05                	push   $0x5
c00000e2:	eb 39                	jmp    c000011d <COMMON_EXC>

c00000e4 <exc_06>:
exc_06():
c00000e4:	6a 00                	push   $0x0
c00000e6:	6a 06                	push   $0x6
c00000e8:	eb 33                	jmp    c000011d <COMMON_EXC>

c00000ea <exc_07>:
exc_07():
c00000ea:	6a 00                	push   $0x0
c00000ec:	6a 07                	push   $0x7
c00000ee:	eb 2d                	jmp    c000011d <COMMON_EXC>

c00000f0 <exc_08>:
exc_08():
c00000f0:	6a 08                	push   $0x8
c00000f2:	eb 29                	jmp    c000011d <COMMON_EXC>

c00000f4 <exc_09>:
exc_09():
c00000f4:	6a 00                	push   $0x0
c00000f6:	6a 09                	push   $0x9
c00000f8:	eb 23                	jmp    c000011d <COMMON_EXC>

c00000fa <exc_0A>:
exc_0A():
c00000fa:	6a 0a                	push   $0xa
c00000fc:	eb 1f                	jmp    c000011d <COMMON_EXC>

c00000fe <exc_0B>:
exc_0B():
c00000fe:	6a 0b                	push   $0xb
c0000100:	eb 1b                	jmp    c000011d <COMMON_EXC>

c0000102 <exc_0C>:
exc_0C():
c0000102:	6a 0c                	push   $0xc
c0000104:	eb 17                	jmp    c000011d <COMMON_EXC>

c0000106 <exc_0D>:
exc_0D():
c0000106:	6a 0d                	push   $0xd
c0000108:	eb 13                	jmp    c000011d <COMMON_EXC>

c000010a <exc_0E>:
exc_0E():
c000010a:	6a 0e                	push   $0xe
c000010c:	eb 0f                	jmp    c000011d <COMMON_EXC>

c000010e <exc_0F>:
exc_0F():
c000010e:	6a 00                	push   $0x0
c0000110:	6a 0f                	push   $0xf
c0000112:	eb 09                	jmp    c000011d <COMMON_EXC>

c0000114 <exc_unhandled>:
exc_unhandled():
c0000114:	6a 00                	push   $0x0
c0000116:	68 ff 00 00 00       	push   $0xff
c000011b:	eb 00                	jmp    c000011d <COMMON_EXC>

c000011d <COMMON_EXC>:
COMMON_EXC():
c000011d:	0f a8                	push   %gs
c000011f:	0f a0                	push   %fs
c0000121:	1e                   	push   %ds
c0000122:	06                   	push   %es
c0000123:	60                   	pusha  
c0000124:	b8 10 00 00 00       	mov    $0x10,%eax
c0000129:	8e d8                	mov    %eax,%ds
c000012b:	8e c0                	mov    %eax,%es
c000012d:	8e e0                	mov    %eax,%fs
c000012f:	8e e8                	mov    %eax,%gs
c0000131:	54                   	push   %esp
c0000132:	e8 a2 04 00 00       	call   c00005d9 <exception_handler_middle>
c0000137:	5c                   	pop    %esp
c0000138:	61                   	popa   
c0000139:	07                   	pop    %es
c000013a:	1f                   	pop    %ds
c000013b:	0f a1                	pop    %fs
c000013d:	0f a9                	pop    %gs
c000013f:	83 c4 08             	add    $0x8,%esp
c0000142:	cf                   	iret   
c0000143:	66 90                	xchg   %ax,%ax
c0000145:	66 90                	xchg   %ax,%ax
c0000147:	66 90                	xchg   %ax,%ax
c0000149:	66 90                	xchg   %ax,%ax
c000014b:	66 90                	xchg   %ax,%ax
c000014d:	66 90                	xchg   %ax,%ax
c000014f:	90                   	nop

c0000150 <irq_00>:
irq_00():
c0000150:	6a 00                	push   $0x0
c0000152:	eb 43                	jmp    c0000197 <COMMON_ISR>

c0000154 <irq_01>:
irq_01():
c0000154:	6a 01                	push   $0x1
c0000156:	eb 3f                	jmp    c0000197 <COMMON_ISR>

c0000158 <irq_02>:
irq_02():
c0000158:	6a 02                	push   $0x2
c000015a:	eb 3b                	jmp    c0000197 <COMMON_ISR>

c000015c <irq_03>:
irq_03():
c000015c:	6a 03                	push   $0x3
c000015e:	eb 37                	jmp    c0000197 <COMMON_ISR>

c0000160 <irq_04>:
irq_04():
c0000160:	6a 04                	push   $0x4
c0000162:	eb 33                	jmp    c0000197 <COMMON_ISR>

c0000164 <irq_05>:
irq_05():
c0000164:	6a 05                	push   $0x5
c0000166:	eb 2f                	jmp    c0000197 <COMMON_ISR>

c0000168 <irq_06>:
irq_06():
c0000168:	6a 06                	push   $0x6
c000016a:	eb 2b                	jmp    c0000197 <COMMON_ISR>

c000016c <irq_07>:
irq_07():
c000016c:	6a 07                	push   $0x7
c000016e:	eb 27                	jmp    c0000197 <COMMON_ISR>

c0000170 <irq_08>:
irq_08():
c0000170:	6a 08                	push   $0x8
c0000172:	eb 23                	jmp    c0000197 <COMMON_ISR>

c0000174 <irq_09>:
irq_09():
c0000174:	6a 09                	push   $0x9
c0000176:	eb 1f                	jmp    c0000197 <COMMON_ISR>

c0000178 <irq_0A>:
irq_0A():
c0000178:	6a 0a                	push   $0xa
c000017a:	eb 1b                	jmp    c0000197 <COMMON_ISR>

c000017c <irq_0B>:
irq_0B():
c000017c:	6a 0b                	push   $0xb
c000017e:	eb 17                	jmp    c0000197 <COMMON_ISR>

c0000180 <irq_0C>:
irq_0C():
c0000180:	6a 0c                	push   $0xc
c0000182:	eb 13                	jmp    c0000197 <COMMON_ISR>

c0000184 <irq_0D>:
irq_0D():
c0000184:	6a 0d                	push   $0xd
c0000186:	eb 0f                	jmp    c0000197 <COMMON_ISR>

c0000188 <irq_0E>:
irq_0E():
c0000188:	6a 0e                	push   $0xe
c000018a:	eb 0b                	jmp    c0000197 <COMMON_ISR>

c000018c <irq_0F>:
irq_0F():
c000018c:	6a 0f                	push   $0xf
c000018e:	eb 07                	jmp    c0000197 <COMMON_ISR>

c0000190 <irq_unhandled>:
irq_unhandled():
c0000190:	68 ff 00 00 00       	push   $0xff
c0000195:	eb 00                	jmp    c0000197 <COMMON_ISR>

c0000197 <COMMON_ISR>:
COMMON_ISR():
c0000197:	0f a8                	push   %gs
c0000199:	0f a0                	push   %fs
c000019b:	06                   	push   %es
c000019c:	1e                   	push   %ds
c000019d:	60                   	pusha  
c000019e:	bb 10 00 00 00       	mov    $0x10,%ebx
c00001a3:	8e db                	mov    %ebx,%ds
c00001a5:	8e c3                	mov    %ebx,%es
c00001a7:	8e e3                	mov    %ebx,%fs
c00001a9:	8e eb                	mov    %ebx,%gs
c00001ab:	54                   	push   %esp
c00001ac:	e8 18 0e 00 00       	call   c0000fc9 <interrupt_handler_middle>
c00001b1:	5c                   	pop    %esp
c00001b2:	61                   	popa   
c00001b3:	1f                   	pop    %ds
c00001b4:	07                   	pop    %es
c00001b5:	0f a1                	pop    %fs
c00001b7:	0f a9                	pop    %gs
c00001b9:	66 83 c4 04          	add    $0x4,%sp
c00001bd:	cf                   	iret   

c00001be <outport08>:
outport08():
c00001be:	55                   	push   %ebp
c00001bf:	89 e5                	mov    %esp,%ebp
c00001c1:	83 ec 08             	sub    $0x8,%esp
c00001c4:	8b 55 08             	mov    0x8(%ebp),%edx
c00001c7:	8b 45 0c             	mov    0xc(%ebp),%eax
c00001ca:	66 89 55 fc          	mov    %dx,-0x4(%ebp)
c00001ce:	88 45 f8             	mov    %al,-0x8(%ebp)
c00001d1:	0f b7 55 fc          	movzwl -0x4(%ebp),%edx
c00001d5:	0f b6 45 f8          	movzbl -0x8(%ebp),%eax
c00001d9:	ee                   	out    %al,(%dx)
c00001da:	c9                   	leave  
c00001db:	c3                   	ret    

c00001dc <stop_clock>:
stop_clock():
c00001dc:	55                   	push   %ebp
c00001dd:	89 e5                	mov    %esp,%ebp
c00001df:	83 ec 18             	sub    $0x18,%esp
c00001e2:	9c                   	pushf  
c00001e3:	58                   	pop    %eax
c00001e4:	fa                   	cli    
c00001e5:	89 45 fc             	mov    %eax,-0x4(%ebp)
c00001e8:	c7 44 24 04 36 00 00 	movl   $0x36,0x4(%esp)
c00001ef:	00 
c00001f0:	c7 04 24 43 00 00 00 	movl   $0x43,(%esp)
c00001f7:	e8 c2 ff ff ff       	call   c00001be <outport08>
c00001fc:	c7 44 24 04 00 00 00 	movl   $0x0,0x4(%esp)
c0000203:	00 
c0000204:	c7 04 24 40 00 00 00 	movl   $0x40,(%esp)
c000020b:	e8 ae ff ff ff       	call   c00001be <outport08>
c0000210:	c7 44 24 04 00 00 00 	movl   $0x0,0x4(%esp)
c0000217:	00 
c0000218:	c7 04 24 40 00 00 00 	movl   $0x40,(%esp)
c000021f:	e8 9a ff ff ff       	call   c00001be <outport08>
c0000224:	ff 75 fc             	pushl  -0x4(%ebp)
c0000227:	9d                   	popf   
c0000228:	c9                   	leave  
c0000229:	c3                   	ret    

c000022a <delay>:
delay():
c000022a:	55                   	push   %ebp
c000022b:	89 e5                	mov    %esp,%ebp
c000022d:	83 ec 10             	sub    $0x10,%esp
c0000230:	9c                   	pushf  
c0000231:	58                   	pop    %eax
c0000232:	89 45 f8             	mov    %eax,-0x8(%ebp)
c0000235:	c7 45 fc 00 00 00 00 	movl   $0x0,-0x4(%ebp)
c000023c:	eb 27                	jmp    c0000265 <delay+0x3b>
c000023e:	a1 00 50 01 c0       	mov    0xc0015000,%eax
c0000243:	89 45 f4             	mov    %eax,-0xc(%ebp)
c0000246:	fb                   	sti    
c0000247:	f4                   	hlt    
c0000248:	a1 00 50 01 c0       	mov    0xc0015000,%eax
c000024d:	2b 45 f4             	sub    -0xc(%ebp),%eax
c0000250:	69 c0 e8 03 00 00    	imul   $0x3e8,%eax,%eax
c0000256:	ba 1f 85 eb 51       	mov    $0x51eb851f,%edx
c000025b:	f7 e2                	mul    %edx
c000025d:	89 d0                	mov    %edx,%eax
c000025f:	c1 e8 06             	shr    $0x6,%eax
c0000262:	01 45 fc             	add    %eax,-0x4(%ebp)
c0000265:	8b 45 fc             	mov    -0x4(%ebp),%eax
c0000268:	3b 45 08             	cmp    0x8(%ebp),%eax
c000026b:	72 d1                	jb     c000023e <delay+0x14>
c000026d:	ff 75 f8             	pushl  -0x8(%ebp)
c0000270:	9d                   	popf   
c0000271:	c9                   	leave  
c0000272:	c3                   	ret    

c0000273 <clock_handler>:
clock_handler():
c0000273:	55                   	push   %ebp
c0000274:	89 e5                	mov    %esp,%ebp
c0000276:	83 ec 18             	sub    $0x18,%esp
c0000279:	a1 00 50 01 c0       	mov    0xc0015000,%eax
c000027e:	83 c0 01             	add    $0x1,%eax
c0000281:	a3 00 50 01 c0       	mov    %eax,0xc0015000
c0000286:	8b 45 08             	mov    0x8(%ebp),%eax
c0000289:	8b 40 30             	mov    0x30(%eax),%eax
c000028c:	0f b6 c0             	movzbl %al,%eax
c000028f:	89 04 24             	mov    %eax,(%esp)
c0000292:	e8 90 0e 00 00       	call   c0001127 <enable_IRQ>
c0000297:	c9                   	leave  
c0000298:	c3                   	ret    

c0000299 <initialize_clock>:
initialize_clock():
c0000299:	55                   	push   %ebp
c000029a:	89 e5                	mov    %esp,%ebp
c000029c:	83 ec 28             	sub    $0x28,%esp
c000029f:	9c                   	pushf  
c00002a0:	58                   	pop    %eax
c00002a1:	fa                   	cli    
c00002a2:	89 45 f4             	mov    %eax,-0xc(%ebp)
c00002a5:	c7 44 24 04 36 00 00 	movl   $0x36,0x4(%esp)
c00002ac:	00 
c00002ad:	c7 04 24 43 00 00 00 	movl   $0x43,(%esp)
c00002b4:	e8 05 ff ff ff       	call   c00001be <outport08>
c00002b9:	c7 44 24 04 4d 00 00 	movl   $0x4d,0x4(%esp)
c00002c0:	00 
c00002c1:	c7 04 24 40 00 00 00 	movl   $0x40,(%esp)
c00002c8:	e8 f1 fe ff ff       	call   c00001be <outport08>
c00002cd:	c7 44 24 04 17 00 00 	movl   $0x17,0x4(%esp)
c00002d4:	00 
c00002d5:	c7 04 24 40 00 00 00 	movl   $0x40,(%esp)
c00002dc:	e8 dd fe ff ff       	call   c00001be <outport08>
c00002e1:	c7 44 24 04 73 02 00 	movl   $0xc0000273,0x4(%esp)
c00002e8:	c0 
c00002e9:	c7 04 24 00 00 00 00 	movl   $0x0,(%esp)
c00002f0:	e8 ee 0e 00 00       	call   c00011e3 <register_interrupt_handler>
c00002f5:	ff 75 f4             	pushl  -0xc(%ebp)
c00002f8:	9d                   	popf   
c00002f9:	c9                   	leave  
c00002fa:	c3                   	ret    

c00002fb <initialize_boot_console>:
initialize_boot_console():
c00002fb:	55                   	push   %ebp
c00002fc:	89 e5                	mov    %esp,%ebp
c00002fe:	83 ec 18             	sub    $0x18,%esp
c0000301:	c7 05 04 50 01 c0 00 	movl   $0xe00b8000,0xc0015004
c0000308:	80 0b e0 
c000030b:	c6 05 08 50 01 c0 00 	movb   $0x0,0xc0015008
c0000312:	c6 05 09 50 01 c0 00 	movb   $0x0,0xc0015009
c0000319:	c6 05 0a 50 01 c0 07 	movb   $0x7,0xc001500a
c0000320:	c7 04 24 04 50 01 c0 	movl   $0xc0015004,(%esp)
c0000327:	e8 6d 18 00 00       	call   c0001b99 <video_clrscr>
c000032c:	c9                   	leave  
c000032d:	c3                   	ret    

c000032e <kputchar>:
kputchar():
c000032e:	55                   	push   %ebp
c000032f:	89 e5                	mov    %esp,%ebp
c0000331:	83 ec 28             	sub    $0x28,%esp
c0000334:	9c                   	pushf  
c0000335:	58                   	pop    %eax
c0000336:	fa                   	cli    
c0000337:	89 45 f4             	mov    %eax,-0xc(%ebp)
c000033a:	8b 45 08             	mov    0x8(%ebp),%eax
c000033d:	0f b6 c0             	movzbl %al,%eax
c0000340:	c7 44 24 04 04 50 01 	movl   $0xc0015004,0x4(%esp)
c0000347:	c0 
c0000348:	89 04 24             	mov    %eax,(%esp)
c000034b:	e8 04 1a 00 00       	call   c0001d54 <video_put_char>
c0000350:	ff 75 f4             	pushl  -0xc(%ebp)
c0000353:	9d                   	popf   
c0000354:	b8 00 00 00 00       	mov    $0x0,%eax
c0000359:	c9                   	leave  
c000035a:	c3                   	ret    

c000035b <kplacechar>:
kplacechar():
c000035b:	55                   	push   %ebp
c000035c:	89 e5                	mov    %esp,%ebp
c000035e:	83 ec 38             	sub    $0x38,%esp
c0000361:	8b 55 08             	mov    0x8(%ebp),%edx
c0000364:	8b 45 0c             	mov    0xc(%ebp),%eax
c0000367:	88 55 e4             	mov    %dl,-0x1c(%ebp)
c000036a:	88 45 e0             	mov    %al,-0x20(%ebp)
c000036d:	9c                   	pushf  
c000036e:	58                   	pop    %eax
c000036f:	fa                   	cli    
c0000370:	89 45 f4             	mov    %eax,-0xc(%ebp)
c0000373:	8b 45 10             	mov    0x10(%ebp),%eax
c0000376:	0f b6 c8             	movzbl %al,%ecx
c0000379:	0f b6 55 e0          	movzbl -0x20(%ebp),%edx
c000037d:	0f b6 45 e4          	movzbl -0x1c(%ebp),%eax
c0000381:	c7 44 24 0c 04 50 01 	movl   $0xc0015004,0xc(%esp)
c0000388:	c0 
c0000389:	89 4c 24 08          	mov    %ecx,0x8(%esp)
c000038d:	89 54 24 04          	mov    %edx,0x4(%esp)
c0000391:	89 04 24             	mov    %eax,(%esp)
c0000394:	e8 63 19 00 00       	call   c0001cfc <video_place_char>
c0000399:	ff 75 f4             	pushl  -0xc(%ebp)
c000039c:	9d                   	popf   
c000039d:	b8 00 00 00 00       	mov    $0x0,%eax
c00003a2:	c9                   	leave  
c00003a3:	c3                   	ret    

c00003a4 <kset_color>:
kset_color():
c00003a4:	55                   	push   %ebp
c00003a5:	89 e5                	mov    %esp,%ebp
c00003a7:	83 ec 18             	sub    $0x18,%esp
c00003aa:	8b 45 08             	mov    0x8(%ebp),%eax
c00003ad:	88 45 f4             	mov    %al,-0xc(%ebp)
c00003b0:	0f b6 45 f4          	movzbl -0xc(%ebp),%eax
c00003b4:	89 44 24 04          	mov    %eax,0x4(%esp)
c00003b8:	c7 04 24 04 50 01 c0 	movl   $0xc0015004,(%esp)
c00003bf:	e8 bd 17 00 00       	call   c0001b81 <video_set_color>
c00003c4:	c9                   	leave  
c00003c5:	c3                   	ret    

c00003c6 <kprintf>:
kprintf():
c00003c6:	55                   	push   %ebp
c00003c7:	89 e5                	mov    %esp,%ebp
c00003c9:	81 ec 28 04 00 00    	sub    $0x428,%esp
c00003cf:	8d 45 0c             	lea    0xc(%ebp),%eax
c00003d2:	89 45 f0             	mov    %eax,-0x10(%ebp)
c00003d5:	8b 45 08             	mov    0x8(%ebp),%eax
c00003d8:	8b 55 f0             	mov    -0x10(%ebp),%edx
c00003db:	89 54 24 0c          	mov    %edx,0xc(%esp)
c00003df:	89 44 24 08          	mov    %eax,0x8(%esp)
c00003e3:	c7 44 24 04 00 04 00 	movl   $0x400,0x4(%esp)
c00003ea:	00 
c00003eb:	8d 85 f0 fb ff ff    	lea    -0x410(%ebp),%eax
c00003f1:	89 04 24             	mov    %eax,(%esp)
c00003f4:	e8 8e 1f 00 00       	call   c0002387 <vsnprintf>
c00003f9:	c7 45 f0 00 00 00 00 	movl   $0x0,-0x10(%ebp)
c0000400:	c7 45 f4 00 00 00 00 	movl   $0x0,-0xc(%ebp)
c0000407:	eb 31                	jmp    c000043a <kprintf+0x74>
c0000409:	8d 95 f0 fb ff ff    	lea    -0x410(%ebp),%edx
c000040f:	8b 45 f4             	mov    -0xc(%ebp),%eax
c0000412:	01 d0                	add    %edx,%eax
c0000414:	0f b6 00             	movzbl (%eax),%eax
c0000417:	84 c0                	test   %al,%al
c0000419:	75 02                	jne    c000041d <kprintf+0x57>
c000041b:	eb 26                	jmp    c0000443 <kprintf+0x7d>
c000041d:	8d 95 f0 fb ff ff    	lea    -0x410(%ebp),%edx
c0000423:	8b 45 f4             	mov    -0xc(%ebp),%eax
c0000426:	01 d0                	add    %edx,%eax
c0000428:	0f b6 00             	movzbl (%eax),%eax
c000042b:	0f be c0             	movsbl %al,%eax
c000042e:	89 04 24             	mov    %eax,(%esp)
c0000431:	e8 f8 fe ff ff       	call   c000032e <kputchar>
c0000436:	83 45 f4 01          	addl   $0x1,-0xc(%ebp)
c000043a:	81 7d f4 ff 03 00 00 	cmpl   $0x3ff,-0xc(%ebp)
c0000441:	76 c6                	jbe    c0000409 <kprintf+0x43>
c0000443:	8b 45 f4             	mov    -0xc(%ebp),%eax
c0000446:	c9                   	leave  
c0000447:	c3                   	ret    

c0000448 <get_console_addr>:
get_console_addr():
c0000448:	55                   	push   %ebp
c0000449:	89 e5                	mov    %esp,%ebp
c000044b:	83 7d 08 00          	cmpl   $0x0,0x8(%ebp)
c000044f:	78 13                	js     c0000464 <get_console_addr+0x1c>
c0000451:	83 7d 08 02          	cmpl   $0x2,0x8(%ebp)
c0000455:	7f 0d                	jg     c0000464 <get_console_addr+0x1c>
c0000457:	8b 45 08             	mov    0x8(%ebp),%eax
c000045a:	c1 e0 03             	shl    $0x3,%eax
c000045d:	05 04 50 01 c0       	add    $0xc0015004,%eax
c0000462:	eb 05                	jmp    c0000469 <get_console_addr+0x21>
c0000464:	b8 00 00 00 00       	mov    $0x0,%eax
c0000469:	5d                   	pop    %ebp
c000046a:	c3                   	ret    

c000046b <dump_registers>:
dump_registers():
c000046b:	55                   	push   %ebp
c000046c:	89 e5                	mov    %esp,%ebp
c000046e:	83 ec 48             	sub    $0x48,%esp
c0000471:	c7 44 24 0c 58 29 00 	movl   $0xc0002958,0xc(%esp)
c0000478:	c0 
c0000479:	c7 44 24 08 76 29 00 	movl   $0xc0002976,0x8(%esp)
c0000480:	c0 
c0000481:	c7 44 24 04 34 00 00 	movl   $0x34,0x4(%esp)
c0000488:	00 
c0000489:	c7 04 24 94 29 00 c0 	movl   $0xc0002994,(%esp)
c0000490:	e8 31 ff ff ff       	call   c00003c6 <kprintf>
c0000495:	66 8c d0             	mov    %ss,%ax
c0000498:	66 89 45 f6          	mov    %ax,-0xa(%ebp)
c000049c:	8c 65 e2             	mov    %fs,-0x1e(%ebp)
c000049f:	8c 6d e0             	mov    %gs,-0x20(%ebp)
c00004a2:	0f 20 c0             	mov    %cr0,%eax
c00004a5:	89 45 f0             	mov    %eax,-0x10(%ebp)
c00004a8:	0f 20 d0             	mov    %cr2,%eax
c00004ab:	89 45 ec             	mov    %eax,-0x14(%ebp)
c00004ae:	0f 20 d8             	mov    %cr3,%eax
c00004b1:	89 45 e8             	mov    %eax,-0x18(%ebp)
c00004b4:	0f 20 d0             	mov    %cr2,%eax
c00004b7:	89 45 e4             	mov    %eax,-0x1c(%ebp)
c00004ba:	8b 45 08             	mov    0x8(%ebp),%eax
c00004bd:	8b 40 20             	mov    0x20(%eax),%eax
c00004c0:	0f b7 d0             	movzwl %ax,%edx
c00004c3:	8b 45 08             	mov    0x8(%ebp),%eax
c00004c6:	8b 40 1c             	mov    0x1c(%eax),%eax
c00004c9:	8b 4d 08             	mov    0x8(%ebp),%ecx
c00004cc:	89 4c 24 10          	mov    %ecx,0x10(%esp)
c00004d0:	8b 4d f0             	mov    -0x10(%ebp),%ecx
c00004d3:	89 4c 24 0c          	mov    %ecx,0xc(%esp)
c00004d7:	89 54 24 08          	mov    %edx,0x8(%esp)
c00004db:	89 44 24 04          	mov    %eax,0x4(%esp)
c00004df:	c7 04 24 d4 29 00 c0 	movl   $0xc00029d4,(%esp)
c00004e6:	e8 db fe ff ff       	call   c00003c6 <kprintf>
c00004eb:	8b 45 08             	mov    0x8(%ebp),%eax
c00004ee:	8b 48 08             	mov    0x8(%eax),%ecx
c00004f1:	8b 45 08             	mov    0x8(%ebp),%eax
c00004f4:	8b 40 24             	mov    0x24(%eax),%eax
c00004f7:	0f b7 d0             	movzwl %ax,%edx
c00004fa:	8b 45 08             	mov    0x8(%ebp),%eax
c00004fd:	8b 40 10             	mov    0x10(%eax),%eax
c0000500:	89 4c 24 10          	mov    %ecx,0x10(%esp)
c0000504:	8b 4d ec             	mov    -0x14(%ebp),%ecx
c0000507:	89 4c 24 0c          	mov    %ecx,0xc(%esp)
c000050b:	89 54 24 08          	mov    %edx,0x8(%esp)
c000050f:	89 44 24 04          	mov    %eax,0x4(%esp)
c0000513:	c7 04 24 10 2a 00 c0 	movl   $0xc0002a10,(%esp)
c000051a:	e8 a7 fe ff ff       	call   c00003c6 <kprintf>
c000051f:	8b 45 08             	mov    0x8(%ebp),%eax
c0000522:	8b 48 38             	mov    0x38(%eax),%ecx
c0000525:	0f b7 45 e2          	movzwl -0x1e(%ebp),%eax
c0000529:	0f b7 d0             	movzwl %ax,%edx
c000052c:	8b 45 08             	mov    0x8(%ebp),%eax
c000052f:	8b 40 18             	mov    0x18(%eax),%eax
c0000532:	89 4c 24 10          	mov    %ecx,0x10(%esp)
c0000536:	8b 4d e8             	mov    -0x18(%ebp),%ecx
c0000539:	89 4c 24 0c          	mov    %ecx,0xc(%esp)
c000053d:	89 54 24 08          	mov    %edx,0x8(%esp)
c0000541:	89 44 24 04          	mov    %eax,0x4(%esp)
c0000545:	c7 04 24 4c 2a 00 c0 	movl   $0xc0002a4c,(%esp)
c000054c:	e8 75 fe ff ff       	call   c00003c6 <kprintf>
c0000551:	8b 45 08             	mov    0x8(%ebp),%eax
c0000554:	8b 48 40             	mov    0x40(%eax),%ecx
c0000557:	0f b7 45 e0          	movzwl -0x20(%ebp),%eax
c000055b:	0f b7 d0             	movzwl %ax,%edx
c000055e:	8b 45 08             	mov    0x8(%ebp),%eax
c0000561:	8b 40 14             	mov    0x14(%eax),%eax
c0000564:	89 4c 24 10          	mov    %ecx,0x10(%esp)
c0000568:	8b 4d e4             	mov    -0x1c(%ebp),%ecx
c000056b:	89 4c 24 0c          	mov    %ecx,0xc(%esp)
c000056f:	89 54 24 08          	mov    %edx,0x8(%esp)
c0000573:	89 44 24 04          	mov    %eax,0x4(%esp)
c0000577:	c7 04 24 88 2a 00 c0 	movl   $0xc0002a88,(%esp)
c000057e:	e8 43 fe ff ff       	call   c00003c6 <kprintf>
c0000583:	8b 45 08             	mov    0x8(%ebp),%eax
c0000586:	8b 48 30             	mov    0x30(%eax),%ecx
c0000589:	0f b7 55 f6          	movzwl -0xa(%ebp),%edx
c000058d:	8b 45 08             	mov    0x8(%ebp),%eax
c0000590:	8b 40 04             	mov    0x4(%eax),%eax
c0000593:	89 4c 24 0c          	mov    %ecx,0xc(%esp)
c0000597:	89 54 24 08          	mov    %edx,0x8(%esp)
c000059b:	89 44 24 04          	mov    %eax,0x4(%esp)
c000059f:	c7 04 24 c4 2a 00 c0 	movl   $0xc0002ac4,(%esp)
c00005a6:	e8 1b fe ff ff       	call   c00003c6 <kprintf>
c00005ab:	8b 45 08             	mov    0x8(%ebp),%eax
c00005ae:	8b 48 34             	mov    0x34(%eax),%ecx
c00005b1:	8b 45 08             	mov    0x8(%ebp),%eax
c00005b4:	8b 40 3c             	mov    0x3c(%eax),%eax
c00005b7:	0f b7 d0             	movzwl %ax,%edx
c00005ba:	8b 45 08             	mov    0x8(%ebp),%eax
c00005bd:	8b 00                	mov    (%eax),%eax
c00005bf:	89 4c 24 0c          	mov    %ecx,0xc(%esp)
c00005c3:	89 54 24 08          	mov    %edx,0x8(%esp)
c00005c7:	89 44 24 04          	mov    %eax,0x4(%esp)
c00005cb:	c7 04 24 f0 2a 00 c0 	movl   $0xc0002af0,(%esp)
c00005d2:	e8 ef fd ff ff       	call   c00003c6 <kprintf>
c00005d7:	c9                   	leave  
c00005d8:	c3                   	ret    

c00005d9 <exception_handler_middle>:
exception_handler_middle():
c00005d9:	55                   	push   %ebp
c00005da:	89 e5                	mov    %esp,%ebp
c00005dc:	83 ec 28             	sub    $0x28,%esp
c00005df:	8b 45 08             	mov    0x8(%ebp),%eax
c00005e2:	8b 40 30             	mov    0x30(%eax),%eax
c00005e5:	83 f8 0f             	cmp    $0xf,%eax
c00005e8:	0f 87 9f 01 00 00    	ja     c000078d <exception_handler_middle+0x1b4>
c00005ee:	8b 04 85 e8 2e 00 c0 	mov    -0x3fffd118(,%eax,4),%eax
c00005f5:	ff e0                	jmp    *%eax
c00005f7:	c7 04 24 1c 2b 00 c0 	movl   $0xc0002b1c,(%esp)
c00005fe:	e8 c3 fd ff ff       	call   c00003c6 <kprintf>
c0000603:	e9 9c 01 00 00       	jmp    c00007a4 <exception_handler_middle+0x1cb>
c0000608:	c7 04 24 40 2b 00 c0 	movl   $0xc0002b40,(%esp)
c000060f:	e8 b2 fd ff ff       	call   c00003c6 <kprintf>
c0000614:	e9 8b 01 00 00       	jmp    c00007a4 <exception_handler_middle+0x1cb>
c0000619:	c7 04 24 6c 2b 00 c0 	movl   $0xc0002b6c,(%esp)
c0000620:	e8 a1 fd ff ff       	call   c00003c6 <kprintf>
c0000625:	e9 7a 01 00 00       	jmp    c00007a4 <exception_handler_middle+0x1cb>
c000062a:	c7 04 24 94 2b 00 c0 	movl   $0xc0002b94,(%esp)
c0000631:	e8 90 fd ff ff       	call   c00003c6 <kprintf>
c0000636:	8b 45 08             	mov    0x8(%ebp),%eax
c0000639:	89 04 24             	mov    %eax,(%esp)
c000063c:	e8 2a fe ff ff       	call   c000046b <dump_registers>
c0000641:	c7 44 24 0c 49 00 00 	movl   $0x49,0xc(%esp)
c0000648:	00 
c0000649:	c7 44 24 08 c4 2b 00 	movl   $0xc0002bc4,0x8(%esp)
c0000650:	c0 
c0000651:	c7 44 24 04 e0 2b 00 	movl   $0xc0002be0,0x4(%esp)
c0000658:	c0 
c0000659:	c7 04 24 00 2c 00 c0 	movl   $0xc0002c00,(%esp)
c0000660:	e8 61 fd ff ff       	call   c00003c6 <kprintf>
c0000665:	fa                   	cli    
c0000666:	eb fe                	jmp    c0000666 <exception_handler_middle+0x8d>
c0000668:	c7 04 24 28 2c 00 c0 	movl   $0xc0002c28,(%esp)
c000066f:	e8 52 fd ff ff       	call   c00003c6 <kprintf>
c0000674:	e9 2b 01 00 00       	jmp    c00007a4 <exception_handler_middle+0x1cb>
c0000679:	c7 04 24 50 2c 00 c0 	movl   $0xc0002c50,(%esp)
c0000680:	e8 41 fd ff ff       	call   c00003c6 <kprintf>
c0000685:	e9 1a 01 00 00       	jmp    c00007a4 <exception_handler_middle+0x1cb>
c000068a:	c7 04 24 78 2c 00 c0 	movl   $0xc0002c78,(%esp)
c0000691:	e8 30 fd ff ff       	call   c00003c6 <kprintf>
c0000696:	e9 09 01 00 00       	jmp    c00007a4 <exception_handler_middle+0x1cb>
c000069b:	c7 04 24 98 2c 00 c0 	movl   $0xc0002c98,(%esp)
c00006a2:	e8 1f fd ff ff       	call   c00003c6 <kprintf>
c00006a7:	e9 f8 00 00 00       	jmp    c00007a4 <exception_handler_middle+0x1cb>
c00006ac:	c7 04 24 cc 2c 00 c0 	movl   $0xc0002ccc,(%esp)
c00006b3:	e8 0e fd ff ff       	call   c00003c6 <kprintf>
c00006b8:	e9 e7 00 00 00       	jmp    c00007a4 <exception_handler_middle+0x1cb>
c00006bd:	c7 04 24 f4 2c 00 c0 	movl   $0xc0002cf4,(%esp)
c00006c4:	e8 fd fc ff ff       	call   c00003c6 <kprintf>
c00006c9:	e9 d6 00 00 00       	jmp    c00007a4 <exception_handler_middle+0x1cb>
c00006ce:	c7 04 24 2c 2d 00 c0 	movl   $0xc0002d2c,(%esp)
c00006d5:	e8 ec fc ff ff       	call   c00003c6 <kprintf>
c00006da:	e9 c5 00 00 00       	jmp    c00007a4 <exception_handler_middle+0x1cb>
c00006df:	c7 04 24 58 2d 00 c0 	movl   $0xc0002d58,(%esp)
c00006e6:	e8 db fc ff ff       	call   c00003c6 <kprintf>
c00006eb:	e9 b4 00 00 00       	jmp    c00007a4 <exception_handler_middle+0x1cb>
c00006f0:	c7 04 24 7c 2d 00 c0 	movl   $0xc0002d7c,(%esp)
c00006f7:	e8 ca fc ff ff       	call   c00003c6 <kprintf>
c00006fc:	e9 a3 00 00 00       	jmp    c00007a4 <exception_handler_middle+0x1cb>
c0000701:	8b 45 08             	mov    0x8(%ebp),%eax
c0000704:	8b 40 40             	mov    0x40(%eax),%eax
c0000707:	25 00 00 02 00       	and    $0x20000,%eax
c000070c:	85 c0                	test   %eax,%eax
c000070e:	74 27                	je     c0000737 <exception_handler_middle+0x15e>
c0000710:	c7 44 24 0c 75 00 00 	movl   $0x75,0xc(%esp)
c0000717:	00 
c0000718:	c7 44 24 08 c4 2b 00 	movl   $0xc0002bc4,0x8(%esp)
c000071f:	c0 
c0000720:	c7 44 24 04 98 2d 00 	movl   $0xc0002d98,0x4(%esp)
c0000727:	c0 
c0000728:	c7 04 24 00 2c 00 c0 	movl   $0xc0002c00,(%esp)
c000072f:	e8 92 fc ff ff       	call   c00003c6 <kprintf>
c0000734:	fa                   	cli    
c0000735:	eb fe                	jmp    c0000735 <exception_handler_middle+0x15c>
c0000737:	c7 04 24 b8 2d 00 c0 	movl   $0xc0002db8,(%esp)
c000073e:	e8 83 fc ff ff       	call   c00003c6 <kprintf>
c0000743:	eb 5f                	jmp    c00007a4 <exception_handler_middle+0x1cb>
c0000745:	0f 20 d0             	mov    %cr2,%eax
c0000748:	89 45 f4             	mov    %eax,-0xc(%ebp)
c000074b:	8b 45 08             	mov    0x8(%ebp),%eax
c000074e:	8b 40 34             	mov    0x34(%eax),%eax
c0000751:	83 e0 01             	and    $0x1,%eax
c0000754:	85 c0                	test   %eax,%eax
c0000756:	75 19                	jne    c0000771 <exception_handler_middle+0x198>
c0000758:	a1 44 54 01 c0       	mov    0xc0015444,%eax
c000075d:	85 c0                	test   %eax,%eax
c000075f:	75 02                	jne    c0000763 <exception_handler_middle+0x18a>
c0000761:	eb 73                	jmp    c00007d6 <exception_handler_middle+0x1fd>
c0000763:	c7 04 24 e4 2d 00 c0 	movl   $0xc0002de4,(%esp)
c000076a:	e8 57 fc ff ff       	call   c00003c6 <kprintf>
c000076f:	eb 33                	jmp    c00007a4 <exception_handler_middle+0x1cb>
c0000771:	c7 04 24 10 2e 00 c0 	movl   $0xc0002e10,(%esp)
c0000778:	e8 49 fc ff ff       	call   c00003c6 <kprintf>
c000077d:	eb 25                	jmp    c00007a4 <exception_handler_middle+0x1cb>
c000077f:	c7 04 24 50 2e 00 c0 	movl   $0xc0002e50,(%esp)
c0000786:	e8 3b fc ff ff       	call   c00003c6 <kprintf>
c000078b:	eb 17                	jmp    c00007a4 <exception_handler_middle+0x1cb>
c000078d:	8b 45 08             	mov    0x8(%ebp),%eax
c0000790:	8b 40 30             	mov    0x30(%eax),%eax
c0000793:	89 44 24 04          	mov    %eax,0x4(%esp)
c0000797:	c7 04 24 74 2e 00 c0 	movl   $0xc0002e74,(%esp)
c000079e:	e8 23 fc ff ff       	call   c00003c6 <kprintf>
c00007a3:	90                   	nop
c00007a4:	8b 45 08             	mov    0x8(%ebp),%eax
c00007a7:	89 04 24             	mov    %eax,(%esp)
c00007aa:	e8 bc fc ff ff       	call   c000046b <dump_registers>
c00007af:	c7 44 24 0c 96 00 00 	movl   $0x96,0xc(%esp)
c00007b6:	00 
c00007b7:	c7 44 24 08 c4 2b 00 	movl   $0xc0002bc4,0x8(%esp)
c00007be:	c0 
c00007bf:	c7 44 24 04 a0 2e 00 	movl   $0xc0002ea0,0x4(%esp)
c00007c6:	c0 
c00007c7:	c7 04 24 00 2c 00 c0 	movl   $0xc0002c00,(%esp)
c00007ce:	e8 f3 fb ff ff       	call   c00003c6 <kprintf>
c00007d3:	fa                   	cli    
c00007d4:	eb fe                	jmp    c00007d4 <exception_handler_middle+0x1fb>
c00007d6:	c9                   	leave  
c00007d7:	c3                   	ret    

c00007d8 <inport08>:
inport08():
c00007d8:	55                   	push   %ebp
c00007d9:	89 e5                	mov    %esp,%ebp
c00007db:	83 ec 14             	sub    $0x14,%esp
c00007de:	8b 45 08             	mov    0x8(%ebp),%eax
c00007e1:	66 89 45 ec          	mov    %ax,-0x14(%ebp)
c00007e5:	0f b7 45 ec          	movzwl -0x14(%ebp),%eax
c00007e9:	89 c2                	mov    %eax,%edx
c00007eb:	ec                   	in     (%dx),%al
c00007ec:	88 45 ff             	mov    %al,-0x1(%ebp)
c00007ef:	0f b6 45 ff          	movzbl -0x1(%ebp),%eax
c00007f3:	c9                   	leave  
c00007f4:	c3                   	ret    

c00007f5 <outport08>:
outport08():
c00007f5:	55                   	push   %ebp
c00007f6:	89 e5                	mov    %esp,%ebp
c00007f8:	83 ec 08             	sub    $0x8,%esp
c00007fb:	8b 55 08             	mov    0x8(%ebp),%edx
c00007fe:	8b 45 0c             	mov    0xc(%ebp),%eax
c0000801:	66 89 55 fc          	mov    %dx,-0x4(%ebp)
c0000805:	88 45 f8             	mov    %al,-0x8(%ebp)
c0000808:	0f b7 55 fc          	movzwl -0x4(%ebp),%edx
c000080c:	0f b6 45 f8          	movzbl -0x8(%ebp),%eax
c0000810:	ee                   	out    %al,(%dx)
c0000811:	c9                   	leave  
c0000812:	c3                   	ret    

c0000813 <reprogram_PIC_8259>:
reprogram_PIC_8259():
c0000813:	55                   	push   %ebp
c0000814:	89 e5                	mov    %esp,%ebp
c0000816:	83 ec 08             	sub    $0x8,%esp
c0000819:	c7 44 24 04 11 00 00 	movl   $0x11,0x4(%esp)
c0000820:	00 
c0000821:	c7 04 24 20 00 00 00 	movl   $0x20,(%esp)
c0000828:	e8 c8 ff ff ff       	call   c00007f5 <outport08>
c000082d:	c7 44 24 04 11 00 00 	movl   $0x11,0x4(%esp)
c0000834:	00 
c0000835:	c7 04 24 a0 00 00 00 	movl   $0xa0,(%esp)
c000083c:	e8 b4 ff ff ff       	call   c00007f5 <outport08>
c0000841:	c7 44 24 04 20 00 00 	movl   $0x20,0x4(%esp)
c0000848:	00 
c0000849:	c7 04 24 21 00 00 00 	movl   $0x21,(%esp)
c0000850:	e8 a0 ff ff ff       	call   c00007f5 <outport08>
c0000855:	c7 44 24 04 28 00 00 	movl   $0x28,0x4(%esp)
c000085c:	00 
c000085d:	c7 04 24 a1 00 00 00 	movl   $0xa1,(%esp)
c0000864:	e8 8c ff ff ff       	call   c00007f5 <outport08>
c0000869:	c7 44 24 04 04 00 00 	movl   $0x4,0x4(%esp)
c0000870:	00 
c0000871:	c7 04 24 21 00 00 00 	movl   $0x21,(%esp)
c0000878:	e8 78 ff ff ff       	call   c00007f5 <outport08>
c000087d:	c7 44 24 04 02 00 00 	movl   $0x2,0x4(%esp)
c0000884:	00 
c0000885:	c7 04 24 a1 00 00 00 	movl   $0xa1,(%esp)
c000088c:	e8 64 ff ff ff       	call   c00007f5 <outport08>
c0000891:	c7 44 24 04 01 00 00 	movl   $0x1,0x4(%esp)
c0000898:	00 
c0000899:	c7 04 24 21 00 00 00 	movl   $0x21,(%esp)
c00008a0:	e8 50 ff ff ff       	call   c00007f5 <outport08>
c00008a5:	c7 44 24 04 01 00 00 	movl   $0x1,0x4(%esp)
c00008ac:	00 
c00008ad:	c7 04 24 a1 00 00 00 	movl   $0xa1,(%esp)
c00008b4:	e8 3c ff ff ff       	call   c00007f5 <outport08>
c00008b9:	c7 44 24 04 ff 00 00 	movl   $0xff,0x4(%esp)
c00008c0:	00 
c00008c1:	c7 04 24 21 00 00 00 	movl   $0x21,(%esp)
c00008c8:	e8 28 ff ff ff       	call   c00007f5 <outport08>
c00008cd:	c7 44 24 04 ff 00 00 	movl   $0xff,0x4(%esp)
c00008d4:	00 
c00008d5:	c7 04 24 a1 00 00 00 	movl   $0xa1,(%esp)
c00008dc:	e8 14 ff ff ff       	call   c00007f5 <outport08>
c00008e1:	c9                   	leave  
c00008e2:	c3                   	ret    

c00008e3 <set_IDT_gate>:
set_IDT_gate():
c00008e3:	55                   	push   %ebp
c00008e4:	89 e5                	mov    %esp,%ebp
c00008e6:	83 ec 1c             	sub    $0x1c,%esp
c00008e9:	8b 4d 08             	mov    0x8(%ebp),%ecx
c00008ec:	8b 55 10             	mov    0x10(%ebp),%edx
c00008ef:	8b 45 14             	mov    0x14(%ebp),%eax
c00008f2:	88 4d ec             	mov    %cl,-0x14(%ebp)
c00008f5:	66 89 55 e8          	mov    %dx,-0x18(%ebp)
c00008f9:	88 45 e4             	mov    %al,-0x1c(%ebp)
c00008fc:	9c                   	pushf  
c00008fd:	58                   	pop    %eax
c00008fe:	fa                   	cli    
c00008ff:	89 45 fc             	mov    %eax,-0x4(%ebp)
c0000902:	0f b6 45 ec          	movzbl -0x14(%ebp),%eax
c0000906:	8b 55 0c             	mov    0xc(%ebp),%edx
c0000909:	66 89 14 c5 80 54 01 	mov    %dx,-0x3ffeab80(,%eax,8)
c0000910:	c0 
c0000911:	0f b6 45 ec          	movzbl -0x14(%ebp),%eax
c0000915:	0f b7 55 e8          	movzwl -0x18(%ebp),%edx
c0000919:	66 89 14 c5 82 54 01 	mov    %dx,-0x3ffeab7e(,%eax,8)
c0000920:	c0 
c0000921:	0f b6 45 ec          	movzbl -0x14(%ebp),%eax
c0000925:	c6 04 c5 84 54 01 c0 	movb   $0x0,-0x3ffeab7c(,%eax,8)
c000092c:	00 
c000092d:	0f b6 45 ec          	movzbl -0x14(%ebp),%eax
c0000931:	0f b6 55 e4          	movzbl -0x1c(%ebp),%edx
c0000935:	88 14 c5 85 54 01 c0 	mov    %dl,-0x3ffeab7b(,%eax,8)
c000093c:	0f b6 45 ec          	movzbl -0x14(%ebp),%eax
c0000940:	8b 55 0c             	mov    0xc(%ebp),%edx
c0000943:	c1 ea 10             	shr    $0x10,%edx
c0000946:	66 89 14 c5 86 54 01 	mov    %dx,-0x3ffeab7a(,%eax,8)
c000094d:	c0 
c000094e:	ff 75 fc             	pushl  -0x4(%ebp)
c0000951:	9d                   	popf   
c0000952:	c9                   	leave  
c0000953:	c3                   	ret    

c0000954 <spurious_interrupt>:
spurious_interrupt():
c0000954:	55                   	push   %ebp
c0000955:	89 e5                	mov    %esp,%ebp
c0000957:	83 ec 18             	sub    $0x18,%esp
c000095a:	a1 1c 50 01 c0       	mov    0xc001501c,%eax
c000095f:	85 c0                	test   %eax,%eax
c0000961:	74 16                	je     c0000979 <spurious_interrupt+0x25>
c0000963:	8b 45 08             	mov    0x8(%ebp),%eax
c0000966:	8b 40 30             	mov    0x30(%eax),%eax
c0000969:	89 44 24 04          	mov    %eax,0x4(%esp)
c000096d:	c7 04 24 28 2f 00 c0 	movl   $0xc0002f28,(%esp)
c0000974:	e8 4d fa ff ff       	call   c00003c6 <kprintf>
c0000979:	c9                   	leave  
c000097a:	c3                   	ret    

c000097b <fake_keyboard>:
fake_keyboard():
c000097b:	55                   	push   %ebp
c000097c:	89 e5                	mov    %esp,%ebp
c000097e:	83 ec 28             	sub    $0x28,%esp
c0000981:	9c                   	pushf  
c0000982:	58                   	pop    %eax
c0000983:	fa                   	cli    
c0000984:	89 45 f4             	mov    %eax,-0xc(%ebp)
c0000987:	c7 04 24 60 00 00 00 	movl   $0x60,(%esp)
c000098e:	e8 45 fe ff ff       	call   c00007d8 <inport08>
c0000993:	0f b6 c0             	movzbl %al,%eax
c0000996:	a3 20 50 01 c0       	mov    %eax,0xc0015020
c000099b:	c7 04 24 61 00 00 00 	movl   $0x61,(%esp)
c00009a2:	e8 31 fe ff ff       	call   c00007d8 <inport08>
c00009a7:	0f b6 c0             	movzbl %al,%eax
c00009aa:	a3 24 50 01 c0       	mov    %eax,0xc0015024
c00009af:	a1 24 50 01 c0       	mov    0xc0015024,%eax
c00009b4:	83 c8 80             	or     $0xffffff80,%eax
c00009b7:	0f b6 c0             	movzbl %al,%eax
c00009ba:	89 44 24 04          	mov    %eax,0x4(%esp)
c00009be:	c7 04 24 61 00 00 00 	movl   $0x61,(%esp)
c00009c5:	e8 2b fe ff ff       	call   c00007f5 <outport08>
c00009ca:	a1 24 50 01 c0       	mov    0xc0015024,%eax
c00009cf:	0f b6 c0             	movzbl %al,%eax
c00009d2:	89 44 24 04          	mov    %eax,0x4(%esp)
c00009d6:	c7 04 24 61 00 00 00 	movl   $0x61,(%esp)
c00009dd:	e8 13 fe ff ff       	call   c00007f5 <outport08>
c00009e2:	8b 15 20 50 01 c0    	mov    0xc0015020,%edx
c00009e8:	8b 45 08             	mov    0x8(%ebp),%eax
c00009eb:	8b 40 30             	mov    0x30(%eax),%eax
c00009ee:	89 54 24 08          	mov    %edx,0x8(%esp)
c00009f2:	89 44 24 04          	mov    %eax,0x4(%esp)
c00009f6:	c7 04 24 44 2f 00 c0 	movl   $0xc0002f44,(%esp)
c00009fd:	e8 c4 f9 ff ff       	call   c00003c6 <kprintf>
c0000a02:	8b 45 08             	mov    0x8(%ebp),%eax
c0000a05:	8b 40 30             	mov    0x30(%eax),%eax
c0000a08:	0f b6 c0             	movzbl %al,%eax
c0000a0b:	89 04 24             	mov    %eax,(%esp)
c0000a0e:	e8 14 07 00 00       	call   c0001127 <enable_IRQ>
c0000a13:	c9                   	leave  
c0000a14:	c3                   	ret    

c0000a15 <initialize_IDT>:
initialize_IDT():
c0000a15:	55                   	push   %ebp
c0000a16:	89 e5                	mov    %esp,%ebp
c0000a18:	83 ec 28             	sub    $0x28,%esp
c0000a1b:	c7 45 f4 00 00 00 00 	movl   $0x0,-0xc(%ebp)
c0000a22:	eb 2b                	jmp    c0000a4f <initialize_IDT+0x3a>
c0000a24:	ba 14 01 00 c0       	mov    $0xc0000114,%edx
c0000a29:	8b 45 f4             	mov    -0xc(%ebp),%eax
c0000a2c:	0f b6 c0             	movzbl %al,%eax
c0000a2f:	c7 44 24 0c 8e 00 00 	movl   $0x8e,0xc(%esp)
c0000a36:	00 
c0000a37:	c7 44 24 08 08 00 00 	movl   $0x8,0x8(%esp)
c0000a3e:	00 
c0000a3f:	89 54 24 04          	mov    %edx,0x4(%esp)
c0000a43:	89 04 24             	mov    %eax,(%esp)
c0000a46:	e8 98 fe ff ff       	call   c00008e3 <set_IDT_gate>
c0000a4b:	83 45 f4 01          	addl   $0x1,-0xc(%ebp)
c0000a4f:	83 7d f4 1f          	cmpl   $0x1f,-0xc(%ebp)
c0000a53:	76 cf                	jbe    c0000a24 <initialize_IDT+0xf>
c0000a55:	b8 c0 00 00 c0       	mov    $0xc00000c0,%eax
c0000a5a:	c7 44 24 0c 8f 00 00 	movl   $0x8f,0xc(%esp)
c0000a61:	00 
c0000a62:	c7 44 24 08 08 00 00 	movl   $0x8,0x8(%esp)
c0000a69:	00 
c0000a6a:	89 44 24 04          	mov    %eax,0x4(%esp)
c0000a6e:	c7 04 24 00 00 00 00 	movl   $0x0,(%esp)
c0000a75:	e8 69 fe ff ff       	call   c00008e3 <set_IDT_gate>
c0000a7a:	b8 c6 00 00 c0       	mov    $0xc00000c6,%eax
c0000a7f:	c7 44 24 0c 8f 00 00 	movl   $0x8f,0xc(%esp)
c0000a86:	00 
c0000a87:	c7 44 24 08 08 00 00 	movl   $0x8,0x8(%esp)
c0000a8e:	00 
c0000a8f:	89 44 24 04          	mov    %eax,0x4(%esp)
c0000a93:	c7 04 24 01 00 00 00 	movl   $0x1,(%esp)
c0000a9a:	e8 44 fe ff ff       	call   c00008e3 <set_IDT_gate>
c0000a9f:	b8 cc 00 00 c0       	mov    $0xc00000cc,%eax
c0000aa4:	c7 44 24 0c 8f 00 00 	movl   $0x8f,0xc(%esp)
c0000aab:	00 
c0000aac:	c7 44 24 08 08 00 00 	movl   $0x8,0x8(%esp)
c0000ab3:	00 
c0000ab4:	89 44 24 04          	mov    %eax,0x4(%esp)
c0000ab8:	c7 04 24 02 00 00 00 	movl   $0x2,(%esp)
c0000abf:	e8 1f fe ff ff       	call   c00008e3 <set_IDT_gate>
c0000ac4:	b8 d2 00 00 c0       	mov    $0xc00000d2,%eax
c0000ac9:	c7 44 24 0c ef 00 00 	movl   $0xef,0xc(%esp)
c0000ad0:	00 
c0000ad1:	c7 44 24 08 08 00 00 	movl   $0x8,0x8(%esp)
c0000ad8:	00 
c0000ad9:	89 44 24 04          	mov    %eax,0x4(%esp)
c0000add:	c7 04 24 03 00 00 00 	movl   $0x3,(%esp)
c0000ae4:	e8 fa fd ff ff       	call   c00008e3 <set_IDT_gate>
c0000ae9:	b8 d8 00 00 c0       	mov    $0xc00000d8,%eax
c0000aee:	c7 44 24 0c ef 00 00 	movl   $0xef,0xc(%esp)
c0000af5:	00 
c0000af6:	c7 44 24 08 08 00 00 	movl   $0x8,0x8(%esp)
c0000afd:	00 
c0000afe:	89 44 24 04          	mov    %eax,0x4(%esp)
c0000b02:	c7 04 24 04 00 00 00 	movl   $0x4,(%esp)
c0000b09:	e8 d5 fd ff ff       	call   c00008e3 <set_IDT_gate>
c0000b0e:	b8 de 00 00 c0       	mov    $0xc00000de,%eax
c0000b13:	c7 44 24 0c ef 00 00 	movl   $0xef,0xc(%esp)
c0000b1a:	00 
c0000b1b:	c7 44 24 08 08 00 00 	movl   $0x8,0x8(%esp)
c0000b22:	00 
c0000b23:	89 44 24 04          	mov    %eax,0x4(%esp)
c0000b27:	c7 04 24 05 00 00 00 	movl   $0x5,(%esp)
c0000b2e:	e8 b0 fd ff ff       	call   c00008e3 <set_IDT_gate>
c0000b33:	b8 e4 00 00 c0       	mov    $0xc00000e4,%eax
c0000b38:	c7 44 24 0c 8f 00 00 	movl   $0x8f,0xc(%esp)
c0000b3f:	00 
c0000b40:	c7 44 24 08 08 00 00 	movl   $0x8,0x8(%esp)
c0000b47:	00 
c0000b48:	89 44 24 04          	mov    %eax,0x4(%esp)
c0000b4c:	c7 04 24 06 00 00 00 	movl   $0x6,(%esp)
c0000b53:	e8 8b fd ff ff       	call   c00008e3 <set_IDT_gate>
c0000b58:	b8 ea 00 00 c0       	mov    $0xc00000ea,%eax
c0000b5d:	c7 44 24 0c 8f 00 00 	movl   $0x8f,0xc(%esp)
c0000b64:	00 
c0000b65:	c7 44 24 08 08 00 00 	movl   $0x8,0x8(%esp)
c0000b6c:	00 
c0000b6d:	89 44 24 04          	mov    %eax,0x4(%esp)
c0000b71:	c7 04 24 07 00 00 00 	movl   $0x7,(%esp)
c0000b78:	e8 66 fd ff ff       	call   c00008e3 <set_IDT_gate>
c0000b7d:	b8 f0 00 00 c0       	mov    $0xc00000f0,%eax
c0000b82:	c7 44 24 0c 8f 00 00 	movl   $0x8f,0xc(%esp)
c0000b89:	00 
c0000b8a:	c7 44 24 08 08 00 00 	movl   $0x8,0x8(%esp)
c0000b91:	00 
c0000b92:	89 44 24 04          	mov    %eax,0x4(%esp)
c0000b96:	c7 04 24 08 00 00 00 	movl   $0x8,(%esp)
c0000b9d:	e8 41 fd ff ff       	call   c00008e3 <set_IDT_gate>
c0000ba2:	b8 f4 00 00 c0       	mov    $0xc00000f4,%eax
c0000ba7:	c7 44 24 0c 8f 00 00 	movl   $0x8f,0xc(%esp)
c0000bae:	00 
c0000baf:	c7 44 24 08 08 00 00 	movl   $0x8,0x8(%esp)
c0000bb6:	00 
c0000bb7:	89 44 24 04          	mov    %eax,0x4(%esp)
c0000bbb:	c7 04 24 09 00 00 00 	movl   $0x9,(%esp)
c0000bc2:	e8 1c fd ff ff       	call   c00008e3 <set_IDT_gate>
c0000bc7:	b8 fa 00 00 c0       	mov    $0xc00000fa,%eax
c0000bcc:	c7 44 24 0c 8f 00 00 	movl   $0x8f,0xc(%esp)
c0000bd3:	00 
c0000bd4:	c7 44 24 08 08 00 00 	movl   $0x8,0x8(%esp)
c0000bdb:	00 
c0000bdc:	89 44 24 04          	mov    %eax,0x4(%esp)
c0000be0:	c7 04 24 0a 00 00 00 	movl   $0xa,(%esp)
c0000be7:	e8 f7 fc ff ff       	call   c00008e3 <set_IDT_gate>
c0000bec:	b8 fe 00 00 c0       	mov    $0xc00000fe,%eax
c0000bf1:	c7 44 24 0c 8f 00 00 	movl   $0x8f,0xc(%esp)
c0000bf8:	00 
c0000bf9:	c7 44 24 08 08 00 00 	movl   $0x8,0x8(%esp)
c0000c00:	00 
c0000c01:	89 44 24 04          	mov    %eax,0x4(%esp)
c0000c05:	c7 04 24 0b 00 00 00 	movl   $0xb,(%esp)
c0000c0c:	e8 d2 fc ff ff       	call   c00008e3 <set_IDT_gate>
c0000c11:	b8 02 01 00 c0       	mov    $0xc0000102,%eax
c0000c16:	c7 44 24 0c 8f 00 00 	movl   $0x8f,0xc(%esp)
c0000c1d:	00 
c0000c1e:	c7 44 24 08 08 00 00 	movl   $0x8,0x8(%esp)
c0000c25:	00 
c0000c26:	89 44 24 04          	mov    %eax,0x4(%esp)
c0000c2a:	c7 04 24 0c 00 00 00 	movl   $0xc,(%esp)
c0000c31:	e8 ad fc ff ff       	call   c00008e3 <set_IDT_gate>
c0000c36:	b8 06 01 00 c0       	mov    $0xc0000106,%eax
c0000c3b:	c7 44 24 0c 8f 00 00 	movl   $0x8f,0xc(%esp)
c0000c42:	00 
c0000c43:	c7 44 24 08 08 00 00 	movl   $0x8,0x8(%esp)
c0000c4a:	00 
c0000c4b:	89 44 24 04          	mov    %eax,0x4(%esp)
c0000c4f:	c7 04 24 0d 00 00 00 	movl   $0xd,(%esp)
c0000c56:	e8 88 fc ff ff       	call   c00008e3 <set_IDT_gate>
c0000c5b:	b8 0a 01 00 c0       	mov    $0xc000010a,%eax
c0000c60:	c7 44 24 0c 8f 00 00 	movl   $0x8f,0xc(%esp)
c0000c67:	00 
c0000c68:	c7 44 24 08 08 00 00 	movl   $0x8,0x8(%esp)
c0000c6f:	00 
c0000c70:	89 44 24 04          	mov    %eax,0x4(%esp)
c0000c74:	c7 04 24 0e 00 00 00 	movl   $0xe,(%esp)
c0000c7b:	e8 63 fc ff ff       	call   c00008e3 <set_IDT_gate>
c0000c80:	b8 0e 01 00 c0       	mov    $0xc000010e,%eax
c0000c85:	c7 44 24 0c 8f 00 00 	movl   $0x8f,0xc(%esp)
c0000c8c:	00 
c0000c8d:	c7 44 24 08 08 00 00 	movl   $0x8,0x8(%esp)
c0000c94:	00 
c0000c95:	89 44 24 04          	mov    %eax,0x4(%esp)
c0000c99:	c7 04 24 0f 00 00 00 	movl   $0xf,(%esp)
c0000ca0:	e8 3e fc ff ff       	call   c00008e3 <set_IDT_gate>
c0000ca5:	c7 45 f4 20 00 00 00 	movl   $0x20,-0xc(%ebp)
c0000cac:	eb 2b                	jmp    c0000cd9 <initialize_IDT+0x2c4>
c0000cae:	ba 90 01 00 c0       	mov    $0xc0000190,%edx
c0000cb3:	8b 45 f4             	mov    -0xc(%ebp),%eax
c0000cb6:	0f b6 c0             	movzbl %al,%eax
c0000cb9:	c7 44 24 0c 8e 00 00 	movl   $0x8e,0xc(%esp)
c0000cc0:	00 
c0000cc1:	c7 44 24 08 08 00 00 	movl   $0x8,0x8(%esp)
c0000cc8:	00 
c0000cc9:	89 54 24 04          	mov    %edx,0x4(%esp)
c0000ccd:	89 04 24             	mov    %eax,(%esp)
c0000cd0:	e8 0e fc ff ff       	call   c00008e3 <set_IDT_gate>
c0000cd5:	83 45 f4 01          	addl   $0x1,-0xc(%ebp)
c0000cd9:	81 7d f4 ff 00 00 00 	cmpl   $0xff,-0xc(%ebp)
c0000ce0:	76 cc                	jbe    c0000cae <initialize_IDT+0x299>
c0000ce2:	b8 50 01 00 c0       	mov    $0xc0000150,%eax
c0000ce7:	c7 44 24 0c 8e 00 00 	movl   $0x8e,0xc(%esp)
c0000cee:	00 
c0000cef:	c7 44 24 08 08 00 00 	movl   $0x8,0x8(%esp)
c0000cf6:	00 
c0000cf7:	89 44 24 04          	mov    %eax,0x4(%esp)
c0000cfb:	c7 04 24 20 00 00 00 	movl   $0x20,(%esp)
c0000d02:	e8 dc fb ff ff       	call   c00008e3 <set_IDT_gate>
c0000d07:	b8 54 01 00 c0       	mov    $0xc0000154,%eax
c0000d0c:	c7 44 24 0c 8e 00 00 	movl   $0x8e,0xc(%esp)
c0000d13:	00 
c0000d14:	c7 44 24 08 08 00 00 	movl   $0x8,0x8(%esp)
c0000d1b:	00 
c0000d1c:	89 44 24 04          	mov    %eax,0x4(%esp)
c0000d20:	c7 04 24 21 00 00 00 	movl   $0x21,(%esp)
c0000d27:	e8 b7 fb ff ff       	call   c00008e3 <set_IDT_gate>
c0000d2c:	b8 58 01 00 c0       	mov    $0xc0000158,%eax
c0000d31:	c7 44 24 0c 8e 00 00 	movl   $0x8e,0xc(%esp)
c0000d38:	00 
c0000d39:	c7 44 24 08 08 00 00 	movl   $0x8,0x8(%esp)
c0000d40:	00 
c0000d41:	89 44 24 04          	mov    %eax,0x4(%esp)
c0000d45:	c7 04 24 22 00 00 00 	movl   $0x22,(%esp)
c0000d4c:	e8 92 fb ff ff       	call   c00008e3 <set_IDT_gate>
c0000d51:	b8 5c 01 00 c0       	mov    $0xc000015c,%eax
c0000d56:	c7 44 24 0c 8e 00 00 	movl   $0x8e,0xc(%esp)
c0000d5d:	00 
c0000d5e:	c7 44 24 08 08 00 00 	movl   $0x8,0x8(%esp)
c0000d65:	00 
c0000d66:	89 44 24 04          	mov    %eax,0x4(%esp)
c0000d6a:	c7 04 24 23 00 00 00 	movl   $0x23,(%esp)
c0000d71:	e8 6d fb ff ff       	call   c00008e3 <set_IDT_gate>
c0000d76:	b8 60 01 00 c0       	mov    $0xc0000160,%eax
c0000d7b:	c7 44 24 0c 8e 00 00 	movl   $0x8e,0xc(%esp)
c0000d82:	00 
c0000d83:	c7 44 24 08 08 00 00 	movl   $0x8,0x8(%esp)
c0000d8a:	00 
c0000d8b:	89 44 24 04          	mov    %eax,0x4(%esp)
c0000d8f:	c7 04 24 24 00 00 00 	movl   $0x24,(%esp)
c0000d96:	e8 48 fb ff ff       	call   c00008e3 <set_IDT_gate>
c0000d9b:	b8 64 01 00 c0       	mov    $0xc0000164,%eax
c0000da0:	c7 44 24 0c 8e 00 00 	movl   $0x8e,0xc(%esp)
c0000da7:	00 
c0000da8:	c7 44 24 08 08 00 00 	movl   $0x8,0x8(%esp)
c0000daf:	00 
c0000db0:	89 44 24 04          	mov    %eax,0x4(%esp)
c0000db4:	c7 04 24 25 00 00 00 	movl   $0x25,(%esp)
c0000dbb:	e8 23 fb ff ff       	call   c00008e3 <set_IDT_gate>
c0000dc0:	b8 68 01 00 c0       	mov    $0xc0000168,%eax
c0000dc5:	c7 44 24 0c 8e 00 00 	movl   $0x8e,0xc(%esp)
c0000dcc:	00 
c0000dcd:	c7 44 24 08 08 00 00 	movl   $0x8,0x8(%esp)
c0000dd4:	00 
c0000dd5:	89 44 24 04          	mov    %eax,0x4(%esp)
c0000dd9:	c7 04 24 26 00 00 00 	movl   $0x26,(%esp)
c0000de0:	e8 fe fa ff ff       	call   c00008e3 <set_IDT_gate>
c0000de5:	b8 6c 01 00 c0       	mov    $0xc000016c,%eax
c0000dea:	c7 44 24 0c 8e 00 00 	movl   $0x8e,0xc(%esp)
c0000df1:	00 
c0000df2:	c7 44 24 08 08 00 00 	movl   $0x8,0x8(%esp)
c0000df9:	00 
c0000dfa:	89 44 24 04          	mov    %eax,0x4(%esp)
c0000dfe:	c7 04 24 27 00 00 00 	movl   $0x27,(%esp)
c0000e05:	e8 d9 fa ff ff       	call   c00008e3 <set_IDT_gate>
c0000e0a:	b8 70 01 00 c0       	mov    $0xc0000170,%eax
c0000e0f:	c7 44 24 0c 8e 00 00 	movl   $0x8e,0xc(%esp)
c0000e16:	00 
c0000e17:	c7 44 24 08 08 00 00 	movl   $0x8,0x8(%esp)
c0000e1e:	00 
c0000e1f:	89 44 24 04          	mov    %eax,0x4(%esp)
c0000e23:	c7 04 24 28 00 00 00 	movl   $0x28,(%esp)
c0000e2a:	e8 b4 fa ff ff       	call   c00008e3 <set_IDT_gate>
c0000e2f:	b8 74 01 00 c0       	mov    $0xc0000174,%eax
c0000e34:	c7 44 24 0c 8e 00 00 	movl   $0x8e,0xc(%esp)
c0000e3b:	00 
c0000e3c:	c7 44 24 08 08 00 00 	movl   $0x8,0x8(%esp)
c0000e43:	00 
c0000e44:	89 44 24 04          	mov    %eax,0x4(%esp)
c0000e48:	c7 04 24 29 00 00 00 	movl   $0x29,(%esp)
c0000e4f:	e8 8f fa ff ff       	call   c00008e3 <set_IDT_gate>
c0000e54:	b8 78 01 00 c0       	mov    $0xc0000178,%eax
c0000e59:	c7 44 24 0c 8e 00 00 	movl   $0x8e,0xc(%esp)
c0000e60:	00 
c0000e61:	c7 44 24 08 08 00 00 	movl   $0x8,0x8(%esp)
c0000e68:	00 
c0000e69:	89 44 24 04          	mov    %eax,0x4(%esp)
c0000e6d:	c7 04 24 2a 00 00 00 	movl   $0x2a,(%esp)
c0000e74:	e8 6a fa ff ff       	call   c00008e3 <set_IDT_gate>
c0000e79:	b8 7c 01 00 c0       	mov    $0xc000017c,%eax
c0000e7e:	c7 44 24 0c 8e 00 00 	movl   $0x8e,0xc(%esp)
c0000e85:	00 
c0000e86:	c7 44 24 08 08 00 00 	movl   $0x8,0x8(%esp)
c0000e8d:	00 
c0000e8e:	89 44 24 04          	mov    %eax,0x4(%esp)
c0000e92:	c7 04 24 2b 00 00 00 	movl   $0x2b,(%esp)
c0000e99:	e8 45 fa ff ff       	call   c00008e3 <set_IDT_gate>
c0000e9e:	b8 80 01 00 c0       	mov    $0xc0000180,%eax
c0000ea3:	c7 44 24 0c 8e 00 00 	movl   $0x8e,0xc(%esp)
c0000eaa:	00 
c0000eab:	c7 44 24 08 08 00 00 	movl   $0x8,0x8(%esp)
c0000eb2:	00 
c0000eb3:	89 44 24 04          	mov    %eax,0x4(%esp)
c0000eb7:	c7 04 24 2c 00 00 00 	movl   $0x2c,(%esp)
c0000ebe:	e8 20 fa ff ff       	call   c00008e3 <set_IDT_gate>
c0000ec3:	b8 84 01 00 c0       	mov    $0xc0000184,%eax
c0000ec8:	c7 44 24 0c 8e 00 00 	movl   $0x8e,0xc(%esp)
c0000ecf:	00 
c0000ed0:	c7 44 24 08 08 00 00 	movl   $0x8,0x8(%esp)
c0000ed7:	00 
c0000ed8:	89 44 24 04          	mov    %eax,0x4(%esp)
c0000edc:	c7 04 24 2d 00 00 00 	movl   $0x2d,(%esp)
c0000ee3:	e8 fb f9 ff ff       	call   c00008e3 <set_IDT_gate>
c0000ee8:	b8 88 01 00 c0       	mov    $0xc0000188,%eax
c0000eed:	c7 44 24 0c 8e 00 00 	movl   $0x8e,0xc(%esp)
c0000ef4:	00 
c0000ef5:	c7 44 24 08 08 00 00 	movl   $0x8,0x8(%esp)
c0000efc:	00 
c0000efd:	89 44 24 04          	mov    %eax,0x4(%esp)
c0000f01:	c7 04 24 2e 00 00 00 	movl   $0x2e,(%esp)
c0000f08:	e8 d6 f9 ff ff       	call   c00008e3 <set_IDT_gate>
c0000f0d:	b8 8c 01 00 c0       	mov    $0xc000018c,%eax
c0000f12:	c7 44 24 0c 8e 00 00 	movl   $0x8e,0xc(%esp)
c0000f19:	00 
c0000f1a:	c7 44 24 08 08 00 00 	movl   $0x8,0x8(%esp)
c0000f21:	00 
c0000f22:	89 44 24 04          	mov    %eax,0x4(%esp)
c0000f26:	c7 04 24 2f 00 00 00 	movl   $0x2f,(%esp)
c0000f2d:	e8 b1 f9 ff ff       	call   c00008e3 <set_IDT_gate>
c0000f32:	66 c7 05 60 54 01 c0 	movw   $0x7ff,0xc0015460
c0000f39:	ff 07 
c0000f3b:	b8 62 54 01 c0       	mov    $0xc0015462,%eax
c0000f40:	ba 80 54 01 c0       	mov    $0xc0015480,%edx
c0000f45:	89 10                	mov    %edx,(%eax)
c0000f47:	b8 60 54 01 c0       	mov    $0xc0015460,%eax
c0000f4c:	0f 01 18             	lidtl  (%eax)
c0000f4f:	c7 44 24 04 54 09 00 	movl   $0xc0000954,0x4(%esp)
c0000f56:	c0 
c0000f57:	c7 04 24 07 00 00 00 	movl   $0x7,(%esp)
c0000f5e:	e8 80 02 00 00       	call   c00011e3 <register_interrupt_handler>
c0000f63:	c7 44 24 04 54 09 00 	movl   $0xc0000954,0x4(%esp)
c0000f6a:	c0 
c0000f6b:	c7 04 24 0f 00 00 00 	movl   $0xf,(%esp)
c0000f72:	e8 6c 02 00 00       	call   c00011e3 <register_interrupt_handler>
c0000f77:	c7 44 24 04 7b 09 00 	movl   $0xc000097b,0x4(%esp)
c0000f7e:	c0 
c0000f7f:	c7 04 24 01 00 00 00 	movl   $0x1,(%esp)
c0000f86:	e8 58 02 00 00       	call   c00011e3 <register_interrupt_handler>
c0000f8b:	fb                   	sti    
c0000f8c:	c9                   	leave  
c0000f8d:	c3                   	ret    

c0000f8e <inport08>:
inport08():
c0000f8e:	55                   	push   %ebp
c0000f8f:	89 e5                	mov    %esp,%ebp
c0000f91:	83 ec 14             	sub    $0x14,%esp
c0000f94:	8b 45 08             	mov    0x8(%ebp),%eax
c0000f97:	66 89 45 ec          	mov    %ax,-0x14(%ebp)
c0000f9b:	0f b7 45 ec          	movzwl -0x14(%ebp),%eax
c0000f9f:	89 c2                	mov    %eax,%edx
c0000fa1:	ec                   	in     (%dx),%al
c0000fa2:	88 45 ff             	mov    %al,-0x1(%ebp)
c0000fa5:	0f b6 45 ff          	movzbl -0x1(%ebp),%eax
c0000fa9:	c9                   	leave  
c0000faa:	c3                   	ret    

c0000fab <outport08>:
outport08():
c0000fab:	55                   	push   %ebp
c0000fac:	89 e5                	mov    %esp,%ebp
c0000fae:	83 ec 08             	sub    $0x8,%esp
c0000fb1:	8b 55 08             	mov    0x8(%ebp),%edx
c0000fb4:	8b 45 0c             	mov    0xc(%ebp),%eax
c0000fb7:	66 89 55 fc          	mov    %dx,-0x4(%ebp)
c0000fbb:	88 45 f8             	mov    %al,-0x8(%ebp)
c0000fbe:	0f b7 55 fc          	movzwl -0x4(%ebp),%edx
c0000fc2:	0f b6 45 f8          	movzbl -0x8(%ebp),%eax
c0000fc6:	ee                   	out    %al,(%dx)
c0000fc7:	c9                   	leave  
c0000fc8:	c3                   	ret    

c0000fc9 <interrupt_handler_middle>:
interrupt_handler_middle():
c0000fc9:	55                   	push   %ebp
c0000fca:	89 e5                	mov    %esp,%ebp
c0000fcc:	83 ec 28             	sub    $0x28,%esp
c0000fcf:	8b 45 08             	mov    0x8(%ebp),%eax
c0000fd2:	8b 40 30             	mov    0x30(%eax),%eax
c0000fd5:	83 f8 06             	cmp    $0x6,%eax
c0000fd8:	76 14                	jbe    c0000fee <interrupt_handler_middle+0x25>
c0000fda:	c7 44 24 04 20 00 00 	movl   $0x20,0x4(%esp)
c0000fe1:	00 
c0000fe2:	c7 04 24 a0 00 00 00 	movl   $0xa0,(%esp)
c0000fe9:	e8 bd ff ff ff       	call   c0000fab <outport08>
c0000fee:	c7 44 24 04 20 00 00 	movl   $0x20,0x4(%esp)
c0000ff5:	00 
c0000ff6:	c7 04 24 20 00 00 00 	movl   $0x20,(%esp)
c0000ffd:	e8 a9 ff ff ff       	call   c0000fab <outport08>
c0001002:	8b 45 08             	mov    0x8(%ebp),%eax
c0001005:	8b 40 30             	mov    0x30(%eax),%eax
c0001008:	8b 04 85 40 50 01 c0 	mov    -0x3ffeafc0(,%eax,4),%eax
c000100f:	85 c0                	test   %eax,%eax
c0001011:	74 1d                	je     c0001030 <interrupt_handler_middle+0x67>
c0001013:	8b 45 08             	mov    0x8(%ebp),%eax
c0001016:	8b 40 30             	mov    0x30(%eax),%eax
c0001019:	8b 04 85 40 50 01 c0 	mov    -0x3ffeafc0(,%eax,4),%eax
c0001020:	89 45 f4             	mov    %eax,-0xc(%ebp)
c0001023:	8b 45 08             	mov    0x8(%ebp),%eax
c0001026:	89 04 24             	mov    %eax,(%esp)
c0001029:	8b 45 f4             	mov    -0xc(%ebp),%eax
c000102c:	ff d0                	call   *%eax
c000102e:	eb 3d                	jmp    c000106d <interrupt_handler_middle+0xa4>
c0001030:	8b 45 08             	mov    0x8(%ebp),%eax
c0001033:	8b 40 30             	mov    0x30(%eax),%eax
c0001036:	89 44 24 04          	mov    %eax,0x4(%esp)
c000103a:	c7 04 24 74 2f 00 c0 	movl   $0xc0002f74,(%esp)
c0001041:	e8 80 f3 ff ff       	call   c00003c6 <kprintf>
c0001046:	c7 44 24 0c 22 00 00 	movl   $0x22,0xc(%esp)
c000104d:	00 
c000104e:	c7 44 24 08 90 2f 00 	movl   $0xc0002f90,0x8(%esp)
c0001055:	c0 
c0001056:	c7 44 24 04 ab 2f 00 	movl   $0xc0002fab,0x4(%esp)
c000105d:	c0 
c000105e:	c7 04 24 c0 2f 00 c0 	movl   $0xc0002fc0,(%esp)
c0001065:	e8 5c f3 ff ff       	call   c00003c6 <kprintf>
c000106a:	fa                   	cli    
c000106b:	eb fe                	jmp    c000106b <interrupt_handler_middle+0xa2>
c000106d:	c9                   	leave  
c000106e:	c3                   	ret    

c000106f <disable_IRQ>:
disable_IRQ():
c000106f:	55                   	push   %ebp
c0001070:	89 e5                	mov    %esp,%ebp
c0001072:	83 ec 0c             	sub    $0xc,%esp
c0001075:	8b 45 08             	mov    0x8(%ebp),%eax
c0001078:	88 45 fc             	mov    %al,-0x4(%ebp)
c000107b:	80 7d fc 10          	cmpb   $0x10,-0x4(%ebp)
c000107f:	76 05                	jbe    c0001086 <disable_IRQ+0x17>
c0001081:	e9 9f 00 00 00       	jmp    c0001125 <disable_IRQ+0xb6>
c0001086:	80 7d fc 07          	cmpb   $0x7,-0x4(%ebp)
c000108a:	77 4c                	ja     c00010d8 <disable_IRQ+0x69>
c000108c:	c7 04 24 21 00 00 00 	movl   $0x21,(%esp)
c0001093:	e8 f6 fe ff ff       	call   c0000f8e <inport08>
c0001098:	a2 40 54 01 c0       	mov    %al,0xc0015440
c000109d:	0f b6 45 fc          	movzbl -0x4(%ebp),%eax
c00010a1:	ba 01 00 00 00       	mov    $0x1,%edx
c00010a6:	89 c1                	mov    %eax,%ecx
c00010a8:	d3 e2                	shl    %cl,%edx
c00010aa:	89 d0                	mov    %edx,%eax
c00010ac:	89 c2                	mov    %eax,%edx
c00010ae:	0f b6 05 40 54 01 c0 	movzbl 0xc0015440,%eax
c00010b5:	09 d0                	or     %edx,%eax
c00010b7:	a2 40 54 01 c0       	mov    %al,0xc0015440
c00010bc:	0f b6 05 40 54 01 c0 	movzbl 0xc0015440,%eax
c00010c3:	0f b6 c0             	movzbl %al,%eax
c00010c6:	89 44 24 04          	mov    %eax,0x4(%esp)
c00010ca:	c7 04 24 21 00 00 00 	movl   $0x21,(%esp)
c00010d1:	e8 d5 fe ff ff       	call   c0000fab <outport08>
c00010d6:	eb 4d                	jmp    c0001125 <disable_IRQ+0xb6>
c00010d8:	c7 04 24 a1 00 00 00 	movl   $0xa1,(%esp)
c00010df:	e8 aa fe ff ff       	call   c0000f8e <inport08>
c00010e4:	a2 40 54 01 c0       	mov    %al,0xc0015440
c00010e9:	0f b6 45 fc          	movzbl -0x4(%ebp),%eax
c00010ed:	83 e8 08             	sub    $0x8,%eax
c00010f0:	ba 01 00 00 00       	mov    $0x1,%edx
c00010f5:	89 c1                	mov    %eax,%ecx
c00010f7:	d3 e2                	shl    %cl,%edx
c00010f9:	89 d0                	mov    %edx,%eax
c00010fb:	89 c2                	mov    %eax,%edx
c00010fd:	0f b6 05 40 54 01 c0 	movzbl 0xc0015440,%eax
c0001104:	09 d0                	or     %edx,%eax
c0001106:	a2 40 54 01 c0       	mov    %al,0xc0015440
c000110b:	0f b6 05 40 54 01 c0 	movzbl 0xc0015440,%eax
c0001112:	0f b6 c0             	movzbl %al,%eax
c0001115:	89 44 24 04          	mov    %eax,0x4(%esp)
c0001119:	c7 04 24 a1 00 00 00 	movl   $0xa1,(%esp)
c0001120:	e8 86 fe ff ff       	call   c0000fab <outport08>
c0001125:	c9                   	leave  
c0001126:	c3                   	ret    

c0001127 <enable_IRQ>:
enable_IRQ():
c0001127:	55                   	push   %ebp
c0001128:	89 e5                	mov    %esp,%ebp
c000112a:	83 ec 0c             	sub    $0xc,%esp
c000112d:	8b 45 08             	mov    0x8(%ebp),%eax
c0001130:	88 45 fc             	mov    %al,-0x4(%ebp)
c0001133:	80 7d fc 10          	cmpb   $0x10,-0x4(%ebp)
c0001137:	76 05                	jbe    c000113e <enable_IRQ+0x17>
c0001139:	e9 a3 00 00 00       	jmp    c00011e1 <enable_IRQ+0xba>
c000113e:	80 7d fc 07          	cmpb   $0x7,-0x4(%ebp)
c0001142:	77 4e                	ja     c0001192 <enable_IRQ+0x6b>
c0001144:	c7 04 24 21 00 00 00 	movl   $0x21,(%esp)
c000114b:	e8 3e fe ff ff       	call   c0000f8e <inport08>
c0001150:	a2 41 54 01 c0       	mov    %al,0xc0015441
c0001155:	0f b6 45 fc          	movzbl -0x4(%ebp),%eax
c0001159:	ba 01 00 00 00       	mov    $0x1,%edx
c000115e:	89 c1                	mov    %eax,%ecx
c0001160:	d3 e2                	shl    %cl,%edx
c0001162:	89 d0                	mov    %edx,%eax
c0001164:	f7 d0                	not    %eax
c0001166:	89 c2                	mov    %eax,%edx
c0001168:	0f b6 05 41 54 01 c0 	movzbl 0xc0015441,%eax
c000116f:	21 d0                	and    %edx,%eax
c0001171:	a2 41 54 01 c0       	mov    %al,0xc0015441
c0001176:	0f b6 05 41 54 01 c0 	movzbl 0xc0015441,%eax
c000117d:	0f b6 c0             	movzbl %al,%eax
c0001180:	89 44 24 04          	mov    %eax,0x4(%esp)
c0001184:	c7 04 24 21 00 00 00 	movl   $0x21,(%esp)
c000118b:	e8 1b fe ff ff       	call   c0000fab <outport08>
c0001190:	eb 4f                	jmp    c00011e1 <enable_IRQ+0xba>
c0001192:	c7 04 24 a1 00 00 00 	movl   $0xa1,(%esp)
c0001199:	e8 f0 fd ff ff       	call   c0000f8e <inport08>
c000119e:	a2 41 54 01 c0       	mov    %al,0xc0015441
c00011a3:	0f b6 45 fc          	movzbl -0x4(%ebp),%eax
c00011a7:	83 e8 08             	sub    $0x8,%eax
c00011aa:	ba 01 00 00 00       	mov    $0x1,%edx
c00011af:	89 c1                	mov    %eax,%ecx
c00011b1:	d3 e2                	shl    %cl,%edx
c00011b3:	89 d0                	mov    %edx,%eax
c00011b5:	f7 d0                	not    %eax
c00011b7:	89 c2                	mov    %eax,%edx
c00011b9:	0f b6 05 41 54 01 c0 	movzbl 0xc0015441,%eax
c00011c0:	21 d0                	and    %edx,%eax
c00011c2:	a2 41 54 01 c0       	mov    %al,0xc0015441
c00011c7:	0f b6 05 41 54 01 c0 	movzbl 0xc0015441,%eax
c00011ce:	0f b6 c0             	movzbl %al,%eax
c00011d1:	89 44 24 04          	mov    %eax,0x4(%esp)
c00011d5:	c7 04 24 a1 00 00 00 	movl   $0xa1,(%esp)
c00011dc:	e8 ca fd ff ff       	call   c0000fab <outport08>
c00011e1:	c9                   	leave  
c00011e2:	c3                   	ret    

c00011e3 <register_interrupt_handler>:
register_interrupt_handler():
c00011e3:	55                   	push   %ebp
c00011e4:	89 e5                	mov    %esp,%ebp
c00011e6:	83 ec 38             	sub    $0x38,%esp
c00011e9:	8b 45 08             	mov    0x8(%ebp),%eax
c00011ec:	88 45 e4             	mov    %al,-0x1c(%ebp)
c00011ef:	80 7d e4 10          	cmpb   $0x10,-0x1c(%ebp)
c00011f3:	76 02                	jbe    c00011f7 <register_interrupt_handler+0x14>
c00011f5:	eb 5a                	jmp    c0001251 <register_interrupt_handler+0x6e>
c00011f7:	0f b6 45 e4          	movzbl -0x1c(%ebp),%eax
c00011fb:	8b 04 85 40 50 01 c0 	mov    -0x3ffeafc0(,%eax,4),%eax
c0001202:	85 c0                	test   %eax,%eax
c0001204:	74 27                	je     c000122d <register_interrupt_handler+0x4a>
c0001206:	c7 44 24 0c 5c 00 00 	movl   $0x5c,0xc(%esp)
c000120d:	00 
c000120e:	c7 44 24 08 90 2f 00 	movl   $0xc0002f90,0x8(%esp)
c0001215:	c0 
c0001216:	c7 44 24 04 e8 2f 00 	movl   $0xc0002fe8,0x4(%esp)
c000121d:	c0 
c000121e:	c7 04 24 c0 2f 00 c0 	movl   $0xc0002fc0,(%esp)
c0001225:	e8 9c f1 ff ff       	call   c00003c6 <kprintf>
c000122a:	fa                   	cli    
c000122b:	eb fe                	jmp    c000122b <register_interrupt_handler+0x48>
c000122d:	9c                   	pushf  
c000122e:	58                   	pop    %eax
c000122f:	fa                   	cli    
c0001230:	89 45 f4             	mov    %eax,-0xc(%ebp)
c0001233:	0f b6 45 e4          	movzbl -0x1c(%ebp),%eax
c0001237:	8b 55 0c             	mov    0xc(%ebp),%edx
c000123a:	89 14 85 40 50 01 c0 	mov    %edx,-0x3ffeafc0(,%eax,4)
c0001241:	0f b6 45 e4          	movzbl -0x1c(%ebp),%eax
c0001245:	89 04 24             	mov    %eax,(%esp)
c0001248:	e8 da fe ff ff       	call   c0001127 <enable_IRQ>
c000124d:	ff 75 f4             	pushl  -0xc(%ebp)
c0001250:	9d                   	popf   
c0001251:	c9                   	leave  
c0001252:	c3                   	ret    

c0001253 <unregister_interrupt_handler>:
unregister_interrupt_handler():
c0001253:	55                   	push   %ebp
c0001254:	89 e5                	mov    %esp,%ebp
c0001256:	83 ec 18             	sub    $0x18,%esp
c0001259:	8b 45 08             	mov    0x8(%ebp),%eax
c000125c:	88 45 ec             	mov    %al,-0x14(%ebp)
c000125f:	80 7d ec 10          	cmpb   $0x10,-0x14(%ebp)
c0001263:	76 02                	jbe    c0001267 <unregister_interrupt_handler+0x14>
c0001265:	eb 25                	jmp    c000128c <unregister_interrupt_handler+0x39>
c0001267:	9c                   	pushf  
c0001268:	58                   	pop    %eax
c0001269:	fa                   	cli    
c000126a:	89 45 fc             	mov    %eax,-0x4(%ebp)
c000126d:	0f b6 45 ec          	movzbl -0x14(%ebp),%eax
c0001271:	c7 04 85 40 50 01 c0 	movl   $0x0,-0x3ffeafc0(,%eax,4)
c0001278:	00 00 00 00 
c000127c:	0f b6 45 ec          	movzbl -0x14(%ebp),%eax
c0001280:	89 04 24             	mov    %eax,(%esp)
c0001283:	e8 e7 fd ff ff       	call   c000106f <disable_IRQ>
c0001288:	ff 75 fc             	pushl  -0x4(%ebp)
c000128b:	9d                   	popf   
c000128c:	c9                   	leave  
c000128d:	c3                   	ret    

c000128e <k_main>:
k_main():
c000128e:	55                   	push   %ebp
c000128f:	89 e5                	mov    %esp,%ebp
c0001291:	83 ec 18             	sub    $0x18,%esp
c0001294:	e8 68 06 00 00       	call   c0001901 <initialize_paging>
c0001299:	e8 57 0c 00 00       	call   c0001ef5 <initialize_video>
c000129e:	e8 58 f0 ff ff       	call   c00002fb <initialize_boot_console>
c00012a3:	c7 04 24 07 00 00 00 	movl   $0x7,(%esp)
c00012aa:	e8 f5 f0 ff ff       	call   c00003a4 <kset_color>
c00012af:	c7 04 24 20 30 00 c0 	movl   $0xc0003020,(%esp)
c00012b6:	e8 0b f1 ff ff       	call   c00003c6 <kprintf>
c00012bb:	c7 04 24 09 00 00 00 	movl   $0x9,(%esp)
c00012c2:	e8 dd f0 ff ff       	call   c00003a4 <kset_color>
c00012c7:	c7 04 24 2c 30 00 c0 	movl   $0xc000302c,(%esp)
c00012ce:	e8 f3 f0 ff ff       	call   c00003c6 <kprintf>
c00012d3:	c7 04 24 07 00 00 00 	movl   $0x7,(%esp)
c00012da:	e8 c5 f0 ff ff       	call   c00003a4 <kset_color>
c00012df:	c7 44 24 08 3a 30 00 	movl   $0xc000303a,0x8(%esp)
c00012e6:	c0 
c00012e7:	c7 44 24 04 43 30 00 	movl   $0xc0003043,0x4(%esp)
c00012ee:	c0 
c00012ef:	c7 04 24 55 30 00 c0 	movl   $0xc0003055,(%esp)
c00012f6:	e8 cb f0 ff ff       	call   c00003c6 <kprintf>
c00012fb:	b8 00 00 00 c0       	mov    $0xc0000000,%eax
c0001300:	89 44 24 04          	mov    %eax,0x4(%esp)
c0001304:	c7 04 24 68 30 00 c0 	movl   $0xc0003068,(%esp)
c000130b:	e8 b6 f0 ff ff       	call   c00003c6 <kprintf>
c0001310:	a1 04 00 00 c0       	mov    0xc0000004,%eax
c0001315:	c1 e8 14             	shr    $0x14,%eax
c0001318:	89 44 24 04          	mov    %eax,0x4(%esp)
c000131c:	c7 04 24 98 30 00 c0 	movl   $0xc0003098,(%esp)
c0001323:	e8 9e f0 ff ff       	call   c00003c6 <kprintf>
c0001328:	c7 04 24 b8 30 00 c0 	movl   $0xc00030b8,(%esp)
c000132f:	e8 92 f0 ff ff       	call   c00003c6 <kprintf>
c0001334:	e8 7e 00 00 00       	call   c00013b7 <print_ok>
c0001339:	c7 04 24 e5 30 00 c0 	movl   $0xc00030e5,(%esp)
c0001340:	e8 81 f0 ff ff       	call   c00003c6 <kprintf>
c0001345:	e8 c9 f4 ff ff       	call   c0000813 <reprogram_PIC_8259>
c000134a:	e8 68 00 00 00       	call   c00013b7 <print_ok>
c000134f:	c7 04 24 ff 30 00 c0 	movl   $0xc00030ff,(%esp)
c0001356:	e8 6b f0 ff ff       	call   c00003c6 <kprintf>
c000135b:	e8 95 02 00 00       	call   c00015f5 <initialize_GDT>
c0001360:	e8 52 00 00 00       	call   c00013b7 <print_ok>
c0001365:	c7 04 24 18 31 00 c0 	movl   $0xc0003118,(%esp)
c000136c:	e8 55 f0 ff ff       	call   c00003c6 <kprintf>
c0001371:	e8 9f f6 ff ff       	call   c0000a15 <initialize_IDT>
c0001376:	e8 3c 00 00 00       	call   c00013b7 <print_ok>
c000137b:	c7 04 24 31 31 00 c0 	movl   $0xc0003131,(%esp)
c0001382:	e8 3f f0 ff ff       	call   c00003c6 <kprintf>
c0001387:	e8 0d ef ff ff       	call   c0000299 <initialize_clock>
c000138c:	e8 26 00 00 00       	call   c00013b7 <print_ok>
c0001391:	c7 04 24 03 00 00 00 	movl   $0x3,(%esp)
c0001398:	e8 07 f0 ff ff       	call   c00003a4 <kset_color>
c000139d:	c7 04 24 50 31 00 c0 	movl   $0xc0003150,(%esp)
c00013a4:	e8 1d f0 ff ff       	call   c00003c6 <kprintf>
c00013a9:	c7 04 24 90 31 00 c0 	movl   $0xc0003190,(%esp)
c00013b0:	e8 11 f0 ff ff       	call   c00003c6 <kprintf>
c00013b5:	eb fe                	jmp    c00013b5 <k_main+0x127>

c00013b7 <print_ok>:
print_ok():
c00013b7:	55                   	push   %ebp
c00013b8:	89 e5                	mov    %esp,%ebp
c00013ba:	83 ec 18             	sub    $0x18,%esp
c00013bd:	c7 04 24 07 00 00 00 	movl   $0x7,(%esp)
c00013c4:	e8 db ef ff ff       	call   c00003a4 <kset_color>
c00013c9:	c7 04 24 be 31 00 c0 	movl   $0xc00031be,(%esp)
c00013d0:	e8 f1 ef ff ff       	call   c00003c6 <kprintf>
c00013d5:	c7 04 24 02 00 00 00 	movl   $0x2,(%esp)
c00013dc:	e8 c3 ef ff ff       	call   c00003a4 <kset_color>
c00013e1:	c7 04 24 c8 31 00 c0 	movl   $0xc00031c8,(%esp)
c00013e8:	e8 d9 ef ff ff       	call   c00003c6 <kprintf>
c00013ed:	c7 04 24 07 00 00 00 	movl   $0x7,(%esp)
c00013f4:	e8 ab ef ff ff       	call   c00003a4 <kset_color>
c00013f9:	c7 04 24 cb 31 00 c0 	movl   $0xc00031cb,(%esp)
c0001400:	e8 c1 ef ff ff       	call   c00003c6 <kprintf>
c0001405:	c9                   	leave  
c0001406:	c3                   	ret    

c0001407 <print_failed>:
print_failed():
c0001407:	55                   	push   %ebp
c0001408:	89 e5                	mov    %esp,%ebp
c000140a:	83 ec 18             	sub    $0x18,%esp
c000140d:	c7 04 24 07 00 00 00 	movl   $0x7,(%esp)
c0001414:	e8 8b ef ff ff       	call   c00003a4 <kset_color>
c0001419:	c7 04 24 be 31 00 c0 	movl   $0xc00031be,(%esp)
c0001420:	e8 a1 ef ff ff       	call   c00003c6 <kprintf>
c0001425:	c7 04 24 0c 00 00 00 	movl   $0xc,(%esp)
c000142c:	e8 73 ef ff ff       	call   c00003a4 <kset_color>
c0001431:	c7 04 24 cf 31 00 c0 	movl   $0xc00031cf,(%esp)
c0001438:	e8 89 ef ff ff       	call   c00003c6 <kprintf>
c000143d:	c7 04 24 07 00 00 00 	movl   $0x7,(%esp)
c0001444:	e8 5b ef ff ff       	call   c00003a4 <kset_color>
c0001449:	c7 04 24 cb 31 00 c0 	movl   $0xc00031cb,(%esp)
c0001450:	e8 71 ef ff ff       	call   c00003c6 <kprintf>
c0001455:	c9                   	leave  
c0001456:	c3                   	ret    

c0001457 <k_update_segment_regs>:
k_update_segment_regs():
c0001457:	55                   	push   %ebp
c0001458:	89 e5                	mov    %esp,%ebp
c000145a:	ea 61 14 00 c0 08 00 	ljmp   $0x8,$0xc0001461

c0001461 <update_sel>:
c0001461:	b8 10 00 00 00       	mov    $0x10,%eax
c0001466:	8e d8                	mov    %eax,%ds
c0001468:	8e c0                	mov    %eax,%es
c000146a:	8e d0                	mov    %eax,%ss
c000146c:	90                   	nop
c000146d:	b8 10 00 00 00       	mov    $0x10,%eax
c0001472:	8e e0                	mov    %eax,%fs
c0001474:	8e e8                	mov    %eax,%gs
c0001476:	5d                   	pop    %ebp
c0001477:	c3                   	ret    

c0001478 <setup_GDT_entry>:
setup_GDT_entry():
c0001478:	55                   	push   %ebp
c0001479:	89 e5                	mov    %esp,%ebp
c000147b:	53                   	push   %ebx
c000147c:	83 ec 34             	sub    $0x34,%esp
c000147f:	8b 4d 08             	mov    0x8(%ebp),%ecx
c0001482:	8b 55 10             	mov    0x10(%ebp),%edx
c0001485:	8b 45 14             	mov    0x14(%ebp),%eax
c0001488:	66 89 4d e4          	mov    %cx,-0x1c(%ebp)
c000148c:	88 55 e0             	mov    %dl,-0x20(%ebp)
c000148f:	88 45 dc             	mov    %al,-0x24(%ebp)
c0001492:	bb 00 00 00 00       	mov    $0x0,%ebx
c0001497:	eb 33                	jmp    c00014cc <setup_GDT_entry+0x54>
c0001499:	66 81 fb 00 20       	cmp    $0x2000,%bx
c000149e:	75 27                	jne    c00014c7 <setup_GDT_entry+0x4f>
c00014a0:	c7 44 24 0c 1d 00 00 	movl   $0x1d,0xc(%esp)
c00014a7:	00 
c00014a8:	c7 44 24 08 d8 31 00 	movl   $0xc00031d8,0x8(%esp)
c00014af:	c0 
c00014b0:	c7 44 24 04 e5 31 00 	movl   $0xc00031e5,0x4(%esp)
c00014b7:	c0 
c00014b8:	c7 04 24 fc 31 00 c0 	movl   $0xc00031fc,(%esp)
c00014bf:	e8 02 ef ff ff       	call   c00003c6 <kprintf>
c00014c4:	fa                   	cli    
c00014c5:	eb fe                	jmp    c00014c5 <setup_GDT_entry+0x4d>
c00014c7:	89 d8                	mov    %ebx,%eax
c00014c9:	8d 58 01             	lea    0x1(%eax),%ebx
c00014cc:	0f b7 c3             	movzwl %bx,%eax
c00014cf:	0f b6 80 80 5c 02 c0 	movzbl -0x3ffda380(%eax),%eax
c00014d6:	84 c0                	test   %al,%al
c00014d8:	75 bf                	jne    c0001499 <setup_GDT_entry+0x21>
c00014da:	9c                   	pushf  
c00014db:	58                   	pop    %eax
c00014dc:	fa                   	cli    
c00014dd:	89 45 f4             	mov    %eax,-0xc(%ebp)
c00014e0:	0f b7 c3             	movzwl %bx,%eax
c00014e3:	0f b7 55 e4          	movzwl -0x1c(%ebp),%edx
c00014e7:	66 89 14 c5 80 5c 01 	mov    %dx,-0x3ffea380(,%eax,8)
c00014ee:	c0 
c00014ef:	0f b7 c3             	movzwl %bx,%eax
c00014f2:	8b 55 0c             	mov    0xc(%ebp),%edx
c00014f5:	66 89 14 c5 82 5c 01 	mov    %dx,-0x3ffea37e(,%eax,8)
c00014fc:	c0 
c00014fd:	0f b7 c3             	movzwl %bx,%eax
c0001500:	8b 55 0c             	mov    0xc(%ebp),%edx
c0001503:	c1 ea 10             	shr    $0x10,%edx
c0001506:	88 14 c5 84 5c 01 c0 	mov    %dl,-0x3ffea37c(,%eax,8)
c000150d:	0f b7 c3             	movzwl %bx,%eax
c0001510:	8b 55 0c             	mov    0xc(%ebp),%edx
c0001513:	c1 ea 18             	shr    $0x18,%edx
c0001516:	88 14 c5 87 5c 01 c0 	mov    %dl,-0x3ffea379(,%eax,8)
c000151d:	0f b7 c3             	movzwl %bx,%eax
c0001520:	0f b6 55 e0          	movzbl -0x20(%ebp),%edx
c0001524:	88 14 c5 85 5c 01 c0 	mov    %dl,-0x3ffea37b(,%eax,8)
c000152b:	0f b7 c3             	movzwl %bx,%eax
c000152e:	0f b6 55 dc          	movzbl -0x24(%ebp),%edx
c0001532:	88 14 c5 86 5c 01 c0 	mov    %dl,-0x3ffea37a(,%eax,8)
c0001539:	0f b7 c3             	movzwl %bx,%eax
c000153c:	c6 80 80 5c 02 c0 01 	movb   $0x1,-0x3ffda380(%eax)
c0001543:	ff 75 f4             	pushl  -0xc(%ebp)
c0001546:	9d                   	popf   
c0001547:	8d 04 dd 00 00 00 00 	lea    0x0(,%ebx,8),%eax
c000154e:	83 c4 34             	add    $0x34,%esp
c0001551:	5b                   	pop    %ebx
c0001552:	5d                   	pop    %ebp
c0001553:	c3                   	ret    

c0001554 <remove_GDT_entry>:
remove_GDT_entry():
c0001554:	55                   	push   %ebp
c0001555:	89 e5                	mov    %esp,%ebp
c0001557:	83 ec 14             	sub    $0x14,%esp
c000155a:	8b 45 08             	mov    0x8(%ebp),%eax
c000155d:	66 89 45 ec          	mov    %ax,-0x14(%ebp)
c0001561:	9c                   	pushf  
c0001562:	58                   	pop    %eax
c0001563:	fa                   	cli    
c0001564:	89 45 fc             	mov    %eax,-0x4(%ebp)
c0001567:	0f b7 45 ec          	movzwl -0x14(%ebp),%eax
c000156b:	66 c1 e8 03          	shr    $0x3,%ax
c000156f:	0f b7 c0             	movzwl %ax,%eax
c0001572:	66 c7 04 c5 80 5c 01 	movw   $0x0,-0x3ffea380(,%eax,8)
c0001579:	c0 00 00 
c000157c:	0f b7 45 ec          	movzwl -0x14(%ebp),%eax
c0001580:	66 c1 e8 03          	shr    $0x3,%ax
c0001584:	0f b7 c0             	movzwl %ax,%eax
c0001587:	66 c7 04 c5 82 5c 01 	movw   $0x0,-0x3ffea37e(,%eax,8)
c000158e:	c0 00 00 
c0001591:	0f b7 45 ec          	movzwl -0x14(%ebp),%eax
c0001595:	66 c1 e8 03          	shr    $0x3,%ax
c0001599:	0f b7 c0             	movzwl %ax,%eax
c000159c:	c6 04 c5 84 5c 01 c0 	movb   $0x0,-0x3ffea37c(,%eax,8)
c00015a3:	00 
c00015a4:	0f b7 45 ec          	movzwl -0x14(%ebp),%eax
c00015a8:	66 c1 e8 03          	shr    $0x3,%ax
c00015ac:	0f b7 c0             	movzwl %ax,%eax
c00015af:	c6 04 c5 87 5c 01 c0 	movb   $0x0,-0x3ffea379(,%eax,8)
c00015b6:	00 
c00015b7:	0f b7 45 ec          	movzwl -0x14(%ebp),%eax
c00015bb:	66 c1 e8 03          	shr    $0x3,%ax
c00015bf:	0f b7 c0             	movzwl %ax,%eax
c00015c2:	c6 04 c5 85 5c 01 c0 	movb   $0x0,-0x3ffea37b(,%eax,8)
c00015c9:	00 
c00015ca:	0f b7 45 ec          	movzwl -0x14(%ebp),%eax
c00015ce:	66 c1 e8 03          	shr    $0x3,%ax
c00015d2:	0f b7 c0             	movzwl %ax,%eax
c00015d5:	c6 04 c5 86 5c 01 c0 	movb   $0x0,-0x3ffea37a(,%eax,8)
c00015dc:	00 
c00015dd:	0f b7 45 ec          	movzwl -0x14(%ebp),%eax
c00015e1:	66 c1 e8 03          	shr    $0x3,%ax
c00015e5:	0f b7 c0             	movzwl %ax,%eax
c00015e8:	c6 80 80 5c 02 c0 00 	movb   $0x0,-0x3ffda380(%eax)
c00015ef:	ff 75 fc             	pushl  -0x4(%ebp)
c00015f2:	9d                   	popf   
c00015f3:	c9                   	leave  
c00015f4:	c3                   	ret    

c00015f5 <initialize_GDT>:
initialize_GDT():
c00015f5:	55                   	push   %ebp
c00015f6:	89 e5                	mov    %esp,%ebp
c00015f8:	53                   	push   %ebx
c00015f9:	83 ec 14             	sub    $0x14,%esp
c00015fc:	bb 00 00 00 00       	mov    $0x0,%ebx
c0001601:	eb 0e                	jmp    c0001611 <initialize_GDT+0x1c>
c0001603:	0f b7 c3             	movzwl %bx,%eax
c0001606:	89 04 24             	mov    %eax,(%esp)
c0001609:	e8 46 ff ff ff       	call   c0001554 <remove_GDT_entry>
c000160e:	83 c3 08             	add    $0x8,%ebx
c0001611:	66 81 fb ff 1f       	cmp    $0x1fff,%bx
c0001616:	76 eb                	jbe    c0001603 <initialize_GDT+0xe>
c0001618:	c7 44 24 0c 00 00 00 	movl   $0x0,0xc(%esp)
c000161f:	00 
c0001620:	c7 44 24 08 00 00 00 	movl   $0x0,0x8(%esp)
c0001627:	00 
c0001628:	c7 44 24 04 00 00 00 	movl   $0x0,0x4(%esp)
c000162f:	00 
c0001630:	c7 04 24 00 00 00 00 	movl   $0x0,(%esp)
c0001637:	e8 3c fe ff ff       	call   c0001478 <setup_GDT_entry>
c000163c:	c7 44 24 0c cf 00 00 	movl   $0xcf,0xc(%esp)
c0001643:	00 
c0001644:	c7 44 24 08 9a 00 00 	movl   $0x9a,0x8(%esp)
c000164b:	00 
c000164c:	c7 44 24 04 00 00 00 	movl   $0x0,0x4(%esp)
c0001653:	00 
c0001654:	c7 04 24 ff ff 00 00 	movl   $0xffff,(%esp)
c000165b:	e8 18 fe ff ff       	call   c0001478 <setup_GDT_entry>
c0001660:	c7 44 24 0c cf 00 00 	movl   $0xcf,0xc(%esp)
c0001667:	00 
c0001668:	c7 44 24 08 92 00 00 	movl   $0x92,0x8(%esp)
c000166f:	00 
c0001670:	c7 44 24 04 00 00 00 	movl   $0x0,0x4(%esp)
c0001677:	00 
c0001678:	c7 04 24 ff ff 00 00 	movl   $0xffff,(%esp)
c000167f:	e8 f4 fd ff ff       	call   c0001478 <setup_GDT_entry>
c0001684:	c7 44 24 0c cf 00 00 	movl   $0xcf,0xc(%esp)
c000168b:	00 
c000168c:	c7 44 24 08 fa 00 00 	movl   $0xfa,0x8(%esp)
c0001693:	00 
c0001694:	c7 44 24 04 00 00 00 	movl   $0x0,0x4(%esp)
c000169b:	00 
c000169c:	c7 04 24 ff ff 00 00 	movl   $0xffff,(%esp)
c00016a3:	e8 d0 fd ff ff       	call   c0001478 <setup_GDT_entry>
c00016a8:	c7 44 24 0c cf 00 00 	movl   $0xcf,0xc(%esp)
c00016af:	00 
c00016b0:	c7 44 24 08 f2 00 00 	movl   $0xf2,0x8(%esp)
c00016b7:	00 
c00016b8:	c7 44 24 04 00 00 00 	movl   $0x0,0x4(%esp)
c00016bf:	00 
c00016c0:	c7 04 24 ff ff 00 00 	movl   $0xffff,(%esp)
c00016c7:	e8 ac fd ff ff       	call   c0001478 <setup_GDT_entry>
c00016cc:	66 c7 05 80 7c 02 c0 	movw   $0xffff,0xc0027c80
c00016d3:	ff ff 
c00016d5:	b8 82 7c 02 c0       	mov    $0xc0027c82,%eax
c00016da:	ba 80 5c 01 c0       	mov    $0xc0015c80,%edx
c00016df:	89 10                	mov    %edx,(%eax)
c00016e1:	b8 80 7c 02 c0       	mov    $0xc0027c80,%eax
c00016e6:	0f 01 10             	lgdtl  (%eax)
c00016e9:	e8 69 fd ff ff       	call   c0001457 <k_update_segment_regs>
c00016ee:	83 c4 14             	add    $0x14,%esp
c00016f1:	5b                   	pop    %ebx
c00016f2:	5d                   	pop    %ebp
c00016f3:	c3                   	ret    

c00016f4 <invlpg>:
invlpg():
c00016f4:	55                   	push   %ebp
c00016f5:	89 e5                	mov    %esp,%ebp
c00016f7:	0f 01 7d 08          	invlpg 0x8(%ebp)
c00016fb:	5d                   	pop    %ebp
c00016fc:	c3                   	ret    

c00016fd <reload_CR3>:
reload_CR3():
c00016fd:	55                   	push   %ebp
c00016fe:	89 e5                	mov    %esp,%ebp
c0001700:	0f 20 d8             	mov    %cr3,%eax
c0001703:	0f 22 d8             	mov    %eax,%cr3
c0001706:	5d                   	pop    %ebp
c0001707:	c3                   	ret    

c0001708 <pop_frame>:
pop_frame():
c0001708:	55                   	push   %ebp
c0001709:	89 e5                	mov    %esp,%ebp
c000170b:	83 ec 10             	sub    $0x10,%esp
c000170e:	9c                   	pushf  
c000170f:	58                   	pop    %eax
c0001710:	fa                   	cli    
c0001711:	89 45 fc             	mov    %eax,-0x4(%ebp)
c0001714:	a1 60 47 00 c0       	mov    0xc0004760,%eax
c0001719:	8b 00                	mov    (%eax),%eax
c000171b:	85 c0                	test   %eax,%eax
c000171d:	74 2b                	je     c000174a <pop_frame+0x42>
c000171f:	a1 60 47 00 c0       	mov    0xc0004760,%eax
c0001724:	8b 00                	mov    (%eax),%eax
c0001726:	89 45 f8             	mov    %eax,-0x8(%ebp)
c0001729:	a1 60 47 00 c0       	mov    0xc0004760,%eax
c000172e:	c7 00 00 00 00 00    	movl   $0x0,(%eax)
c0001734:	a1 60 47 00 c0       	mov    0xc0004760,%eax
c0001739:	83 c0 04             	add    $0x4,%eax
c000173c:	a3 60 47 00 c0       	mov    %eax,0xc0004760
c0001741:	ff 75 fc             	pushl  -0x4(%ebp)
c0001744:	9d                   	popf   
c0001745:	8b 45 f8             	mov    -0x8(%ebp),%eax
c0001748:	eb 09                	jmp    c0001753 <pop_frame+0x4b>
c000174a:	ff 75 fc             	pushl  -0x4(%ebp)
c000174d:	9d                   	popf   
c000174e:	b8 00 00 00 00       	mov    $0x0,%eax
c0001753:	c9                   	leave  
c0001754:	c3                   	ret    

c0001755 <push_frame>:
push_frame():
c0001755:	55                   	push   %ebp
c0001756:	89 e5                	mov    %esp,%ebp
c0001758:	83 ec 10             	sub    $0x10,%esp
c000175b:	9c                   	pushf  
c000175c:	58                   	pop    %eax
c000175d:	fa                   	cli    
c000175e:	89 45 fc             	mov    %eax,-0x4(%ebp)
c0001761:	a1 60 47 00 c0       	mov    0xc0004760,%eax
c0001766:	89 c2                	mov    %eax,%edx
c0001768:	b8 00 80 02 c0       	mov    $0xc0028000,%eax
c000176d:	39 c2                	cmp    %eax,%edx
c000176f:	76 17                	jbe    c0001788 <push_frame+0x33>
c0001771:	a1 60 47 00 c0       	mov    0xc0004760,%eax
c0001776:	83 e8 04             	sub    $0x4,%eax
c0001779:	a3 60 47 00 c0       	mov    %eax,0xc0004760
c000177e:	a1 60 47 00 c0       	mov    0xc0004760,%eax
c0001783:	8b 55 08             	mov    0x8(%ebp),%edx
c0001786:	89 10                	mov    %edx,(%eax)
c0001788:	ff 75 fc             	pushl  -0x4(%ebp)
c000178b:	9d                   	popf   
c000178c:	c9                   	leave  
c000178d:	c3                   	ret    

c000178e <init_free_frames>:
init_free_frames():
c000178e:	55                   	push   %ebp
c000178f:	89 e5                	mov    %esp,%ebp
c0001791:	83 ec 10             	sub    $0x10,%esp
c0001794:	c7 45 fc 00 10 00 00 	movl   $0x1000,-0x4(%ebp)
c000179b:	a1 60 47 00 c0       	mov    0xc0004760,%eax
c00017a0:	a3 88 7c 02 c0       	mov    %eax,0xc0027c88
c00017a5:	eb 19                	jmp    c00017c0 <init_free_frames+0x32>
c00017a7:	a1 88 7c 02 c0       	mov    0xc0027c88,%eax
c00017ac:	8d 50 04             	lea    0x4(%eax),%edx
c00017af:	89 15 88 7c 02 c0    	mov    %edx,0xc0027c88
c00017b5:	8b 55 fc             	mov    -0x4(%ebp),%edx
c00017b8:	8d 4a 01             	lea    0x1(%edx),%ecx
c00017bb:	89 4d fc             	mov    %ecx,-0x4(%ebp)
c00017be:	89 10                	mov    %edx,(%eax)
c00017c0:	a1 04 00 00 c0       	mov    0xc0000004,%eax
c00017c5:	c1 e8 0c             	shr    $0xc,%eax
c00017c8:	3b 45 fc             	cmp    -0x4(%ebp),%eax
c00017cb:	77 da                	ja     c00017a7 <init_free_frames+0x19>
c00017cd:	a1 88 7c 02 c0       	mov    0xc0027c88,%eax
c00017d2:	c7 00 00 00 00 00    	movl   $0x0,(%eax)
c00017d8:	c9                   	leave  
c00017d9:	c3                   	ret    

c00017da <map_page>:
map_page():
c00017da:	55                   	push   %ebp
c00017db:	89 e5                	mov    %esp,%ebp
c00017dd:	83 ec 18             	sub    $0x18,%esp
c00017e0:	8b 45 10             	mov    0x10(%ebp),%eax
c00017e3:	66 89 45 ec          	mov    %ax,-0x14(%ebp)
c00017e7:	9c                   	pushf  
c00017e8:	58                   	pop    %eax
c00017e9:	fa                   	cli    
c00017ea:	89 45 f8             	mov    %eax,-0x8(%ebp)
c00017ed:	81 65 08 00 f0 ff ff 	andl   $0xfffff000,0x8(%ebp)
c00017f4:	81 65 0c 00 f0 ff ff 	andl   $0xfffff000,0xc(%ebp)
c00017fb:	66 81 65 ec ff 0f    	andw   $0xfff,-0x14(%ebp)
c0001801:	8b 45 08             	mov    0x8(%ebp),%eax
c0001804:	c1 e8 16             	shr    $0x16,%eax
c0001807:	05 00 fc ff 3f       	add    $0x3ffffc00,%eax
c000180c:	c1 e0 02             	shl    $0x2,%eax
c000180f:	8b 00                	mov    (%eax),%eax
c0001811:	85 c0                	test   %eax,%eax
c0001813:	0f 85 a9 00 00 00    	jne    c00018c2 <map_page+0xe8>
c0001819:	e8 ea fe ff ff       	call   c0001708 <pop_frame>
c000181e:	c1 e0 0c             	shl    $0xc,%eax
c0001821:	89 45 f4             	mov    %eax,-0xc(%ebp)
c0001824:	83 7d f4 00          	cmpl   $0x0,-0xc(%ebp)
c0001828:	75 0e                	jne    c0001838 <map_page+0x5e>
c000182a:	ff 75 f8             	pushl  -0x8(%ebp)
c000182d:	9d                   	popf   
c000182e:	b8 00 00 00 00       	mov    $0x0,%eax
c0001833:	e9 c7 00 00 00       	jmp    c00018ff <map_page+0x125>
c0001838:	8b 45 08             	mov    0x8(%ebp),%eax
c000183b:	c1 e8 16             	shr    $0x16,%eax
c000183e:	05 00 fc ff 3f       	add    $0x3ffffc00,%eax
c0001843:	c1 e0 02             	shl    $0x2,%eax
c0001846:	8b 55 f4             	mov    -0xc(%ebp),%edx
c0001849:	83 ca 07             	or     $0x7,%edx
c000184c:	89 10                	mov    %edx,(%eax)
c000184e:	8b 45 08             	mov    0x8(%ebp),%eax
c0001851:	25 ff ff 3f 00       	and    $0x3fffff,%eax
c0001856:	c1 e8 0c             	shr    $0xc,%eax
c0001859:	89 c2                	mov    %eax,%edx
c000185b:	8b 45 08             	mov    0x8(%ebp),%eax
c000185e:	c1 e8 16             	shr    $0x16,%eax
c0001861:	c1 e0 0a             	shl    $0xa,%eax
c0001864:	01 d0                	add    %edx,%eax
c0001866:	05 00 00 f0 3f       	add    $0x3ff00000,%eax
c000186b:	c1 e0 02             	shl    $0x2,%eax
c000186e:	89 04 24             	mov    %eax,(%esp)
c0001871:	e8 7e fe ff ff       	call   c00016f4 <invlpg>
c0001876:	8b 45 08             	mov    0x8(%ebp),%eax
c0001879:	25 00 00 c0 ff       	and    $0xffc00000,%eax
c000187e:	89 45 fc             	mov    %eax,-0x4(%ebp)
c0001881:	eb 2d                	jmp    c00018b0 <map_page+0xd6>
c0001883:	8b 45 fc             	mov    -0x4(%ebp),%eax
c0001886:	c1 e8 16             	shr    $0x16,%eax
c0001889:	05 00 fc 0f 00       	add    $0xffc00,%eax
c000188e:	c1 e0 0a             	shl    $0xa,%eax
c0001891:	89 c2                	mov    %eax,%edx
c0001893:	8b 45 fc             	mov    -0x4(%ebp),%eax
c0001896:	25 ff ff 3f 00       	and    $0x3fffff,%eax
c000189b:	c1 e8 0c             	shr    $0xc,%eax
c000189e:	01 d0                	add    %edx,%eax
c00018a0:	c1 e0 02             	shl    $0x2,%eax
c00018a3:	c7 00 00 00 00 00    	movl   $0x0,(%eax)
c00018a9:	81 45 fc 00 10 00 00 	addl   $0x1000,-0x4(%ebp)
c00018b0:	8b 45 08             	mov    0x8(%ebp),%eax
c00018b3:	25 00 00 c0 ff       	and    $0xffc00000,%eax
c00018b8:	05 00 00 40 00       	add    $0x400000,%eax
c00018bd:	3b 45 fc             	cmp    -0x4(%ebp),%eax
c00018c0:	77 c1                	ja     c0001883 <map_page+0xa9>
c00018c2:	8b 45 08             	mov    0x8(%ebp),%eax
c00018c5:	c1 e8 16             	shr    $0x16,%eax
c00018c8:	05 00 fc 0f 00       	add    $0xffc00,%eax
c00018cd:	c1 e0 0a             	shl    $0xa,%eax
c00018d0:	89 c2                	mov    %eax,%edx
c00018d2:	8b 45 08             	mov    0x8(%ebp),%eax
c00018d5:	25 ff ff 3f 00       	and    $0x3fffff,%eax
c00018da:	c1 e8 0c             	shr    $0xc,%eax
c00018dd:	01 d0                	add    %edx,%eax
c00018df:	c1 e0 02             	shl    $0x2,%eax
c00018e2:	0f b7 55 ec          	movzwl -0x14(%ebp),%edx
c00018e6:	0b 55 0c             	or     0xc(%ebp),%edx
c00018e9:	89 10                	mov    %edx,(%eax)
c00018eb:	8b 45 08             	mov    0x8(%ebp),%eax
c00018ee:	89 04 24             	mov    %eax,(%esp)
c00018f1:	e8 fe fd ff ff       	call   c00016f4 <invlpg>
c00018f6:	ff 75 f8             	pushl  -0x8(%ebp)
c00018f9:	9d                   	popf   
c00018fa:	b8 01 00 00 00       	mov    $0x1,%eax
c00018ff:	c9                   	leave  
c0001900:	c3                   	ret    

c0001901 <initialize_paging>:
initialize_paging():
c0001901:	55                   	push   %ebp
c0001902:	89 e5                	mov    %esp,%ebp
c0001904:	83 ec 1c             	sub    $0x1c,%esp
c0001907:	e8 82 fe ff ff       	call   c000178e <init_free_frames>
c000190c:	b8 00 f0 ff ff       	mov    $0xfffff000,%eax
c0001911:	c7 00 00 00 00 00    	movl   $0x0,(%eax)
c0001917:	c7 45 fc 00 00 00 00 	movl   $0x0,-0x4(%ebp)
c000191e:	eb 27                	jmp    c0001947 <initialize_paging+0x46>
c0001920:	8b 45 fc             	mov    -0x4(%ebp),%eax
c0001923:	8d 90 00 00 00 e0    	lea    -0x20000000(%eax),%edx
c0001929:	c7 44 24 08 03 00 00 	movl   $0x3,0x8(%esp)
c0001930:	00 
c0001931:	8b 45 fc             	mov    -0x4(%ebp),%eax
c0001934:	89 44 24 04          	mov    %eax,0x4(%esp)
c0001938:	89 14 24             	mov    %edx,(%esp)
c000193b:	e8 9a fe ff ff       	call   c00017da <map_page>
c0001940:	81 45 fc 00 10 00 00 	addl   $0x1000,-0x4(%ebp)
c0001947:	81 7d fc ff ff ff 00 	cmpl   $0xffffff,-0x4(%ebp)
c000194e:	76 d0                	jbe    c0001920 <initialize_paging+0x1f>
c0001950:	e8 a8 fd ff ff       	call   c00016fd <reload_CR3>
c0001955:	c9                   	leave  
c0001956:	c3                   	ret    

c0001957 <dump_dirty_pages>:
dump_dirty_pages():
c0001957:	55                   	push   %ebp
c0001958:	89 e5                	mov    %esp,%ebp
c000195a:	83 ec 28             	sub    $0x28,%esp
c000195d:	c7 45 f0 01 00 00 00 	movl   $0x1,-0x10(%ebp)
c0001964:	c7 04 24 24 32 00 c0 	movl   $0xc0003224,(%esp)
c000196b:	e8 56 ea ff ff       	call   c00003c6 <kprintf>
c0001970:	c7 45 f4 00 00 00 00 	movl   $0x0,-0xc(%ebp)
c0001977:	e9 9f 00 00 00       	jmp    c0001a1b <dump_dirty_pages+0xc4>
c000197c:	8b 45 f4             	mov    -0xc(%ebp),%eax
c000197f:	c1 e8 16             	shr    $0x16,%eax
c0001982:	05 00 fc ff 3f       	add    $0x3ffffc00,%eax
c0001987:	c1 e0 02             	shl    $0x2,%eax
c000198a:	8b 00                	mov    (%eax),%eax
c000198c:	85 c0                	test   %eax,%eax
c000198e:	0f 84 80 00 00 00    	je     c0001a14 <dump_dirty_pages+0xbd>
c0001994:	8b 45 f4             	mov    -0xc(%ebp),%eax
c0001997:	c1 e8 16             	shr    $0x16,%eax
c000199a:	05 00 fc 0f 00       	add    $0xffc00,%eax
c000199f:	c1 e0 0a             	shl    $0xa,%eax
c00019a2:	89 c2                	mov    %eax,%edx
c00019a4:	8b 45 f4             	mov    -0xc(%ebp),%eax
c00019a7:	25 ff ff 3f 00       	and    $0x3fffff,%eax
c00019ac:	c1 e8 0c             	shr    $0xc,%eax
c00019af:	01 d0                	add    %edx,%eax
c00019b1:	c1 e0 02             	shl    $0x2,%eax
c00019b4:	8b 00                	mov    (%eax),%eax
c00019b6:	83 e0 40             	and    $0x40,%eax
c00019b9:	85 c0                	test   %eax,%eax
c00019bb:	74 57                	je     c0001a14 <dump_dirty_pages+0xbd>
c00019bd:	83 45 f0 01          	addl   $0x1,-0x10(%ebp)
c00019c1:	8b 4d f0             	mov    -0x10(%ebp),%ecx
c00019c4:	ba ab aa aa aa       	mov    $0xaaaaaaab,%edx
c00019c9:	89 c8                	mov    %ecx,%eax
c00019cb:	f7 e2                	mul    %edx
c00019cd:	c1 ea 04             	shr    $0x4,%edx
c00019d0:	89 d0                	mov    %edx,%eax
c00019d2:	01 c0                	add    %eax,%eax
c00019d4:	01 d0                	add    %edx,%eax
c00019d6:	c1 e0 03             	shl    $0x3,%eax
c00019d9:	29 c1                	sub    %eax,%ecx
c00019db:	8b 45 f4             	mov    -0xc(%ebp),%eax
c00019de:	c1 e8 16             	shr    $0x16,%eax
c00019e1:	05 00 fc 0f 00       	add    $0xffc00,%eax
c00019e6:	c1 e0 0a             	shl    $0xa,%eax
c00019e9:	89 c2                	mov    %eax,%edx
c00019eb:	8b 45 f4             	mov    -0xc(%ebp),%eax
c00019ee:	25 ff ff 3f 00       	and    $0x3fffff,%eax
c00019f3:	c1 e8 0c             	shr    $0xc,%eax
c00019f6:	01 d0                	add    %edx,%eax
c00019f8:	c1 e0 02             	shl    $0x2,%eax
c00019fb:	8b 00                	mov    (%eax),%eax
c00019fd:	89 44 24 08          	mov    %eax,0x8(%esp)
c0001a01:	8b 45 f4             	mov    -0xc(%ebp),%eax
c0001a04:	89 44 24 04          	mov    %eax,0x4(%esp)
c0001a08:	c7 04 24 34 32 00 c0 	movl   $0xc0003234,(%esp)
c0001a0f:	e8 b2 e9 ff ff       	call   c00003c6 <kprintf>
c0001a14:	81 45 f4 00 10 00 00 	addl   $0x1000,-0xc(%ebp)
c0001a1b:	81 7d f4 ff ff bf ff 	cmpl   $0xffbfffff,-0xc(%ebp)
c0001a22:	0f 86 54 ff ff ff    	jbe    c000197c <dump_dirty_pages+0x25>
c0001a28:	c7 04 24 53 32 00 c0 	movl   $0xc0003253,(%esp)
c0001a2f:	e8 92 e9 ff ff       	call   c00003c6 <kprintf>
c0001a34:	c9                   	leave  
c0001a35:	c3                   	ret    

c0001a36 <dump_free_frames>:
dump_free_frames():
c0001a36:	55                   	push   %ebp
c0001a37:	89 e5                	mov    %esp,%ebp
c0001a39:	83 ec 28             	sub    $0x28,%esp
c0001a3c:	a1 60 47 00 c0       	mov    0xc0004760,%eax
c0001a41:	89 45 f4             	mov    %eax,-0xc(%ebp)
c0001a44:	c7 45 f0 01 00 00 00 	movl   $0x1,-0x10(%ebp)
c0001a4b:	b8 00 80 02 c0       	mov    $0xc0028000,%eax
c0001a50:	89 44 24 04          	mov    %eax,0x4(%esp)
c0001a54:	c7 04 24 58 32 00 c0 	movl   $0xc0003258,(%esp)
c0001a5b:	e8 66 e9 ff ff       	call   c00003c6 <kprintf>
c0001a60:	8b 45 f4             	mov    -0xc(%ebp),%eax
c0001a63:	8b 00                	mov    (%eax),%eax
c0001a65:	85 c0                	test   %eax,%eax
c0001a67:	75 02                	jne    c0001a6b <dump_free_frames+0x35>
c0001a69:	eb 40                	jmp    c0001aab <dump_free_frames+0x75>
c0001a6b:	83 45 f0 01          	addl   $0x1,-0x10(%ebp)
c0001a6f:	8b 4d f0             	mov    -0x10(%ebp),%ecx
c0001a72:	ba ab aa aa aa       	mov    $0xaaaaaaab,%edx
c0001a77:	89 c8                	mov    %ecx,%eax
c0001a79:	f7 e2                	mul    %edx
c0001a7b:	c1 ea 04             	shr    $0x4,%edx
c0001a7e:	89 d0                	mov    %edx,%eax
c0001a80:	01 c0                	add    %eax,%eax
c0001a82:	01 d0                	add    %edx,%eax
c0001a84:	c1 e0 03             	shl    $0x3,%eax
c0001a87:	29 c1                	sub    %eax,%ecx
c0001a89:	8b 55 f4             	mov    -0xc(%ebp),%edx
c0001a8c:	8b 45 f4             	mov    -0xc(%ebp),%eax
c0001a8f:	8b 00                	mov    (%eax),%eax
c0001a91:	89 54 24 08          	mov    %edx,0x8(%esp)
c0001a95:	89 44 24 04          	mov    %eax,0x4(%esp)
c0001a99:	c7 04 24 7c 32 00 c0 	movl   $0xc000327c,(%esp)
c0001aa0:	e8 21 e9 ff ff       	call   c00003c6 <kprintf>
c0001aa5:	83 45 f4 04          	addl   $0x4,-0xc(%ebp)
c0001aa9:	eb b5                	jmp    c0001a60 <dump_free_frames+0x2a>
c0001aab:	c7 04 24 53 32 00 c0 	movl   $0xc0003253,(%esp)
c0001ab2:	e8 0f e9 ff ff       	call   c00003c6 <kprintf>
c0001ab7:	c9                   	leave  
c0001ab8:	c3                   	ret    

c0001ab9 <outport08>:
outport08():
c0001ab9:	55                   	push   %ebp
c0001aba:	89 e5                	mov    %esp,%ebp
c0001abc:	83 ec 08             	sub    $0x8,%esp
c0001abf:	8b 55 08             	mov    0x8(%ebp),%edx
c0001ac2:	8b 45 0c             	mov    0xc(%ebp),%eax
c0001ac5:	66 89 55 fc          	mov    %dx,-0x4(%ebp)
c0001ac9:	88 45 f8             	mov    %al,-0x8(%ebp)
c0001acc:	0f b7 55 fc          	movzwl -0x4(%ebp),%edx
c0001ad0:	0f b6 45 f8          	movzbl -0x8(%ebp),%eax
c0001ad4:	ee                   	out    %al,(%dx)
c0001ad5:	c9                   	leave  
c0001ad6:	c3                   	ret    

c0001ad7 <memset16>:
memset16():
c0001ad7:	55                   	push   %ebp
c0001ad8:	89 e5                	mov    %esp,%ebp
c0001ada:	57                   	push   %edi
c0001adb:	83 ec 04             	sub    $0x4,%esp
c0001ade:	8b 45 0c             	mov    0xc(%ebp),%eax
c0001ae1:	66 89 45 f8          	mov    %ax,-0x8(%ebp)
c0001ae5:	8b 55 08             	mov    0x8(%ebp),%edx
c0001ae8:	8b 4d 10             	mov    0x10(%ebp),%ecx
c0001aeb:	0f b7 45 f8          	movzwl -0x8(%ebp),%eax
c0001aef:	89 d7                	mov    %edx,%edi
c0001af1:	fc                   	cld    
c0001af2:	66 f3 ab             	rep stos %ax,%es:(%edi)
c0001af5:	83 c4 04             	add    $0x4,%esp
c0001af8:	5f                   	pop    %edi
c0001af9:	5d                   	pop    %ebp
c0001afa:	c3                   	ret    

c0001afb <video_move_cursor>:
video_move_cursor():
c0001afb:	55                   	push   %ebp
c0001afc:	89 e5                	mov    %esp,%ebp
c0001afe:	83 ec 20             	sub    $0x20,%esp
c0001b01:	8b 55 08             	mov    0x8(%ebp),%edx
c0001b04:	8b 45 0c             	mov    0xc(%ebp),%eax
c0001b07:	88 55 ec             	mov    %dl,-0x14(%ebp)
c0001b0a:	88 45 e8             	mov    %al,-0x18(%ebp)
c0001b0d:	0f b6 55 e8          	movzbl -0x18(%ebp),%edx
c0001b11:	0f b7 05 64 47 00 c0 	movzwl 0xc0004764,%eax
c0001b18:	0f af d0             	imul   %eax,%edx
c0001b1b:	0f b6 45 ec          	movzbl -0x14(%ebp),%eax
c0001b1f:	01 d0                	add    %edx,%eax
c0001b21:	66 89 45 fe          	mov    %ax,-0x2(%ebp)
c0001b25:	c7 44 24 04 0e 00 00 	movl   $0xe,0x4(%esp)
c0001b2c:	00 
c0001b2d:	c7 04 24 d4 03 00 00 	movl   $0x3d4,(%esp)
c0001b34:	e8 80 ff ff ff       	call   c0001ab9 <outport08>
c0001b39:	0f b7 45 fe          	movzwl -0x2(%ebp),%eax
c0001b3d:	66 c1 e8 08          	shr    $0x8,%ax
c0001b41:	0f b6 c0             	movzbl %al,%eax
c0001b44:	89 44 24 04          	mov    %eax,0x4(%esp)
c0001b48:	c7 04 24 d5 03 00 00 	movl   $0x3d5,(%esp)
c0001b4f:	e8 65 ff ff ff       	call   c0001ab9 <outport08>
c0001b54:	c7 44 24 04 0f 00 00 	movl   $0xf,0x4(%esp)
c0001b5b:	00 
c0001b5c:	c7 04 24 d4 03 00 00 	movl   $0x3d4,(%esp)
c0001b63:	e8 51 ff ff ff       	call   c0001ab9 <outport08>
c0001b68:	0f b7 45 fe          	movzwl -0x2(%ebp),%eax
c0001b6c:	0f b6 c0             	movzbl %al,%eax
c0001b6f:	89 44 24 04          	mov    %eax,0x4(%esp)
c0001b73:	c7 04 24 d5 03 00 00 	movl   $0x3d5,(%esp)
c0001b7a:	e8 3a ff ff ff       	call   c0001ab9 <outport08>
c0001b7f:	c9                   	leave  
c0001b80:	c3                   	ret    

c0001b81 <video_set_color>:
video_set_color():
c0001b81:	55                   	push   %ebp
c0001b82:	89 e5                	mov    %esp,%ebp
c0001b84:	83 ec 04             	sub    $0x4,%esp
c0001b87:	8b 45 0c             	mov    0xc(%ebp),%eax
c0001b8a:	88 45 fc             	mov    %al,-0x4(%ebp)
c0001b8d:	8b 45 08             	mov    0x8(%ebp),%eax
c0001b90:	0f b6 55 fc          	movzbl -0x4(%ebp),%edx
c0001b94:	88 50 06             	mov    %dl,0x6(%eax)
c0001b97:	c9                   	leave  
c0001b98:	c3                   	ret    

c0001b99 <video_clrscr>:
video_clrscr():
c0001b99:	55                   	push   %ebp
c0001b9a:	89 e5                	mov    %esp,%ebp
c0001b9c:	83 ec 28             	sub    $0x28,%esp
c0001b9f:	9c                   	pushf  
c0001ba0:	58                   	pop    %eax
c0001ba1:	fa                   	cli    
c0001ba2:	89 45 f4             	mov    %eax,-0xc(%ebp)
c0001ba5:	0f b7 05 64 47 00 c0 	movzwl 0xc0004764,%eax
c0001bac:	0f b7 d0             	movzwl %ax,%edx
c0001baf:	0f b7 05 66 47 00 c0 	movzwl 0xc0004766,%eax
c0001bb6:	0f b7 c0             	movzwl %ax,%eax
c0001bb9:	0f af c2             	imul   %edx,%eax
c0001bbc:	01 c0                	add    %eax,%eax
c0001bbe:	89 c2                	mov    %eax,%edx
c0001bc0:	8b 45 08             	mov    0x8(%ebp),%eax
c0001bc3:	8b 00                	mov    (%eax),%eax
c0001bc5:	89 54 24 08          	mov    %edx,0x8(%esp)
c0001bc9:	c7 44 24 04 20 0f 00 	movl   $0xf20,0x4(%esp)
c0001bd0:	00 
c0001bd1:	89 04 24             	mov    %eax,(%esp)
c0001bd4:	e8 fe fe ff ff       	call   c0001ad7 <memset16>
c0001bd9:	8b 45 08             	mov    0x8(%ebp),%eax
c0001bdc:	c6 40 04 00          	movb   $0x0,0x4(%eax)
c0001be0:	8b 45 08             	mov    0x8(%ebp),%eax
c0001be3:	c6 40 05 00          	movb   $0x0,0x5(%eax)
c0001be7:	c7 04 24 00 00 00 00 	movl   $0x0,(%esp)
c0001bee:	e8 55 e8 ff ff       	call   c0000448 <get_console_addr>
c0001bf3:	3b 45 08             	cmp    0x8(%ebp),%eax
c0001bf6:	75 20                	jne    c0001c18 <video_clrscr+0x7f>
c0001bf8:	8b 45 08             	mov    0x8(%ebp),%eax
c0001bfb:	0f b6 40 05          	movzbl 0x5(%eax),%eax
c0001bff:	0f b6 d0             	movzbl %al,%edx
c0001c02:	8b 45 08             	mov    0x8(%ebp),%eax
c0001c05:	0f b6 40 04          	movzbl 0x4(%eax),%eax
c0001c09:	0f b6 c0             	movzbl %al,%eax
c0001c0c:	89 54 24 04          	mov    %edx,0x4(%esp)
c0001c10:	89 04 24             	mov    %eax,(%esp)
c0001c13:	e8 e3 fe ff ff       	call   c0001afb <video_move_cursor>
c0001c18:	ff 75 f4             	pushl  -0xc(%ebp)
c0001c1b:	9d                   	popf   
c0001c1c:	c9                   	leave  
c0001c1d:	c3                   	ret    

c0001c1e <video_scroll_console>:
video_scroll_console():
c0001c1e:	55                   	push   %ebp
c0001c1f:	89 e5                	mov    %esp,%ebp
c0001c21:	53                   	push   %ebx
c0001c22:	83 ec 24             	sub    $0x24,%esp
c0001c25:	9c                   	pushf  
c0001c26:	58                   	pop    %eax
c0001c27:	fa                   	cli    
c0001c28:	89 45 f0             	mov    %eax,-0x10(%ebp)
c0001c2b:	8b 45 08             	mov    0x8(%ebp),%eax
c0001c2e:	0f b6 40 05          	movzbl 0x5(%eax),%eax
c0001c32:	0f b6 d0             	movzbl %al,%edx
c0001c35:	0f b7 05 66 47 00 c0 	movzwl 0xc0004766,%eax
c0001c3c:	66 39 c2             	cmp    %ax,%dx
c0001c3f:	0f 82 ad 00 00 00    	jb     c0001cf2 <video_scroll_console+0xd4>
c0001c45:	c7 45 f4 00 00 00 00 	movl   $0x0,-0xc(%ebp)
c0001c4c:	eb 2e                	jmp    c0001c7c <video_scroll_console+0x5e>
c0001c4e:	8b 45 08             	mov    0x8(%ebp),%eax
c0001c51:	8b 00                	mov    (%eax),%eax
c0001c53:	8b 55 f4             	mov    -0xc(%ebp),%edx
c0001c56:	01 d2                	add    %edx,%edx
c0001c58:	01 c2                	add    %eax,%edx
c0001c5a:	8b 45 08             	mov    0x8(%ebp),%eax
c0001c5d:	8b 00                	mov    (%eax),%eax
c0001c5f:	0f b7 0d 64 47 00 c0 	movzwl 0xc0004764,%ecx
c0001c66:	0f b7 d9             	movzwl %cx,%ebx
c0001c69:	8b 4d f4             	mov    -0xc(%ebp),%ecx
c0001c6c:	01 d9                	add    %ebx,%ecx
c0001c6e:	01 c9                	add    %ecx,%ecx
c0001c70:	01 c8                	add    %ecx,%eax
c0001c72:	0f b7 00             	movzwl (%eax),%eax
c0001c75:	66 89 02             	mov    %ax,(%edx)
c0001c78:	83 45 f4 01          	addl   $0x1,-0xc(%ebp)
c0001c7c:	0f b7 05 66 47 00 c0 	movzwl 0xc0004766,%eax
c0001c83:	0f b7 c0             	movzwl %ax,%eax
c0001c86:	8d 50 ff             	lea    -0x1(%eax),%edx
c0001c89:	0f b7 05 64 47 00 c0 	movzwl 0xc0004764,%eax
c0001c90:	0f b7 c0             	movzwl %ax,%eax
c0001c93:	0f af c2             	imul   %edx,%eax
c0001c96:	3b 45 f4             	cmp    -0xc(%ebp),%eax
c0001c99:	7f b3                	jg     c0001c4e <video_scroll_console+0x30>
c0001c9b:	0f b7 05 66 47 00 c0 	movzwl 0xc0004766,%eax
c0001ca2:	8d 50 ff             	lea    -0x1(%eax),%edx
c0001ca5:	8b 45 08             	mov    0x8(%ebp),%eax
c0001ca8:	88 50 05             	mov    %dl,0x5(%eax)
c0001cab:	c7 45 f4 00 00 00 00 	movl   $0x0,-0xc(%ebp)
c0001cb2:	eb 2f                	jmp    c0001ce3 <video_scroll_console+0xc5>
c0001cb4:	8b 45 08             	mov    0x8(%ebp),%eax
c0001cb7:	0f b6 40 05          	movzbl 0x5(%eax),%eax
c0001cbb:	0f b6 d0             	movzbl %al,%edx
c0001cbe:	8b 45 f4             	mov    -0xc(%ebp),%eax
c0001cc1:	0f b6 c0             	movzbl %al,%eax
c0001cc4:	8b 4d 08             	mov    0x8(%ebp),%ecx
c0001cc7:	89 4c 24 0c          	mov    %ecx,0xc(%esp)
c0001ccb:	c7 44 24 08 20 00 00 	movl   $0x20,0x8(%esp)
c0001cd2:	00 
c0001cd3:	89 54 24 04          	mov    %edx,0x4(%esp)
c0001cd7:	89 04 24             	mov    %eax,(%esp)
c0001cda:	e8 1d 00 00 00       	call   c0001cfc <video_place_char>
c0001cdf:	83 45 f4 01          	addl   $0x1,-0xc(%ebp)
c0001ce3:	0f b7 05 64 47 00 c0 	movzwl 0xc0004764,%eax
c0001cea:	0f b7 c0             	movzwl %ax,%eax
c0001ced:	3b 45 f4             	cmp    -0xc(%ebp),%eax
c0001cf0:	7f c2                	jg     c0001cb4 <video_scroll_console+0x96>
c0001cf2:	ff 75 f0             	pushl  -0x10(%ebp)
c0001cf5:	9d                   	popf   
c0001cf6:	83 c4 24             	add    $0x24,%esp
c0001cf9:	5b                   	pop    %ebx
c0001cfa:	5d                   	pop    %ebp
c0001cfb:	c3                   	ret    

c0001cfc <video_place_char>:
video_place_char():
c0001cfc:	55                   	push   %ebp
c0001cfd:	89 e5                	mov    %esp,%ebp
c0001cff:	83 ec 1c             	sub    $0x1c,%esp
c0001d02:	8b 4d 08             	mov    0x8(%ebp),%ecx
c0001d05:	8b 55 0c             	mov    0xc(%ebp),%edx
c0001d08:	8b 45 10             	mov    0x10(%ebp),%eax
c0001d0b:	88 4d ec             	mov    %cl,-0x14(%ebp)
c0001d0e:	88 55 e8             	mov    %dl,-0x18(%ebp)
c0001d11:	88 45 e4             	mov    %al,-0x1c(%ebp)
c0001d14:	0f b6 55 e8          	movzbl -0x18(%ebp),%edx
c0001d18:	0f b7 05 64 47 00 c0 	movzwl 0xc0004764,%eax
c0001d1f:	0f b7 c0             	movzwl %ax,%eax
c0001d22:	0f af d0             	imul   %eax,%edx
c0001d25:	0f b6 45 ec          	movzbl -0x14(%ebp),%eax
c0001d29:	01 d0                	add    %edx,%eax
c0001d2b:	89 45 fc             	mov    %eax,-0x4(%ebp)
c0001d2e:	8b 45 14             	mov    0x14(%ebp),%eax
c0001d31:	8b 00                	mov    (%eax),%eax
c0001d33:	8b 55 fc             	mov    -0x4(%ebp),%edx
c0001d36:	01 d2                	add    %edx,%edx
c0001d38:	01 c2                	add    %eax,%edx
c0001d3a:	8b 45 14             	mov    0x14(%ebp),%eax
c0001d3d:	0f b6 40 06          	movzbl 0x6(%eax),%eax
c0001d41:	0f b6 c0             	movzbl %al,%eax
c0001d44:	c1 e0 08             	shl    $0x8,%eax
c0001d47:	89 c1                	mov    %eax,%ecx
c0001d49:	0f b6 45 e4          	movzbl -0x1c(%ebp),%eax
c0001d4d:	09 c8                	or     %ecx,%eax
c0001d4f:	66 89 02             	mov    %ax,(%edx)
c0001d52:	c9                   	leave  
c0001d53:	c3                   	ret    

c0001d54 <video_put_char>:
video_put_char():
c0001d54:	55                   	push   %ebp
c0001d55:	89 e5                	mov    %esp,%ebp
c0001d57:	53                   	push   %ebx
c0001d58:	83 ec 34             	sub    $0x34,%esp
c0001d5b:	8b 45 08             	mov    0x8(%ebp),%eax
c0001d5e:	88 45 e4             	mov    %al,-0x1c(%ebp)
c0001d61:	9c                   	pushf  
c0001d62:	58                   	pop    %eax
c0001d63:	fa                   	cli    
c0001d64:	89 45 f4             	mov    %eax,-0xc(%ebp)
c0001d67:	0f b6 45 e4          	movzbl -0x1c(%ebp),%eax
c0001d6b:	83 e8 07             	sub    $0x7,%eax
c0001d6e:	83 f8 06             	cmp    $0x6,%eax
c0001d71:	0f 87 c8 00 00 00    	ja     c0001e3f <video_put_char+0xeb>
c0001d77:	8b 04 85 94 32 00 c0 	mov    -0x3fffcd6c(,%eax,4),%eax
c0001d7e:	ff e0                	jmp    *%eax
c0001d80:	8b 45 0c             	mov    0xc(%ebp),%eax
c0001d83:	0f b6 40 05          	movzbl 0x5(%eax),%eax
c0001d87:	8d 50 01             	lea    0x1(%eax),%edx
c0001d8a:	8b 45 0c             	mov    0xc(%ebp),%eax
c0001d8d:	88 50 05             	mov    %dl,0x5(%eax)
c0001d90:	8b 45 0c             	mov    0xc(%ebp),%eax
c0001d93:	c6 40 04 00          	movb   $0x0,0x4(%eax)
c0001d97:	e9 e3 00 00 00       	jmp    c0001e7f <video_put_char+0x12b>
c0001d9c:	8b 45 0c             	mov    0xc(%ebp),%eax
c0001d9f:	c6 40 04 00          	movb   $0x0,0x4(%eax)
c0001da3:	e9 d7 00 00 00       	jmp    c0001e7f <video_put_char+0x12b>
c0001da8:	8b 45 0c             	mov    0xc(%ebp),%eax
c0001dab:	0f b6 40 04          	movzbl 0x4(%eax),%eax
c0001daf:	84 c0                	test   %al,%al
c0001db1:	75 34                	jne    c0001de7 <video_put_char+0x93>
c0001db3:	8b 45 0c             	mov    0xc(%ebp),%eax
c0001db6:	0f b6 40 05          	movzbl 0x5(%eax),%eax
c0001dba:	84 c0                	test   %al,%al
c0001dbc:	75 05                	jne    c0001dc3 <video_put_char+0x6f>
c0001dbe:	e9 2c 01 00 00       	jmp    c0001eef <video_put_char+0x19b>
c0001dc3:	8b 45 0c             	mov    0xc(%ebp),%eax
c0001dc6:	0f b6 40 05          	movzbl 0x5(%eax),%eax
c0001dca:	8d 50 ff             	lea    -0x1(%eax),%edx
c0001dcd:	8b 45 0c             	mov    0xc(%ebp),%eax
c0001dd0:	88 50 05             	mov    %dl,0x5(%eax)
c0001dd3:	0f b7 05 64 47 00 c0 	movzwl 0xc0004764,%eax
c0001dda:	89 c2                	mov    %eax,%edx
c0001ddc:	8b 45 0c             	mov    0xc(%ebp),%eax
c0001ddf:	88 50 04             	mov    %dl,0x4(%eax)
c0001de2:	e9 98 00 00 00       	jmp    c0001e7f <video_put_char+0x12b>
c0001de7:	8b 45 0c             	mov    0xc(%ebp),%eax
c0001dea:	0f b6 40 04          	movzbl 0x4(%eax),%eax
c0001dee:	8d 50 01             	lea    0x1(%eax),%edx
c0001df1:	8b 45 0c             	mov    0xc(%ebp),%eax
c0001df4:	88 50 04             	mov    %dl,0x4(%eax)
c0001df7:	8b 45 0c             	mov    0xc(%ebp),%eax
c0001dfa:	0f b6 40 05          	movzbl 0x5(%eax),%eax
c0001dfe:	0f b6 d0             	movzbl %al,%edx
c0001e01:	8b 45 0c             	mov    0xc(%ebp),%eax
c0001e04:	0f b6 40 04          	movzbl 0x4(%eax),%eax
c0001e08:	0f b6 c0             	movzbl %al,%eax
c0001e0b:	8b 4d 0c             	mov    0xc(%ebp),%ecx
c0001e0e:	89 4c 24 0c          	mov    %ecx,0xc(%esp)
c0001e12:	c7 44 24 08 20 00 00 	movl   $0x20,0x8(%esp)
c0001e19:	00 
c0001e1a:	89 54 24 04          	mov    %edx,0x4(%esp)
c0001e1e:	89 04 24             	mov    %eax,(%esp)
c0001e21:	e8 d6 fe ff ff       	call   c0001cfc <video_place_char>
c0001e26:	eb 57                	jmp    c0001e7f <video_put_char+0x12b>
c0001e28:	8b 45 0c             	mov    0xc(%ebp),%eax
c0001e2b:	0f b6 40 04          	movzbl 0x4(%eax),%eax
c0001e2f:	83 c0 08             	add    $0x8,%eax
c0001e32:	83 e0 f8             	and    $0xfffffff8,%eax
c0001e35:	89 c2                	mov    %eax,%edx
c0001e37:	8b 45 0c             	mov    0xc(%ebp),%eax
c0001e3a:	88 50 04             	mov    %dl,0x4(%eax)
c0001e3d:	eb 40                	jmp    c0001e7f <video_put_char+0x12b>
c0001e3f:	0f b6 4d e4          	movzbl -0x1c(%ebp),%ecx
c0001e43:	8b 45 0c             	mov    0xc(%ebp),%eax
c0001e46:	0f b6 40 05          	movzbl 0x5(%eax),%eax
c0001e4a:	0f b6 d0             	movzbl %al,%edx
c0001e4d:	8b 45 0c             	mov    0xc(%ebp),%eax
c0001e50:	0f b6 40 04          	movzbl 0x4(%eax),%eax
c0001e54:	0f b6 c0             	movzbl %al,%eax
c0001e57:	8b 5d 0c             	mov    0xc(%ebp),%ebx
c0001e5a:	89 5c 24 0c          	mov    %ebx,0xc(%esp)
c0001e5e:	89 4c 24 08          	mov    %ecx,0x8(%esp)
c0001e62:	89 54 24 04          	mov    %edx,0x4(%esp)
c0001e66:	89 04 24             	mov    %eax,(%esp)
c0001e69:	e8 8e fe ff ff       	call   c0001cfc <video_place_char>
c0001e6e:	8b 45 0c             	mov    0xc(%ebp),%eax
c0001e71:	0f b6 40 04          	movzbl 0x4(%eax),%eax
c0001e75:	8d 50 01             	lea    0x1(%eax),%edx
c0001e78:	8b 45 0c             	mov    0xc(%ebp),%eax
c0001e7b:	88 50 04             	mov    %dl,0x4(%eax)
c0001e7e:	90                   	nop
c0001e7f:	8b 45 0c             	mov    0xc(%ebp),%eax
c0001e82:	0f b6 40 04          	movzbl 0x4(%eax),%eax
c0001e86:	0f b6 d0             	movzbl %al,%edx
c0001e89:	0f b7 05 64 47 00 c0 	movzwl 0xc0004764,%eax
c0001e90:	66 39 c2             	cmp    %ax,%dx
c0001e93:	72 17                	jb     c0001eac <video_put_char+0x158>
c0001e95:	8b 45 0c             	mov    0xc(%ebp),%eax
c0001e98:	c6 40 04 00          	movb   $0x0,0x4(%eax)
c0001e9c:	8b 45 0c             	mov    0xc(%ebp),%eax
c0001e9f:	0f b6 40 05          	movzbl 0x5(%eax),%eax
c0001ea3:	8d 50 01             	lea    0x1(%eax),%edx
c0001ea6:	8b 45 0c             	mov    0xc(%ebp),%eax
c0001ea9:	88 50 05             	mov    %dl,0x5(%eax)
c0001eac:	8b 45 0c             	mov    0xc(%ebp),%eax
c0001eaf:	89 04 24             	mov    %eax,(%esp)
c0001eb2:	e8 67 fd ff ff       	call   c0001c1e <video_scroll_console>
c0001eb7:	c7 04 24 00 00 00 00 	movl   $0x0,(%esp)
c0001ebe:	e8 85 e5 ff ff       	call   c0000448 <get_console_addr>
c0001ec3:	3b 45 0c             	cmp    0xc(%ebp),%eax
c0001ec6:	75 20                	jne    c0001ee8 <video_put_char+0x194>
c0001ec8:	8b 45 0c             	mov    0xc(%ebp),%eax
c0001ecb:	0f b6 40 05          	movzbl 0x5(%eax),%eax
c0001ecf:	0f b6 d0             	movzbl %al,%edx
c0001ed2:	8b 45 0c             	mov    0xc(%ebp),%eax
c0001ed5:	0f b6 40 04          	movzbl 0x4(%eax),%eax
c0001ed9:	0f b6 c0             	movzbl %al,%eax
c0001edc:	89 54 24 04          	mov    %edx,0x4(%esp)
c0001ee0:	89 04 24             	mov    %eax,(%esp)
c0001ee3:	e8 13 fc ff ff       	call   c0001afb <video_move_cursor>
c0001ee8:	ff 75 f4             	pushl  -0xc(%ebp)
c0001eeb:	9d                   	popf   
c0001eec:	eb 01                	jmp    c0001eef <video_put_char+0x19b>
c0001eee:	90                   	nop
c0001eef:	83 c4 34             	add    $0x34,%esp
c0001ef2:	5b                   	pop    %ebx
c0001ef3:	5d                   	pop    %ebp
c0001ef4:	c3                   	ret    

c0001ef5 <initialize_video>:
initialize_video():
c0001ef5:	55                   	push   %ebp
c0001ef6:	89 e5                	mov    %esp,%ebp
c0001ef8:	66 c7 05 64 47 00 c0 	movw   $0x50,0xc0004764
c0001eff:	50 00 
c0001f01:	66 c7 05 66 47 00 c0 	movw   $0x19,0xc0004766
c0001f08:	19 00 
c0001f0a:	5d                   	pop    %ebp
c0001f0b:	c3                   	ret    

c0001f0c <strlen>:
strlen():
c0001f0c:	55                   	push   %ebp
c0001f0d:	89 e5                	mov    %esp,%ebp
c0001f0f:	83 ec 10             	sub    $0x10,%esp
c0001f12:	83 7d 08 00          	cmpl   $0x0,0x8(%ebp)
c0001f16:	75 07                	jne    c0001f1f <strlen+0x13>
c0001f18:	b8 00 00 00 00       	mov    $0x0,%eax
c0001f1d:	eb 20                	jmp    c0001f3f <strlen+0x33>
c0001f1f:	8b 45 08             	mov    0x8(%ebp),%eax
c0001f22:	89 45 fc             	mov    %eax,-0x4(%ebp)
c0001f25:	eb 04                	jmp    c0001f2b <strlen+0x1f>
c0001f27:	83 45 fc 01          	addl   $0x1,-0x4(%ebp)
c0001f2b:	8b 45 fc             	mov    -0x4(%ebp),%eax
c0001f2e:	0f b6 00             	movzbl (%eax),%eax
c0001f31:	84 c0                	test   %al,%al
c0001f33:	75 f2                	jne    c0001f27 <strlen+0x1b>
c0001f35:	8b 55 fc             	mov    -0x4(%ebp),%edx
c0001f38:	8b 45 08             	mov    0x8(%ebp),%eax
c0001f3b:	29 c2                	sub    %eax,%edx
c0001f3d:	89 d0                	mov    %edx,%eax
c0001f3f:	c9                   	leave  
c0001f40:	c3                   	ret    

c0001f41 <strnlen>:
strnlen():
c0001f41:	55                   	push   %ebp
c0001f42:	89 e5                	mov    %esp,%ebp
c0001f44:	83 ec 10             	sub    $0x10,%esp
c0001f47:	83 7d 08 00          	cmpl   $0x0,0x8(%ebp)
c0001f4b:	75 07                	jne    c0001f54 <strnlen+0x13>
c0001f4d:	b8 00 00 00 00       	mov    $0x0,%eax
c0001f52:	eb 2d                	jmp    c0001f81 <strnlen+0x40>
c0001f54:	8b 45 08             	mov    0x8(%ebp),%eax
c0001f57:	89 45 fc             	mov    %eax,-0x4(%ebp)
c0001f5a:	eb 04                	jmp    c0001f60 <strnlen+0x1f>
c0001f5c:	83 45 fc 01          	addl   $0x1,-0x4(%ebp)
c0001f60:	8b 45 0c             	mov    0xc(%ebp),%eax
c0001f63:	8d 50 ff             	lea    -0x1(%eax),%edx
c0001f66:	89 55 0c             	mov    %edx,0xc(%ebp)
c0001f69:	85 c0                	test   %eax,%eax
c0001f6b:	74 0a                	je     c0001f77 <strnlen+0x36>
c0001f6d:	8b 45 fc             	mov    -0x4(%ebp),%eax
c0001f70:	0f b6 00             	movzbl (%eax),%eax
c0001f73:	84 c0                	test   %al,%al
c0001f75:	75 e5                	jne    c0001f5c <strnlen+0x1b>
c0001f77:	8b 55 fc             	mov    -0x4(%ebp),%edx
c0001f7a:	8b 45 08             	mov    0x8(%ebp),%eax
c0001f7d:	29 c2                	sub    %eax,%edx
c0001f7f:	89 d0                	mov    %edx,%eax
c0001f81:	c9                   	leave  
c0001f82:	c3                   	ret    

c0001f83 <skip_atoi>:
skip_atoi():
c0001f83:	55                   	push   %ebp
c0001f84:	89 e5                	mov    %esp,%ebp
c0001f86:	53                   	push   %ebx
c0001f87:	83 ec 10             	sub    $0x10,%esp
c0001f8a:	c7 45 f8 00 00 00 00 	movl   $0x0,-0x8(%ebp)
c0001f91:	eb 29                	jmp    c0001fbc <skip_atoi+0x39>
c0001f93:	8b 55 f8             	mov    -0x8(%ebp),%edx
c0001f96:	89 d0                	mov    %edx,%eax
c0001f98:	c1 e0 02             	shl    $0x2,%eax
c0001f9b:	01 d0                	add    %edx,%eax
c0001f9d:	01 c0                	add    %eax,%eax
c0001f9f:	89 c3                	mov    %eax,%ebx
c0001fa1:	8b 45 08             	mov    0x8(%ebp),%eax
c0001fa4:	8b 00                	mov    (%eax),%eax
c0001fa6:	8d 48 01             	lea    0x1(%eax),%ecx
c0001fa9:	8b 55 08             	mov    0x8(%ebp),%edx
c0001fac:	89 0a                	mov    %ecx,(%edx)
c0001fae:	0f b6 00             	movzbl (%eax),%eax
c0001fb1:	0f be c0             	movsbl %al,%eax
c0001fb4:	01 d8                	add    %ebx,%eax
c0001fb6:	83 e8 30             	sub    $0x30,%eax
c0001fb9:	89 45 f8             	mov    %eax,-0x8(%ebp)
c0001fbc:	8b 45 08             	mov    0x8(%ebp),%eax
c0001fbf:	8b 00                	mov    (%eax),%eax
c0001fc1:	0f b6 00             	movzbl (%eax),%eax
c0001fc4:	0f b6 c0             	movzbl %al,%eax
c0001fc7:	0f b6 80 80 47 00 c0 	movzbl -0x3fffb880(%eax),%eax
c0001fce:	0f b6 c0             	movzbl %al,%eax
c0001fd1:	83 e0 04             	and    $0x4,%eax
c0001fd4:	85 c0                	test   %eax,%eax
c0001fd6:	75 bb                	jne    c0001f93 <skip_atoi+0x10>
c0001fd8:	8b 45 f8             	mov    -0x8(%ebp),%eax
c0001fdb:	83 c4 10             	add    $0x10,%esp
c0001fde:	5b                   	pop    %ebx
c0001fdf:	5d                   	pop    %ebp
c0001fe0:	c3                   	ret    

c0001fe1 <number>:
number():
c0001fe1:	55                   	push   %ebp
c0001fe2:	89 e5                	mov    %esp,%ebp
c0001fe4:	81 ec b8 00 00 00    	sub    $0xb8,%esp
c0001fea:	8b 45 10             	mov    0x10(%ebp),%eax
c0001fed:	89 85 48 ff ff ff    	mov    %eax,-0xb8(%ebp)
c0001ff3:	8b 45 14             	mov    0x14(%ebp),%eax
c0001ff6:	89 85 4c ff ff ff    	mov    %eax,-0xb4(%ebp)
c0001ffc:	c7 85 75 ff ff ff 30 	movl   $0x33323130,-0x8b(%ebp)
c0002003:	31 32 33 
c0002006:	c7 85 79 ff ff ff 34 	movl   $0x37363534,-0x87(%ebp)
c000200d:	35 36 37 
c0002010:	c7 85 7d ff ff ff 38 	movl   $0x62613938,-0x83(%ebp)
c0002017:	39 61 62 
c000201a:	c7 45 81 63 64 65 66 	movl   $0x66656463,-0x7f(%ebp)
c0002021:	c7 45 85 67 68 69 6a 	movl   $0x6a696867,-0x7b(%ebp)
c0002028:	c7 45 89 6b 6c 6d 6e 	movl   $0x6e6d6c6b,-0x77(%ebp)
c000202f:	c7 45 8d 6f 70 71 72 	movl   $0x7271706f,-0x73(%ebp)
c0002036:	c7 45 91 73 74 75 76 	movl   $0x76757473,-0x6f(%ebp)
c000203d:	c7 45 95 77 78 79 7a 	movl   $0x7a797877,-0x6b(%ebp)
c0002044:	c6 45 99 00          	movb   $0x0,-0x67(%ebp)
c0002048:	c7 85 50 ff ff ff 30 	movl   $0x33323130,-0xb0(%ebp)
c000204f:	31 32 33 
c0002052:	c7 85 54 ff ff ff 34 	movl   $0x37363534,-0xac(%ebp)
c0002059:	35 36 37 
c000205c:	c7 85 58 ff ff ff 38 	movl   $0x42413938,-0xa8(%ebp)
c0002063:	39 41 42 
c0002066:	c7 85 5c ff ff ff 43 	movl   $0x46454443,-0xa4(%ebp)
c000206d:	44 45 46 
c0002070:	c7 85 60 ff ff ff 47 	movl   $0x4a494847,-0xa0(%ebp)
c0002077:	48 49 4a 
c000207a:	c7 85 64 ff ff ff 4b 	movl   $0x4e4d4c4b,-0x9c(%ebp)
c0002081:	4c 4d 4e 
c0002084:	c7 85 68 ff ff ff 4f 	movl   $0x5251504f,-0x98(%ebp)
c000208b:	50 51 52 
c000208e:	c7 85 6c ff ff ff 53 	movl   $0x56555453,-0x94(%ebp)
c0002095:	54 55 56 
c0002098:	c7 85 70 ff ff ff 57 	movl   $0x5a595857,-0x90(%ebp)
c000209f:	58 59 5a 
c00020a2:	c6 85 74 ff ff ff 00 	movb   $0x0,-0x8c(%ebp)
c00020a9:	8b 45 24             	mov    0x24(%ebp),%eax
c00020ac:	83 e0 40             	and    $0x40,%eax
c00020af:	85 c0                	test   %eax,%eax
c00020b1:	74 08                	je     c00020bb <number+0xda>
c00020b3:	8d 85 50 ff ff ff    	lea    -0xb0(%ebp),%eax
c00020b9:	eb 06                	jmp    c00020c1 <number+0xe0>
c00020bb:	8d 85 75 ff ff ff    	lea    -0x8b(%ebp),%eax
c00020c1:	89 45 ec             	mov    %eax,-0x14(%ebp)
c00020c4:	8b 45 24             	mov    0x24(%ebp),%eax
c00020c7:	83 e0 10             	and    $0x10,%eax
c00020ca:	85 c0                	test   %eax,%eax
c00020cc:	74 04                	je     c00020d2 <number+0xf1>
c00020ce:	83 65 24 fe          	andl   $0xfffffffe,0x24(%ebp)
c00020d2:	83 7d 18 01          	cmpl   $0x1,0x18(%ebp)
c00020d6:	7e 06                	jle    c00020de <number+0xfd>
c00020d8:	83 7d 18 24          	cmpl   $0x24,0x18(%ebp)
c00020dc:	7e 0a                	jle    c00020e8 <number+0x107>
c00020de:	b8 00 00 00 00       	mov    $0x0,%eax
c00020e3:	e9 9d 02 00 00       	jmp    c0002385 <number+0x3a4>
c00020e8:	8b 45 24             	mov    0x24(%ebp),%eax
c00020eb:	83 e0 01             	and    $0x1,%eax
c00020ee:	85 c0                	test   %eax,%eax
c00020f0:	74 07                	je     c00020f9 <number+0x118>
c00020f2:	b8 30 00 00 00       	mov    $0x30,%eax
c00020f7:	eb 05                	jmp    c00020fe <number+0x11d>
c00020f9:	b8 20 00 00 00       	mov    $0x20,%eax
c00020fe:	88 45 eb             	mov    %al,-0x15(%ebp)
c0002101:	c6 45 ff 00          	movb   $0x0,-0x1(%ebp)
c0002105:	8b 45 24             	mov    0x24(%ebp),%eax
c0002108:	83 e0 02             	and    $0x2,%eax
c000210b:	85 c0                	test   %eax,%eax
c000210d:	74 4c                	je     c000215b <number+0x17a>
c000210f:	83 bd 4c ff ff ff 00 	cmpl   $0x0,-0xb4(%ebp)
c0002116:	79 1d                	jns    c0002135 <number+0x154>
c0002118:	c6 45 ff 2d          	movb   $0x2d,-0x1(%ebp)
c000211c:	f7 9d 48 ff ff ff    	negl   -0xb8(%ebp)
c0002122:	83 95 4c ff ff ff 00 	adcl   $0x0,-0xb4(%ebp)
c0002129:	f7 9d 4c ff ff ff    	negl   -0xb4(%ebp)
c000212f:	83 6d 1c 01          	subl   $0x1,0x1c(%ebp)
c0002133:	eb 26                	jmp    c000215b <number+0x17a>
c0002135:	8b 45 24             	mov    0x24(%ebp),%eax
c0002138:	83 e0 04             	and    $0x4,%eax
c000213b:	85 c0                	test   %eax,%eax
c000213d:	74 0a                	je     c0002149 <number+0x168>
c000213f:	c6 45 ff 2b          	movb   $0x2b,-0x1(%ebp)
c0002143:	83 6d 1c 01          	subl   $0x1,0x1c(%ebp)
c0002147:	eb 12                	jmp    c000215b <number+0x17a>
c0002149:	8b 45 24             	mov    0x24(%ebp),%eax
c000214c:	83 e0 08             	and    $0x8,%eax
c000214f:	85 c0                	test   %eax,%eax
c0002151:	74 08                	je     c000215b <number+0x17a>
c0002153:	c6 45 ff 20          	movb   $0x20,-0x1(%ebp)
c0002157:	83 6d 1c 01          	subl   $0x1,0x1c(%ebp)
c000215b:	8b 45 24             	mov    0x24(%ebp),%eax
c000215e:	83 e0 20             	and    $0x20,%eax
c0002161:	85 c0                	test   %eax,%eax
c0002163:	74 16                	je     c000217b <number+0x19a>
c0002165:	83 7d 18 10          	cmpl   $0x10,0x18(%ebp)
c0002169:	75 06                	jne    c0002171 <number+0x190>
c000216b:	83 6d 1c 02          	subl   $0x2,0x1c(%ebp)
c000216f:	eb 0a                	jmp    c000217b <number+0x19a>
c0002171:	83 7d 18 08          	cmpl   $0x8,0x18(%ebp)
c0002175:	75 04                	jne    c000217b <number+0x19a>
c0002177:	83 6d 1c 01          	subl   $0x1,0x1c(%ebp)
c000217b:	c7 45 f8 00 00 00 00 	movl   $0x0,-0x8(%ebp)
c0002182:	8b 85 48 ff ff ff    	mov    -0xb8(%ebp),%eax
c0002188:	8b 95 4c ff ff ff    	mov    -0xb4(%ebp),%edx
c000218e:	09 d0                	or     %edx,%eax
c0002190:	85 c0                	test   %eax,%eax
c0002192:	75 13                	jne    c00021a7 <number+0x1c6>
c0002194:	8b 45 f8             	mov    -0x8(%ebp),%eax
c0002197:	8d 50 01             	lea    0x1(%eax),%edx
c000219a:	89 55 f8             	mov    %edx,-0x8(%ebp)
c000219d:	c6 44 05 9a 30       	movb   $0x30,-0x66(%ebp,%eax,1)
c00021a2:	e9 91 00 00 00       	jmp    c0002238 <number+0x257>
c00021a7:	eb 79                	jmp    c0002222 <number+0x241>
c00021a9:	8b 4d f8             	mov    -0x8(%ebp),%ecx
c00021ac:	8d 41 01             	lea    0x1(%ecx),%eax
c00021af:	89 45 f8             	mov    %eax,-0x8(%ebp)
c00021b2:	8b 45 18             	mov    0x18(%ebp),%eax
c00021b5:	89 45 e4             	mov    %eax,-0x1c(%ebp)
c00021b8:	8b 85 48 ff ff ff    	mov    -0xb8(%ebp),%eax
c00021be:	8b 95 4c ff ff ff    	mov    -0xb4(%ebp),%edx
c00021c4:	89 45 e0             	mov    %eax,-0x20(%ebp)
c00021c7:	89 55 f0             	mov    %edx,-0x10(%ebp)
c00021ca:	8b 45 f0             	mov    -0x10(%ebp),%eax
c00021cd:	89 45 f4             	mov    %eax,-0xc(%ebp)
c00021d0:	83 7d f0 00          	cmpl   $0x0,-0x10(%ebp)
c00021d4:	74 1c                	je     c00021f2 <number+0x211>
c00021d6:	8b 45 f0             	mov    -0x10(%ebp),%eax
c00021d9:	ba 00 00 00 00       	mov    $0x0,%edx
c00021de:	f7 75 e4             	divl   -0x1c(%ebp)
c00021e1:	89 55 f4             	mov    %edx,-0xc(%ebp)
c00021e4:	8b 45 f0             	mov    -0x10(%ebp),%eax
c00021e7:	ba 00 00 00 00       	mov    $0x0,%edx
c00021ec:	f7 75 e4             	divl   -0x1c(%ebp)
c00021ef:	89 45 f0             	mov    %eax,-0x10(%ebp)
c00021f2:	8b 45 e0             	mov    -0x20(%ebp),%eax
c00021f5:	8b 55 f4             	mov    -0xc(%ebp),%edx
c00021f8:	f7 75 e4             	divl   -0x1c(%ebp)
c00021fb:	89 45 e0             	mov    %eax,-0x20(%ebp)
c00021fe:	89 55 dc             	mov    %edx,-0x24(%ebp)
c0002201:	8b 45 e0             	mov    -0x20(%ebp),%eax
c0002204:	8b 55 f0             	mov    -0x10(%ebp),%edx
c0002207:	89 85 48 ff ff ff    	mov    %eax,-0xb8(%ebp)
c000220d:	89 95 4c ff ff ff    	mov    %edx,-0xb4(%ebp)
c0002213:	8b 55 dc             	mov    -0x24(%ebp),%edx
c0002216:	8b 45 ec             	mov    -0x14(%ebp),%eax
c0002219:	01 d0                	add    %edx,%eax
c000221b:	0f b6 00             	movzbl (%eax),%eax
c000221e:	88 44 0d 9a          	mov    %al,-0x66(%ebp,%ecx,1)
c0002222:	8b 85 48 ff ff ff    	mov    -0xb8(%ebp),%eax
c0002228:	8b 95 4c ff ff ff    	mov    -0xb4(%ebp),%edx
c000222e:	09 d0                	or     %edx,%eax
c0002230:	85 c0                	test   %eax,%eax
c0002232:	0f 85 71 ff ff ff    	jne    c00021a9 <number+0x1c8>
c0002238:	8b 45 f8             	mov    -0x8(%ebp),%eax
c000223b:	3b 45 20             	cmp    0x20(%ebp),%eax
c000223e:	7e 06                	jle    c0002246 <number+0x265>
c0002240:	8b 45 f8             	mov    -0x8(%ebp),%eax
c0002243:	89 45 20             	mov    %eax,0x20(%ebp)
c0002246:	8b 45 20             	mov    0x20(%ebp),%eax
c0002249:	29 45 1c             	sub    %eax,0x1c(%ebp)
c000224c:	8b 45 24             	mov    0x24(%ebp),%eax
c000224f:	83 e0 11             	and    $0x11,%eax
c0002252:	85 c0                	test   %eax,%eax
c0002254:	75 21                	jne    c0002277 <number+0x296>
c0002256:	eb 12                	jmp    c000226a <number+0x289>
c0002258:	8b 45 08             	mov    0x8(%ebp),%eax
c000225b:	3b 45 0c             	cmp    0xc(%ebp),%eax
c000225e:	77 06                	ja     c0002266 <number+0x285>
c0002260:	8b 45 08             	mov    0x8(%ebp),%eax
c0002263:	c6 00 20             	movb   $0x20,(%eax)
c0002266:	83 45 08 01          	addl   $0x1,0x8(%ebp)
c000226a:	8b 45 1c             	mov    0x1c(%ebp),%eax
c000226d:	8d 50 ff             	lea    -0x1(%eax),%edx
c0002270:	89 55 1c             	mov    %edx,0x1c(%ebp)
c0002273:	85 c0                	test   %eax,%eax
c0002275:	7f e1                	jg     c0002258 <number+0x277>
c0002277:	80 7d ff 00          	cmpb   $0x0,-0x1(%ebp)
c000227b:	74 15                	je     c0002292 <number+0x2b1>
c000227d:	8b 45 08             	mov    0x8(%ebp),%eax
c0002280:	3b 45 0c             	cmp    0xc(%ebp),%eax
c0002283:	77 09                	ja     c000228e <number+0x2ad>
c0002285:	8b 45 08             	mov    0x8(%ebp),%eax
c0002288:	0f b6 55 ff          	movzbl -0x1(%ebp),%edx
c000228c:	88 10                	mov    %dl,(%eax)
c000228e:	83 45 08 01          	addl   $0x1,0x8(%ebp)
c0002292:	8b 45 24             	mov    0x24(%ebp),%eax
c0002295:	83 e0 20             	and    $0x20,%eax
c0002298:	85 c0                	test   %eax,%eax
c000229a:	74 4a                	je     c00022e6 <number+0x305>
c000229c:	83 7d 18 08          	cmpl   $0x8,0x18(%ebp)
c00022a0:	75 14                	jne    c00022b6 <number+0x2d5>
c00022a2:	8b 45 08             	mov    0x8(%ebp),%eax
c00022a5:	3b 45 0c             	cmp    0xc(%ebp),%eax
c00022a8:	77 06                	ja     c00022b0 <number+0x2cf>
c00022aa:	8b 45 08             	mov    0x8(%ebp),%eax
c00022ad:	c6 00 30             	movb   $0x30,(%eax)
c00022b0:	83 45 08 01          	addl   $0x1,0x8(%ebp)
c00022b4:	eb 30                	jmp    c00022e6 <number+0x305>
c00022b6:	83 7d 18 10          	cmpl   $0x10,0x18(%ebp)
c00022ba:	75 2a                	jne    c00022e6 <number+0x305>
c00022bc:	8b 45 08             	mov    0x8(%ebp),%eax
c00022bf:	3b 45 0c             	cmp    0xc(%ebp),%eax
c00022c2:	77 06                	ja     c00022ca <number+0x2e9>
c00022c4:	8b 45 08             	mov    0x8(%ebp),%eax
c00022c7:	c6 00 30             	movb   $0x30,(%eax)
c00022ca:	83 45 08 01          	addl   $0x1,0x8(%ebp)
c00022ce:	8b 45 08             	mov    0x8(%ebp),%eax
c00022d1:	3b 45 0c             	cmp    0xc(%ebp),%eax
c00022d4:	77 0c                	ja     c00022e2 <number+0x301>
c00022d6:	8b 45 ec             	mov    -0x14(%ebp),%eax
c00022d9:	0f b6 50 21          	movzbl 0x21(%eax),%edx
c00022dd:	8b 45 08             	mov    0x8(%ebp),%eax
c00022e0:	88 10                	mov    %dl,(%eax)
c00022e2:	83 45 08 01          	addl   $0x1,0x8(%ebp)
c00022e6:	8b 45 24             	mov    0x24(%ebp),%eax
c00022e9:	83 e0 10             	and    $0x10,%eax
c00022ec:	85 c0                	test   %eax,%eax
c00022ee:	75 24                	jne    c0002314 <number+0x333>
c00022f0:	eb 15                	jmp    c0002307 <number+0x326>
c00022f2:	8b 45 08             	mov    0x8(%ebp),%eax
c00022f5:	3b 45 0c             	cmp    0xc(%ebp),%eax
c00022f8:	77 09                	ja     c0002303 <number+0x322>
c00022fa:	8b 45 08             	mov    0x8(%ebp),%eax
c00022fd:	0f b6 55 eb          	movzbl -0x15(%ebp),%edx
c0002301:	88 10                	mov    %dl,(%eax)
c0002303:	83 45 08 01          	addl   $0x1,0x8(%ebp)
c0002307:	8b 45 1c             	mov    0x1c(%ebp),%eax
c000230a:	8d 50 ff             	lea    -0x1(%eax),%edx
c000230d:	89 55 1c             	mov    %edx,0x1c(%ebp)
c0002310:	85 c0                	test   %eax,%eax
c0002312:	7f de                	jg     c00022f2 <number+0x311>
c0002314:	eb 12                	jmp    c0002328 <number+0x347>
c0002316:	8b 45 08             	mov    0x8(%ebp),%eax
c0002319:	3b 45 0c             	cmp    0xc(%ebp),%eax
c000231c:	77 06                	ja     c0002324 <number+0x343>
c000231e:	8b 45 08             	mov    0x8(%ebp),%eax
c0002321:	c6 00 30             	movb   $0x30,(%eax)
c0002324:	83 45 08 01          	addl   $0x1,0x8(%ebp)
c0002328:	8b 45 20             	mov    0x20(%ebp),%eax
c000232b:	8d 50 ff             	lea    -0x1(%eax),%edx
c000232e:	89 55 20             	mov    %edx,0x20(%ebp)
c0002331:	3b 45 f8             	cmp    -0x8(%ebp),%eax
c0002334:	7f e0                	jg     c0002316 <number+0x335>
c0002336:	eb 1c                	jmp    c0002354 <number+0x373>
c0002338:	8b 45 08             	mov    0x8(%ebp),%eax
c000233b:	3b 45 0c             	cmp    0xc(%ebp),%eax
c000233e:	77 10                	ja     c0002350 <number+0x36f>
c0002340:	8d 55 9a             	lea    -0x66(%ebp),%edx
c0002343:	8b 45 f8             	mov    -0x8(%ebp),%eax
c0002346:	01 d0                	add    %edx,%eax
c0002348:	0f b6 10             	movzbl (%eax),%edx
c000234b:	8b 45 08             	mov    0x8(%ebp),%eax
c000234e:	88 10                	mov    %dl,(%eax)
c0002350:	83 45 08 01          	addl   $0x1,0x8(%ebp)
c0002354:	8b 45 f8             	mov    -0x8(%ebp),%eax
c0002357:	8d 50 ff             	lea    -0x1(%eax),%edx
c000235a:	89 55 f8             	mov    %edx,-0x8(%ebp)
c000235d:	85 c0                	test   %eax,%eax
c000235f:	7f d7                	jg     c0002338 <number+0x357>
c0002361:	eb 12                	jmp    c0002375 <number+0x394>
c0002363:	8b 45 08             	mov    0x8(%ebp),%eax
c0002366:	3b 45 0c             	cmp    0xc(%ebp),%eax
c0002369:	77 06                	ja     c0002371 <number+0x390>
c000236b:	8b 45 08             	mov    0x8(%ebp),%eax
c000236e:	c6 00 20             	movb   $0x20,(%eax)
c0002371:	83 45 08 01          	addl   $0x1,0x8(%ebp)
c0002375:	8b 45 1c             	mov    0x1c(%ebp),%eax
c0002378:	8d 50 ff             	lea    -0x1(%eax),%edx
c000237b:	89 55 1c             	mov    %edx,0x1c(%ebp)
c000237e:	85 c0                	test   %eax,%eax
c0002380:	7f e1                	jg     c0002363 <number+0x382>
c0002382:	8b 45 08             	mov    0x8(%ebp),%eax
c0002385:	c9                   	leave  
c0002386:	c3                   	ret    

c0002387 <vsnprintf>:
vsnprintf():
c0002387:	55                   	push   %ebp
c0002388:	89 e5                	mov    %esp,%ebp
c000238a:	83 ec 68             	sub    $0x68,%esp
c000238d:	8b 45 08             	mov    0x8(%ebp),%eax
c0002390:	89 45 e4             	mov    %eax,-0x1c(%ebp)
c0002393:	8b 45 0c             	mov    0xc(%ebp),%eax
c0002396:	8d 50 ff             	lea    -0x1(%eax),%edx
c0002399:	8b 45 08             	mov    0x8(%ebp),%eax
c000239c:	01 d0                	add    %edx,%eax
c000239e:	89 45 e0             	mov    %eax,-0x20(%ebp)
c00023a1:	8b 45 08             	mov    0x8(%ebp),%eax
c00023a4:	83 e8 01             	sub    $0x1,%eax
c00023a7:	3b 45 e0             	cmp    -0x20(%ebp),%eax
c00023aa:	76 1c                	jbe    c00023c8 <vsnprintf+0x41>
c00023ac:	c7 45 e0 ff ff ff ff 	movl   $0xffffffff,-0x20(%ebp)
c00023b3:	8b 55 e0             	mov    -0x20(%ebp),%edx
c00023b6:	8b 45 08             	mov    0x8(%ebp),%eax
c00023b9:	29 c2                	sub    %eax,%edx
c00023bb:	89 d0                	mov    %edx,%eax
c00023bd:	83 c0 01             	add    $0x1,%eax
c00023c0:	89 45 0c             	mov    %eax,0xc(%ebp)
c00023c3:	e9 58 05 00 00       	jmp    c0002920 <vsnprintf+0x599>
c00023c8:	e9 53 05 00 00       	jmp    c0002920 <vsnprintf+0x599>
c00023cd:	8b 45 10             	mov    0x10(%ebp),%eax
c00023d0:	0f b6 00             	movzbl (%eax),%eax
c00023d3:	3c 25                	cmp    $0x25,%al
c00023d5:	74 1c                	je     c00023f3 <vsnprintf+0x6c>
c00023d7:	8b 45 e4             	mov    -0x1c(%ebp),%eax
c00023da:	3b 45 e0             	cmp    -0x20(%ebp),%eax
c00023dd:	77 0b                	ja     c00023ea <vsnprintf+0x63>
c00023df:	8b 45 10             	mov    0x10(%ebp),%eax
c00023e2:	0f b6 10             	movzbl (%eax),%edx
c00023e5:	8b 45 e4             	mov    -0x1c(%ebp),%eax
c00023e8:	88 10                	mov    %dl,(%eax)
c00023ea:	83 45 e4 01          	addl   $0x1,-0x1c(%ebp)
c00023ee:	e9 24 05 00 00       	jmp    c0002917 <vsnprintf+0x590>
c00023f3:	c7 45 d8 00 00 00 00 	movl   $0x0,-0x28(%ebp)
c00023fa:	8b 45 10             	mov    0x10(%ebp),%eax
c00023fd:	83 c0 01             	add    $0x1,%eax
c0002400:	89 45 10             	mov    %eax,0x10(%ebp)
c0002403:	8b 45 10             	mov    0x10(%ebp),%eax
c0002406:	0f b6 00             	movzbl (%eax),%eax
c0002409:	0f be c0             	movsbl %al,%eax
c000240c:	83 e8 20             	sub    $0x20,%eax
c000240f:	83 f8 10             	cmp    $0x10,%eax
c0002412:	77 27                	ja     c000243b <vsnprintf+0xb4>
c0002414:	8b 04 85 b8 32 00 c0 	mov    -0x3fffcd48(,%eax,4),%eax
c000241b:	ff e0                	jmp    *%eax
c000241d:	83 4d d8 10          	orl    $0x10,-0x28(%ebp)
c0002421:	eb d7                	jmp    c00023fa <vsnprintf+0x73>
c0002423:	83 4d d8 04          	orl    $0x4,-0x28(%ebp)
c0002427:	eb d1                	jmp    c00023fa <vsnprintf+0x73>
c0002429:	83 4d d8 08          	orl    $0x8,-0x28(%ebp)
c000242d:	eb cb                	jmp    c00023fa <vsnprintf+0x73>
c000242f:	83 4d d8 20          	orl    $0x20,-0x28(%ebp)
c0002433:	eb c5                	jmp    c00023fa <vsnprintf+0x73>
c0002435:	83 4d d8 01          	orl    $0x1,-0x28(%ebp)
c0002439:	eb bf                	jmp    c00023fa <vsnprintf+0x73>
c000243b:	c7 45 d4 ff ff ff ff 	movl   $0xffffffff,-0x2c(%ebp)
c0002442:	8b 45 10             	mov    0x10(%ebp),%eax
c0002445:	0f b6 00             	movzbl (%eax),%eax
c0002448:	0f b6 c0             	movzbl %al,%eax
c000244b:	0f b6 80 80 47 00 c0 	movzbl -0x3fffb880(%eax),%eax
c0002452:	0f b6 c0             	movzbl %al,%eax
c0002455:	83 e0 04             	and    $0x4,%eax
c0002458:	85 c0                	test   %eax,%eax
c000245a:	74 10                	je     c000246c <vsnprintf+0xe5>
c000245c:	8d 45 10             	lea    0x10(%ebp),%eax
c000245f:	89 04 24             	mov    %eax,(%esp)
c0002462:	e8 1c fb ff ff       	call   c0001f83 <skip_atoi>
c0002467:	89 45 d4             	mov    %eax,-0x2c(%ebp)
c000246a:	eb 2d                	jmp    c0002499 <vsnprintf+0x112>
c000246c:	8b 45 10             	mov    0x10(%ebp),%eax
c000246f:	0f b6 00             	movzbl (%eax),%eax
c0002472:	3c 2a                	cmp    $0x2a,%al
c0002474:	75 23                	jne    c0002499 <vsnprintf+0x112>
c0002476:	8b 45 10             	mov    0x10(%ebp),%eax
c0002479:	83 c0 01             	add    $0x1,%eax
c000247c:	89 45 10             	mov    %eax,0x10(%ebp)
c000247f:	83 45 14 04          	addl   $0x4,0x14(%ebp)
c0002483:	8b 45 14             	mov    0x14(%ebp),%eax
c0002486:	8b 40 fc             	mov    -0x4(%eax),%eax
c0002489:	89 45 d4             	mov    %eax,-0x2c(%ebp)
c000248c:	83 7d d4 00          	cmpl   $0x0,-0x2c(%ebp)
c0002490:	79 07                	jns    c0002499 <vsnprintf+0x112>
c0002492:	f7 5d d4             	negl   -0x2c(%ebp)
c0002495:	83 4d d8 10          	orl    $0x10,-0x28(%ebp)
c0002499:	c7 45 d0 ff ff ff ff 	movl   $0xffffffff,-0x30(%ebp)
c00024a0:	8b 45 10             	mov    0x10(%ebp),%eax
c00024a3:	0f b6 00             	movzbl (%eax),%eax
c00024a6:	3c 2e                	cmp    $0x2e,%al
c00024a8:	75 60                	jne    c000250a <vsnprintf+0x183>
c00024aa:	8b 45 10             	mov    0x10(%ebp),%eax
c00024ad:	83 c0 01             	add    $0x1,%eax
c00024b0:	89 45 10             	mov    %eax,0x10(%ebp)
c00024b3:	8b 45 10             	mov    0x10(%ebp),%eax
c00024b6:	0f b6 00             	movzbl (%eax),%eax
c00024b9:	0f b6 c0             	movzbl %al,%eax
c00024bc:	0f b6 80 80 47 00 c0 	movzbl -0x3fffb880(%eax),%eax
c00024c3:	0f b6 c0             	movzbl %al,%eax
c00024c6:	83 e0 04             	and    $0x4,%eax
c00024c9:	85 c0                	test   %eax,%eax
c00024cb:	74 10                	je     c00024dd <vsnprintf+0x156>
c00024cd:	8d 45 10             	lea    0x10(%ebp),%eax
c00024d0:	89 04 24             	mov    %eax,(%esp)
c00024d3:	e8 ab fa ff ff       	call   c0001f83 <skip_atoi>
c00024d8:	89 45 d0             	mov    %eax,-0x30(%ebp)
c00024db:	eb 20                	jmp    c00024fd <vsnprintf+0x176>
c00024dd:	8b 45 10             	mov    0x10(%ebp),%eax
c00024e0:	0f b6 00             	movzbl (%eax),%eax
c00024e3:	3c 2a                	cmp    $0x2a,%al
c00024e5:	75 16                	jne    c00024fd <vsnprintf+0x176>
c00024e7:	8b 45 10             	mov    0x10(%ebp),%eax
c00024ea:	83 c0 01             	add    $0x1,%eax
c00024ed:	89 45 10             	mov    %eax,0x10(%ebp)
c00024f0:	83 45 14 04          	addl   $0x4,0x14(%ebp)
c00024f4:	8b 45 14             	mov    0x14(%ebp),%eax
c00024f7:	8b 40 fc             	mov    -0x4(%eax),%eax
c00024fa:	89 45 d0             	mov    %eax,-0x30(%ebp)
c00024fd:	83 7d d0 00          	cmpl   $0x0,-0x30(%ebp)
c0002501:	79 07                	jns    c000250a <vsnprintf+0x183>
c0002503:	c7 45 d0 00 00 00 00 	movl   $0x0,-0x30(%ebp)
c000250a:	c7 45 cc ff ff ff ff 	movl   $0xffffffff,-0x34(%ebp)
c0002511:	8b 45 10             	mov    0x10(%ebp),%eax
c0002514:	0f b6 00             	movzbl (%eax),%eax
c0002517:	3c 68                	cmp    $0x68,%al
c0002519:	74 1e                	je     c0002539 <vsnprintf+0x1b2>
c000251b:	8b 45 10             	mov    0x10(%ebp),%eax
c000251e:	0f b6 00             	movzbl (%eax),%eax
c0002521:	3c 6c                	cmp    $0x6c,%al
c0002523:	74 14                	je     c0002539 <vsnprintf+0x1b2>
c0002525:	8b 45 10             	mov    0x10(%ebp),%eax
c0002528:	0f b6 00             	movzbl (%eax),%eax
c000252b:	3c 4c                	cmp    $0x4c,%al
c000252d:	74 0a                	je     c0002539 <vsnprintf+0x1b2>
c000252f:	8b 45 10             	mov    0x10(%ebp),%eax
c0002532:	0f b6 00             	movzbl (%eax),%eax
c0002535:	3c 5a                	cmp    $0x5a,%al
c0002537:	75 35                	jne    c000256e <vsnprintf+0x1e7>
c0002539:	8b 45 10             	mov    0x10(%ebp),%eax
c000253c:	0f b6 00             	movzbl (%eax),%eax
c000253f:	0f be c0             	movsbl %al,%eax
c0002542:	89 45 cc             	mov    %eax,-0x34(%ebp)
c0002545:	8b 45 10             	mov    0x10(%ebp),%eax
c0002548:	83 c0 01             	add    $0x1,%eax
c000254b:	89 45 10             	mov    %eax,0x10(%ebp)
c000254e:	83 7d cc 6c          	cmpl   $0x6c,-0x34(%ebp)
c0002552:	75 1a                	jne    c000256e <vsnprintf+0x1e7>
c0002554:	8b 45 10             	mov    0x10(%ebp),%eax
c0002557:	0f b6 00             	movzbl (%eax),%eax
c000255a:	3c 6c                	cmp    $0x6c,%al
c000255c:	75 10                	jne    c000256e <vsnprintf+0x1e7>
c000255e:	c7 45 cc 4c 00 00 00 	movl   $0x4c,-0x34(%ebp)
c0002565:	8b 45 10             	mov    0x10(%ebp),%eax
c0002568:	83 c0 01             	add    $0x1,%eax
c000256b:	89 45 10             	mov    %eax,0x10(%ebp)
c000256e:	c7 45 e8 0a 00 00 00 	movl   $0xa,-0x18(%ebp)
c0002575:	8b 45 10             	mov    0x10(%ebp),%eax
c0002578:	0f b6 00             	movzbl (%eax),%eax
c000257b:	0f be c0             	movsbl %al,%eax
c000257e:	83 e8 25             	sub    $0x25,%eax
c0002581:	83 f8 53             	cmp    $0x53,%eax
c0002584:	0f 87 33 02 00 00    	ja     c00027bd <vsnprintf+0x436>
c000258a:	8b 04 85 fc 32 00 c0 	mov    -0x3fffcd04(,%eax,4),%eax
c0002591:	ff e0                	jmp    *%eax
c0002593:	8b 45 d8             	mov    -0x28(%ebp),%eax
c0002596:	83 e0 10             	and    $0x10,%eax
c0002599:	85 c0                	test   %eax,%eax
c000259b:	75 1e                	jne    c00025bb <vsnprintf+0x234>
c000259d:	eb 12                	jmp    c00025b1 <vsnprintf+0x22a>
c000259f:	8b 45 e4             	mov    -0x1c(%ebp),%eax
c00025a2:	3b 45 e0             	cmp    -0x20(%ebp),%eax
c00025a5:	77 06                	ja     c00025ad <vsnprintf+0x226>
c00025a7:	8b 45 e4             	mov    -0x1c(%ebp),%eax
c00025aa:	c6 00 20             	movb   $0x20,(%eax)
c00025ad:	83 45 e4 01          	addl   $0x1,-0x1c(%ebp)
c00025b1:	83 6d d4 01          	subl   $0x1,-0x2c(%ebp)
c00025b5:	83 7d d4 00          	cmpl   $0x0,-0x2c(%ebp)
c00025b9:	7f e4                	jg     c000259f <vsnprintf+0x218>
c00025bb:	83 45 14 04          	addl   $0x4,0x14(%ebp)
c00025bf:	8b 45 14             	mov    0x14(%ebp),%eax
c00025c2:	83 e8 04             	sub    $0x4,%eax
c00025c5:	8b 00                	mov    (%eax),%eax
c00025c7:	88 45 cb             	mov    %al,-0x35(%ebp)
c00025ca:	8b 45 e4             	mov    -0x1c(%ebp),%eax
c00025cd:	3b 45 e0             	cmp    -0x20(%ebp),%eax
c00025d0:	77 09                	ja     c00025db <vsnprintf+0x254>
c00025d2:	8b 45 e4             	mov    -0x1c(%ebp),%eax
c00025d5:	0f b6 55 cb          	movzbl -0x35(%ebp),%edx
c00025d9:	88 10                	mov    %dl,(%eax)
c00025db:	83 45 e4 01          	addl   $0x1,-0x1c(%ebp)
c00025df:	eb 12                	jmp    c00025f3 <vsnprintf+0x26c>
c00025e1:	8b 45 e4             	mov    -0x1c(%ebp),%eax
c00025e4:	3b 45 e0             	cmp    -0x20(%ebp),%eax
c00025e7:	77 06                	ja     c00025ef <vsnprintf+0x268>
c00025e9:	8b 45 e4             	mov    -0x1c(%ebp),%eax
c00025ec:	c6 00 20             	movb   $0x20,(%eax)
c00025ef:	83 45 e4 01          	addl   $0x1,-0x1c(%ebp)
c00025f3:	83 6d d4 01          	subl   $0x1,-0x2c(%ebp)
c00025f7:	83 7d d4 00          	cmpl   $0x0,-0x2c(%ebp)
c00025fb:	7f e4                	jg     c00025e1 <vsnprintf+0x25a>
c00025fd:	e9 15 03 00 00       	jmp    c0002917 <vsnprintf+0x590>
c0002602:	83 45 14 04          	addl   $0x4,0x14(%ebp)
c0002606:	8b 45 14             	mov    0x14(%ebp),%eax
c0002609:	8b 40 fc             	mov    -0x4(%eax),%eax
c000260c:	89 45 dc             	mov    %eax,-0x24(%ebp)
c000260f:	83 7d dc 00          	cmpl   $0x0,-0x24(%ebp)
c0002613:	75 07                	jne    c000261c <vsnprintf+0x295>
c0002615:	c7 45 dc b0 32 00 c0 	movl   $0xc00032b0,-0x24(%ebp)
c000261c:	8b 45 d0             	mov    -0x30(%ebp),%eax
c000261f:	89 44 24 04          	mov    %eax,0x4(%esp)
c0002623:	8b 45 dc             	mov    -0x24(%ebp),%eax
c0002626:	89 04 24             	mov    %eax,(%esp)
c0002629:	e8 13 f9 ff ff       	call   c0001f41 <strnlen>
c000262e:	89 45 c4             	mov    %eax,-0x3c(%ebp)
c0002631:	8b 45 d8             	mov    -0x28(%ebp),%eax
c0002634:	83 e0 10             	and    $0x10,%eax
c0002637:	85 c0                	test   %eax,%eax
c0002639:	75 22                	jne    c000265d <vsnprintf+0x2d6>
c000263b:	eb 12                	jmp    c000264f <vsnprintf+0x2c8>
c000263d:	8b 45 e4             	mov    -0x1c(%ebp),%eax
c0002640:	3b 45 e0             	cmp    -0x20(%ebp),%eax
c0002643:	77 06                	ja     c000264b <vsnprintf+0x2c4>
c0002645:	8b 45 e4             	mov    -0x1c(%ebp),%eax
c0002648:	c6 00 20             	movb   $0x20,(%eax)
c000264b:	83 45 e4 01          	addl   $0x1,-0x1c(%ebp)
c000264f:	8b 45 d4             	mov    -0x2c(%ebp),%eax
c0002652:	8d 50 ff             	lea    -0x1(%eax),%edx
c0002655:	89 55 d4             	mov    %edx,-0x2c(%ebp)
c0002658:	3b 45 c4             	cmp    -0x3c(%ebp),%eax
c000265b:	7f e0                	jg     c000263d <vsnprintf+0x2b6>
c000265d:	c7 45 ec 00 00 00 00 	movl   $0x0,-0x14(%ebp)
c0002664:	eb 1f                	jmp    c0002685 <vsnprintf+0x2fe>
c0002666:	8b 45 e4             	mov    -0x1c(%ebp),%eax
c0002669:	3b 45 e0             	cmp    -0x20(%ebp),%eax
c000266c:	77 0b                	ja     c0002679 <vsnprintf+0x2f2>
c000266e:	8b 45 dc             	mov    -0x24(%ebp),%eax
c0002671:	0f b6 10             	movzbl (%eax),%edx
c0002674:	8b 45 e4             	mov    -0x1c(%ebp),%eax
c0002677:	88 10                	mov    %dl,(%eax)
c0002679:	83 45 e4 01          	addl   $0x1,-0x1c(%ebp)
c000267d:	83 45 dc 01          	addl   $0x1,-0x24(%ebp)
c0002681:	83 45 ec 01          	addl   $0x1,-0x14(%ebp)
c0002685:	8b 45 ec             	mov    -0x14(%ebp),%eax
c0002688:	3b 45 c4             	cmp    -0x3c(%ebp),%eax
c000268b:	7c d9                	jl     c0002666 <vsnprintf+0x2df>
c000268d:	eb 12                	jmp    c00026a1 <vsnprintf+0x31a>
c000268f:	8b 45 e4             	mov    -0x1c(%ebp),%eax
c0002692:	3b 45 e0             	cmp    -0x20(%ebp),%eax
c0002695:	77 06                	ja     c000269d <vsnprintf+0x316>
c0002697:	8b 45 e4             	mov    -0x1c(%ebp),%eax
c000269a:	c6 00 20             	movb   $0x20,(%eax)
c000269d:	83 45 e4 01          	addl   $0x1,-0x1c(%ebp)
c00026a1:	8b 45 d4             	mov    -0x2c(%ebp),%eax
c00026a4:	8d 50 ff             	lea    -0x1(%eax),%edx
c00026a7:	89 55 d4             	mov    %edx,-0x2c(%ebp)
c00026aa:	3b 45 c4             	cmp    -0x3c(%ebp),%eax
c00026ad:	7f e0                	jg     c000268f <vsnprintf+0x308>
c00026af:	e9 63 02 00 00       	jmp    c0002917 <vsnprintf+0x590>
c00026b4:	83 7d d4 ff          	cmpl   $0xffffffff,-0x2c(%ebp)
c00026b8:	75 0b                	jne    c00026c5 <vsnprintf+0x33e>
c00026ba:	c7 45 d4 08 00 00 00 	movl   $0x8,-0x2c(%ebp)
c00026c1:	83 4d d8 01          	orl    $0x1,-0x28(%ebp)
c00026c5:	83 45 14 04          	addl   $0x4,0x14(%ebp)
c00026c9:	8b 45 14             	mov    0x14(%ebp),%eax
c00026cc:	83 e8 04             	sub    $0x4,%eax
c00026cf:	8b 00                	mov    (%eax),%eax
c00026d1:	ba 00 00 00 00       	mov    $0x0,%edx
c00026d6:	8b 4d d8             	mov    -0x28(%ebp),%ecx
c00026d9:	89 4c 24 1c          	mov    %ecx,0x1c(%esp)
c00026dd:	8b 4d d0             	mov    -0x30(%ebp),%ecx
c00026e0:	89 4c 24 18          	mov    %ecx,0x18(%esp)
c00026e4:	8b 4d d4             	mov    -0x2c(%ebp),%ecx
c00026e7:	89 4c 24 14          	mov    %ecx,0x14(%esp)
c00026eb:	c7 44 24 10 10 00 00 	movl   $0x10,0x10(%esp)
c00026f2:	00 
c00026f3:	89 44 24 08          	mov    %eax,0x8(%esp)
c00026f7:	89 54 24 0c          	mov    %edx,0xc(%esp)
c00026fb:	8b 45 e0             	mov    -0x20(%ebp),%eax
c00026fe:	89 44 24 04          	mov    %eax,0x4(%esp)
c0002702:	8b 45 e4             	mov    -0x1c(%ebp),%eax
c0002705:	89 04 24             	mov    %eax,(%esp)
c0002708:	e8 d4 f8 ff ff       	call   c0001fe1 <number>
c000270d:	89 45 e4             	mov    %eax,-0x1c(%ebp)
c0002710:	e9 02 02 00 00       	jmp    c0002917 <vsnprintf+0x590>
c0002715:	83 7d cc 6c          	cmpl   $0x6c,-0x34(%ebp)
c0002719:	75 1c                	jne    c0002737 <vsnprintf+0x3b0>
c000271b:	83 45 14 04          	addl   $0x4,0x14(%ebp)
c000271f:	8b 45 14             	mov    0x14(%ebp),%eax
c0002722:	8b 40 fc             	mov    -0x4(%eax),%eax
c0002725:	89 45 c0             	mov    %eax,-0x40(%ebp)
c0002728:	8b 55 e4             	mov    -0x1c(%ebp),%edx
c000272b:	8b 45 08             	mov    0x8(%ebp),%eax
c000272e:	29 c2                	sub    %eax,%edx
c0002730:	8b 45 c0             	mov    -0x40(%ebp),%eax
c0002733:	89 10                	mov    %edx,(%eax)
c0002735:	eb 45                	jmp    c000277c <vsnprintf+0x3f5>
c0002737:	83 7d cc 5a          	cmpl   $0x5a,-0x34(%ebp)
c000273b:	75 20                	jne    c000275d <vsnprintf+0x3d6>
c000273d:	83 45 14 04          	addl   $0x4,0x14(%ebp)
c0002741:	8b 45 14             	mov    0x14(%ebp),%eax
c0002744:	8b 40 fc             	mov    -0x4(%eax),%eax
c0002747:	89 45 bc             	mov    %eax,-0x44(%ebp)
c000274a:	8b 55 e4             	mov    -0x1c(%ebp),%edx
c000274d:	8b 45 08             	mov    0x8(%ebp),%eax
c0002750:	29 c2                	sub    %eax,%edx
c0002752:	89 d0                	mov    %edx,%eax
c0002754:	89 c2                	mov    %eax,%edx
c0002756:	8b 45 bc             	mov    -0x44(%ebp),%eax
c0002759:	89 10                	mov    %edx,(%eax)
c000275b:	eb 1f                	jmp    c000277c <vsnprintf+0x3f5>
c000275d:	83 45 14 04          	addl   $0x4,0x14(%ebp)
c0002761:	8b 45 14             	mov    0x14(%ebp),%eax
c0002764:	8b 40 fc             	mov    -0x4(%eax),%eax
c0002767:	89 45 b8             	mov    %eax,-0x48(%ebp)
c000276a:	8b 55 e4             	mov    -0x1c(%ebp),%edx
c000276d:	8b 45 08             	mov    0x8(%ebp),%eax
c0002770:	29 c2                	sub    %eax,%edx
c0002772:	8b 45 b8             	mov    -0x48(%ebp),%eax
c0002775:	89 10                	mov    %edx,(%eax)
c0002777:	e9 9b 01 00 00       	jmp    c0002917 <vsnprintf+0x590>
c000277c:	e9 96 01 00 00       	jmp    c0002917 <vsnprintf+0x590>
c0002781:	8b 45 e4             	mov    -0x1c(%ebp),%eax
c0002784:	3b 45 e0             	cmp    -0x20(%ebp),%eax
c0002787:	77 06                	ja     c000278f <vsnprintf+0x408>
c0002789:	8b 45 e4             	mov    -0x1c(%ebp),%eax
c000278c:	c6 00 25             	movb   $0x25,(%eax)
c000278f:	83 45 e4 01          	addl   $0x1,-0x1c(%ebp)
c0002793:	e9 7f 01 00 00       	jmp    c0002917 <vsnprintf+0x590>
c0002798:	c7 45 e8 08 00 00 00 	movl   $0x8,-0x18(%ebp)
c000279f:	eb 63                	jmp    c0002804 <vsnprintf+0x47d>
c00027a1:	83 4d d8 40          	orl    $0x40,-0x28(%ebp)
c00027a5:	c7 45 e8 10 00 00 00 	movl   $0x10,-0x18(%ebp)
c00027ac:	eb 56                	jmp    c0002804 <vsnprintf+0x47d>
c00027ae:	c7 45 e8 10 00 00 00 	movl   $0x10,-0x18(%ebp)
c00027b5:	eb 4d                	jmp    c0002804 <vsnprintf+0x47d>
c00027b7:	83 4d d8 02          	orl    $0x2,-0x28(%ebp)
c00027bb:	eb 47                	jmp    c0002804 <vsnprintf+0x47d>
c00027bd:	8b 45 e4             	mov    -0x1c(%ebp),%eax
c00027c0:	3b 45 e0             	cmp    -0x20(%ebp),%eax
c00027c3:	77 06                	ja     c00027cb <vsnprintf+0x444>
c00027c5:	8b 45 e4             	mov    -0x1c(%ebp),%eax
c00027c8:	c6 00 25             	movb   $0x25,(%eax)
c00027cb:	83 45 e4 01          	addl   $0x1,-0x1c(%ebp)
c00027cf:	8b 45 10             	mov    0x10(%ebp),%eax
c00027d2:	0f b6 00             	movzbl (%eax),%eax
c00027d5:	84 c0                	test   %al,%al
c00027d7:	74 1c                	je     c00027f5 <vsnprintf+0x46e>
c00027d9:	8b 45 e4             	mov    -0x1c(%ebp),%eax
c00027dc:	3b 45 e0             	cmp    -0x20(%ebp),%eax
c00027df:	77 0b                	ja     c00027ec <vsnprintf+0x465>
c00027e1:	8b 45 10             	mov    0x10(%ebp),%eax
c00027e4:	0f b6 10             	movzbl (%eax),%edx
c00027e7:	8b 45 e4             	mov    -0x1c(%ebp),%eax
c00027ea:	88 10                	mov    %dl,(%eax)
c00027ec:	83 45 e4 01          	addl   $0x1,-0x1c(%ebp)
c00027f0:	e9 22 01 00 00       	jmp    c0002917 <vsnprintf+0x590>
c00027f5:	8b 45 10             	mov    0x10(%ebp),%eax
c00027f8:	83 e8 01             	sub    $0x1,%eax
c00027fb:	89 45 10             	mov    %eax,0x10(%ebp)
c00027fe:	e9 14 01 00 00       	jmp    c0002917 <vsnprintf+0x590>
c0002803:	90                   	nop
c0002804:	83 7d cc 4c          	cmpl   $0x4c,-0x34(%ebp)
c0002808:	75 1a                	jne    c0002824 <vsnprintf+0x49d>
c000280a:	83 45 14 08          	addl   $0x8,0x14(%ebp)
c000280e:	8b 45 14             	mov    0x14(%ebp),%eax
c0002811:	83 e8 08             	sub    $0x8,%eax
c0002814:	8b 50 04             	mov    0x4(%eax),%edx
c0002817:	8b 00                	mov    (%eax),%eax
c0002819:	89 45 f0             	mov    %eax,-0x10(%ebp)
c000281c:	89 55 f4             	mov    %edx,-0xc(%ebp)
c000281f:	e9 b4 00 00 00       	jmp    c00028d8 <vsnprintf+0x551>
c0002824:	83 7d cc 6c          	cmpl   $0x6c,-0x34(%ebp)
c0002828:	75 30                	jne    c000285a <vsnprintf+0x4d3>
c000282a:	83 45 14 04          	addl   $0x4,0x14(%ebp)
c000282e:	8b 45 14             	mov    0x14(%ebp),%eax
c0002831:	83 e8 04             	sub    $0x4,%eax
c0002834:	8b 00                	mov    (%eax),%eax
c0002836:	89 45 f0             	mov    %eax,-0x10(%ebp)
c0002839:	c7 45 f4 00 00 00 00 	movl   $0x0,-0xc(%ebp)
c0002840:	8b 45 d8             	mov    -0x28(%ebp),%eax
c0002843:	83 e0 02             	and    $0x2,%eax
c0002846:	85 c0                	test   %eax,%eax
c0002848:	0f 84 8a 00 00 00    	je     c00028d8 <vsnprintf+0x551>
c000284e:	8b 45 f0             	mov    -0x10(%ebp),%eax
c0002851:	99                   	cltd   
c0002852:	89 45 f0             	mov    %eax,-0x10(%ebp)
c0002855:	89 55 f4             	mov    %edx,-0xc(%ebp)
c0002858:	eb 7e                	jmp    c00028d8 <vsnprintf+0x551>
c000285a:	83 7d cc 5a          	cmpl   $0x5a,-0x34(%ebp)
c000285e:	75 18                	jne    c0002878 <vsnprintf+0x4f1>
c0002860:	83 45 14 04          	addl   $0x4,0x14(%ebp)
c0002864:	8b 45 14             	mov    0x14(%ebp),%eax
c0002867:	83 e8 04             	sub    $0x4,%eax
c000286a:	8b 00                	mov    (%eax),%eax
c000286c:	89 45 f0             	mov    %eax,-0x10(%ebp)
c000286f:	c7 45 f4 00 00 00 00 	movl   $0x0,-0xc(%ebp)
c0002876:	eb 60                	jmp    c00028d8 <vsnprintf+0x551>
c0002878:	83 7d cc 68          	cmpl   $0x68,-0x34(%ebp)
c000287c:	75 30                	jne    c00028ae <vsnprintf+0x527>
c000287e:	83 45 14 04          	addl   $0x4,0x14(%ebp)
c0002882:	8b 45 14             	mov    0x14(%ebp),%eax
c0002885:	83 e8 04             	sub    $0x4,%eax
c0002888:	8b 00                	mov    (%eax),%eax
c000288a:	0f b7 c0             	movzwl %ax,%eax
c000288d:	89 45 f0             	mov    %eax,-0x10(%ebp)
c0002890:	c7 45 f4 00 00 00 00 	movl   $0x0,-0xc(%ebp)
c0002897:	8b 45 d8             	mov    -0x28(%ebp),%eax
c000289a:	83 e0 02             	and    $0x2,%eax
c000289d:	85 c0                	test   %eax,%eax
c000289f:	74 37                	je     c00028d8 <vsnprintf+0x551>
c00028a1:	8b 45 f0             	mov    -0x10(%ebp),%eax
c00028a4:	98                   	cwtl   
c00028a5:	99                   	cltd   
c00028a6:	89 45 f0             	mov    %eax,-0x10(%ebp)
c00028a9:	89 55 f4             	mov    %edx,-0xc(%ebp)
c00028ac:	eb 2a                	jmp    c00028d8 <vsnprintf+0x551>
c00028ae:	83 45 14 04          	addl   $0x4,0x14(%ebp)
c00028b2:	8b 45 14             	mov    0x14(%ebp),%eax
c00028b5:	83 e8 04             	sub    $0x4,%eax
c00028b8:	8b 00                	mov    (%eax),%eax
c00028ba:	89 45 f0             	mov    %eax,-0x10(%ebp)
c00028bd:	c7 45 f4 00 00 00 00 	movl   $0x0,-0xc(%ebp)
c00028c4:	8b 45 d8             	mov    -0x28(%ebp),%eax
c00028c7:	83 e0 02             	and    $0x2,%eax
c00028ca:	85 c0                	test   %eax,%eax
c00028cc:	74 0a                	je     c00028d8 <vsnprintf+0x551>
c00028ce:	8b 45 f0             	mov    -0x10(%ebp),%eax
c00028d1:	99                   	cltd   
c00028d2:	89 45 f0             	mov    %eax,-0x10(%ebp)
c00028d5:	89 55 f4             	mov    %edx,-0xc(%ebp)
c00028d8:	8b 45 f0             	mov    -0x10(%ebp),%eax
c00028db:	8b 55 f4             	mov    -0xc(%ebp),%edx
c00028de:	8b 4d d8             	mov    -0x28(%ebp),%ecx
c00028e1:	89 4c 24 1c          	mov    %ecx,0x1c(%esp)
c00028e5:	8b 4d d0             	mov    -0x30(%ebp),%ecx
c00028e8:	89 4c 24 18          	mov    %ecx,0x18(%esp)
c00028ec:	8b 4d d4             	mov    -0x2c(%ebp),%ecx
c00028ef:	89 4c 24 14          	mov    %ecx,0x14(%esp)
c00028f3:	8b 4d e8             	mov    -0x18(%ebp),%ecx
c00028f6:	89 4c 24 10          	mov    %ecx,0x10(%esp)
c00028fa:	89 44 24 08          	mov    %eax,0x8(%esp)
c00028fe:	89 54 24 0c          	mov    %edx,0xc(%esp)
c0002902:	8b 45 e0             	mov    -0x20(%ebp),%eax
c0002905:	89 44 24 04          	mov    %eax,0x4(%esp)
c0002909:	8b 45 e4             	mov    -0x1c(%ebp),%eax
c000290c:	89 04 24             	mov    %eax,(%esp)
c000290f:	e8 cd f6 ff ff       	call   c0001fe1 <number>
c0002914:	89 45 e4             	mov    %eax,-0x1c(%ebp)
c0002917:	8b 45 10             	mov    0x10(%ebp),%eax
c000291a:	83 c0 01             	add    $0x1,%eax
c000291d:	89 45 10             	mov    %eax,0x10(%ebp)
c0002920:	8b 45 10             	mov    0x10(%ebp),%eax
c0002923:	0f b6 00             	movzbl (%eax),%eax
c0002926:	84 c0                	test   %al,%al
c0002928:	0f 85 9f fa ff ff    	jne    c00023cd <vsnprintf+0x46>
c000292e:	8b 45 e4             	mov    -0x1c(%ebp),%eax
c0002931:	3b 45 e0             	cmp    -0x20(%ebp),%eax
c0002934:	77 08                	ja     c000293e <vsnprintf+0x5b7>
c0002936:	8b 45 e4             	mov    -0x1c(%ebp),%eax
c0002939:	c6 00 00             	movb   $0x0,(%eax)
c000293c:	eb 0c                	jmp    c000294a <vsnprintf+0x5c3>
c000293e:	83 7d 0c 00          	cmpl   $0x0,0xc(%ebp)
c0002942:	74 06                	je     c000294a <vsnprintf+0x5c3>
c0002944:	8b 45 e0             	mov    -0x20(%ebp),%eax
c0002947:	c6 00 00             	movb   $0x0,(%eax)
c000294a:	8b 55 e4             	mov    -0x1c(%ebp),%edx
c000294d:	8b 45 08             	mov    0x8(%ebp),%eax
c0002950:	29 c2                	sub    %eax,%edx
c0002952:	89 d0                	mov    %edx,%eax
c0002954:	c9                   	leave  
c0002955:	c3                   	ret    
c0002956:	66 90                	xchg   %ax,%ax
c0002958:	73 74                	jae    c00029ce <vsnprintf+0x647>
c000295a:	61                   	popa   
c000295b:	63 6b 64             	arpl   %bp,0x64(%ebx)
c000295e:	75 6d                	jne    c00029cd <vsnprintf+0x646>
c0002960:	70 20                	jo     c0002982 <vsnprintf+0x5fb>
c0002962:	6e                   	outsb  %ds:(%esi),(%dx)
c0002963:	6f                   	outsl  %ds:(%esi),(%dx)
c0002964:	74 20                	je     c0002986 <vsnprintf+0x5ff>
c0002966:	79 65                	jns    c00029cd <vsnprintf+0x646>
c0002968:	74 20                	je     c000298a <vsnprintf+0x603>
c000296a:	69 6d 70 6c 65 6d 65 	imul   $0x656d656c,0x70(%ebp),%ebp
c0002971:	6e                   	outsb  %ds:(%esi),(%dx)
c0002972:	74 65                	je     c00029d9 <vsnprintf+0x652>
c0002974:	64 00 2e             	add    %ch,%fs:(%esi)
c0002977:	2f                   	das    
c0002978:	69 6e 63 6c 75 64 65 	imul   $0x6564756c,0x63(%esi),%ebp
c000297f:	2f                   	das    
c0002980:	65                   	gs
c0002981:	78 63                	js     c00029e6 <vsnprintf+0x65f>
c0002983:	65                   	gs
c0002984:	70 74                	jo     c00029fa <vsnprintf+0x673>
c0002986:	69 6f 6e 5f 68 61 6e 	imul   $0x6e61685f,0x6e(%edi),%ebp
c000298d:	64                   	fs
c000298e:	6c                   	insb   (%dx),%es:(%edi)
c000298f:	65                   	gs
c0002990:	72 2e                	jb     c00029c0 <vsnprintf+0x639>
c0002992:	68 00 0a 20 61       	push   $0x61200a00
c0002997:	74 20                	je     c00029b9 <vsnprintf+0x632>
c0002999:	6c                   	insb   (%dx),%es:(%edi)
c000299a:	69 6e 65 20 25 64 20 	imul   $0x20642520,0x65(%esi),%ebp
c00029a1:	69 6e 20 25 73 20 22 	imul   $0x22207325,0x20(%esi),%ebp
c00029a8:	73 74                	jae    c0002a1e <vsnprintf+0x697>
c00029aa:	61                   	popa   
c00029ab:	63 6b 64             	arpl   %bp,0x64(%ebx)
c00029ae:	75 6d                	jne    c0002a1d <vsnprintf+0x696>
c00029b0:	70 20                	jo     c00029d2 <vsnprintf+0x64b>
c00029b2:	6e                   	outsb  %ds:(%esi),(%dx)
c00029b3:	6f                   	outsl  %ds:(%esi),(%dx)
c00029b4:	74 20                	je     c00029d6 <vsnprintf+0x64f>
c00029b6:	79 65                	jns    c0002a1d <vsnprintf+0x696>
c00029b8:	74 20                	je     c00029da <vsnprintf+0x653>
c00029ba:	69 6d 70 6c 65 6d 65 	imul   $0x656d656c,0x70(%ebp),%ebp
c00029c1:	6e                   	outsb  %ds:(%esi),(%dx)
c00029c2:	74 65                	je     c0002a29 <vsnprintf+0x6a2>
c00029c4:	64 22 20             	and    %fs:(%eax),%ah
c00029c7:	69 73 20 2d 3e 20 30 	imul   $0x30203e2d,0x20(%ebx),%esi
c00029ce:	78 25                	js     c00029f5 <vsnprintf+0x66e>
c00029d0:	78 0a                	js     c00029dc <vsnprintf+0x655>
c00029d2:	00 00                	add    %al,(%eax)
c00029d4:	0a 65 61             	or     0x61(%ebp),%ah
c00029d7:	78 20                	js     c00029f9 <vsnprintf+0x672>
c00029d9:	3d 20 25 23 30       	cmp    $0x30232520,%eax
c00029de:	31 30                	xor    %esi,(%eax)
c00029e0:	78 20                	js     c0002a02 <vsnprintf+0x67b>
c00029e2:	20 64 73 20          	and    %ah,0x20(%ebx,%esi,2)
c00029e6:	3d 20 25 23 30       	cmp    $0x30232520,%eax
c00029eb:	31 30                	xor    %esi,(%eax)
c00029ed:	78 20                	js     c0002a0f <vsnprintf+0x688>
c00029ef:	20 63 72             	and    %ah,0x72(%ebx)
c00029f2:	30 20                	xor    %ah,(%eax)
c00029f4:	3d 20 25 23 30       	cmp    $0x30232520,%eax
c00029f9:	31 30                	xor    %esi,(%eax)
c00029fb:	78 20                	js     c0002a1d <vsnprintf+0x696>
c00029fd:	20 65 73             	and    %ah,0x73(%ebp)
c0002a00:	70 20                	jo     c0002a22 <vsnprintf+0x69b>
c0002a02:	20 20                	and    %ah,(%eax)
c0002a04:	20 3d 20 25 23 30    	and    %bh,0x30232520
c0002a0a:	31 30                	xor    %esi,(%eax)
c0002a0c:	78 00                	js     c0002a0e <vsnprintf+0x687>
c0002a0e:	00 00                	add    %al,(%eax)
c0002a10:	0a 65 62             	or     0x62(%ebp),%ah
c0002a13:	78 20                	js     c0002a35 <vsnprintf+0x6ae>
c0002a15:	3d 20 25 23 30       	cmp    $0x30232520,%eax
c0002a1a:	31 30                	xor    %esi,(%eax)
c0002a1c:	78 20                	js     c0002a3e <vsnprintf+0x6b7>
c0002a1e:	20 65 73             	and    %ah,0x73(%ebp)
c0002a21:	20 3d 20 25 23 30    	and    %bh,0x30232520
c0002a27:	31 30                	xor    %esi,(%eax)
c0002a29:	78 20                	js     c0002a4b <vsnprintf+0x6c4>
c0002a2b:	20 63 72             	and    %ah,0x72(%ebx)
c0002a2e:	32 20                	xor    (%eax),%ah
c0002a30:	3d 20 25 23 30       	cmp    $0x30232520,%eax
c0002a35:	31 30                	xor    %esi,(%eax)
c0002a37:	78 20                	js     c0002a59 <vsnprintf+0x6d2>
c0002a39:	20 65 62             	and    %ah,0x62(%ebp)
c0002a3c:	70 20                	jo     c0002a5e <vsnprintf+0x6d7>
c0002a3e:	20 20                	and    %ah,(%eax)
c0002a40:	20 3d 20 25 23 30    	and    %bh,0x30232520
c0002a46:	31 30                	xor    %esi,(%eax)
c0002a48:	78 00                	js     c0002a4a <vsnprintf+0x6c3>
c0002a4a:	00 00                	add    %al,(%eax)
c0002a4c:	0a 65 63             	or     0x63(%ebp),%ah
c0002a4f:	78 20                	js     c0002a71 <vsnprintf+0x6ea>
c0002a51:	3d 20 25 23 30       	cmp    $0x30232520,%eax
c0002a56:	31 30                	xor    %esi,(%eax)
c0002a58:	78 20                	js     c0002a7a <vsnprintf+0x6f3>
c0002a5a:	20 66 73             	and    %ah,0x73(%esi)
c0002a5d:	20 3d 20 25 23 30    	and    %bh,0x30232520
c0002a63:	31 30                	xor    %esi,(%eax)
c0002a65:	78 20                	js     c0002a87 <vsnprintf+0x700>
c0002a67:	20 63 72             	and    %ah,0x72(%ebx)
c0002a6a:	33 20                	xor    (%eax),%esp
c0002a6c:	3d 20 25 23 30       	cmp    $0x30232520,%eax
c0002a71:	31 30                	xor    %esi,(%eax)
c0002a73:	78 20                	js     c0002a95 <vsnprintf+0x70e>
c0002a75:	20 65 69             	and    %ah,0x69(%ebp)
c0002a78:	70 20                	jo     c0002a9a <vsnprintf+0x713>
c0002a7a:	20 20                	and    %ah,(%eax)
c0002a7c:	20 3d 20 25 23 30    	and    %bh,0x30232520
c0002a82:	31 30                	xor    %esi,(%eax)
c0002a84:	78 00                	js     c0002a86 <vsnprintf+0x6ff>
c0002a86:	00 00                	add    %al,(%eax)
c0002a88:	0a 65 64             	or     0x64(%ebp),%ah
c0002a8b:	78 20                	js     c0002aad <vsnprintf+0x726>
c0002a8d:	3d 20 25 23 30       	cmp    $0x30232520,%eax
c0002a92:	31 30                	xor    %esi,(%eax)
c0002a94:	78 20                	js     c0002ab6 <vsnprintf+0x72f>
c0002a96:	20 67 73             	and    %ah,0x73(%edi)
c0002a99:	20 3d 20 25 23 30    	and    %bh,0x30232520
c0002a9f:	31 30                	xor    %esi,(%eax)
c0002aa1:	78 20                	js     c0002ac3 <vsnprintf+0x73c>
c0002aa3:	20 63 72             	and    %ah,0x72(%ebx)
c0002aa6:	34 20                	xor    $0x20,%al
c0002aa8:	3d 20 25 23 30       	cmp    $0x30232520,%eax
c0002aad:	31 30                	xor    %esi,(%eax)
c0002aaf:	78 20                	js     c0002ad1 <vsnprintf+0x74a>
c0002ab1:	20 65 66             	and    %ah,0x66(%ebp)
c0002ab4:	6c                   	insb   (%dx),%es:(%edi)
c0002ab5:	61                   	popa   
c0002ab6:	67 73 20             	addr16 jae c0002ad9 <vsnprintf+0x752>
c0002ab9:	3d 20 25 23 30       	cmp    $0x30232520,%eax
c0002abe:	31 30                	xor    %esi,(%eax)
c0002ac0:	78 00                	js     c0002ac2 <vsnprintf+0x73b>
c0002ac2:	00 00                	add    %al,(%eax)
c0002ac4:	0a 65 73             	or     0x73(%ebp),%ah
c0002ac7:	69 20 3d 20 25 23    	imul   $0x2325203d,(%eax),%esp
c0002acd:	30 31                	xor    %dh,(%ecx)
c0002acf:	30 78 20             	xor    %bh,0x20(%eax)
c0002ad2:	20 73 73             	and    %dh,0x73(%ebx)
c0002ad5:	20 3d 20 25 23 30    	and    %bh,0x30232520
c0002adb:	31 30                	xor    %esi,(%eax)
c0002add:	78 20                	js     c0002aff <vsnprintf+0x778>
c0002adf:	20 65 78             	and    %ah,0x78(%ebp)
c0002ae2:	63 20                	arpl   %sp,(%eax)
c0002ae4:	3d 20 25 23 30       	cmp    $0x30232520,%eax
c0002ae9:	31 30                	xor    %esi,(%eax)
c0002aeb:	78 00                	js     c0002aed <vsnprintf+0x766>
c0002aed:	00 00                	add    %al,(%eax)
c0002aef:	00 0a                	add    %cl,(%edx)
c0002af1:	65 64 69 20 3d 20 25 	gs imul $0x2325203d,%fs:%gs:(%eax),%esp
c0002af8:	23 
c0002af9:	30 31                	xor    %dh,(%ecx)
c0002afb:	30 78 20             	xor    %bh,0x20(%eax)
c0002afe:	20 63 73             	and    %ah,0x73(%ebx)
c0002b01:	20 3d 20 25 23 30    	and    %bh,0x30232520
c0002b07:	31 30                	xor    %esi,(%eax)
c0002b09:	78 20                	js     c0002b2b <vsnprintf+0x7a4>
c0002b0b:	20 65 72             	and    %ah,0x72(%ebp)
c0002b0e:	72 20                	jb     c0002b30 <vsnprintf+0x7a9>
c0002b10:	3d 20 25 23 30       	cmp    $0x30232520,%eax
c0002b15:	31 30                	xor    %esi,(%eax)
c0002b17:	78 00                	js     c0002b19 <vsnprintf+0x792>
c0002b19:	00 00                	add    %al,(%eax)
c0002b1b:	00 0a                	add    %cl,(%edx)
c0002b1d:	45                   	inc    %ebp
c0002b1e:	78 63                	js     c0002b83 <vsnprintf+0x7fc>
c0002b20:	65                   	gs
c0002b21:	70 74                	jo     c0002b97 <vsnprintf+0x810>
c0002b23:	69 6f 6e 20 30 30 3a 	imul   $0x3a303020,0x6e(%edi),%ebp
c0002b2a:	20 44 49 56          	and    %al,0x56(%ecx,%ecx,2)
c0002b2e:	49                   	dec    %ecx
c0002b2f:	53                   	push   %ebx
c0002b30:	49                   	dec    %ecx
c0002b31:	4f                   	dec    %edi
c0002b32:	4e                   	dec    %esi
c0002b33:	20 42 59             	and    %al,0x59(%edx)
c0002b36:	20 5a 45             	and    %bl,0x45(%edx)
c0002b39:	52                   	push   %edx
c0002b3a:	4f                   	dec    %edi
c0002b3b:	0a 00                	or     (%eax),%al
c0002b3d:	00 00                	add    %al,(%eax)
c0002b3f:	00 0a                	add    %cl,(%edx)
c0002b41:	45                   	inc    %ebp
c0002b42:	78 63                	js     c0002ba7 <vsnprintf+0x820>
c0002b44:	65                   	gs
c0002b45:	70 74                	jo     c0002bbb <vsnprintf+0x834>
c0002b47:	69 6f 6e 20 30 31 3a 	imul   $0x3a313020,0x6e(%edi),%ebp
c0002b4e:	20 44 45 42          	and    %al,0x42(%ebp,%eax,2)
c0002b52:	55                   	push   %ebp
c0002b53:	47                   	inc    %edi
c0002b54:	20 45 58             	and    %al,0x58(%ebp)
c0002b57:	43                   	inc    %ebx
c0002b58:	45                   	inc    %ebp
c0002b59:	50                   	push   %eax
c0002b5a:	54                   	push   %esp
c0002b5b:	49                   	dec    %ecx
c0002b5c:	4f                   	dec    %edi
c0002b5d:	4e                   	dec    %esi
c0002b5e:	20 44 45 54          	and    %al,0x54(%ebp,%eax,2)
c0002b62:	45                   	inc    %ebp
c0002b63:	43                   	inc    %ebx
c0002b64:	54                   	push   %esp
c0002b65:	45                   	inc    %ebp
c0002b66:	44                   	inc    %esp
c0002b67:	0a 00                	or     (%eax),%al
c0002b69:	00 00                	add    %al,(%eax)
c0002b6b:	00 0a                	add    %cl,(%edx)
c0002b6d:	45                   	inc    %ebp
c0002b6e:	78 63                	js     c0002bd3 <vsnprintf+0x84c>
c0002b70:	65                   	gs
c0002b71:	70 74                	jo     c0002be7 <vsnprintf+0x860>
c0002b73:	69 6f 6e 20 30 32 3a 	imul   $0x3a323020,0x6e(%edi),%ebp
c0002b7a:	20 4e 4f             	and    %cl,0x4f(%esi)
c0002b7d:	4e                   	dec    %esi
c0002b7e:	20 4d 41             	and    %cl,0x41(%ebp)
c0002b81:	53                   	push   %ebx
c0002b82:	4b                   	dec    %ebx
c0002b83:	41                   	inc    %ecx
c0002b84:	42                   	inc    %edx
c0002b85:	4c                   	dec    %esp
c0002b86:	45                   	inc    %ebp
c0002b87:	20 49 4e             	and    %cl,0x4e(%ecx)
c0002b8a:	54                   	push   %esp
c0002b8b:	45                   	inc    %ebp
c0002b8c:	52                   	push   %edx
c0002b8d:	52                   	push   %edx
c0002b8e:	55                   	push   %ebp
c0002b8f:	50                   	push   %eax
c0002b90:	54                   	push   %esp
c0002b91:	0a 00                	or     (%eax),%al
c0002b93:	00 0a                	add    %cl,(%edx)
c0002b95:	45                   	inc    %ebp
c0002b96:	78 63                	js     c0002bfb <vsnprintf+0x874>
c0002b98:	65                   	gs
c0002b99:	70 74                	jo     c0002c0f <vsnprintf+0x888>
c0002b9b:	69 6f 6e 20 30 33 3a 	imul   $0x3a333020,0x6e(%edi),%ebp
c0002ba2:	20 42 52             	and    %al,0x52(%edx)
c0002ba5:	45                   	inc    %ebp
c0002ba6:	41                   	inc    %ecx
c0002ba7:	4b                   	dec    %ebx
c0002ba8:	50                   	push   %eax
c0002ba9:	4f                   	dec    %edi
c0002baa:	49                   	dec    %ecx
c0002bab:	4e                   	dec    %esi
c0002bac:	54                   	push   %esp
c0002bad:	20 49 4e             	and    %cl,0x4e(%ecx)
c0002bb0:	53                   	push   %ebx
c0002bb1:	54                   	push   %esp
c0002bb2:	52                   	push   %edx
c0002bb3:	55                   	push   %ebp
c0002bb4:	43                   	inc    %ebx
c0002bb5:	54                   	push   %esp
c0002bb6:	49                   	dec    %ecx
c0002bb7:	4f                   	dec    %edi
c0002bb8:	4e                   	dec    %esi
c0002bb9:	20 44 45 54          	and    %al,0x54(%ebp,%eax,2)
c0002bbd:	45                   	inc    %ebp
c0002bbe:	43                   	inc    %ebx
c0002bbf:	54                   	push   %esp
c0002bc0:	45                   	inc    %ebp
c0002bc1:	44                   	inc    %esp
c0002bc2:	0a 00                	or     (%eax),%al
c0002bc4:	6b 65 72 6e          	imul   $0x6e,0x72(%ebp),%esp
c0002bc8:	65                   	gs
c0002bc9:	6c                   	insb   (%dx),%es:(%edi)
c0002bca:	2f                   	das    
c0002bcb:	65                   	gs
c0002bcc:	78 63                	js     c0002c31 <vsnprintf+0x8aa>
c0002bce:	65                   	gs
c0002bcf:	70 74                	jo     c0002c45 <vsnprintf+0x8be>
c0002bd1:	69 6f 6e 5f 68 61 6e 	imul   $0x6e61685f,0x6e(%edi),%ebp
c0002bd8:	64                   	fs
c0002bd9:	6c                   	insb   (%dx),%es:(%edi)
c0002bda:	65                   	gs
c0002bdb:	72 2e                	jb     c0002c0b <vsnprintf+0x884>
c0002bdd:	63 00                	arpl   %ax,(%eax)
c0002bdf:	00 42 72             	add    %al,0x72(%edx)
c0002be2:	65                   	gs
c0002be3:	61                   	popa   
c0002be4:	6b 70 6f 69          	imul   $0x69,0x6f(%eax),%esi
c0002be8:	6e                   	outsb  %ds:(%esi),(%dx)
c0002be9:	74 20                	je     c0002c0b <vsnprintf+0x884>
c0002beb:	6e                   	outsb  %ds:(%esi),(%dx)
c0002bec:	6f                   	outsl  %ds:(%esi),(%dx)
c0002bed:	74 20                	je     c0002c0f <vsnprintf+0x888>
c0002bef:	79 65                	jns    c0002c56 <vsnprintf+0x8cf>
c0002bf1:	74 20                	je     c0002c13 <vsnprintf+0x88c>
c0002bf3:	69 6d 70 6c 65 6d 65 	imul   $0x656d656c,0x70(%ebp),%ebp
c0002bfa:	6e                   	outsb  %ds:(%esi),(%dx)
c0002bfb:	74 65                	je     c0002c62 <vsnprintf+0x8db>
c0002bfd:	64 00 00             	add    %al,%fs:(%eax)
c0002c00:	0a 4b 45             	or     0x45(%ebx),%cl
c0002c03:	52                   	push   %edx
c0002c04:	4e                   	dec    %esi
c0002c05:	45                   	inc    %ebp
c0002c06:	4c                   	dec    %esp
c0002c07:	20 50 41             	and    %dl,0x41(%eax)
c0002c0a:	4e                   	dec    %esi
c0002c0b:	49                   	dec    %ecx
c0002c0c:	43                   	inc    %ebx
c0002c0d:	20 28                	and    %ch,(%eax)
c0002c0f:	25 73 29 20 0a       	and    $0xa202973,%eax
c0002c14:	09 69 6e             	or     %ebp,0x6e(%ecx)
c0002c17:	20 25 73 20 61 74    	and    %ah,0x74612073
c0002c1d:	20 6c 69 6e          	and    %ch,0x6e(%ecx,%ebp,2)
c0002c21:	65 20 25 64 00 00 00 	and    %ah,%gs:0x64
c0002c28:	0a 45 78             	or     0x78(%ebp),%al
c0002c2b:	63 65 70             	arpl   %sp,0x70(%ebp)
c0002c2e:	74 69                	je     c0002c99 <vsnprintf+0x912>
c0002c30:	6f                   	outsl  %ds:(%esi),(%dx)
c0002c31:	6e                   	outsb  %ds:(%esi),(%dx)
c0002c32:	20 30                	and    %dh,(%eax)
c0002c34:	34 3a                	xor    $0x3a,%al
c0002c36:	20 49 4e             	and    %cl,0x4e(%ecx)
c0002c39:	54                   	push   %esp
c0002c3a:	4f                   	dec    %edi
c0002c3b:	20 44 45 54          	and    %al,0x54(%ebp,%eax,2)
c0002c3f:	45                   	inc    %ebp
c0002c40:	43                   	inc    %ebx
c0002c41:	54                   	push   %esp
c0002c42:	45                   	inc    %ebp
c0002c43:	44                   	inc    %esp
c0002c44:	20 4f 56             	and    %cl,0x56(%edi)
c0002c47:	45                   	inc    %ebp
c0002c48:	52                   	push   %edx
c0002c49:	46                   	inc    %esi
c0002c4a:	4c                   	dec    %esp
c0002c4b:	4f                   	dec    %edi
c0002c4c:	57                   	push   %edi
c0002c4d:	0a 00                	or     (%eax),%al
c0002c4f:	00 0a                	add    %cl,(%edx)
c0002c51:	45                   	inc    %ebp
c0002c52:	78 63                	js     c0002cb7 <vsnprintf+0x930>
c0002c54:	65                   	gs
c0002c55:	70 74                	jo     c0002ccb <vsnprintf+0x944>
c0002c57:	69 6f 6e 20 30 35 3a 	imul   $0x3a353020,0x6e(%edi),%ebp
c0002c5e:	20 42 4f             	and    %al,0x4f(%edx)
c0002c61:	55                   	push   %ebp
c0002c62:	4e                   	dec    %esi
c0002c63:	44                   	inc    %esp
c0002c64:	20 52 41             	and    %dl,0x41(%edx)
c0002c67:	4e                   	dec    %esi
c0002c68:	47                   	inc    %edi
c0002c69:	45                   	inc    %ebp
c0002c6a:	20 45 58             	and    %al,0x58(%ebp)
c0002c6d:	43                   	inc    %ebx
c0002c6e:	45                   	inc    %ebp
c0002c6f:	45                   	inc    %ebp
c0002c70:	44                   	inc    %esp
c0002c71:	45                   	inc    %ebp
c0002c72:	44                   	inc    %esp
c0002c73:	0a 00                	or     (%eax),%al
c0002c75:	00 00                	add    %al,(%eax)
c0002c77:	00 0a                	add    %cl,(%edx)
c0002c79:	45                   	inc    %ebp
c0002c7a:	78 63                	js     c0002cdf <vsnprintf+0x958>
c0002c7c:	65                   	gs
c0002c7d:	70 74                	jo     c0002cf3 <vsnprintf+0x96c>
c0002c7f:	69 6f 6e 20 30 36 3a 	imul   $0x3a363020,0x6e(%edi),%ebp
c0002c86:	20 49 4e             	and    %cl,0x4e(%ecx)
c0002c89:	56                   	push   %esi
c0002c8a:	41                   	inc    %ecx
c0002c8b:	4c                   	dec    %esp
c0002c8c:	49                   	dec    %ecx
c0002c8d:	44                   	inc    %esp
c0002c8e:	20 4f 50             	and    %cl,0x50(%edi)
c0002c91:	43                   	inc    %ebx
c0002c92:	4f                   	dec    %edi
c0002c93:	44                   	inc    %esp
c0002c94:	45                   	inc    %ebp
c0002c95:	0a 00                	or     (%eax),%al
c0002c97:	00 0a                	add    %cl,(%edx)
c0002c99:	45                   	inc    %ebp
c0002c9a:	78 63                	js     c0002cff <vsnprintf+0x978>
c0002c9c:	65                   	gs
c0002c9d:	70 74                	jo     c0002d13 <vsnprintf+0x98c>
c0002c9f:	69 6f 6e 20 30 37 3a 	imul   $0x3a373020,0x6e(%edi),%ebp
c0002ca6:	20 50 52             	and    %dl,0x52(%eax)
c0002ca9:	4f                   	dec    %edi
c0002caa:	43                   	inc    %ebx
c0002cab:	45                   	inc    %ebp
c0002cac:	53                   	push   %ebx
c0002cad:	53                   	push   %ebx
c0002cae:	4f                   	dec    %edi
c0002caf:	52                   	push   %edx
c0002cb0:	20 45 58             	and    %al,0x58(%ebp)
c0002cb3:	54                   	push   %esp
c0002cb4:	45                   	inc    %ebp
c0002cb5:	4e                   	dec    %esi
c0002cb6:	53                   	push   %ebx
c0002cb7:	49                   	dec    %ecx
c0002cb8:	4f                   	dec    %edi
c0002cb9:	4e                   	dec    %esi
c0002cba:	20 4e 4f             	and    %cl,0x4f(%esi)
c0002cbd:	54                   	push   %esp
c0002cbe:	20 41 56             	and    %al,0x56(%ecx)
c0002cc1:	41                   	inc    %ecx
c0002cc2:	49                   	dec    %ecx
c0002cc3:	4c                   	dec    %esp
c0002cc4:	41                   	inc    %ecx
c0002cc5:	42                   	inc    %edx
c0002cc6:	4c                   	dec    %esp
c0002cc7:	45                   	inc    %ebp
c0002cc8:	0a 00                	or     (%eax),%al
c0002cca:	00 00                	add    %al,(%eax)
c0002ccc:	0a 45 78             	or     0x78(%ebp),%al
c0002ccf:	63 65 70             	arpl   %sp,0x70(%ebp)
c0002cd2:	74 69                	je     c0002d3d <vsnprintf+0x9b6>
c0002cd4:	6f                   	outsl  %ds:(%esi),(%dx)
c0002cd5:	6e                   	outsb  %ds:(%esi),(%dx)
c0002cd6:	20 30                	and    %dh,(%eax)
c0002cd8:	38 3a                	cmp    %bh,(%edx)
c0002cda:	20 44 4f 55          	and    %al,0x55(%edi,%ecx,2)
c0002cde:	42                   	inc    %edx
c0002cdf:	4c                   	dec    %esp
c0002ce0:	45                   	inc    %ebp
c0002ce1:	20 46 41             	and    %al,0x41(%esi)
c0002ce4:	55                   	push   %ebp
c0002ce5:	4c                   	dec    %esp
c0002ce6:	54                   	push   %esp
c0002ce7:	20 44 45 54          	and    %al,0x54(%ebp,%eax,2)
c0002ceb:	45                   	inc    %ebp
c0002cec:	43                   	inc    %ebx
c0002ced:	54                   	push   %esp
c0002cee:	45                   	inc    %ebp
c0002cef:	44                   	inc    %esp
c0002cf0:	0a 00                	or     (%eax),%al
c0002cf2:	00 00                	add    %al,(%eax)
c0002cf4:	0a 45 78             	or     0x78(%ebp),%al
c0002cf7:	63 65 70             	arpl   %sp,0x70(%ebp)
c0002cfa:	74 69                	je     c0002d65 <vsnprintf+0x9de>
c0002cfc:	6f                   	outsl  %ds:(%esi),(%dx)
c0002cfd:	6e                   	outsb  %ds:(%esi),(%dx)
c0002cfe:	20 30                	and    %dh,(%eax)
c0002d00:	39 3a                	cmp    %edi,(%edx)
c0002d02:	20 50 52             	and    %dl,0x52(%eax)
c0002d05:	4f                   	dec    %edi
c0002d06:	43                   	inc    %ebx
c0002d07:	45                   	inc    %ebp
c0002d08:	53                   	push   %ebx
c0002d09:	53                   	push   %ebx
c0002d0a:	4f                   	dec    %edi
c0002d0b:	52                   	push   %edx
c0002d0c:	20 45 58             	and    %al,0x58(%ebp)
c0002d0f:	54                   	push   %esp
c0002d10:	45                   	inc    %ebp
c0002d11:	4e                   	dec    %esi
c0002d12:	53                   	push   %ebx
c0002d13:	49                   	dec    %ecx
c0002d14:	4f                   	dec    %edi
c0002d15:	4e                   	dec    %esi
c0002d16:	20 50 52             	and    %dl,0x52(%eax)
c0002d19:	4f                   	dec    %edi
c0002d1a:	54                   	push   %esp
c0002d1b:	45                   	inc    %ebp
c0002d1c:	43                   	inc    %ebx
c0002d1d:	54                   	push   %esp
c0002d1e:	49                   	dec    %ecx
c0002d1f:	4f                   	dec    %edi
c0002d20:	4e                   	dec    %esi
c0002d21:	20 46 41             	and    %al,0x41(%esi)
c0002d24:	55                   	push   %ebp
c0002d25:	4c                   	dec    %esp
c0002d26:	54                   	push   %esp
c0002d27:	0a 00                	or     (%eax),%al
c0002d29:	00 00                	add    %al,(%eax)
c0002d2b:	00 0a                	add    %cl,(%edx)
c0002d2d:	45                   	inc    %ebp
c0002d2e:	78 63                	js     c0002d93 <vsnprintf+0xa0c>
c0002d30:	65                   	gs
c0002d31:	70 74                	jo     c0002da7 <vsnprintf+0xa20>
c0002d33:	69 6f 6e 20 30 41 3a 	imul   $0x3a413020,0x6e(%edi),%ebp
c0002d3a:	20 49 4e             	and    %cl,0x4e(%ecx)
c0002d3d:	56                   	push   %esi
c0002d3e:	41                   	inc    %ecx
c0002d3f:	4c                   	dec    %esp
c0002d40:	49                   	dec    %ecx
c0002d41:	44                   	inc    %esp
c0002d42:	20 54 41 53          	and    %dl,0x53(%ecx,%eax,2)
c0002d46:	4b                   	dec    %ebx
c0002d47:	20 53 54             	and    %dl,0x54(%ebx)
c0002d4a:	41                   	inc    %ecx
c0002d4b:	54                   	push   %esp
c0002d4c:	45                   	inc    %ebp
c0002d4d:	20 53 45             	and    %dl,0x45(%ebx)
c0002d50:	47                   	inc    %edi
c0002d51:	4d                   	dec    %ebp
c0002d52:	45                   	inc    %ebp
c0002d53:	4e                   	dec    %esi
c0002d54:	54                   	push   %esp
c0002d55:	0a 00                	or     (%eax),%al
c0002d57:	00 0a                	add    %cl,(%edx)
c0002d59:	45                   	inc    %ebp
c0002d5a:	78 63                	js     c0002dbf <vsnprintf+0xa38>
c0002d5c:	65                   	gs
c0002d5d:	70 74                	jo     c0002dd3 <vsnprintf+0xa4c>
c0002d5f:	69 6f 6e 20 30 42 3a 	imul   $0x3a423020,0x6e(%edi),%ebp
c0002d66:	20 53 45             	and    %dl,0x45(%ebx)
c0002d69:	47                   	inc    %edi
c0002d6a:	4d                   	dec    %ebp
c0002d6b:	45                   	inc    %ebp
c0002d6c:	4e                   	dec    %esi
c0002d6d:	54                   	push   %esp
c0002d6e:	20 4e 4f             	and    %cl,0x4f(%esi)
c0002d71:	54                   	push   %esp
c0002d72:	20 50 52             	and    %dl,0x52(%eax)
c0002d75:	45                   	inc    %ebp
c0002d76:	53                   	push   %ebx
c0002d77:	45                   	inc    %ebp
c0002d78:	4e                   	dec    %esi
c0002d79:	54                   	push   %esp
c0002d7a:	0a 00                	or     (%eax),%al
c0002d7c:	0a 45 78             	or     0x78(%ebp),%al
c0002d7f:	63 65 70             	arpl   %sp,0x70(%ebp)
c0002d82:	74 69                	je     c0002ded <vsnprintf+0xa66>
c0002d84:	6f                   	outsl  %ds:(%esi),(%dx)
c0002d85:	6e                   	outsb  %ds:(%esi),(%dx)
c0002d86:	20 30                	and    %dh,(%eax)
c0002d88:	43                   	inc    %ebx
c0002d89:	3a 20                	cmp    (%eax),%ah
c0002d8b:	53                   	push   %ebx
c0002d8c:	54                   	push   %esp
c0002d8d:	41                   	inc    %ecx
c0002d8e:	43                   	inc    %ebx
c0002d8f:	4b                   	dec    %ebx
c0002d90:	20 46 41             	and    %al,0x41(%esi)
c0002d93:	55                   	push   %ebp
c0002d94:	4c                   	dec    %esp
c0002d95:	54                   	push   %esp
c0002d96:	0a 00                	or     (%eax),%al
c0002d98:	76 38                	jbe    c0002dd2 <vsnprintf+0xa4b>
c0002d9a:	36                   	ss
c0002d9b:	5f                   	pop    %edi
c0002d9c:	6d                   	insl   (%dx),%es:(%edi)
c0002d9d:	6f                   	outsl  %ds:(%esi),(%dx)
c0002d9e:	6e                   	outsb  %ds:(%esi),(%dx)
c0002d9f:	69 74 6f 72 20 6e 6f 	imul   $0x746f6e20,0x72(%edi,%ebp,2),%esi
c0002da6:	74 
c0002da7:	20 79 65             	and    %bh,0x65(%ecx)
c0002daa:	74 20                	je     c0002dcc <vsnprintf+0xa45>
c0002dac:	69 6d 70 6c 65 6d 65 	imul   $0x656d656c,0x70(%ebp),%ebp
c0002db3:	6e                   	outsb  %ds:(%esi),(%dx)
c0002db4:	74 65                	je     c0002e1b <vsnprintf+0xa94>
c0002db6:	64 00 0a             	add    %cl,%fs:(%edx)
c0002db9:	45                   	inc    %ebp
c0002dba:	78 63                	js     c0002e1f <vsnprintf+0xa98>
c0002dbc:	65                   	gs
c0002dbd:	70 74                	jo     c0002e33 <vsnprintf+0xaac>
c0002dbf:	69 6f 6e 20 30 44 3a 	imul   $0x3a443020,0x6e(%edi),%ebp
c0002dc6:	20 47 45             	and    %al,0x45(%edi)
c0002dc9:	4e                   	dec    %esi
c0002dca:	45                   	inc    %ebp
c0002dcb:	52                   	push   %edx
c0002dcc:	41                   	inc    %ecx
c0002dcd:	4c                   	dec    %esp
c0002dce:	20 50 52             	and    %dl,0x52(%eax)
c0002dd1:	4f                   	dec    %edi
c0002dd2:	54                   	push   %esp
c0002dd3:	45                   	inc    %ebp
c0002dd4:	43                   	inc    %ebx
c0002dd5:	54                   	push   %esp
c0002dd6:	49                   	dec    %ecx
c0002dd7:	4f                   	dec    %edi
c0002dd8:	4e                   	dec    %esi
c0002dd9:	20 46 41             	and    %al,0x41(%esi)
c0002ddc:	55                   	push   %ebp
c0002ddd:	4c                   	dec    %esp
c0002dde:	54                   	push   %esp
c0002ddf:	0a 00                	or     (%eax),%al
c0002de1:	00 00                	add    %al,(%eax)
c0002de3:	00 0a                	add    %cl,(%edx)
c0002de5:	45                   	inc    %ebp
c0002de6:	78 63                	js     c0002e4b <vsnprintf+0xac4>
c0002de8:	65                   	gs
c0002de9:	70 74                	jo     c0002e5f <vsnprintf+0xad8>
c0002deb:	69 6f 6e 20 30 45 3a 	imul   $0x3a453020,0x6e(%edi),%ebp
c0002df2:	20 50 41             	and    %dl,0x41(%eax)
c0002df5:	47                   	inc    %edi
c0002df6:	45                   	inc    %ebp
c0002df7:	20 46 41             	and    %al,0x41(%esi)
c0002dfa:	55                   	push   %ebp
c0002dfb:	4c                   	dec    %esp
c0002dfc:	54                   	push   %esp
c0002dfd:	20 28                	and    %ch,(%eax)
c0002dff:	4f                   	dec    %edi
c0002e00:	75 74                	jne    c0002e76 <vsnprintf+0xaef>
c0002e02:	20 6f 66             	and    %ch,0x66(%edi)
c0002e05:	20 6d 65             	and    %ch,0x65(%ebp)
c0002e08:	6d                   	insl   (%dx),%es:(%edi)
c0002e09:	6f                   	outsl  %ds:(%esi),(%dx)
c0002e0a:	72 79                	jb     c0002e85 <vsnprintf+0xafe>
c0002e0c:	29 21                	sub    %esp,(%ecx)
c0002e0e:	0a 00                	or     (%eax),%al
c0002e10:	0a 45 78             	or     0x78(%ebp),%al
c0002e13:	63 65 70             	arpl   %sp,0x70(%ebp)
c0002e16:	74 69                	je     c0002e81 <vsnprintf+0xafa>
c0002e18:	6f                   	outsl  %ds:(%esi),(%dx)
c0002e19:	6e                   	outsb  %ds:(%esi),(%dx)
c0002e1a:	20 30                	and    %dh,(%eax)
c0002e1c:	45                   	inc    %ebp
c0002e1d:	3a 20                	cmp    (%eax),%ah
c0002e1f:	50                   	push   %eax
c0002e20:	41                   	inc    %ecx
c0002e21:	47                   	inc    %edi
c0002e22:	45                   	inc    %ebp
c0002e23:	20 46 41             	and    %al,0x41(%esi)
c0002e26:	55                   	push   %ebp
c0002e27:	4c                   	dec    %esp
c0002e28:	54                   	push   %esp
c0002e29:	20 20                	and    %ah,(%eax)
c0002e2b:	28 70 61             	sub    %dh,0x61(%eax)
c0002e2e:	67 65 20 6c 65       	and    %ch,%gs:0x65(%si)
c0002e33:	76 65                	jbe    c0002e9a <vsnprintf+0xb13>
c0002e35:	6c                   	insb   (%dx),%es:(%edi)
c0002e36:	20 70 72             	and    %dh,0x72(%eax)
c0002e39:	6f                   	outsl  %ds:(%esi),(%dx)
c0002e3a:	74 65                	je     c0002ea1 <vsnprintf+0xb1a>
c0002e3c:	63 74 69 6f          	arpl   %si,0x6f(%ecx,%ebp,2)
c0002e40:	6e                   	outsb  %ds:(%esi),(%dx)
c0002e41:	20 76 69             	and    %dh,0x69(%esi)
c0002e44:	6f                   	outsl  %ds:(%esi),(%dx)
c0002e45:	6c                   	insb   (%dx),%es:(%edi)
c0002e46:	61                   	popa   
c0002e47:	74 69                	je     c0002eb2 <vsnprintf+0xb2b>
c0002e49:	6f                   	outsl  %ds:(%esi),(%dx)
c0002e4a:	6e                   	outsb  %ds:(%esi),(%dx)
c0002e4b:	29 21                	sub    %esp,(%ecx)
c0002e4d:	0a 00                	or     (%eax),%al
c0002e4f:	00 0a                	add    %cl,(%edx)
c0002e51:	45                   	inc    %ebp
c0002e52:	78 63                	js     c0002eb7 <vsnprintf+0xb30>
c0002e54:	65                   	gs
c0002e55:	70 74                	jo     c0002ecb <vsnprintf+0xb44>
c0002e57:	69 6f 6e 20 30 46 3a 	imul   $0x3a463020,0x6e(%edi),%ebp
c0002e5e:	20 55 4e             	and    %dl,0x4e(%ebp)
c0002e61:	4b                   	dec    %ebx
c0002e62:	4e                   	dec    %esi
c0002e63:	4f                   	dec    %edi
c0002e64:	57                   	push   %edi
c0002e65:	4e                   	dec    %esi
c0002e66:	20 45 58             	and    %al,0x58(%ebp)
c0002e69:	43                   	inc    %ebx
c0002e6a:	45                   	inc    %ebp
c0002e6b:	50                   	push   %eax
c0002e6c:	54                   	push   %esp
c0002e6d:	49                   	dec    %ecx
c0002e6e:	4f                   	dec    %edi
c0002e6f:	4e                   	dec    %esi
c0002e70:	0a 00                	or     (%eax),%al
c0002e72:	00 00                	add    %al,(%eax)
c0002e74:	0a 45 78             	or     0x78(%ebp),%al
c0002e77:	63 65 70             	arpl   %sp,0x70(%ebp)
c0002e7a:	74 69                	je     c0002ee5 <vsnprintf+0xb5e>
c0002e7c:	6f                   	outsl  %ds:(%esi),(%dx)
c0002e7d:	6e                   	outsb  %ds:(%esi),(%dx)
c0002e7e:	20 23                	and    %ah,(%ebx)
c0002e80:	25 58 3a 20 55       	and    $0x55203a58,%eax
c0002e85:	4e                   	dec    %esi
c0002e86:	45                   	inc    %ebp
c0002e87:	58                   	pop    %eax
c0002e88:	50                   	push   %eax
c0002e89:	45                   	inc    %ebp
c0002e8a:	43                   	inc    %ebx
c0002e8b:	54                   	push   %esp
c0002e8c:	45                   	inc    %ebp
c0002e8d:	44                   	inc    %esp
c0002e8e:	20 45 58             	and    %al,0x58(%ebp)
c0002e91:	43                   	inc    %ebx
c0002e92:	45                   	inc    %ebp
c0002e93:	50                   	push   %eax
c0002e94:	54                   	push   %esp
c0002e95:	49                   	dec    %ecx
c0002e96:	4f                   	dec    %edi
c0002e97:	4e                   	dec    %esi
c0002e98:	20 21                	and    %ah,(%ecx)
c0002e9a:	21 21                	and    %esp,(%ecx)
c0002e9c:	0a 00                	or     (%eax),%al
c0002e9e:	00 00                	add    %al,(%eax)
c0002ea0:	45                   	inc    %ebp
c0002ea1:	6e                   	outsb  %ds:(%esi),(%dx)
c0002ea2:	64 20 6f 66          	and    %ch,%fs:0x66(%edi)
c0002ea6:	20 64 65 66          	and    %ah,0x66(%ebp,%eiz,2)
c0002eaa:	61                   	popa   
c0002eab:	75 6c                	jne    c0002f19 <vsnprintf+0xb92>
c0002ead:	74 5f                	je     c0002f0e <vsnprintf+0xb87>
c0002eaf:	65                   	gs
c0002eb0:	78 63                	js     c0002f15 <vsnprintf+0xb8e>
c0002eb2:	65                   	gs
c0002eb3:	70 74                	jo     c0002f29 <vsnprintf+0xba2>
c0002eb5:	69 6f 6e 28 29 20 72 	imul   $0x72202928,0x6e(%edi),%ebp
c0002ebc:	65                   	gs
c0002ebd:	61                   	popa   
c0002ebe:	63 68 65             	arpl   %bp,0x65(%eax)
c0002ec1:	64                   	fs
c0002ec2:	2c 20                	sub    $0x20,%al
c0002ec4:	74 68                	je     c0002f2e <vsnprintf+0xba7>
c0002ec6:	69 73 20 69 73 20 6e 	imul   $0x6e207369,0x20(%ebx),%esi
c0002ecd:	6f                   	outsl  %ds:(%esi),(%dx)
c0002ece:	74 20                	je     c0002ef0 <vsnprintf+0xb69>
c0002ed0:	64 6f                	outsl  %fs:(%esi),(%dx)
c0002ed2:	6e                   	outsb  %ds:(%esi),(%dx)
c0002ed3:	65 20 69 6e          	and    %ch,%gs:0x6e(%ecx)
c0002ed7:	20 74 68 69          	and    %dh,0x69(%eax,%ebp,2)
c0002edb:	73 20                	jae    c0002efd <vsnprintf+0xb76>
c0002edd:	6e                   	outsb  %ds:(%esi),(%dx)
c0002ede:	61                   	popa   
c0002edf:	74 69                	je     c0002f4a <vsnprintf+0xbc3>
c0002ee1:	6f                   	outsl  %ds:(%esi),(%dx)
c0002ee2:	6e                   	outsb  %ds:(%esi),(%dx)
c0002ee3:	2e 00 00             	add    %al,%cs:(%eax)
c0002ee6:	00 00                	add    %al,(%eax)
c0002ee8:	f7 05 00 c0 08 06 00 	testl  $0x619c000,0x608c000
c0002eef:	c0 19 06 
c0002ef2:	00 c0                	add    %al,%al
c0002ef4:	2a 06                	sub    (%esi),%al
c0002ef6:	00 c0                	add    %al,%al
c0002ef8:	68 06 00 c0 79       	push   $0x79c00006
c0002efd:	06                   	push   %es
c0002efe:	00 c0                	add    %al,%al
c0002f00:	8a 06                	mov    (%esi),%al
c0002f02:	00 c0                	add    %al,%al
c0002f04:	9b                   	fwait
c0002f05:	06                   	push   %es
c0002f06:	00 c0                	add    %al,%al
c0002f08:	ac                   	lods   %ds:(%esi),%al
c0002f09:	06                   	push   %es
c0002f0a:	00 c0                	add    %al,%al
c0002f0c:	bd 06 00 c0 ce       	mov    $0xcec00006,%ebp
c0002f11:	06                   	push   %es
c0002f12:	00 c0                	add    %al,%al
c0002f14:	df 06                	fild   (%esi)
c0002f16:	00 c0                	add    %al,%al
c0002f18:	f0 06                	lock push %es
c0002f1a:	00 c0                	add    %al,%al
c0002f1c:	01 07                	add    %eax,(%edi)
c0002f1e:	00 c0                	add    %al,%al
c0002f20:	45                   	inc    %ebp
c0002f21:	07                   	pop    %es
c0002f22:	00 c0                	add    %al,%al
c0002f24:	7f 07                	jg     c0002f2d <vsnprintf+0xba6>
c0002f26:	00 c0                	add    %al,%al
c0002f28:	0a 53 70             	or     0x70(%ebx),%dl
c0002f2b:	75 72                	jne    c0002f9f <vsnprintf+0xc18>
c0002f2d:	69 6f 75 73 20 69 6e 	imul   $0x6e692073,0x75(%edi),%ebp
c0002f34:	74 65                	je     c0002f9b <vsnprintf+0xc14>
c0002f36:	72 72                	jb     c0002faa <vsnprintf+0xc23>
c0002f38:	75 70                	jne    c0002faa <vsnprintf+0xc23>
c0002f3a:	74 3a                	je     c0002f76 <vsnprintf+0xbef>
c0002f3c:	20 2d 3e 25 78 0a    	and    %ch,0xa78253e
c0002f42:	00 00                	add    %al,(%eax)
c0002f44:	0a 4b 65             	or     0x65(%ebx),%cl
c0002f47:	79 62                	jns    c0002fab <vsnprintf+0xc24>
c0002f49:	6f                   	outsl  %ds:(%esi),(%dx)
c0002f4a:	61                   	popa   
c0002f4b:	72 64                	jb     c0002fb1 <vsnprintf+0xc2a>
c0002f4d:	20 69 6e             	and    %ch,0x6e(%ecx)
c0002f50:	74 65                	je     c0002fb7 <vsnprintf+0xc30>
c0002f52:	72 72                	jb     c0002fc6 <vsnprintf+0xc3f>
c0002f54:	75 70                	jne    c0002fc6 <vsnprintf+0xc3f>
c0002f56:	74 20                	je     c0002f78 <vsnprintf+0xbf1>
c0002f58:	25 78 20 63 61       	and    $0x61632078,%eax
c0002f5d:	75 67                	jne    c0002fc6 <vsnprintf+0xc3f>
c0002f5f:	68 74 2c 20 73       	push   $0x73202c74
c0002f64:	63 61 6e             	arpl   %sp,0x6e(%ecx)
c0002f67:	20 63 6f             	and    %ah,0x6f(%ebx)
c0002f6a:	64 65 20 25 78 3a 20 	fs and %ah,%fs:%gs:0xa203a78
c0002f71:	0a 
c0002f72:	00 90 55 6e 2d 68    	add    %dl,0x682d6e55(%eax)
c0002f78:	61                   	popa   
c0002f79:	6e                   	outsb  %ds:(%esi),(%dx)
c0002f7a:	64                   	fs
c0002f7b:	6c                   	insb   (%dx),%es:(%edi)
c0002f7c:	65 64 20 69 6e       	gs and %ch,%fs:%gs:0x6e(%ecx)
c0002f81:	74 65                	je     c0002fe8 <vsnprintf+0xc61>
c0002f83:	72 72                	jb     c0002ff7 <vsnprintf+0xc70>
c0002f85:	75 70                	jne    c0002ff7 <vsnprintf+0xc70>
c0002f87:	74 3a                	je     c0002fc3 <vsnprintf+0xc3c>
c0002f89:	20 2d 3e 25 78 0a    	and    %ch,0xa78253e
c0002f8f:	00 6b 65             	add    %ch,0x65(%ebx)
c0002f92:	72 6e                	jb     c0003002 <vsnprintf+0xc7b>
c0002f94:	65                   	gs
c0002f95:	6c                   	insb   (%dx),%es:(%edi)
c0002f96:	2f                   	das    
c0002f97:	69 6e 74 65 72 72 75 	imul   $0x75727265,0x74(%esi),%ebp
c0002f9e:	70 74                	jo     c0003014 <vsnprintf+0xc8d>
c0002fa0:	5f                   	pop    %edi
c0002fa1:	68 61 6e 64 6c       	push   $0x6c646e61
c0002fa6:	65                   	gs
c0002fa7:	72 2e                	jb     c0002fd7 <vsnprintf+0xc50>
c0002fa9:	63 00                	arpl   %ax,(%eax)
c0002fab:	55                   	push   %ebp
c0002fac:	6e                   	outsb  %ds:(%esi),(%dx)
c0002fad:	2d 68 61 6e 64       	sub    $0x646e6168,%eax
c0002fb2:	6c                   	insb   (%dx),%es:(%edi)
c0002fb3:	65 64 20 69 6e       	gs and %ch,%fs:%gs:0x6e(%ecx)
c0002fb8:	74 65                	je     c000301f <vsnprintf+0xc98>
c0002fba:	72 72                	jb     c000302e <vsnprintf+0xca7>
c0002fbc:	75 70                	jne    c000302e <vsnprintf+0xca7>
c0002fbe:	74 00                	je     c0002fc0 <vsnprintf+0xc39>
c0002fc0:	0a 4b 45             	or     0x45(%ebx),%cl
c0002fc3:	52                   	push   %edx
c0002fc4:	4e                   	dec    %esi
c0002fc5:	45                   	inc    %ebp
c0002fc6:	4c                   	dec    %esp
c0002fc7:	20 50 41             	and    %dl,0x41(%eax)
c0002fca:	4e                   	dec    %esi
c0002fcb:	49                   	dec    %ecx
c0002fcc:	43                   	inc    %ebx
c0002fcd:	20 28                	and    %ch,(%eax)
c0002fcf:	25 73 29 20 0a       	and    $0xa202973,%eax
c0002fd4:	09 69 6e             	or     %ebp,0x6e(%ecx)
c0002fd7:	20 25 73 20 61 74    	and    %ah,0x74612073
c0002fdd:	20 6c 69 6e          	and    %ch,0x6e(%ecx,%ebp,2)
c0002fe1:	65 20 25 64 00 00 00 	and    %ah,%gs:0x64
c0002fe8:	4d                   	dec    %ebp
c0002fe9:	75 6c                	jne    c0003057 <vsnprintf+0xcd0>
c0002feb:	74 69                	je     c0003056 <vsnprintf+0xccf>
c0002fed:	70 6c                	jo     c000305b <vsnprintf+0xcd4>
c0002fef:	65 20 49 52          	and    %cl,%gs:0x52(%ecx)
c0002ff3:	51                   	push   %ecx
c0002ff4:	27                   	daa    
c0002ff5:	73 20                	jae    c0003017 <vsnprintf+0xc90>
c0002ff7:	6f                   	outsl  %ds:(%esi),(%dx)
c0002ff8:	6e                   	outsb  %ds:(%esi),(%dx)
c0002ff9:	20 74 68 65          	and    %dh,0x65(%eax,%ebp,2)
c0002ffd:	20 73 61             	and    %dh,0x61(%ebx)
c0003000:	6d                   	insl   (%dx),%es:(%edi)
c0003001:	65 20 6c 69 6e       	and    %ch,%gs:0x6e(%ecx,%ebp,2)
c0003006:	65 20 6e 6f          	and    %ch,%gs:0x6f(%esi)
c000300a:	74 20                	je     c000302c <vsnprintf+0xca5>
c000300c:	79 65                	jns    c0003073 <vsnprintf+0xcec>
c000300e:	74 20                	je     c0003030 <vsnprintf+0xca9>
c0003010:	69 6d 70 6c 65 6d 65 	imul   $0x656d656c,0x70(%ebp),%ebp
c0003017:	6e                   	outsb  %ds:(%esi),(%dx)
c0003018:	74 65                	je     c000307f <vsnprintf+0xcf8>
c000301a:	64 2e 00 66 90       	fs add %ah,%cs:%fs:-0x70(%esi)
c000301f:	90                   	nop
c0003020:	57                   	push   %edi
c0003021:	65                   	gs
c0003022:	6c                   	insb   (%dx),%es:(%edi)
c0003023:	63 6f 6d             	arpl   %bp,0x6d(%edi)
c0003026:	65 20 54 6f 20       	and    %dl,%gs:0x20(%edi,%ebp,2)
c000302b:	00 42 6c             	add    %al,0x6c(%edx)
c000302e:	75 65                	jne    c0003095 <vsnprintf+0xd0e>
c0003030:	20 46 69             	and    %al,0x69(%esi)
c0003033:	72 65                	jb     c000309a <vsnprintf+0xd13>
c0003035:	20 4f 53             	and    %cl,0x53(%edi)
c0003038:	20 00                	and    %al,(%eax)
c000303a:	30 30                	xor    %dh,(%eax)
c000303c:	2e 30 30             	xor    %dh,%cs:(%eax)
c000303f:	2e 30 36             	xor    %dh,%cs:(%esi)
c0003042:	00 42 4c             	add    %al,0x4c(%edx)
c0003045:	55                   	push   %ebp
c0003046:	45                   	inc    %ebp
c0003047:	20 46 49             	and    %al,0x49(%esi)
c000304a:	52                   	push   %edx
c000304b:	45                   	inc    %ebp
c000304c:	20 28                	and    %ch,(%eax)
c000304e:	49                   	dec    %ecx
c000304f:	41                   	inc    %ecx
c0003050:	2d 33 32 29 00       	sub    $0x293233,%eax
c0003055:	28 25 73 29 20 76    	sub    %ah,0x76202973
c000305b:	65                   	gs
c000305c:	72 73                	jb     c00030d1 <vsnprintf+0xd4a>
c000305e:	69 6f 6e 20 25 73 2e 	imul   $0x2e732520,0x6e(%edi),%ebp
c0003065:	0a 00                	or     (%eax),%al
c0003067:	00 4b 65             	add    %cl,0x65(%ebx)
c000306a:	72 6e                	jb     c00030da <vsnprintf+0xd53>
c000306c:	65                   	gs
c000306d:	6c                   	insb   (%dx),%es:(%edi)
c000306e:	20 69 73             	and    %ch,0x73(%ecx)
c0003071:	20 72 75             	and    %dh,0x75(%edx)
c0003074:	6e                   	outsb  %ds:(%esi),(%dx)
c0003075:	6e                   	outsb  %ds:(%esi),(%dx)
c0003076:	69 6e 67 20 61 74 20 	imul   $0x20746120,0x67(%esi),%ebp
c000307d:	76 69                	jbe    c00030e8 <vsnprintf+0xd61>
c000307f:	72 74                	jb     c00030f5 <vsnprintf+0xd6e>
c0003081:	75 61                	jne    c00030e4 <vsnprintf+0xd5d>
c0003083:	6c                   	insb   (%dx),%es:(%edi)
c0003084:	20 61 64             	and    %ah,0x64(%ecx)
c0003087:	64                   	fs
c0003088:	72 65                	jb     c00030ef <vsnprintf+0xd68>
c000308a:	73 73                	jae    c00030ff <vsnprintf+0xd78>
c000308c:	3a 20                	cmp    (%eax),%ah
c000308e:	25 23 30 31 30       	and    $0x30313023,%eax
c0003093:	78 0a                	js     c000309f <vsnprintf+0xd18>
c0003095:	00 00                	add    %al,(%eax)
c0003097:	00 54 6f 74          	add    %dl,0x74(%edi,%ebp,2)
c000309b:	61                   	popa   
c000309c:	6c                   	insb   (%dx),%es:(%edi)
c000309d:	20 53 79             	and    %dl,0x79(%ebx)
c00030a0:	73 74                	jae    c0003116 <vsnprintf+0xd8f>
c00030a2:	65                   	gs
c00030a3:	6d                   	insl   (%dx),%es:(%edi)
c00030a4:	20 6d 65             	and    %ch,0x65(%ebp)
c00030a7:	6d                   	insl   (%dx),%es:(%edi)
c00030a8:	6f                   	outsl  %ds:(%esi),(%dx)
c00030a9:	72 79                	jb     c0003124 <vsnprintf+0xd9d>
c00030ab:	20 69 73             	and    %ch,0x73(%ecx)
c00030ae:	3a 20                	cmp    (%eax),%ah
c00030b0:	25 64 20 4d 42       	and    $0x424d2064,%eax
c00030b5:	0a 0a                	or     (%edx),%cl
c00030b7:	00 50 61             	add    %dl,0x61(%eax)
c00030ba:	67 69 6e 67 20 61 6e 	imul   $0x646e6120,0x67(%bp),%ebp
c00030c1:	64 
c00030c2:	20 56 69             	and    %dl,0x69(%esi)
c00030c5:	64 65 6f             	fs outsl %fs:%gs:(%esi),(%dx)
c00030c8:	20 69 6e             	and    %ch,0x6e(%ecx)
c00030cb:	69 74 69 61 6c 69 7a 	imul   $0x657a696c,0x61(%ecx,%ebp,2),%esi
c00030d2:	65 
c00030d3:	64 20 73 75          	and    %dh,%fs:0x75(%ebx)
c00030d7:	63 63 65             	arpl   %sp,0x65(%ebx)
c00030da:	73 73                	jae    c000314f <vsnprintf+0xdc8>
c00030dc:	66                   	data16
c00030dd:	75 6c                	jne    c000314b <vsnprintf+0xdc4>
c00030df:	6c                   	insb   (%dx),%es:(%edi)
c00030e0:	79 2e                	jns    c0003110 <vsnprintf+0xd89>
c00030e2:	2e 2e 00 52 65       	cs add %dl,%cs:0x65(%edx)
c00030e7:	70 72                	jo     c000315b <vsnprintf+0xdd4>
c00030e9:	6f                   	outsl  %ds:(%esi),(%dx)
c00030ea:	67 72 61             	addr16 jb c000314e <vsnprintf+0xdc7>
c00030ed:	6d                   	insl   (%dx),%es:(%edi)
c00030ee:	6d                   	insl   (%dx),%es:(%edi)
c00030ef:	69 6e 67 20 50 49 43 	imul   $0x43495020,0x67(%esi),%ebp
c00030f6:	20 38                	and    %bh,(%eax)
c00030f8:	32 35 39 2e 2e 2e    	xor    0x2e2e2e39,%dh
c00030fe:	00 49 6e             	add    %cl,0x6e(%ecx)
c0003101:	73 74                	jae    c0003177 <vsnprintf+0xdf0>
c0003103:	61                   	popa   
c0003104:	6c                   	insb   (%dx),%es:(%edi)
c0003105:	6c                   	insb   (%dx),%es:(%edi)
c0003106:	69 6e 67 20 6b 65 72 	imul   $0x72656b20,0x67(%esi),%ebp
c000310d:	6e                   	outsb  %ds:(%esi),(%dx)
c000310e:	65                   	gs
c000310f:	6c                   	insb   (%dx),%es:(%edi)
c0003110:	20 47 44             	and    %al,0x44(%edi)
c0003113:	54                   	push   %esp
c0003114:	2e 2e 2e 00 49 6e    	cs cs add %cl,%cs:0x6e(%ecx)
c000311a:	73 74                	jae    c0003190 <vsnprintf+0xe09>
c000311c:	61                   	popa   
c000311d:	6c                   	insb   (%dx),%es:(%edi)
c000311e:	6c                   	insb   (%dx),%es:(%edi)
c000311f:	69 6e 67 20 6b 65 72 	imul   $0x72656b20,0x67(%esi),%ebp
c0003126:	6e                   	outsb  %ds:(%esi),(%dx)
c0003127:	65                   	gs
c0003128:	6c                   	insb   (%dx),%es:(%edi)
c0003129:	20 49 44             	and    %cl,0x44(%ecx)
c000312c:	54                   	push   %esp
c000312d:	2e 2e 2e 00 49 6e    	cs cs add %cl,%cs:0x6e(%ecx)
c0003133:	69 74 69 61 6c 69 7a 	imul   $0x697a696c,0x61(%ecx,%ebp,2),%esi
c000313a:	69 
c000313b:	6e                   	outsb  %ds:(%esi),(%dx)
c000313c:	67 20 73 79          	and    %dh,0x79(%bp,%di)
c0003140:	73 74                	jae    c00031b6 <vsnprintf+0xe2f>
c0003142:	65                   	gs
c0003143:	6d                   	insl   (%dx),%es:(%edi)
c0003144:	20 63 6c             	and    %ah,0x6c(%ebx)
c0003147:	6f                   	outsl  %ds:(%esi),(%dx)
c0003148:	63 6b 2e             	arpl   %bp,0x2e(%ebx)
c000314b:	2e 2e 00 00          	cs add %al,%cs:(%eax)
c000314f:	00 0a                	add    %cl,(%edx)
c0003151:	54                   	push   %esp
c0003152:	72 79                	jb     c00031cd <vsnprintf+0xe46>
c0003154:	20 74 79 70          	and    %dh,0x70(%ecx,%edi,2)
c0003158:	69 6e 67 20 6f 6e 20 	imul   $0x206e6f20,0x67(%esi),%ebp
c000315f:	74 68                	je     c00031c9 <vsnprintf+0xe42>
c0003161:	65 20 6b 65          	and    %ch,%gs:0x65(%ebx)
c0003165:	79 62                	jns    c00031c9 <vsnprintf+0xe42>
c0003167:	6f                   	outsl  %ds:(%esi),(%dx)
c0003168:	61                   	popa   
c0003169:	72 64                	jb     c00031cf <vsnprintf+0xe48>
c000316b:	2e 20 49 74          	and    %cl,%cs:0x74(%ecx)
c000316f:	20 73 68             	and    %dh,0x68(%ebx)
c0003172:	6f                   	outsl  %ds:(%esi),(%dx)
c0003173:	75 6c                	jne    c00031e1 <vsnprintf+0xe5a>
c0003175:	64 20 67 65          	and    %ah,%fs:0x65(%edi)
c0003179:	6e                   	outsb  %ds:(%esi),(%dx)
c000317a:	65                   	gs
c000317b:	72 61                	jb     c00031de <vsnprintf+0xe57>
c000317d:	74 65                	je     c00031e4 <vsnprintf+0xe5d>
c000317f:	20 61 20             	and    %ah,0x20(%ecx)
c0003182:	69 6e 74 65 72 72 75 	imul   $0x75727265,0x74(%esi),%ebp
c0003189:	70 74                	jo     c00031ff <vsnprintf+0xe78>
c000318b:	0a 00                	or     (%eax),%al
c000318d:	00 00                	add    %al,(%eax)
c000318f:	00 54 68 61          	add    %dl,0x61(%eax,%ebp,2)
c0003193:	74 20                	je     c00031b5 <vsnprintf+0xe2e>
c0003195:	73 68                	jae    c00031ff <vsnprintf+0xe78>
c0003197:	6f                   	outsl  %ds:(%esi),(%dx)
c0003198:	77 73                	ja     c000320d <vsnprintf+0xe86>
c000319a:	20 77 68             	and    %dh,0x68(%edi)
c000319d:	61                   	popa   
c000319e:	74 20                	je     c00031c0 <vsnprintf+0xe39>
c00031a0:	6b 65 79 20          	imul   $0x20,0x79(%ebp),%esp
c00031a4:	77 61                	ja     c0003207 <vsnprintf+0xe80>
c00031a6:	73 20                	jae    c00031c8 <vsnprintf+0xe41>
c00031a8:	70 72                	jo     c000321c <vsnprintf+0xe95>
c00031aa:	65                   	gs
c00031ab:	73 73                	jae    c0003220 <vsnprintf+0xe99>
c00031ad:	65 64 20 61 6e       	gs and %ah,%fs:%gs:0x6e(%ecx)
c00031b2:	64 20 72 65          	and    %dh,%fs:0x65(%edx)
c00031b6:	6c                   	insb   (%dx),%es:(%edi)
c00031b7:	65                   	gs
c00031b8:	61                   	popa   
c00031b9:	73 65                	jae    c0003220 <vsnprintf+0xe99>
c00031bb:	64 2e 00 0d 09 09 09 	fs add %cl,%cs:%fs:0x9090909
c00031c2:	09 
c00031c3:	09 09                	or     %ecx,(%ecx)
c00031c5:	5b                   	pop    %ebx
c00031c6:	20 00                	and    %al,(%eax)
c00031c8:	4f                   	dec    %edi
c00031c9:	4b                   	dec    %ebx
c00031ca:	00 20                	add    %ah,(%eax)
c00031cc:	5d                   	pop    %ebp
c00031cd:	0a 00                	or     (%eax),%al
c00031cf:	46                   	inc    %esi
c00031d0:	61                   	popa   
c00031d1:	69 6c 65 64 00 66 90 	imul   $0x6b906600,0x64(%ebp,%eiz,2),%ebp
c00031d8:	6b 
c00031d9:	65                   	gs
c00031da:	72 6e                	jb     c000324a <vsnprintf+0xec3>
c00031dc:	65                   	gs
c00031dd:	6c                   	insb   (%dx),%es:(%edi)
c00031de:	2f                   	das    
c00031df:	6d                   	insl   (%dx),%es:(%edi)
c00031e0:	65                   	gs
c00031e1:	6d                   	insl   (%dx),%es:(%edi)
c00031e2:	2e 63 00             	arpl   %ax,%cs:(%eax)
c00031e5:	4f                   	dec    %edi
c00031e6:	75 74                	jne    c000325c <vsnprintf+0xed5>
c00031e8:	20 6f 66             	and    %ch,0x66(%edi)
c00031eb:	20 47 44             	and    %al,0x44(%edi)
c00031ee:	54                   	push   %esp
c00031ef:	20 65 6e             	and    %ah,0x6e(%ebp)
c00031f2:	74 72                	je     c0003266 <vsnprintf+0xedf>
c00031f4:	69 65 73 21 21 21 00 	imul   $0x212121,0x73(%ebp),%esp
c00031fb:	00 0a                	add    %cl,(%edx)
c00031fd:	4b                   	dec    %ebx
c00031fe:	45                   	inc    %ebp
c00031ff:	52                   	push   %edx
c0003200:	4e                   	dec    %esi
c0003201:	45                   	inc    %ebp
c0003202:	4c                   	dec    %esp
c0003203:	20 50 41             	and    %dl,0x41(%eax)
c0003206:	4e                   	dec    %esi
c0003207:	49                   	dec    %ecx
c0003208:	43                   	inc    %ebx
c0003209:	20 28                	and    %ch,(%eax)
c000320b:	25 73 29 20 0a       	and    $0xa202973,%eax
c0003210:	09 69 6e             	or     %ebp,0x6e(%ecx)
c0003213:	20 25 73 20 61 74    	and    %ah,0x74612073
c0003219:	20 6c 69 6e          	and    %ch,0x6e(%ecx,%ebp,2)
c000321d:	65 20 25 64 00 66 90 	and    %ah,%gs:0x90660064
c0003224:	0a 44 69 72          	or     0x72(%ecx,%ebp,2),%al
c0003228:	74 79                	je     c00032a3 <vsnprintf+0xf1c>
c000322a:	20 70 61             	and    %dh,0x61(%eax)
c000322d:	67                   	addr16
c000322e:	65                   	gs
c000322f:	73 3a                	jae    c000326b <vsnprintf+0xee4>
c0003231:	0a 00                	or     (%eax),%al
c0003233:	00 0a                	add    %cl,(%edx)
c0003235:	76 69                	jbe    c00032a0 <vsnprintf+0xf19>
c0003237:	72 5f                	jb     c0003298 <vsnprintf+0xf11>
c0003239:	61                   	popa   
c000323a:	64                   	fs
c000323b:	64                   	fs
c000323c:	72 20                	jb     c000325e <vsnprintf+0xed7>
c000323e:	3d 20 25 58 09       	cmp    $0x9582520,%eax
c0003243:	70 61                	jo     c00032a6 <vsnprintf+0xf1f>
c0003245:	67                   	addr16
c0003246:	65                   	gs
c0003247:	5f                   	pop    %edi
c0003248:	65 6e                	outsb  %gs:(%esi),(%dx)
c000324a:	74 72                	je     c00032be <vsnprintf+0xf37>
c000324c:	79 20                	jns    c000326e <vsnprintf+0xee7>
c000324e:	3d 20 25 58 00       	cmp    $0x582520,%eax
c0003253:	0a 00                	or     (%eax),%al
c0003255:	00 00                	add    %al,(%eax)
c0003257:	00 0a                	add    %cl,(%edx)
c0003259:	46                   	inc    %esi
c000325a:	72 65                	jb     c00032c1 <vsnprintf+0xf3a>
c000325c:	65 20 66 72          	and    %ah,%gs:0x72(%esi)
c0003260:	61                   	popa   
c0003261:	6d                   	insl   (%dx),%es:(%edi)
c0003262:	65                   	gs
c0003263:	73 20                	jae    c0003285 <vsnprintf+0xefe>
c0003265:	6c                   	insb   (%dx),%es:(%edi)
c0003266:	69 73 74 3a 20 28 4b 	imul   $0x4b28203a,0x74(%ebx),%esi
c000326d:	45                   	inc    %ebp
c000326e:	52                   	push   %edx
c000326f:	4e                   	dec    %esi
c0003270:	45                   	inc    %ebp
c0003271:	4c                   	dec    %esp
c0003272:	5f                   	pop    %edi
c0003273:	54                   	push   %esp
c0003274:	4f                   	dec    %edi
c0003275:	50                   	push   %eax
c0003276:	3d 25 58 29 0a       	cmp    $0xa295825,%eax
c000327b:	00 0a                	add    %cl,(%edx)
c000327d:	66                   	data16
c000327e:	72 61                	jb     c00032e1 <vsnprintf+0xf5a>
c0003280:	6d                   	insl   (%dx),%es:(%edi)
c0003281:	65 20 23             	and    %ah,%gs:(%ebx)
c0003284:	25 58 20 26 66       	and    $0x66262058,%eax
c0003289:	72 61                	jb     c00032ec <vsnprintf+0xf65>
c000328b:	6d                   	insl   (%dx),%es:(%edi)
c000328c:	65                   	gs
c000328d:	3d 25 58 00 66       	cmp    $0x66005825,%eax
c0003292:	90                   	nop
c0003293:	90                   	nop
c0003294:	ee                   	out    %al,(%dx)
c0003295:	1e                   	push   %ds
c0003296:	00 c0                	add    %al,%al
c0003298:	a8 1d                	test   $0x1d,%al
c000329a:	00 c0                	add    %al,%al
c000329c:	28 1e                	sub    %bl,(%esi)
c000329e:	00 c0                	add    %al,%al
c00032a0:	80 1d 00 c0 3f 1e 00 	sbbb   $0x0,0x1e3fc000
c00032a7:	c0 3f 1e             	sarb   $0x1e,(%edi)
c00032aa:	00 c0                	add    %al,%al
c00032ac:	9c                   	pushf  
c00032ad:	1d 00 c0 3c 4e       	sbb    $0x4e3cc000,%eax
c00032b2:	55                   	push   %ebp
c00032b3:	4c                   	dec    %esp
c00032b4:	4c                   	dec    %esp
c00032b5:	3e 00 00             	add    %al,%ds:(%eax)
c00032b8:	29 24 00             	sub    %esp,(%eax,%eax,1)
c00032bb:	c0 3b 24             	sarb   $0x24,(%ebx)
c00032be:	00 c0                	add    %al,%al
c00032c0:	3b 24 00             	cmp    (%eax,%eax,1),%esp
c00032c3:	c0 2f 24             	shrb   $0x24,(%edi)
c00032c6:	00 c0                	add    %al,%al
c00032c8:	3b 24 00             	cmp    (%eax,%eax,1),%esp
c00032cb:	c0 3b 24             	sarb   $0x24,(%ebx)
c00032ce:	00 c0                	add    %al,%al
c00032d0:	3b 24 00             	cmp    (%eax,%eax,1),%esp
c00032d3:	c0 3b 24             	sarb   $0x24,(%ebx)
c00032d6:	00 c0                	add    %al,%al
c00032d8:	3b 24 00             	cmp    (%eax,%eax,1),%esp
c00032db:	c0 3b 24             	sarb   $0x24,(%ebx)
c00032de:	00 c0                	add    %al,%al
c00032e0:	3b 24 00             	cmp    (%eax,%eax,1),%esp
c00032e3:	c0 23 24             	shlb   $0x24,(%ebx)
c00032e6:	00 c0                	add    %al,%al
c00032e8:	3b 24 00             	cmp    (%eax,%eax,1),%esp
c00032eb:	c0 1d 24 00 c0 3b 24 	rcrb   $0x24,0x3bc00024
c00032f2:	00 c0                	add    %al,%al
c00032f4:	3b 24 00             	cmp    (%eax,%eax,1),%esp
c00032f7:	c0                   	(bad)  
c00032f8:	35 24 00 c0 81       	xor    $0x81c00024,%eax
c00032fd:	27                   	daa    
c00032fe:	00 c0                	add    %al,%al
c0003300:	bd 27 00 c0 bd       	mov    $0xbdc00027,%ebp
c0003305:	27                   	daa    
c0003306:	00 c0                	add    %al,%al
c0003308:	bd 27 00 c0 bd       	mov    $0xbdc00027,%ebp
c000330d:	27                   	daa    
c000330e:	00 c0                	add    %al,%al
c0003310:	bd 27 00 c0 bd       	mov    $0xbdc00027,%ebp
c0003315:	27                   	daa    
c0003316:	00 c0                	add    %al,%al
c0003318:	bd 27 00 c0 bd       	mov    $0xbdc00027,%ebp
c000331d:	27                   	daa    
c000331e:	00 c0                	add    %al,%al
c0003320:	bd 27 00 c0 bd       	mov    $0xbdc00027,%ebp
c0003325:	27                   	daa    
c0003326:	00 c0                	add    %al,%al
c0003328:	bd 27 00 c0 bd       	mov    $0xbdc00027,%ebp
c000332d:	27                   	daa    
c000332e:	00 c0                	add    %al,%al
c0003330:	bd 27 00 c0 bd       	mov    $0xbdc00027,%ebp
c0003335:	27                   	daa    
c0003336:	00 c0                	add    %al,%al
c0003338:	bd 27 00 c0 bd       	mov    $0xbdc00027,%ebp
c000333d:	27                   	daa    
c000333e:	00 c0                	add    %al,%al
c0003340:	bd 27 00 c0 bd       	mov    $0xbdc00027,%ebp
c0003345:	27                   	daa    
c0003346:	00 c0                	add    %al,%al
c0003348:	bd 27 00 c0 bd       	mov    $0xbdc00027,%ebp
c000334d:	27                   	daa    
c000334e:	00 c0                	add    %al,%al
c0003350:	bd 27 00 c0 bd       	mov    $0xbdc00027,%ebp
c0003355:	27                   	daa    
c0003356:	00 c0                	add    %al,%al
c0003358:	bd 27 00 c0 bd       	mov    $0xbdc00027,%ebp
c000335d:	27                   	daa    
c000335e:	00 c0                	add    %al,%al
c0003360:	bd 27 00 c0 bd       	mov    $0xbdc00027,%ebp
c0003365:	27                   	daa    
c0003366:	00 c0                	add    %al,%al
c0003368:	bd 27 00 c0 bd       	mov    $0xbdc00027,%ebp
c000336d:	27                   	daa    
c000336e:	00 c0                	add    %al,%al
c0003370:	bd 27 00 c0 bd       	mov    $0xbdc00027,%ebp
c0003375:	27                   	daa    
c0003376:	00 c0                	add    %al,%al
c0003378:	bd 27 00 c0 bd       	mov    $0xbdc00027,%ebp
c000337d:	27                   	daa    
c000337e:	00 c0                	add    %al,%al
c0003380:	bd 27 00 c0 bd       	mov    $0xbdc00027,%ebp
c0003385:	27                   	daa    
c0003386:	00 c0                	add    %al,%al
c0003388:	bd 27 00 c0 bd       	mov    $0xbdc00027,%ebp
c000338d:	27                   	daa    
c000338e:	00 c0                	add    %al,%al
c0003390:	bd 27 00 c0 bd       	mov    $0xbdc00027,%ebp
c0003395:	27                   	daa    
c0003396:	00 c0                	add    %al,%al
c0003398:	bd 27 00 c0 bd       	mov    $0xbdc00027,%ebp
c000339d:	27                   	daa    
c000339e:	00 c0                	add    %al,%al
c00033a0:	bd 27 00 c0 bd       	mov    $0xbdc00027,%ebp
c00033a5:	27                   	daa    
c00033a6:	00 c0                	add    %al,%al
c00033a8:	bd 27 00 c0 bd       	mov    $0xbdc00027,%ebp
c00033ad:	27                   	daa    
c00033ae:	00 c0                	add    %al,%al
c00033b0:	bd 27 00 c0 bd       	mov    $0xbdc00027,%ebp
c00033b5:	27                   	daa    
c00033b6:	00 c0                	add    %al,%al
c00033b8:	bd 27 00 c0 bd       	mov    $0xbdc00027,%ebp
c00033bd:	27                   	daa    
c00033be:	00 c0                	add    %al,%al
c00033c0:	bd 27 00 c0 bd       	mov    $0xbdc00027,%ebp
c00033c5:	27                   	daa    
c00033c6:	00 c0                	add    %al,%al
c00033c8:	a1 27 00 c0 bd       	mov    0xbdc00027,%eax
c00033cd:	27                   	daa    
c00033ce:	00 c0                	add    %al,%al
c00033d0:	bd 27 00 c0 bd       	mov    $0xbdc00027,%ebp
c00033d5:	27                   	daa    
c00033d6:	00 c0                	add    %al,%al
c00033d8:	bd 27 00 c0 bd       	mov    $0xbdc00027,%ebp
c00033dd:	27                   	daa    
c00033de:	00 c0                	add    %al,%al
c00033e0:	bd 27 00 c0 bd       	mov    $0xbdc00027,%ebp
c00033e5:	27                   	daa    
c00033e6:	00 c0                	add    %al,%al
c00033e8:	bd 27 00 c0 bd       	mov    $0xbdc00027,%ebp
c00033ed:	27                   	daa    
c00033ee:	00 c0                	add    %al,%al
c00033f0:	bd 27 00 c0 93       	mov    $0x93c00027,%ebp
c00033f5:	25 00 c0 b7 27       	and    $0x27b7c000,%eax
c00033fa:	00 c0                	add    %al,%al
c00033fc:	bd 27 00 c0 bd       	mov    $0xbdc00027,%ebp
c0003401:	27                   	daa    
c0003402:	00 c0                	add    %al,%al
c0003404:	bd 27 00 c0 bd       	mov    $0xbdc00027,%ebp
c0003409:	27                   	daa    
c000340a:	00 c0                	add    %al,%al
c000340c:	b7 27                	mov    $0x27,%bh
c000340e:	00 c0                	add    %al,%al
c0003410:	bd 27 00 c0 bd       	mov    $0xbdc00027,%ebp
c0003415:	27                   	daa    
c0003416:	00 c0                	add    %al,%al
c0003418:	bd 27 00 c0 bd       	mov    $0xbdc00027,%ebp
c000341d:	27                   	daa    
c000341e:	00 c0                	add    %al,%al
c0003420:	15 27 00 c0 98       	adc    $0x98c00027,%eax
c0003425:	27                   	daa    
c0003426:	00 c0                	add    %al,%al
c0003428:	b4 26                	mov    $0x26,%ah
c000342a:	00 c0                	add    %al,%al
c000342c:	bd 27 00 c0 bd       	mov    $0xbdc00027,%ebp
c0003431:	27                   	daa    
c0003432:	00 c0                	add    %al,%al
c0003434:	02 26                	add    (%esi),%ah
c0003436:	00 c0                	add    %al,%al
c0003438:	bd 27 00 c0 03       	mov    $0x3c00027,%ebp
c000343d:	28 00                	sub    %al,(%eax)
c000343f:	c0 bd 27 00 c0 bd 27 	sarb   $0x27,-0x423fffd9(%ebp)
c0003446:	00 c0                	add    %al,%al
c0003448:	ae                   	scas   %es:(%edi),%al
c0003449:	27                   	daa    
c000344a:	00 c0                	add    %al,%al
c000344c:	66 90                	xchg   %ax,%ax
c000344e:	66 90                	xchg   %ax,%ax
c0003450:	66 90                	xchg   %ax,%ax
c0003452:	66 90                	xchg   %ax,%ax
c0003454:	66 90                	xchg   %ax,%ax
c0003456:	66 90                	xchg   %ax,%ax
c0003458:	66 90                	xchg   %ax,%ax
c000345a:	66 90                	xchg   %ax,%ax
c000345c:	66 90                	xchg   %ax,%ax
c000345e:	66 90                	xchg   %ax,%ax
c0003460:	66 90                	xchg   %ax,%ax
c0003462:	66 90                	xchg   %ax,%ax
c0003464:	66 90                	xchg   %ax,%ax
c0003466:	66 90                	xchg   %ax,%ax
c0003468:	66 90                	xchg   %ax,%ax
c000346a:	66 90                	xchg   %ax,%ax
c000346c:	66 90                	xchg   %ax,%ax
c000346e:	66 90                	xchg   %ax,%ax
c0003470:	66 90                	xchg   %ax,%ax
c0003472:	66 90                	xchg   %ax,%ax
c0003474:	66 90                	xchg   %ax,%ax
c0003476:	66 90                	xchg   %ax,%ax
c0003478:	66 90                	xchg   %ax,%ax
c000347a:	66 90                	xchg   %ax,%ax
c000347c:	66 90                	xchg   %ax,%ax
c000347e:	66 90                	xchg   %ax,%ax
c0003480:	66 90                	xchg   %ax,%ax
c0003482:	66 90                	xchg   %ax,%ax
c0003484:	66 90                	xchg   %ax,%ax
c0003486:	66 90                	xchg   %ax,%ax
c0003488:	66 90                	xchg   %ax,%ax
c000348a:	66 90                	xchg   %ax,%ax
c000348c:	66 90                	xchg   %ax,%ax
c000348e:	66 90                	xchg   %ax,%ax
c0003490:	66 90                	xchg   %ax,%ax
c0003492:	66 90                	xchg   %ax,%ax
c0003494:	66 90                	xchg   %ax,%ax
c0003496:	66 90                	xchg   %ax,%ax
c0003498:	66 90                	xchg   %ax,%ax
c000349a:	66 90                	xchg   %ax,%ax
c000349c:	66 90                	xchg   %ax,%ax
c000349e:	66 90                	xchg   %ax,%ax
c00034a0:	66 90                	xchg   %ax,%ax
c00034a2:	66 90                	xchg   %ax,%ax
c00034a4:	66 90                	xchg   %ax,%ax
c00034a6:	66 90                	xchg   %ax,%ax
c00034a8:	66 90                	xchg   %ax,%ax
c00034aa:	66 90                	xchg   %ax,%ax
c00034ac:	66 90                	xchg   %ax,%ax
c00034ae:	66 90                	xchg   %ax,%ax
c00034b0:	66 90                	xchg   %ax,%ax
c00034b2:	66 90                	xchg   %ax,%ax
c00034b4:	66 90                	xchg   %ax,%ax
c00034b6:	66 90                	xchg   %ax,%ax
c00034b8:	66 90                	xchg   %ax,%ax
c00034ba:	66 90                	xchg   %ax,%ax
c00034bc:	66 90                	xchg   %ax,%ax
c00034be:	66 90                	xchg   %ax,%ax
c00034c0:	66 90                	xchg   %ax,%ax
c00034c2:	66 90                	xchg   %ax,%ax
c00034c4:	66 90                	xchg   %ax,%ax
c00034c6:	66 90                	xchg   %ax,%ax
c00034c8:	66 90                	xchg   %ax,%ax
c00034ca:	66 90                	xchg   %ax,%ax
c00034cc:	66 90                	xchg   %ax,%ax
c00034ce:	66 90                	xchg   %ax,%ax
c00034d0:	66 90                	xchg   %ax,%ax
c00034d2:	66 90                	xchg   %ax,%ax
c00034d4:	66 90                	xchg   %ax,%ax
c00034d6:	66 90                	xchg   %ax,%ax
c00034d8:	66 90                	xchg   %ax,%ax
c00034da:	66 90                	xchg   %ax,%ax
c00034dc:	66 90                	xchg   %ax,%ax
c00034de:	66 90                	xchg   %ax,%ax
c00034e0:	66 90                	xchg   %ax,%ax
c00034e2:	66 90                	xchg   %ax,%ax
c00034e4:	66 90                	xchg   %ax,%ax
c00034e6:	66 90                	xchg   %ax,%ax
c00034e8:	66 90                	xchg   %ax,%ax
c00034ea:	66 90                	xchg   %ax,%ax
c00034ec:	66 90                	xchg   %ax,%ax
c00034ee:	66 90                	xchg   %ax,%ax
c00034f0:	66 90                	xchg   %ax,%ax
c00034f2:	66 90                	xchg   %ax,%ax
c00034f4:	66 90                	xchg   %ax,%ax
c00034f6:	66 90                	xchg   %ax,%ax
c00034f8:	66 90                	xchg   %ax,%ax
c00034fa:	66 90                	xchg   %ax,%ax
c00034fc:	66 90                	xchg   %ax,%ax
c00034fe:	66 90                	xchg   %ax,%ax
c0003500:	66 90                	xchg   %ax,%ax
c0003502:	66 90                	xchg   %ax,%ax
c0003504:	66 90                	xchg   %ax,%ax
c0003506:	66 90                	xchg   %ax,%ax
c0003508:	66 90                	xchg   %ax,%ax
c000350a:	66 90                	xchg   %ax,%ax
c000350c:	66 90                	xchg   %ax,%ax
c000350e:	66 90                	xchg   %ax,%ax
c0003510:	66 90                	xchg   %ax,%ax
c0003512:	66 90                	xchg   %ax,%ax
c0003514:	66 90                	xchg   %ax,%ax
c0003516:	66 90                	xchg   %ax,%ax
c0003518:	66 90                	xchg   %ax,%ax
c000351a:	66 90                	xchg   %ax,%ax
c000351c:	66 90                	xchg   %ax,%ax
c000351e:	66 90                	xchg   %ax,%ax
c0003520:	66 90                	xchg   %ax,%ax
c0003522:	66 90                	xchg   %ax,%ax
c0003524:	66 90                	xchg   %ax,%ax
c0003526:	66 90                	xchg   %ax,%ax
c0003528:	66 90                	xchg   %ax,%ax
c000352a:	66 90                	xchg   %ax,%ax
c000352c:	66 90                	xchg   %ax,%ax
c000352e:	66 90                	xchg   %ax,%ax
c0003530:	66 90                	xchg   %ax,%ax
c0003532:	66 90                	xchg   %ax,%ax
c0003534:	66 90                	xchg   %ax,%ax
c0003536:	66 90                	xchg   %ax,%ax
c0003538:	66 90                	xchg   %ax,%ax
c000353a:	66 90                	xchg   %ax,%ax
c000353c:	66 90                	xchg   %ax,%ax
c000353e:	66 90                	xchg   %ax,%ax
c0003540:	66 90                	xchg   %ax,%ax
c0003542:	66 90                	xchg   %ax,%ax
c0003544:	66 90                	xchg   %ax,%ax
c0003546:	66 90                	xchg   %ax,%ax
c0003548:	66 90                	xchg   %ax,%ax
c000354a:	66 90                	xchg   %ax,%ax
c000354c:	66 90                	xchg   %ax,%ax
c000354e:	66 90                	xchg   %ax,%ax
c0003550:	66 90                	xchg   %ax,%ax
c0003552:	66 90                	xchg   %ax,%ax
c0003554:	66 90                	xchg   %ax,%ax
c0003556:	66 90                	xchg   %ax,%ax
c0003558:	66 90                	xchg   %ax,%ax
c000355a:	66 90                	xchg   %ax,%ax
c000355c:	66 90                	xchg   %ax,%ax
c000355e:	66 90                	xchg   %ax,%ax
c0003560:	66 90                	xchg   %ax,%ax
c0003562:	66 90                	xchg   %ax,%ax
c0003564:	66 90                	xchg   %ax,%ax
c0003566:	66 90                	xchg   %ax,%ax
c0003568:	66 90                	xchg   %ax,%ax
c000356a:	66 90                	xchg   %ax,%ax
c000356c:	66 90                	xchg   %ax,%ax
c000356e:	66 90                	xchg   %ax,%ax
c0003570:	66 90                	xchg   %ax,%ax
c0003572:	66 90                	xchg   %ax,%ax
c0003574:	66 90                	xchg   %ax,%ax
c0003576:	66 90                	xchg   %ax,%ax
c0003578:	66 90                	xchg   %ax,%ax
c000357a:	66 90                	xchg   %ax,%ax
c000357c:	66 90                	xchg   %ax,%ax
c000357e:	66 90                	xchg   %ax,%ax
c0003580:	66 90                	xchg   %ax,%ax
c0003582:	66 90                	xchg   %ax,%ax
c0003584:	66 90                	xchg   %ax,%ax
c0003586:	66 90                	xchg   %ax,%ax
c0003588:	66 90                	xchg   %ax,%ax
c000358a:	66 90                	xchg   %ax,%ax
c000358c:	66 90                	xchg   %ax,%ax
c000358e:	66 90                	xchg   %ax,%ax
c0003590:	66 90                	xchg   %ax,%ax
c0003592:	66 90                	xchg   %ax,%ax
c0003594:	66 90                	xchg   %ax,%ax
c0003596:	66 90                	xchg   %ax,%ax
c0003598:	66 90                	xchg   %ax,%ax
c000359a:	66 90                	xchg   %ax,%ax
c000359c:	66 90                	xchg   %ax,%ax
c000359e:	66 90                	xchg   %ax,%ax
c00035a0:	66 90                	xchg   %ax,%ax
c00035a2:	66 90                	xchg   %ax,%ax
c00035a4:	66 90                	xchg   %ax,%ax
c00035a6:	66 90                	xchg   %ax,%ax
c00035a8:	66 90                	xchg   %ax,%ax
c00035aa:	66 90                	xchg   %ax,%ax
c00035ac:	66 90                	xchg   %ax,%ax
c00035ae:	66 90                	xchg   %ax,%ax
c00035b0:	66 90                	xchg   %ax,%ax
c00035b2:	66 90                	xchg   %ax,%ax
c00035b4:	66 90                	xchg   %ax,%ax
c00035b6:	66 90                	xchg   %ax,%ax
c00035b8:	66 90                	xchg   %ax,%ax
c00035ba:	66 90                	xchg   %ax,%ax
c00035bc:	66 90                	xchg   %ax,%ax
c00035be:	66 90                	xchg   %ax,%ax
c00035c0:	66 90                	xchg   %ax,%ax
c00035c2:	66 90                	xchg   %ax,%ax
c00035c4:	66 90                	xchg   %ax,%ax
c00035c6:	66 90                	xchg   %ax,%ax
c00035c8:	66 90                	xchg   %ax,%ax
c00035ca:	66 90                	xchg   %ax,%ax
c00035cc:	66 90                	xchg   %ax,%ax
c00035ce:	66 90                	xchg   %ax,%ax
c00035d0:	66 90                	xchg   %ax,%ax
c00035d2:	66 90                	xchg   %ax,%ax
c00035d4:	66 90                	xchg   %ax,%ax
c00035d6:	66 90                	xchg   %ax,%ax
c00035d8:	66 90                	xchg   %ax,%ax
c00035da:	66 90                	xchg   %ax,%ax
c00035dc:	66 90                	xchg   %ax,%ax
c00035de:	66 90                	xchg   %ax,%ax
c00035e0:	66 90                	xchg   %ax,%ax
c00035e2:	66 90                	xchg   %ax,%ax
c00035e4:	66 90                	xchg   %ax,%ax
c00035e6:	66 90                	xchg   %ax,%ax
c00035e8:	66 90                	xchg   %ax,%ax
c00035ea:	66 90                	xchg   %ax,%ax
c00035ec:	66 90                	xchg   %ax,%ax
c00035ee:	66 90                	xchg   %ax,%ax
c00035f0:	66 90                	xchg   %ax,%ax
c00035f2:	66 90                	xchg   %ax,%ax
c00035f4:	66 90                	xchg   %ax,%ax
c00035f6:	66 90                	xchg   %ax,%ax
c00035f8:	66 90                	xchg   %ax,%ax
c00035fa:	66 90                	xchg   %ax,%ax
c00035fc:	66 90                	xchg   %ax,%ax
c00035fe:	66 90                	xchg   %ax,%ax
c0003600:	66 90                	xchg   %ax,%ax
c0003602:	66 90                	xchg   %ax,%ax
c0003604:	66 90                	xchg   %ax,%ax
c0003606:	66 90                	xchg   %ax,%ax
c0003608:	66 90                	xchg   %ax,%ax
c000360a:	66 90                	xchg   %ax,%ax
c000360c:	66 90                	xchg   %ax,%ax
c000360e:	66 90                	xchg   %ax,%ax
c0003610:	66 90                	xchg   %ax,%ax
c0003612:	66 90                	xchg   %ax,%ax
c0003614:	66 90                	xchg   %ax,%ax
c0003616:	66 90                	xchg   %ax,%ax
c0003618:	66 90                	xchg   %ax,%ax
c000361a:	66 90                	xchg   %ax,%ax
c000361c:	66 90                	xchg   %ax,%ax
c000361e:	66 90                	xchg   %ax,%ax
c0003620:	66 90                	xchg   %ax,%ax
c0003622:	66 90                	xchg   %ax,%ax
c0003624:	66 90                	xchg   %ax,%ax
c0003626:	66 90                	xchg   %ax,%ax
c0003628:	66 90                	xchg   %ax,%ax
c000362a:	66 90                	xchg   %ax,%ax
c000362c:	66 90                	xchg   %ax,%ax
c000362e:	66 90                	xchg   %ax,%ax
c0003630:	66 90                	xchg   %ax,%ax
c0003632:	66 90                	xchg   %ax,%ax
c0003634:	66 90                	xchg   %ax,%ax
c0003636:	66 90                	xchg   %ax,%ax
c0003638:	66 90                	xchg   %ax,%ax
c000363a:	66 90                	xchg   %ax,%ax
c000363c:	66 90                	xchg   %ax,%ax
c000363e:	66 90                	xchg   %ax,%ax
c0003640:	66 90                	xchg   %ax,%ax
c0003642:	66 90                	xchg   %ax,%ax
c0003644:	66 90                	xchg   %ax,%ax
c0003646:	66 90                	xchg   %ax,%ax
c0003648:	66 90                	xchg   %ax,%ax
c000364a:	66 90                	xchg   %ax,%ax
c000364c:	66 90                	xchg   %ax,%ax
c000364e:	66 90                	xchg   %ax,%ax
c0003650:	66 90                	xchg   %ax,%ax
c0003652:	66 90                	xchg   %ax,%ax
c0003654:	66 90                	xchg   %ax,%ax
c0003656:	66 90                	xchg   %ax,%ax
c0003658:	66 90                	xchg   %ax,%ax
c000365a:	66 90                	xchg   %ax,%ax
c000365c:	66 90                	xchg   %ax,%ax
c000365e:	66 90                	xchg   %ax,%ax
c0003660:	66 90                	xchg   %ax,%ax
c0003662:	66 90                	xchg   %ax,%ax
c0003664:	66 90                	xchg   %ax,%ax
c0003666:	66 90                	xchg   %ax,%ax
c0003668:	66 90                	xchg   %ax,%ax
c000366a:	66 90                	xchg   %ax,%ax
c000366c:	66 90                	xchg   %ax,%ax
c000366e:	66 90                	xchg   %ax,%ax
c0003670:	66 90                	xchg   %ax,%ax
c0003672:	66 90                	xchg   %ax,%ax
c0003674:	66 90                	xchg   %ax,%ax
c0003676:	66 90                	xchg   %ax,%ax
c0003678:	66 90                	xchg   %ax,%ax
c000367a:	66 90                	xchg   %ax,%ax
c000367c:	66 90                	xchg   %ax,%ax
c000367e:	66 90                	xchg   %ax,%ax
c0003680:	66 90                	xchg   %ax,%ax
c0003682:	66 90                	xchg   %ax,%ax
c0003684:	66 90                	xchg   %ax,%ax
c0003686:	66 90                	xchg   %ax,%ax
c0003688:	66 90                	xchg   %ax,%ax
c000368a:	66 90                	xchg   %ax,%ax
c000368c:	66 90                	xchg   %ax,%ax
c000368e:	66 90                	xchg   %ax,%ax
c0003690:	66 90                	xchg   %ax,%ax
c0003692:	66 90                	xchg   %ax,%ax
c0003694:	66 90                	xchg   %ax,%ax
c0003696:	66 90                	xchg   %ax,%ax
c0003698:	66 90                	xchg   %ax,%ax
c000369a:	66 90                	xchg   %ax,%ax
c000369c:	66 90                	xchg   %ax,%ax
c000369e:	66 90                	xchg   %ax,%ax
c00036a0:	66 90                	xchg   %ax,%ax
c00036a2:	66 90                	xchg   %ax,%ax
c00036a4:	66 90                	xchg   %ax,%ax
c00036a6:	66 90                	xchg   %ax,%ax
c00036a8:	66 90                	xchg   %ax,%ax
c00036aa:	66 90                	xchg   %ax,%ax
c00036ac:	66 90                	xchg   %ax,%ax
c00036ae:	66 90                	xchg   %ax,%ax
c00036b0:	66 90                	xchg   %ax,%ax
c00036b2:	66 90                	xchg   %ax,%ax
c00036b4:	66 90                	xchg   %ax,%ax
c00036b6:	66 90                	xchg   %ax,%ax
c00036b8:	66 90                	xchg   %ax,%ax
c00036ba:	66 90                	xchg   %ax,%ax
c00036bc:	66 90                	xchg   %ax,%ax
c00036be:	66 90                	xchg   %ax,%ax
c00036c0:	66 90                	xchg   %ax,%ax
c00036c2:	66 90                	xchg   %ax,%ax
c00036c4:	66 90                	xchg   %ax,%ax
c00036c6:	66 90                	xchg   %ax,%ax
c00036c8:	66 90                	xchg   %ax,%ax
c00036ca:	66 90                	xchg   %ax,%ax
c00036cc:	66 90                	xchg   %ax,%ax
c00036ce:	66 90                	xchg   %ax,%ax
c00036d0:	66 90                	xchg   %ax,%ax
c00036d2:	66 90                	xchg   %ax,%ax
c00036d4:	66 90                	xchg   %ax,%ax
c00036d6:	66 90                	xchg   %ax,%ax
c00036d8:	66 90                	xchg   %ax,%ax
c00036da:	66 90                	xchg   %ax,%ax
c00036dc:	66 90                	xchg   %ax,%ax
c00036de:	66 90                	xchg   %ax,%ax
c00036e0:	66 90                	xchg   %ax,%ax
c00036e2:	66 90                	xchg   %ax,%ax
c00036e4:	66 90                	xchg   %ax,%ax
c00036e6:	66 90                	xchg   %ax,%ax
c00036e8:	66 90                	xchg   %ax,%ax
c00036ea:	66 90                	xchg   %ax,%ax
c00036ec:	66 90                	xchg   %ax,%ax
c00036ee:	66 90                	xchg   %ax,%ax
c00036f0:	66 90                	xchg   %ax,%ax
c00036f2:	66 90                	xchg   %ax,%ax
c00036f4:	66 90                	xchg   %ax,%ax
c00036f6:	66 90                	xchg   %ax,%ax
c00036f8:	66 90                	xchg   %ax,%ax
c00036fa:	66 90                	xchg   %ax,%ax
c00036fc:	66 90                	xchg   %ax,%ax
c00036fe:	66 90                	xchg   %ax,%ax
c0003700:	66 90                	xchg   %ax,%ax
c0003702:	66 90                	xchg   %ax,%ax
c0003704:	66 90                	xchg   %ax,%ax
c0003706:	66 90                	xchg   %ax,%ax
c0003708:	66 90                	xchg   %ax,%ax
c000370a:	66 90                	xchg   %ax,%ax
c000370c:	66 90                	xchg   %ax,%ax
c000370e:	66 90                	xchg   %ax,%ax
c0003710:	66 90                	xchg   %ax,%ax
c0003712:	66 90                	xchg   %ax,%ax
c0003714:	66 90                	xchg   %ax,%ax
c0003716:	66 90                	xchg   %ax,%ax
c0003718:	66 90                	xchg   %ax,%ax
c000371a:	66 90                	xchg   %ax,%ax
c000371c:	66 90                	xchg   %ax,%ax
c000371e:	66 90                	xchg   %ax,%ax
c0003720:	66 90                	xchg   %ax,%ax
c0003722:	66 90                	xchg   %ax,%ax
c0003724:	66 90                	xchg   %ax,%ax
c0003726:	66 90                	xchg   %ax,%ax
c0003728:	66 90                	xchg   %ax,%ax
c000372a:	66 90                	xchg   %ax,%ax
c000372c:	66 90                	xchg   %ax,%ax
c000372e:	66 90                	xchg   %ax,%ax
c0003730:	66 90                	xchg   %ax,%ax
c0003732:	66 90                	xchg   %ax,%ax
c0003734:	66 90                	xchg   %ax,%ax
c0003736:	66 90                	xchg   %ax,%ax
c0003738:	66 90                	xchg   %ax,%ax
c000373a:	66 90                	xchg   %ax,%ax
c000373c:	66 90                	xchg   %ax,%ax
c000373e:	66 90                	xchg   %ax,%ax
c0003740:	66 90                	xchg   %ax,%ax
c0003742:	66 90                	xchg   %ax,%ax
c0003744:	66 90                	xchg   %ax,%ax
c0003746:	66 90                	xchg   %ax,%ax
c0003748:	66 90                	xchg   %ax,%ax
c000374a:	66 90                	xchg   %ax,%ax
c000374c:	66 90                	xchg   %ax,%ax
c000374e:	66 90                	xchg   %ax,%ax
c0003750:	66 90                	xchg   %ax,%ax
c0003752:	66 90                	xchg   %ax,%ax
c0003754:	66 90                	xchg   %ax,%ax
c0003756:	66 90                	xchg   %ax,%ax
c0003758:	66 90                	xchg   %ax,%ax
c000375a:	66 90                	xchg   %ax,%ax
c000375c:	66 90                	xchg   %ax,%ax
c000375e:	66 90                	xchg   %ax,%ax
c0003760:	66 90                	xchg   %ax,%ax
c0003762:	66 90                	xchg   %ax,%ax
c0003764:	66 90                	xchg   %ax,%ax
c0003766:	66 90                	xchg   %ax,%ax
c0003768:	66 90                	xchg   %ax,%ax
c000376a:	66 90                	xchg   %ax,%ax
c000376c:	66 90                	xchg   %ax,%ax
c000376e:	66 90                	xchg   %ax,%ax
c0003770:	66 90                	xchg   %ax,%ax
c0003772:	66 90                	xchg   %ax,%ax
c0003774:	66 90                	xchg   %ax,%ax
c0003776:	66 90                	xchg   %ax,%ax
c0003778:	66 90                	xchg   %ax,%ax
c000377a:	66 90                	xchg   %ax,%ax
c000377c:	66 90                	xchg   %ax,%ax
c000377e:	66 90                	xchg   %ax,%ax
c0003780:	66 90                	xchg   %ax,%ax
c0003782:	66 90                	xchg   %ax,%ax
c0003784:	66 90                	xchg   %ax,%ax
c0003786:	66 90                	xchg   %ax,%ax
c0003788:	66 90                	xchg   %ax,%ax
c000378a:	66 90                	xchg   %ax,%ax
c000378c:	66 90                	xchg   %ax,%ax
c000378e:	66 90                	xchg   %ax,%ax
c0003790:	66 90                	xchg   %ax,%ax
c0003792:	66 90                	xchg   %ax,%ax
c0003794:	66 90                	xchg   %ax,%ax
c0003796:	66 90                	xchg   %ax,%ax
c0003798:	66 90                	xchg   %ax,%ax
c000379a:	66 90                	xchg   %ax,%ax
c000379c:	66 90                	xchg   %ax,%ax
c000379e:	66 90                	xchg   %ax,%ax
c00037a0:	66 90                	xchg   %ax,%ax
c00037a2:	66 90                	xchg   %ax,%ax
c00037a4:	66 90                	xchg   %ax,%ax
c00037a6:	66 90                	xchg   %ax,%ax
c00037a8:	66 90                	xchg   %ax,%ax
c00037aa:	66 90                	xchg   %ax,%ax
c00037ac:	66 90                	xchg   %ax,%ax
c00037ae:	66 90                	xchg   %ax,%ax
c00037b0:	66 90                	xchg   %ax,%ax
c00037b2:	66 90                	xchg   %ax,%ax
c00037b4:	66 90                	xchg   %ax,%ax
c00037b6:	66 90                	xchg   %ax,%ax
c00037b8:	66 90                	xchg   %ax,%ax
c00037ba:	66 90                	xchg   %ax,%ax
c00037bc:	66 90                	xchg   %ax,%ax
c00037be:	66 90                	xchg   %ax,%ax
c00037c0:	66 90                	xchg   %ax,%ax
c00037c2:	66 90                	xchg   %ax,%ax
c00037c4:	66 90                	xchg   %ax,%ax
c00037c6:	66 90                	xchg   %ax,%ax
c00037c8:	66 90                	xchg   %ax,%ax
c00037ca:	66 90                	xchg   %ax,%ax
c00037cc:	66 90                	xchg   %ax,%ax
c00037ce:	66 90                	xchg   %ax,%ax
c00037d0:	66 90                	xchg   %ax,%ax
c00037d2:	66 90                	xchg   %ax,%ax
c00037d4:	66 90                	xchg   %ax,%ax
c00037d6:	66 90                	xchg   %ax,%ax
c00037d8:	66 90                	xchg   %ax,%ax
c00037da:	66 90                	xchg   %ax,%ax
c00037dc:	66 90                	xchg   %ax,%ax
c00037de:	66 90                	xchg   %ax,%ax
c00037e0:	66 90                	xchg   %ax,%ax
c00037e2:	66 90                	xchg   %ax,%ax
c00037e4:	66 90                	xchg   %ax,%ax
c00037e6:	66 90                	xchg   %ax,%ax
c00037e8:	66 90                	xchg   %ax,%ax
c00037ea:	66 90                	xchg   %ax,%ax
c00037ec:	66 90                	xchg   %ax,%ax
c00037ee:	66 90                	xchg   %ax,%ax
c00037f0:	66 90                	xchg   %ax,%ax
c00037f2:	66 90                	xchg   %ax,%ax
c00037f4:	66 90                	xchg   %ax,%ax
c00037f6:	66 90                	xchg   %ax,%ax
c00037f8:	66 90                	xchg   %ax,%ax
c00037fa:	66 90                	xchg   %ax,%ax
c00037fc:	66 90                	xchg   %ax,%ax
c00037fe:	66 90                	xchg   %ax,%ax
c0003800:	66 90                	xchg   %ax,%ax
c0003802:	66 90                	xchg   %ax,%ax
c0003804:	66 90                	xchg   %ax,%ax
c0003806:	66 90                	xchg   %ax,%ax
c0003808:	66 90                	xchg   %ax,%ax
c000380a:	66 90                	xchg   %ax,%ax
c000380c:	66 90                	xchg   %ax,%ax
c000380e:	66 90                	xchg   %ax,%ax
c0003810:	66 90                	xchg   %ax,%ax
c0003812:	66 90                	xchg   %ax,%ax
c0003814:	66 90                	xchg   %ax,%ax
c0003816:	66 90                	xchg   %ax,%ax
c0003818:	66 90                	xchg   %ax,%ax
c000381a:	66 90                	xchg   %ax,%ax
c000381c:	66 90                	xchg   %ax,%ax
c000381e:	66 90                	xchg   %ax,%ax
c0003820:	66 90                	xchg   %ax,%ax
c0003822:	66 90                	xchg   %ax,%ax
c0003824:	66 90                	xchg   %ax,%ax
c0003826:	66 90                	xchg   %ax,%ax
c0003828:	66 90                	xchg   %ax,%ax
c000382a:	66 90                	xchg   %ax,%ax
c000382c:	66 90                	xchg   %ax,%ax
c000382e:	66 90                	xchg   %ax,%ax
c0003830:	66 90                	xchg   %ax,%ax
c0003832:	66 90                	xchg   %ax,%ax
c0003834:	66 90                	xchg   %ax,%ax
c0003836:	66 90                	xchg   %ax,%ax
c0003838:	66 90                	xchg   %ax,%ax
c000383a:	66 90                	xchg   %ax,%ax
c000383c:	66 90                	xchg   %ax,%ax
c000383e:	66 90                	xchg   %ax,%ax
c0003840:	66 90                	xchg   %ax,%ax
c0003842:	66 90                	xchg   %ax,%ax
c0003844:	66 90                	xchg   %ax,%ax
c0003846:	66 90                	xchg   %ax,%ax
c0003848:	66 90                	xchg   %ax,%ax
c000384a:	66 90                	xchg   %ax,%ax
c000384c:	66 90                	xchg   %ax,%ax
c000384e:	66 90                	xchg   %ax,%ax
c0003850:	66 90                	xchg   %ax,%ax
c0003852:	66 90                	xchg   %ax,%ax
c0003854:	66 90                	xchg   %ax,%ax
c0003856:	66 90                	xchg   %ax,%ax
c0003858:	66 90                	xchg   %ax,%ax
c000385a:	66 90                	xchg   %ax,%ax
c000385c:	66 90                	xchg   %ax,%ax
c000385e:	66 90                	xchg   %ax,%ax
c0003860:	66 90                	xchg   %ax,%ax
c0003862:	66 90                	xchg   %ax,%ax
c0003864:	66 90                	xchg   %ax,%ax
c0003866:	66 90                	xchg   %ax,%ax
c0003868:	66 90                	xchg   %ax,%ax
c000386a:	66 90                	xchg   %ax,%ax
c000386c:	66 90                	xchg   %ax,%ax
c000386e:	66 90                	xchg   %ax,%ax
c0003870:	66 90                	xchg   %ax,%ax
c0003872:	66 90                	xchg   %ax,%ax
c0003874:	66 90                	xchg   %ax,%ax
c0003876:	66 90                	xchg   %ax,%ax
c0003878:	66 90                	xchg   %ax,%ax
c000387a:	66 90                	xchg   %ax,%ax
c000387c:	66 90                	xchg   %ax,%ax
c000387e:	66 90                	xchg   %ax,%ax
c0003880:	66 90                	xchg   %ax,%ax
c0003882:	66 90                	xchg   %ax,%ax
c0003884:	66 90                	xchg   %ax,%ax
c0003886:	66 90                	xchg   %ax,%ax
c0003888:	66 90                	xchg   %ax,%ax
c000388a:	66 90                	xchg   %ax,%ax
c000388c:	66 90                	xchg   %ax,%ax
c000388e:	66 90                	xchg   %ax,%ax
c0003890:	66 90                	xchg   %ax,%ax
c0003892:	66 90                	xchg   %ax,%ax
c0003894:	66 90                	xchg   %ax,%ax
c0003896:	66 90                	xchg   %ax,%ax
c0003898:	66 90                	xchg   %ax,%ax
c000389a:	66 90                	xchg   %ax,%ax
c000389c:	66 90                	xchg   %ax,%ax
c000389e:	66 90                	xchg   %ax,%ax
c00038a0:	66 90                	xchg   %ax,%ax
c00038a2:	66 90                	xchg   %ax,%ax
c00038a4:	66 90                	xchg   %ax,%ax
c00038a6:	66 90                	xchg   %ax,%ax
c00038a8:	66 90                	xchg   %ax,%ax
c00038aa:	66 90                	xchg   %ax,%ax
c00038ac:	66 90                	xchg   %ax,%ax
c00038ae:	66 90                	xchg   %ax,%ax
c00038b0:	66 90                	xchg   %ax,%ax
c00038b2:	66 90                	xchg   %ax,%ax
c00038b4:	66 90                	xchg   %ax,%ax
c00038b6:	66 90                	xchg   %ax,%ax
c00038b8:	66 90                	xchg   %ax,%ax
c00038ba:	66 90                	xchg   %ax,%ax
c00038bc:	66 90                	xchg   %ax,%ax
c00038be:	66 90                	xchg   %ax,%ax
c00038c0:	66 90                	xchg   %ax,%ax
c00038c2:	66 90                	xchg   %ax,%ax
c00038c4:	66 90                	xchg   %ax,%ax
c00038c6:	66 90                	xchg   %ax,%ax
c00038c8:	66 90                	xchg   %ax,%ax
c00038ca:	66 90                	xchg   %ax,%ax
c00038cc:	66 90                	xchg   %ax,%ax
c00038ce:	66 90                	xchg   %ax,%ax
c00038d0:	66 90                	xchg   %ax,%ax
c00038d2:	66 90                	xchg   %ax,%ax
c00038d4:	66 90                	xchg   %ax,%ax
c00038d6:	66 90                	xchg   %ax,%ax
c00038d8:	66 90                	xchg   %ax,%ax
c00038da:	66 90                	xchg   %ax,%ax
c00038dc:	66 90                	xchg   %ax,%ax
c00038de:	66 90                	xchg   %ax,%ax
c00038e0:	66 90                	xchg   %ax,%ax
c00038e2:	66 90                	xchg   %ax,%ax
c00038e4:	66 90                	xchg   %ax,%ax
c00038e6:	66 90                	xchg   %ax,%ax
c00038e8:	66 90                	xchg   %ax,%ax
c00038ea:	66 90                	xchg   %ax,%ax
c00038ec:	66 90                	xchg   %ax,%ax
c00038ee:	66 90                	xchg   %ax,%ax
c00038f0:	66 90                	xchg   %ax,%ax
c00038f2:	66 90                	xchg   %ax,%ax
c00038f4:	66 90                	xchg   %ax,%ax
c00038f6:	66 90                	xchg   %ax,%ax
c00038f8:	66 90                	xchg   %ax,%ax
c00038fa:	66 90                	xchg   %ax,%ax
c00038fc:	66 90                	xchg   %ax,%ax
c00038fe:	66 90                	xchg   %ax,%ax
c0003900:	66 90                	xchg   %ax,%ax
c0003902:	66 90                	xchg   %ax,%ax
c0003904:	66 90                	xchg   %ax,%ax
c0003906:	66 90                	xchg   %ax,%ax
c0003908:	66 90                	xchg   %ax,%ax
c000390a:	66 90                	xchg   %ax,%ax
c000390c:	66 90                	xchg   %ax,%ax
c000390e:	66 90                	xchg   %ax,%ax
c0003910:	66 90                	xchg   %ax,%ax
c0003912:	66 90                	xchg   %ax,%ax
c0003914:	66 90                	xchg   %ax,%ax
c0003916:	66 90                	xchg   %ax,%ax
c0003918:	66 90                	xchg   %ax,%ax
c000391a:	66 90                	xchg   %ax,%ax
c000391c:	66 90                	xchg   %ax,%ax
c000391e:	66 90                	xchg   %ax,%ax
c0003920:	66 90                	xchg   %ax,%ax
c0003922:	66 90                	xchg   %ax,%ax
c0003924:	66 90                	xchg   %ax,%ax
c0003926:	66 90                	xchg   %ax,%ax
c0003928:	66 90                	xchg   %ax,%ax
c000392a:	66 90                	xchg   %ax,%ax
c000392c:	66 90                	xchg   %ax,%ax
c000392e:	66 90                	xchg   %ax,%ax
c0003930:	66 90                	xchg   %ax,%ax
c0003932:	66 90                	xchg   %ax,%ax
c0003934:	66 90                	xchg   %ax,%ax
c0003936:	66 90                	xchg   %ax,%ax
c0003938:	66 90                	xchg   %ax,%ax
c000393a:	66 90                	xchg   %ax,%ax
c000393c:	66 90                	xchg   %ax,%ax
c000393e:	66 90                	xchg   %ax,%ax
c0003940:	66 90                	xchg   %ax,%ax
c0003942:	66 90                	xchg   %ax,%ax
c0003944:	66 90                	xchg   %ax,%ax
c0003946:	66 90                	xchg   %ax,%ax
c0003948:	66 90                	xchg   %ax,%ax
c000394a:	66 90                	xchg   %ax,%ax
c000394c:	66 90                	xchg   %ax,%ax
c000394e:	66 90                	xchg   %ax,%ax
c0003950:	66 90                	xchg   %ax,%ax
c0003952:	66 90                	xchg   %ax,%ax
c0003954:	66 90                	xchg   %ax,%ax
c0003956:	66 90                	xchg   %ax,%ax
c0003958:	66 90                	xchg   %ax,%ax
c000395a:	66 90                	xchg   %ax,%ax
c000395c:	66 90                	xchg   %ax,%ax
c000395e:	66 90                	xchg   %ax,%ax
c0003960:	66 90                	xchg   %ax,%ax
c0003962:	66 90                	xchg   %ax,%ax
c0003964:	66 90                	xchg   %ax,%ax
c0003966:	66 90                	xchg   %ax,%ax
c0003968:	66 90                	xchg   %ax,%ax
c000396a:	66 90                	xchg   %ax,%ax
c000396c:	66 90                	xchg   %ax,%ax
c000396e:	66 90                	xchg   %ax,%ax
c0003970:	66 90                	xchg   %ax,%ax
c0003972:	66 90                	xchg   %ax,%ax
c0003974:	66 90                	xchg   %ax,%ax
c0003976:	66 90                	xchg   %ax,%ax
c0003978:	66 90                	xchg   %ax,%ax
c000397a:	66 90                	xchg   %ax,%ax
c000397c:	66 90                	xchg   %ax,%ax
c000397e:	66 90                	xchg   %ax,%ax
c0003980:	66 90                	xchg   %ax,%ax
c0003982:	66 90                	xchg   %ax,%ax
c0003984:	66 90                	xchg   %ax,%ax
c0003986:	66 90                	xchg   %ax,%ax
c0003988:	66 90                	xchg   %ax,%ax
c000398a:	66 90                	xchg   %ax,%ax
c000398c:	66 90                	xchg   %ax,%ax
c000398e:	66 90                	xchg   %ax,%ax
c0003990:	66 90                	xchg   %ax,%ax
c0003992:	66 90                	xchg   %ax,%ax
c0003994:	66 90                	xchg   %ax,%ax
c0003996:	66 90                	xchg   %ax,%ax
c0003998:	66 90                	xchg   %ax,%ax
c000399a:	66 90                	xchg   %ax,%ax
c000399c:	66 90                	xchg   %ax,%ax
c000399e:	66 90                	xchg   %ax,%ax
c00039a0:	66 90                	xchg   %ax,%ax
c00039a2:	66 90                	xchg   %ax,%ax
c00039a4:	66 90                	xchg   %ax,%ax
c00039a6:	66 90                	xchg   %ax,%ax
c00039a8:	66 90                	xchg   %ax,%ax
c00039aa:	66 90                	xchg   %ax,%ax
c00039ac:	66 90                	xchg   %ax,%ax
c00039ae:	66 90                	xchg   %ax,%ax
c00039b0:	66 90                	xchg   %ax,%ax
c00039b2:	66 90                	xchg   %ax,%ax
c00039b4:	66 90                	xchg   %ax,%ax
c00039b6:	66 90                	xchg   %ax,%ax
c00039b8:	66 90                	xchg   %ax,%ax
c00039ba:	66 90                	xchg   %ax,%ax
c00039bc:	66 90                	xchg   %ax,%ax
c00039be:	66 90                	xchg   %ax,%ax
c00039c0:	66 90                	xchg   %ax,%ax
c00039c2:	66 90                	xchg   %ax,%ax
c00039c4:	66 90                	xchg   %ax,%ax
c00039c6:	66 90                	xchg   %ax,%ax
c00039c8:	66 90                	xchg   %ax,%ax
c00039ca:	66 90                	xchg   %ax,%ax
c00039cc:	66 90                	xchg   %ax,%ax
c00039ce:	66 90                	xchg   %ax,%ax
c00039d0:	66 90                	xchg   %ax,%ax
c00039d2:	66 90                	xchg   %ax,%ax
c00039d4:	66 90                	xchg   %ax,%ax
c00039d6:	66 90                	xchg   %ax,%ax
c00039d8:	66 90                	xchg   %ax,%ax
c00039da:	66 90                	xchg   %ax,%ax
c00039dc:	66 90                	xchg   %ax,%ax
c00039de:	66 90                	xchg   %ax,%ax
c00039e0:	66 90                	xchg   %ax,%ax
c00039e2:	66 90                	xchg   %ax,%ax
c00039e4:	66 90                	xchg   %ax,%ax
c00039e6:	66 90                	xchg   %ax,%ax
c00039e8:	66 90                	xchg   %ax,%ax
c00039ea:	66 90                	xchg   %ax,%ax
c00039ec:	66 90                	xchg   %ax,%ax
c00039ee:	66 90                	xchg   %ax,%ax
c00039f0:	66 90                	xchg   %ax,%ax
c00039f2:	66 90                	xchg   %ax,%ax
c00039f4:	66 90                	xchg   %ax,%ax
c00039f6:	66 90                	xchg   %ax,%ax
c00039f8:	66 90                	xchg   %ax,%ax
c00039fa:	66 90                	xchg   %ax,%ax
c00039fc:	66 90                	xchg   %ax,%ax
c00039fe:	66 90                	xchg   %ax,%ax
c0003a00:	66 90                	xchg   %ax,%ax
c0003a02:	66 90                	xchg   %ax,%ax
c0003a04:	66 90                	xchg   %ax,%ax
c0003a06:	66 90                	xchg   %ax,%ax
c0003a08:	66 90                	xchg   %ax,%ax
c0003a0a:	66 90                	xchg   %ax,%ax
c0003a0c:	66 90                	xchg   %ax,%ax
c0003a0e:	66 90                	xchg   %ax,%ax
c0003a10:	66 90                	xchg   %ax,%ax
c0003a12:	66 90                	xchg   %ax,%ax
c0003a14:	66 90                	xchg   %ax,%ax
c0003a16:	66 90                	xchg   %ax,%ax
c0003a18:	66 90                	xchg   %ax,%ax
c0003a1a:	66 90                	xchg   %ax,%ax
c0003a1c:	66 90                	xchg   %ax,%ax
c0003a1e:	66 90                	xchg   %ax,%ax
c0003a20:	66 90                	xchg   %ax,%ax
c0003a22:	66 90                	xchg   %ax,%ax
c0003a24:	66 90                	xchg   %ax,%ax
c0003a26:	66 90                	xchg   %ax,%ax
c0003a28:	66 90                	xchg   %ax,%ax
c0003a2a:	66 90                	xchg   %ax,%ax
c0003a2c:	66 90                	xchg   %ax,%ax
c0003a2e:	66 90                	xchg   %ax,%ax
c0003a30:	66 90                	xchg   %ax,%ax
c0003a32:	66 90                	xchg   %ax,%ax
c0003a34:	66 90                	xchg   %ax,%ax
c0003a36:	66 90                	xchg   %ax,%ax
c0003a38:	66 90                	xchg   %ax,%ax
c0003a3a:	66 90                	xchg   %ax,%ax
c0003a3c:	66 90                	xchg   %ax,%ax
c0003a3e:	66 90                	xchg   %ax,%ax
c0003a40:	66 90                	xchg   %ax,%ax
c0003a42:	66 90                	xchg   %ax,%ax
c0003a44:	66 90                	xchg   %ax,%ax
c0003a46:	66 90                	xchg   %ax,%ax
c0003a48:	66 90                	xchg   %ax,%ax
c0003a4a:	66 90                	xchg   %ax,%ax
c0003a4c:	66 90                	xchg   %ax,%ax
c0003a4e:	66 90                	xchg   %ax,%ax
c0003a50:	66 90                	xchg   %ax,%ax
c0003a52:	66 90                	xchg   %ax,%ax
c0003a54:	66 90                	xchg   %ax,%ax
c0003a56:	66 90                	xchg   %ax,%ax
c0003a58:	66 90                	xchg   %ax,%ax
c0003a5a:	66 90                	xchg   %ax,%ax
c0003a5c:	66 90                	xchg   %ax,%ax
c0003a5e:	66 90                	xchg   %ax,%ax
c0003a60:	66 90                	xchg   %ax,%ax
c0003a62:	66 90                	xchg   %ax,%ax
c0003a64:	66 90                	xchg   %ax,%ax
c0003a66:	66 90                	xchg   %ax,%ax
c0003a68:	66 90                	xchg   %ax,%ax
c0003a6a:	66 90                	xchg   %ax,%ax
c0003a6c:	66 90                	xchg   %ax,%ax
c0003a6e:	66 90                	xchg   %ax,%ax
c0003a70:	66 90                	xchg   %ax,%ax
c0003a72:	66 90                	xchg   %ax,%ax
c0003a74:	66 90                	xchg   %ax,%ax
c0003a76:	66 90                	xchg   %ax,%ax
c0003a78:	66 90                	xchg   %ax,%ax
c0003a7a:	66 90                	xchg   %ax,%ax
c0003a7c:	66 90                	xchg   %ax,%ax
c0003a7e:	66 90                	xchg   %ax,%ax
c0003a80:	66 90                	xchg   %ax,%ax
c0003a82:	66 90                	xchg   %ax,%ax
c0003a84:	66 90                	xchg   %ax,%ax
c0003a86:	66 90                	xchg   %ax,%ax
c0003a88:	66 90                	xchg   %ax,%ax
c0003a8a:	66 90                	xchg   %ax,%ax
c0003a8c:	66 90                	xchg   %ax,%ax
c0003a8e:	66 90                	xchg   %ax,%ax
c0003a90:	66 90                	xchg   %ax,%ax
c0003a92:	66 90                	xchg   %ax,%ax
c0003a94:	66 90                	xchg   %ax,%ax
c0003a96:	66 90                	xchg   %ax,%ax
c0003a98:	66 90                	xchg   %ax,%ax
c0003a9a:	66 90                	xchg   %ax,%ax
c0003a9c:	66 90                	xchg   %ax,%ax
c0003a9e:	66 90                	xchg   %ax,%ax
c0003aa0:	66 90                	xchg   %ax,%ax
c0003aa2:	66 90                	xchg   %ax,%ax
c0003aa4:	66 90                	xchg   %ax,%ax
c0003aa6:	66 90                	xchg   %ax,%ax
c0003aa8:	66 90                	xchg   %ax,%ax
c0003aaa:	66 90                	xchg   %ax,%ax
c0003aac:	66 90                	xchg   %ax,%ax
c0003aae:	66 90                	xchg   %ax,%ax
c0003ab0:	66 90                	xchg   %ax,%ax
c0003ab2:	66 90                	xchg   %ax,%ax
c0003ab4:	66 90                	xchg   %ax,%ax
c0003ab6:	66 90                	xchg   %ax,%ax
c0003ab8:	66 90                	xchg   %ax,%ax
c0003aba:	66 90                	xchg   %ax,%ax
c0003abc:	66 90                	xchg   %ax,%ax
c0003abe:	66 90                	xchg   %ax,%ax
c0003ac0:	66 90                	xchg   %ax,%ax
c0003ac2:	66 90                	xchg   %ax,%ax
c0003ac4:	66 90                	xchg   %ax,%ax
c0003ac6:	66 90                	xchg   %ax,%ax
c0003ac8:	66 90                	xchg   %ax,%ax
c0003aca:	66 90                	xchg   %ax,%ax
c0003acc:	66 90                	xchg   %ax,%ax
c0003ace:	66 90                	xchg   %ax,%ax
c0003ad0:	66 90                	xchg   %ax,%ax
c0003ad2:	66 90                	xchg   %ax,%ax
c0003ad4:	66 90                	xchg   %ax,%ax
c0003ad6:	66 90                	xchg   %ax,%ax
c0003ad8:	66 90                	xchg   %ax,%ax
c0003ada:	66 90                	xchg   %ax,%ax
c0003adc:	66 90                	xchg   %ax,%ax
c0003ade:	66 90                	xchg   %ax,%ax
c0003ae0:	66 90                	xchg   %ax,%ax
c0003ae2:	66 90                	xchg   %ax,%ax
c0003ae4:	66 90                	xchg   %ax,%ax
c0003ae6:	66 90                	xchg   %ax,%ax
c0003ae8:	66 90                	xchg   %ax,%ax
c0003aea:	66 90                	xchg   %ax,%ax
c0003aec:	66 90                	xchg   %ax,%ax
c0003aee:	66 90                	xchg   %ax,%ax
c0003af0:	66 90                	xchg   %ax,%ax
c0003af2:	66 90                	xchg   %ax,%ax
c0003af4:	66 90                	xchg   %ax,%ax
c0003af6:	66 90                	xchg   %ax,%ax
c0003af8:	66 90                	xchg   %ax,%ax
c0003afa:	66 90                	xchg   %ax,%ax
c0003afc:	66 90                	xchg   %ax,%ax
c0003afe:	66 90                	xchg   %ax,%ax
c0003b00:	66 90                	xchg   %ax,%ax
c0003b02:	66 90                	xchg   %ax,%ax
c0003b04:	66 90                	xchg   %ax,%ax
c0003b06:	66 90                	xchg   %ax,%ax
c0003b08:	66 90                	xchg   %ax,%ax
c0003b0a:	66 90                	xchg   %ax,%ax
c0003b0c:	66 90                	xchg   %ax,%ax
c0003b0e:	66 90                	xchg   %ax,%ax
c0003b10:	66 90                	xchg   %ax,%ax
c0003b12:	66 90                	xchg   %ax,%ax
c0003b14:	66 90                	xchg   %ax,%ax
c0003b16:	66 90                	xchg   %ax,%ax
c0003b18:	66 90                	xchg   %ax,%ax
c0003b1a:	66 90                	xchg   %ax,%ax
c0003b1c:	66 90                	xchg   %ax,%ax
c0003b1e:	66 90                	xchg   %ax,%ax
c0003b20:	66 90                	xchg   %ax,%ax
c0003b22:	66 90                	xchg   %ax,%ax
c0003b24:	66 90                	xchg   %ax,%ax
c0003b26:	66 90                	xchg   %ax,%ax
c0003b28:	66 90                	xchg   %ax,%ax
c0003b2a:	66 90                	xchg   %ax,%ax
c0003b2c:	66 90                	xchg   %ax,%ax
c0003b2e:	66 90                	xchg   %ax,%ax
c0003b30:	66 90                	xchg   %ax,%ax
c0003b32:	66 90                	xchg   %ax,%ax
c0003b34:	66 90                	xchg   %ax,%ax
c0003b36:	66 90                	xchg   %ax,%ax
c0003b38:	66 90                	xchg   %ax,%ax
c0003b3a:	66 90                	xchg   %ax,%ax
c0003b3c:	66 90                	xchg   %ax,%ax
c0003b3e:	66 90                	xchg   %ax,%ax
c0003b40:	66 90                	xchg   %ax,%ax
c0003b42:	66 90                	xchg   %ax,%ax
c0003b44:	66 90                	xchg   %ax,%ax
c0003b46:	66 90                	xchg   %ax,%ax
c0003b48:	66 90                	xchg   %ax,%ax
c0003b4a:	66 90                	xchg   %ax,%ax
c0003b4c:	66 90                	xchg   %ax,%ax
c0003b4e:	66 90                	xchg   %ax,%ax
c0003b50:	66 90                	xchg   %ax,%ax
c0003b52:	66 90                	xchg   %ax,%ax
c0003b54:	66 90                	xchg   %ax,%ax
c0003b56:	66 90                	xchg   %ax,%ax
c0003b58:	66 90                	xchg   %ax,%ax
c0003b5a:	66 90                	xchg   %ax,%ax
c0003b5c:	66 90                	xchg   %ax,%ax
c0003b5e:	66 90                	xchg   %ax,%ax
c0003b60:	66 90                	xchg   %ax,%ax
c0003b62:	66 90                	xchg   %ax,%ax
c0003b64:	66 90                	xchg   %ax,%ax
c0003b66:	66 90                	xchg   %ax,%ax
c0003b68:	66 90                	xchg   %ax,%ax
c0003b6a:	66 90                	xchg   %ax,%ax
c0003b6c:	66 90                	xchg   %ax,%ax
c0003b6e:	66 90                	xchg   %ax,%ax
c0003b70:	66 90                	xchg   %ax,%ax
c0003b72:	66 90                	xchg   %ax,%ax
c0003b74:	66 90                	xchg   %ax,%ax
c0003b76:	66 90                	xchg   %ax,%ax
c0003b78:	66 90                	xchg   %ax,%ax
c0003b7a:	66 90                	xchg   %ax,%ax
c0003b7c:	66 90                	xchg   %ax,%ax
c0003b7e:	66 90                	xchg   %ax,%ax
c0003b80:	66 90                	xchg   %ax,%ax
c0003b82:	66 90                	xchg   %ax,%ax
c0003b84:	66 90                	xchg   %ax,%ax
c0003b86:	66 90                	xchg   %ax,%ax
c0003b88:	66 90                	xchg   %ax,%ax
c0003b8a:	66 90                	xchg   %ax,%ax
c0003b8c:	66 90                	xchg   %ax,%ax
c0003b8e:	66 90                	xchg   %ax,%ax
c0003b90:	66 90                	xchg   %ax,%ax
c0003b92:	66 90                	xchg   %ax,%ax
c0003b94:	66 90                	xchg   %ax,%ax
c0003b96:	66 90                	xchg   %ax,%ax
c0003b98:	66 90                	xchg   %ax,%ax
c0003b9a:	66 90                	xchg   %ax,%ax
c0003b9c:	66 90                	xchg   %ax,%ax
c0003b9e:	66 90                	xchg   %ax,%ax
c0003ba0:	66 90                	xchg   %ax,%ax
c0003ba2:	66 90                	xchg   %ax,%ax
c0003ba4:	66 90                	xchg   %ax,%ax
c0003ba6:	66 90                	xchg   %ax,%ax
c0003ba8:	66 90                	xchg   %ax,%ax
c0003baa:	66 90                	xchg   %ax,%ax
c0003bac:	66 90                	xchg   %ax,%ax
c0003bae:	66 90                	xchg   %ax,%ax
c0003bb0:	66 90                	xchg   %ax,%ax
c0003bb2:	66 90                	xchg   %ax,%ax
c0003bb4:	66 90                	xchg   %ax,%ax
c0003bb6:	66 90                	xchg   %ax,%ax
c0003bb8:	66 90                	xchg   %ax,%ax
c0003bba:	66 90                	xchg   %ax,%ax
c0003bbc:	66 90                	xchg   %ax,%ax
c0003bbe:	66 90                	xchg   %ax,%ax
c0003bc0:	66 90                	xchg   %ax,%ax
c0003bc2:	66 90                	xchg   %ax,%ax
c0003bc4:	66 90                	xchg   %ax,%ax
c0003bc6:	66 90                	xchg   %ax,%ax
c0003bc8:	66 90                	xchg   %ax,%ax
c0003bca:	66 90                	xchg   %ax,%ax
c0003bcc:	66 90                	xchg   %ax,%ax
c0003bce:	66 90                	xchg   %ax,%ax
c0003bd0:	66 90                	xchg   %ax,%ax
c0003bd2:	66 90                	xchg   %ax,%ax
c0003bd4:	66 90                	xchg   %ax,%ax
c0003bd6:	66 90                	xchg   %ax,%ax
c0003bd8:	66 90                	xchg   %ax,%ax
c0003bda:	66 90                	xchg   %ax,%ax
c0003bdc:	66 90                	xchg   %ax,%ax
c0003bde:	66 90                	xchg   %ax,%ax
c0003be0:	66 90                	xchg   %ax,%ax
c0003be2:	66 90                	xchg   %ax,%ax
c0003be4:	66 90                	xchg   %ax,%ax
c0003be6:	66 90                	xchg   %ax,%ax
c0003be8:	66 90                	xchg   %ax,%ax
c0003bea:	66 90                	xchg   %ax,%ax
c0003bec:	66 90                	xchg   %ax,%ax
c0003bee:	66 90                	xchg   %ax,%ax
c0003bf0:	66 90                	xchg   %ax,%ax
c0003bf2:	66 90                	xchg   %ax,%ax
c0003bf4:	66 90                	xchg   %ax,%ax
c0003bf6:	66 90                	xchg   %ax,%ax
c0003bf8:	66 90                	xchg   %ax,%ax
c0003bfa:	66 90                	xchg   %ax,%ax
c0003bfc:	66 90                	xchg   %ax,%ax
c0003bfe:	66 90                	xchg   %ax,%ax
c0003c00:	66 90                	xchg   %ax,%ax
c0003c02:	66 90                	xchg   %ax,%ax
c0003c04:	66 90                	xchg   %ax,%ax
c0003c06:	66 90                	xchg   %ax,%ax
c0003c08:	66 90                	xchg   %ax,%ax
c0003c0a:	66 90                	xchg   %ax,%ax
c0003c0c:	66 90                	xchg   %ax,%ax
c0003c0e:	66 90                	xchg   %ax,%ax
c0003c10:	66 90                	xchg   %ax,%ax
c0003c12:	66 90                	xchg   %ax,%ax
c0003c14:	66 90                	xchg   %ax,%ax
c0003c16:	66 90                	xchg   %ax,%ax
c0003c18:	66 90                	xchg   %ax,%ax
c0003c1a:	66 90                	xchg   %ax,%ax
c0003c1c:	66 90                	xchg   %ax,%ax
c0003c1e:	66 90                	xchg   %ax,%ax
c0003c20:	66 90                	xchg   %ax,%ax
c0003c22:	66 90                	xchg   %ax,%ax
c0003c24:	66 90                	xchg   %ax,%ax
c0003c26:	66 90                	xchg   %ax,%ax
c0003c28:	66 90                	xchg   %ax,%ax
c0003c2a:	66 90                	xchg   %ax,%ax
c0003c2c:	66 90                	xchg   %ax,%ax
c0003c2e:	66 90                	xchg   %ax,%ax
c0003c30:	66 90                	xchg   %ax,%ax
c0003c32:	66 90                	xchg   %ax,%ax
c0003c34:	66 90                	xchg   %ax,%ax
c0003c36:	66 90                	xchg   %ax,%ax
c0003c38:	66 90                	xchg   %ax,%ax
c0003c3a:	66 90                	xchg   %ax,%ax
c0003c3c:	66 90                	xchg   %ax,%ax
c0003c3e:	66 90                	xchg   %ax,%ax
c0003c40:	66 90                	xchg   %ax,%ax
c0003c42:	66 90                	xchg   %ax,%ax
c0003c44:	66 90                	xchg   %ax,%ax
c0003c46:	66 90                	xchg   %ax,%ax
c0003c48:	66 90                	xchg   %ax,%ax
c0003c4a:	66 90                	xchg   %ax,%ax
c0003c4c:	66 90                	xchg   %ax,%ax
c0003c4e:	66 90                	xchg   %ax,%ax
c0003c50:	66 90                	xchg   %ax,%ax
c0003c52:	66 90                	xchg   %ax,%ax
c0003c54:	66 90                	xchg   %ax,%ax
c0003c56:	66 90                	xchg   %ax,%ax
c0003c58:	66 90                	xchg   %ax,%ax
c0003c5a:	66 90                	xchg   %ax,%ax
c0003c5c:	66 90                	xchg   %ax,%ax
c0003c5e:	66 90                	xchg   %ax,%ax
c0003c60:	66 90                	xchg   %ax,%ax
c0003c62:	66 90                	xchg   %ax,%ax
c0003c64:	66 90                	xchg   %ax,%ax
c0003c66:	66 90                	xchg   %ax,%ax
c0003c68:	66 90                	xchg   %ax,%ax
c0003c6a:	66 90                	xchg   %ax,%ax
c0003c6c:	66 90                	xchg   %ax,%ax
c0003c6e:	66 90                	xchg   %ax,%ax
c0003c70:	66 90                	xchg   %ax,%ax
c0003c72:	66 90                	xchg   %ax,%ax
c0003c74:	66 90                	xchg   %ax,%ax
c0003c76:	66 90                	xchg   %ax,%ax
c0003c78:	66 90                	xchg   %ax,%ax
c0003c7a:	66 90                	xchg   %ax,%ax
c0003c7c:	66 90                	xchg   %ax,%ax
c0003c7e:	66 90                	xchg   %ax,%ax
c0003c80:	66 90                	xchg   %ax,%ax
c0003c82:	66 90                	xchg   %ax,%ax
c0003c84:	66 90                	xchg   %ax,%ax
c0003c86:	66 90                	xchg   %ax,%ax
c0003c88:	66 90                	xchg   %ax,%ax
c0003c8a:	66 90                	xchg   %ax,%ax
c0003c8c:	66 90                	xchg   %ax,%ax
c0003c8e:	66 90                	xchg   %ax,%ax
c0003c90:	66 90                	xchg   %ax,%ax
c0003c92:	66 90                	xchg   %ax,%ax
c0003c94:	66 90                	xchg   %ax,%ax
c0003c96:	66 90                	xchg   %ax,%ax
c0003c98:	66 90                	xchg   %ax,%ax
c0003c9a:	66 90                	xchg   %ax,%ax
c0003c9c:	66 90                	xchg   %ax,%ax
c0003c9e:	66 90                	xchg   %ax,%ax
c0003ca0:	66 90                	xchg   %ax,%ax
c0003ca2:	66 90                	xchg   %ax,%ax
c0003ca4:	66 90                	xchg   %ax,%ax
c0003ca6:	66 90                	xchg   %ax,%ax
c0003ca8:	66 90                	xchg   %ax,%ax
c0003caa:	66 90                	xchg   %ax,%ax
c0003cac:	66 90                	xchg   %ax,%ax
c0003cae:	66 90                	xchg   %ax,%ax
c0003cb0:	66 90                	xchg   %ax,%ax
c0003cb2:	66 90                	xchg   %ax,%ax
c0003cb4:	66 90                	xchg   %ax,%ax
c0003cb6:	66 90                	xchg   %ax,%ax
c0003cb8:	66 90                	xchg   %ax,%ax
c0003cba:	66 90                	xchg   %ax,%ax
c0003cbc:	66 90                	xchg   %ax,%ax
c0003cbe:	66 90                	xchg   %ax,%ax
c0003cc0:	66 90                	xchg   %ax,%ax
c0003cc2:	66 90                	xchg   %ax,%ax
c0003cc4:	66 90                	xchg   %ax,%ax
c0003cc6:	66 90                	xchg   %ax,%ax
c0003cc8:	66 90                	xchg   %ax,%ax
c0003cca:	66 90                	xchg   %ax,%ax
c0003ccc:	66 90                	xchg   %ax,%ax
c0003cce:	66 90                	xchg   %ax,%ax
c0003cd0:	66 90                	xchg   %ax,%ax
c0003cd2:	66 90                	xchg   %ax,%ax
c0003cd4:	66 90                	xchg   %ax,%ax
c0003cd6:	66 90                	xchg   %ax,%ax
c0003cd8:	66 90                	xchg   %ax,%ax
c0003cda:	66 90                	xchg   %ax,%ax
c0003cdc:	66 90                	xchg   %ax,%ax
c0003cde:	66 90                	xchg   %ax,%ax
c0003ce0:	66 90                	xchg   %ax,%ax
c0003ce2:	66 90                	xchg   %ax,%ax
c0003ce4:	66 90                	xchg   %ax,%ax
c0003ce6:	66 90                	xchg   %ax,%ax
c0003ce8:	66 90                	xchg   %ax,%ax
c0003cea:	66 90                	xchg   %ax,%ax
c0003cec:	66 90                	xchg   %ax,%ax
c0003cee:	66 90                	xchg   %ax,%ax
c0003cf0:	66 90                	xchg   %ax,%ax
c0003cf2:	66 90                	xchg   %ax,%ax
c0003cf4:	66 90                	xchg   %ax,%ax
c0003cf6:	66 90                	xchg   %ax,%ax
c0003cf8:	66 90                	xchg   %ax,%ax
c0003cfa:	66 90                	xchg   %ax,%ax
c0003cfc:	66 90                	xchg   %ax,%ax
c0003cfe:	66 90                	xchg   %ax,%ax
c0003d00:	66 90                	xchg   %ax,%ax
c0003d02:	66 90                	xchg   %ax,%ax
c0003d04:	66 90                	xchg   %ax,%ax
c0003d06:	66 90                	xchg   %ax,%ax
c0003d08:	66 90                	xchg   %ax,%ax
c0003d0a:	66 90                	xchg   %ax,%ax
c0003d0c:	66 90                	xchg   %ax,%ax
c0003d0e:	66 90                	xchg   %ax,%ax
c0003d10:	66 90                	xchg   %ax,%ax
c0003d12:	66 90                	xchg   %ax,%ax
c0003d14:	66 90                	xchg   %ax,%ax
c0003d16:	66 90                	xchg   %ax,%ax
c0003d18:	66 90                	xchg   %ax,%ax
c0003d1a:	66 90                	xchg   %ax,%ax
c0003d1c:	66 90                	xchg   %ax,%ax
c0003d1e:	66 90                	xchg   %ax,%ax
c0003d20:	66 90                	xchg   %ax,%ax
c0003d22:	66 90                	xchg   %ax,%ax
c0003d24:	66 90                	xchg   %ax,%ax
c0003d26:	66 90                	xchg   %ax,%ax
c0003d28:	66 90                	xchg   %ax,%ax
c0003d2a:	66 90                	xchg   %ax,%ax
c0003d2c:	66 90                	xchg   %ax,%ax
c0003d2e:	66 90                	xchg   %ax,%ax
c0003d30:	66 90                	xchg   %ax,%ax
c0003d32:	66 90                	xchg   %ax,%ax
c0003d34:	66 90                	xchg   %ax,%ax
c0003d36:	66 90                	xchg   %ax,%ax
c0003d38:	66 90                	xchg   %ax,%ax
c0003d3a:	66 90                	xchg   %ax,%ax
c0003d3c:	66 90                	xchg   %ax,%ax
c0003d3e:	66 90                	xchg   %ax,%ax
c0003d40:	66 90                	xchg   %ax,%ax
c0003d42:	66 90                	xchg   %ax,%ax
c0003d44:	66 90                	xchg   %ax,%ax
c0003d46:	66 90                	xchg   %ax,%ax
c0003d48:	66 90                	xchg   %ax,%ax
c0003d4a:	66 90                	xchg   %ax,%ax
c0003d4c:	66 90                	xchg   %ax,%ax
c0003d4e:	66 90                	xchg   %ax,%ax
c0003d50:	66 90                	xchg   %ax,%ax
c0003d52:	66 90                	xchg   %ax,%ax
c0003d54:	66 90                	xchg   %ax,%ax
c0003d56:	66 90                	xchg   %ax,%ax
c0003d58:	66 90                	xchg   %ax,%ax
c0003d5a:	66 90                	xchg   %ax,%ax
c0003d5c:	66 90                	xchg   %ax,%ax
c0003d5e:	66 90                	xchg   %ax,%ax
c0003d60:	66 90                	xchg   %ax,%ax
c0003d62:	66 90                	xchg   %ax,%ax
c0003d64:	66 90                	xchg   %ax,%ax
c0003d66:	66 90                	xchg   %ax,%ax
c0003d68:	66 90                	xchg   %ax,%ax
c0003d6a:	66 90                	xchg   %ax,%ax
c0003d6c:	66 90                	xchg   %ax,%ax
c0003d6e:	66 90                	xchg   %ax,%ax
c0003d70:	66 90                	xchg   %ax,%ax
c0003d72:	66 90                	xchg   %ax,%ax
c0003d74:	66 90                	xchg   %ax,%ax
c0003d76:	66 90                	xchg   %ax,%ax
c0003d78:	66 90                	xchg   %ax,%ax
c0003d7a:	66 90                	xchg   %ax,%ax
c0003d7c:	66 90                	xchg   %ax,%ax
c0003d7e:	66 90                	xchg   %ax,%ax
c0003d80:	66 90                	xchg   %ax,%ax
c0003d82:	66 90                	xchg   %ax,%ax
c0003d84:	66 90                	xchg   %ax,%ax
c0003d86:	66 90                	xchg   %ax,%ax
c0003d88:	66 90                	xchg   %ax,%ax
c0003d8a:	66 90                	xchg   %ax,%ax
c0003d8c:	66 90                	xchg   %ax,%ax
c0003d8e:	66 90                	xchg   %ax,%ax
c0003d90:	66 90                	xchg   %ax,%ax
c0003d92:	66 90                	xchg   %ax,%ax
c0003d94:	66 90                	xchg   %ax,%ax
c0003d96:	66 90                	xchg   %ax,%ax
c0003d98:	66 90                	xchg   %ax,%ax
c0003d9a:	66 90                	xchg   %ax,%ax
c0003d9c:	66 90                	xchg   %ax,%ax
c0003d9e:	66 90                	xchg   %ax,%ax
c0003da0:	66 90                	xchg   %ax,%ax
c0003da2:	66 90                	xchg   %ax,%ax
c0003da4:	66 90                	xchg   %ax,%ax
c0003da6:	66 90                	xchg   %ax,%ax
c0003da8:	66 90                	xchg   %ax,%ax
c0003daa:	66 90                	xchg   %ax,%ax
c0003dac:	66 90                	xchg   %ax,%ax
c0003dae:	66 90                	xchg   %ax,%ax
c0003db0:	66 90                	xchg   %ax,%ax
c0003db2:	66 90                	xchg   %ax,%ax
c0003db4:	66 90                	xchg   %ax,%ax
c0003db6:	66 90                	xchg   %ax,%ax
c0003db8:	66 90                	xchg   %ax,%ax
c0003dba:	66 90                	xchg   %ax,%ax
c0003dbc:	66 90                	xchg   %ax,%ax
c0003dbe:	66 90                	xchg   %ax,%ax
c0003dc0:	66 90                	xchg   %ax,%ax
c0003dc2:	66 90                	xchg   %ax,%ax
c0003dc4:	66 90                	xchg   %ax,%ax
c0003dc6:	66 90                	xchg   %ax,%ax
c0003dc8:	66 90                	xchg   %ax,%ax
c0003dca:	66 90                	xchg   %ax,%ax
c0003dcc:	66 90                	xchg   %ax,%ax
c0003dce:	66 90                	xchg   %ax,%ax
c0003dd0:	66 90                	xchg   %ax,%ax
c0003dd2:	66 90                	xchg   %ax,%ax
c0003dd4:	66 90                	xchg   %ax,%ax
c0003dd6:	66 90                	xchg   %ax,%ax
c0003dd8:	66 90                	xchg   %ax,%ax
c0003dda:	66 90                	xchg   %ax,%ax
c0003ddc:	66 90                	xchg   %ax,%ax
c0003dde:	66 90                	xchg   %ax,%ax
c0003de0:	66 90                	xchg   %ax,%ax
c0003de2:	66 90                	xchg   %ax,%ax
c0003de4:	66 90                	xchg   %ax,%ax
c0003de6:	66 90                	xchg   %ax,%ax
c0003de8:	66 90                	xchg   %ax,%ax
c0003dea:	66 90                	xchg   %ax,%ax
c0003dec:	66 90                	xchg   %ax,%ax
c0003dee:	66 90                	xchg   %ax,%ax
c0003df0:	66 90                	xchg   %ax,%ax
c0003df2:	66 90                	xchg   %ax,%ax
c0003df4:	66 90                	xchg   %ax,%ax
c0003df6:	66 90                	xchg   %ax,%ax
c0003df8:	66 90                	xchg   %ax,%ax
c0003dfa:	66 90                	xchg   %ax,%ax
c0003dfc:	66 90                	xchg   %ax,%ax
c0003dfe:	66 90                	xchg   %ax,%ax
c0003e00:	66 90                	xchg   %ax,%ax
c0003e02:	66 90                	xchg   %ax,%ax
c0003e04:	66 90                	xchg   %ax,%ax
c0003e06:	66 90                	xchg   %ax,%ax
c0003e08:	66 90                	xchg   %ax,%ax
c0003e0a:	66 90                	xchg   %ax,%ax
c0003e0c:	66 90                	xchg   %ax,%ax
c0003e0e:	66 90                	xchg   %ax,%ax
c0003e10:	66 90                	xchg   %ax,%ax
c0003e12:	66 90                	xchg   %ax,%ax
c0003e14:	66 90                	xchg   %ax,%ax
c0003e16:	66 90                	xchg   %ax,%ax
c0003e18:	66 90                	xchg   %ax,%ax
c0003e1a:	66 90                	xchg   %ax,%ax
c0003e1c:	66 90                	xchg   %ax,%ax
c0003e1e:	66 90                	xchg   %ax,%ax
c0003e20:	66 90                	xchg   %ax,%ax
c0003e22:	66 90                	xchg   %ax,%ax
c0003e24:	66 90                	xchg   %ax,%ax
c0003e26:	66 90                	xchg   %ax,%ax
c0003e28:	66 90                	xchg   %ax,%ax
c0003e2a:	66 90                	xchg   %ax,%ax
c0003e2c:	66 90                	xchg   %ax,%ax
c0003e2e:	66 90                	xchg   %ax,%ax
c0003e30:	66 90                	xchg   %ax,%ax
c0003e32:	66 90                	xchg   %ax,%ax
c0003e34:	66 90                	xchg   %ax,%ax
c0003e36:	66 90                	xchg   %ax,%ax
c0003e38:	66 90                	xchg   %ax,%ax
c0003e3a:	66 90                	xchg   %ax,%ax
c0003e3c:	66 90                	xchg   %ax,%ax
c0003e3e:	66 90                	xchg   %ax,%ax
c0003e40:	66 90                	xchg   %ax,%ax
c0003e42:	66 90                	xchg   %ax,%ax
c0003e44:	66 90                	xchg   %ax,%ax
c0003e46:	66 90                	xchg   %ax,%ax
c0003e48:	66 90                	xchg   %ax,%ax
c0003e4a:	66 90                	xchg   %ax,%ax
c0003e4c:	66 90                	xchg   %ax,%ax
c0003e4e:	66 90                	xchg   %ax,%ax
c0003e50:	66 90                	xchg   %ax,%ax
c0003e52:	66 90                	xchg   %ax,%ax
c0003e54:	66 90                	xchg   %ax,%ax
c0003e56:	66 90                	xchg   %ax,%ax
c0003e58:	66 90                	xchg   %ax,%ax
c0003e5a:	66 90                	xchg   %ax,%ax
c0003e5c:	66 90                	xchg   %ax,%ax
c0003e5e:	66 90                	xchg   %ax,%ax
c0003e60:	66 90                	xchg   %ax,%ax
c0003e62:	66 90                	xchg   %ax,%ax
c0003e64:	66 90                	xchg   %ax,%ax
c0003e66:	66 90                	xchg   %ax,%ax
c0003e68:	66 90                	xchg   %ax,%ax
c0003e6a:	66 90                	xchg   %ax,%ax
c0003e6c:	66 90                	xchg   %ax,%ax
c0003e6e:	66 90                	xchg   %ax,%ax
c0003e70:	66 90                	xchg   %ax,%ax
c0003e72:	66 90                	xchg   %ax,%ax
c0003e74:	66 90                	xchg   %ax,%ax
c0003e76:	66 90                	xchg   %ax,%ax
c0003e78:	66 90                	xchg   %ax,%ax
c0003e7a:	66 90                	xchg   %ax,%ax
c0003e7c:	66 90                	xchg   %ax,%ax
c0003e7e:	66 90                	xchg   %ax,%ax
c0003e80:	66 90                	xchg   %ax,%ax
c0003e82:	66 90                	xchg   %ax,%ax
c0003e84:	66 90                	xchg   %ax,%ax
c0003e86:	66 90                	xchg   %ax,%ax
c0003e88:	66 90                	xchg   %ax,%ax
c0003e8a:	66 90                	xchg   %ax,%ax
c0003e8c:	66 90                	xchg   %ax,%ax
c0003e8e:	66 90                	xchg   %ax,%ax
c0003e90:	66 90                	xchg   %ax,%ax
c0003e92:	66 90                	xchg   %ax,%ax
c0003e94:	66 90                	xchg   %ax,%ax
c0003e96:	66 90                	xchg   %ax,%ax
c0003e98:	66 90                	xchg   %ax,%ax
c0003e9a:	66 90                	xchg   %ax,%ax
c0003e9c:	66 90                	xchg   %ax,%ax
c0003e9e:	66 90                	xchg   %ax,%ax
c0003ea0:	66 90                	xchg   %ax,%ax
c0003ea2:	66 90                	xchg   %ax,%ax
c0003ea4:	66 90                	xchg   %ax,%ax
c0003ea6:	66 90                	xchg   %ax,%ax
c0003ea8:	66 90                	xchg   %ax,%ax
c0003eaa:	66 90                	xchg   %ax,%ax
c0003eac:	66 90                	xchg   %ax,%ax
c0003eae:	66 90                	xchg   %ax,%ax
c0003eb0:	66 90                	xchg   %ax,%ax
c0003eb2:	66 90                	xchg   %ax,%ax
c0003eb4:	66 90                	xchg   %ax,%ax
c0003eb6:	66 90                	xchg   %ax,%ax
c0003eb8:	66 90                	xchg   %ax,%ax
c0003eba:	66 90                	xchg   %ax,%ax
c0003ebc:	66 90                	xchg   %ax,%ax
c0003ebe:	66 90                	xchg   %ax,%ax
c0003ec0:	66 90                	xchg   %ax,%ax
c0003ec2:	66 90                	xchg   %ax,%ax
c0003ec4:	66 90                	xchg   %ax,%ax
c0003ec6:	66 90                	xchg   %ax,%ax
c0003ec8:	66 90                	xchg   %ax,%ax
c0003eca:	66 90                	xchg   %ax,%ax
c0003ecc:	66 90                	xchg   %ax,%ax
c0003ece:	66 90                	xchg   %ax,%ax
c0003ed0:	66 90                	xchg   %ax,%ax
c0003ed2:	66 90                	xchg   %ax,%ax
c0003ed4:	66 90                	xchg   %ax,%ax
c0003ed6:	66 90                	xchg   %ax,%ax
c0003ed8:	66 90                	xchg   %ax,%ax
c0003eda:	66 90                	xchg   %ax,%ax
c0003edc:	66 90                	xchg   %ax,%ax
c0003ede:	66 90                	xchg   %ax,%ax
c0003ee0:	66 90                	xchg   %ax,%ax
c0003ee2:	66 90                	xchg   %ax,%ax
c0003ee4:	66 90                	xchg   %ax,%ax
c0003ee6:	66 90                	xchg   %ax,%ax
c0003ee8:	66 90                	xchg   %ax,%ax
c0003eea:	66 90                	xchg   %ax,%ax
c0003eec:	66 90                	xchg   %ax,%ax
c0003eee:	66 90                	xchg   %ax,%ax
c0003ef0:	66 90                	xchg   %ax,%ax
c0003ef2:	66 90                	xchg   %ax,%ax
c0003ef4:	66 90                	xchg   %ax,%ax
c0003ef6:	66 90                	xchg   %ax,%ax
c0003ef8:	66 90                	xchg   %ax,%ax
c0003efa:	66 90                	xchg   %ax,%ax
c0003efc:	66 90                	xchg   %ax,%ax
c0003efe:	66 90                	xchg   %ax,%ax
c0003f00:	66 90                	xchg   %ax,%ax
c0003f02:	66 90                	xchg   %ax,%ax
c0003f04:	66 90                	xchg   %ax,%ax
c0003f06:	66 90                	xchg   %ax,%ax
c0003f08:	66 90                	xchg   %ax,%ax
c0003f0a:	66 90                	xchg   %ax,%ax
c0003f0c:	66 90                	xchg   %ax,%ax
c0003f0e:	66 90                	xchg   %ax,%ax
c0003f10:	66 90                	xchg   %ax,%ax
c0003f12:	66 90                	xchg   %ax,%ax
c0003f14:	66 90                	xchg   %ax,%ax
c0003f16:	66 90                	xchg   %ax,%ax
c0003f18:	66 90                	xchg   %ax,%ax
c0003f1a:	66 90                	xchg   %ax,%ax
c0003f1c:	66 90                	xchg   %ax,%ax
c0003f1e:	66 90                	xchg   %ax,%ax
c0003f20:	66 90                	xchg   %ax,%ax
c0003f22:	66 90                	xchg   %ax,%ax
c0003f24:	66 90                	xchg   %ax,%ax
c0003f26:	66 90                	xchg   %ax,%ax
c0003f28:	66 90                	xchg   %ax,%ax
c0003f2a:	66 90                	xchg   %ax,%ax
c0003f2c:	66 90                	xchg   %ax,%ax
c0003f2e:	66 90                	xchg   %ax,%ax
c0003f30:	66 90                	xchg   %ax,%ax
c0003f32:	66 90                	xchg   %ax,%ax
c0003f34:	66 90                	xchg   %ax,%ax
c0003f36:	66 90                	xchg   %ax,%ax
c0003f38:	66 90                	xchg   %ax,%ax
c0003f3a:	66 90                	xchg   %ax,%ax
c0003f3c:	66 90                	xchg   %ax,%ax
c0003f3e:	66 90                	xchg   %ax,%ax
c0003f40:	66 90                	xchg   %ax,%ax
c0003f42:	66 90                	xchg   %ax,%ax
c0003f44:	66 90                	xchg   %ax,%ax
c0003f46:	66 90                	xchg   %ax,%ax
c0003f48:	66 90                	xchg   %ax,%ax
c0003f4a:	66 90                	xchg   %ax,%ax
c0003f4c:	66 90                	xchg   %ax,%ax
c0003f4e:	66 90                	xchg   %ax,%ax
c0003f50:	66 90                	xchg   %ax,%ax
c0003f52:	66 90                	xchg   %ax,%ax
c0003f54:	66 90                	xchg   %ax,%ax
c0003f56:	66 90                	xchg   %ax,%ax
c0003f58:	66 90                	xchg   %ax,%ax
c0003f5a:	66 90                	xchg   %ax,%ax
c0003f5c:	66 90                	xchg   %ax,%ax
c0003f5e:	66 90                	xchg   %ax,%ax
c0003f60:	66 90                	xchg   %ax,%ax
c0003f62:	66 90                	xchg   %ax,%ax
c0003f64:	66 90                	xchg   %ax,%ax
c0003f66:	66 90                	xchg   %ax,%ax
c0003f68:	66 90                	xchg   %ax,%ax
c0003f6a:	66 90                	xchg   %ax,%ax
c0003f6c:	66 90                	xchg   %ax,%ax
c0003f6e:	66 90                	xchg   %ax,%ax
c0003f70:	66 90                	xchg   %ax,%ax
c0003f72:	66 90                	xchg   %ax,%ax
c0003f74:	66 90                	xchg   %ax,%ax
c0003f76:	66 90                	xchg   %ax,%ax
c0003f78:	66 90                	xchg   %ax,%ax
c0003f7a:	66 90                	xchg   %ax,%ax
c0003f7c:	66 90                	xchg   %ax,%ax
c0003f7e:	66 90                	xchg   %ax,%ax
c0003f80:	66 90                	xchg   %ax,%ax
c0003f82:	66 90                	xchg   %ax,%ax
c0003f84:	66 90                	xchg   %ax,%ax
c0003f86:	66 90                	xchg   %ax,%ax
c0003f88:	66 90                	xchg   %ax,%ax
c0003f8a:	66 90                	xchg   %ax,%ax
c0003f8c:	66 90                	xchg   %ax,%ax
c0003f8e:	66 90                	xchg   %ax,%ax
c0003f90:	66 90                	xchg   %ax,%ax
c0003f92:	66 90                	xchg   %ax,%ax
c0003f94:	66 90                	xchg   %ax,%ax
c0003f96:	66 90                	xchg   %ax,%ax
c0003f98:	66 90                	xchg   %ax,%ax
c0003f9a:	66 90                	xchg   %ax,%ax
c0003f9c:	66 90                	xchg   %ax,%ax
c0003f9e:	66 90                	xchg   %ax,%ax
c0003fa0:	66 90                	xchg   %ax,%ax
c0003fa2:	66 90                	xchg   %ax,%ax
c0003fa4:	66 90                	xchg   %ax,%ax
c0003fa6:	66 90                	xchg   %ax,%ax
c0003fa8:	66 90                	xchg   %ax,%ax
c0003faa:	66 90                	xchg   %ax,%ax
c0003fac:	66 90                	xchg   %ax,%ax
c0003fae:	66 90                	xchg   %ax,%ax
c0003fb0:	66 90                	xchg   %ax,%ax
c0003fb2:	66 90                	xchg   %ax,%ax
c0003fb4:	66 90                	xchg   %ax,%ax
c0003fb6:	66 90                	xchg   %ax,%ax
c0003fb8:	66 90                	xchg   %ax,%ax
c0003fba:	66 90                	xchg   %ax,%ax
c0003fbc:	66 90                	xchg   %ax,%ax
c0003fbe:	66 90                	xchg   %ax,%ax
c0003fc0:	66 90                	xchg   %ax,%ax
c0003fc2:	66 90                	xchg   %ax,%ax
c0003fc4:	66 90                	xchg   %ax,%ax
c0003fc6:	66 90                	xchg   %ax,%ax
c0003fc8:	66 90                	xchg   %ax,%ax
c0003fca:	66 90                	xchg   %ax,%ax
c0003fcc:	66 90                	xchg   %ax,%ax
c0003fce:	66 90                	xchg   %ax,%ax
c0003fd0:	66 90                	xchg   %ax,%ax
c0003fd2:	66 90                	xchg   %ax,%ax
c0003fd4:	66 90                	xchg   %ax,%ax
c0003fd6:	66 90                	xchg   %ax,%ax
c0003fd8:	66 90                	xchg   %ax,%ax
c0003fda:	66 90                	xchg   %ax,%ax
c0003fdc:	66 90                	xchg   %ax,%ax
c0003fde:	66 90                	xchg   %ax,%ax
c0003fe0:	66 90                	xchg   %ax,%ax
c0003fe2:	66 90                	xchg   %ax,%ax
c0003fe4:	66 90                	xchg   %ax,%ax
c0003fe6:	66 90                	xchg   %ax,%ax
c0003fe8:	66 90                	xchg   %ax,%ax
c0003fea:	66 90                	xchg   %ax,%ax
c0003fec:	66 90                	xchg   %ax,%ax
c0003fee:	66 90                	xchg   %ax,%ax
c0003ff0:	66 90                	xchg   %ax,%ax
c0003ff2:	66 90                	xchg   %ax,%ax
c0003ff4:	66 90                	xchg   %ax,%ax
c0003ff6:	66 90                	xchg   %ax,%ax
c0003ff8:	66 90                	xchg   %ax,%ax
c0003ffa:	66 90                	xchg   %ax,%ax
c0003ffc:	66 90                	xchg   %ax,%ax
c0003ffe:	66 90                	xchg   %ax,%ax

Disassembly of section .eh_frame:

c0004000 <.eh_frame>:
c0004000:	14 00                	adc    $0x0,%al
c0004002:	00 00                	add    %al,(%eax)
c0004004:	00 00                	add    %al,(%eax)
c0004006:	00 00                	add    %al,(%eax)
c0004008:	01 7a 52             	add    %edi,0x52(%edx)
c000400b:	00 01                	add    %al,(%ecx)
c000400d:	7c 08                	jl     c0004017 <KERNEL_END_TEXT+0x17>
c000400f:	01 1b                	add    %ebx,(%ebx)
c0004011:	0c 04                	or     $0x4,%al
c0004013:	04 88                	add    $0x88,%al
c0004015:	01 00                	add    %eax,(%eax)
c0004017:	00 1c 00             	add    %bl,(%eax,%eax,1)
c000401a:	00 00                	add    %al,(%eax)
c000401c:	1c 00                	sbb    $0x0,%al
c000401e:	00 00                	add    %al,(%eax)
c0004020:	9e                   	sahf   
c0004021:	c1 ff ff             	sar    $0xff,%edi
c0004024:	1e                   	push   %ds
c0004025:	00 00                	add    %al,(%eax)
c0004027:	00 00                	add    %al,(%eax)
c0004029:	41                   	inc    %ecx
c000402a:	0e                   	push   %cs
c000402b:	08 85 02 42 0d 05    	or     %al,0x50d4202(%ebp)
c0004031:	5a                   	pop    %edx
c0004032:	c5 0c 04             	lds    (%esp,%eax,1),%ecx
c0004035:	04 00                	add    $0x0,%al
c0004037:	00 1c 00             	add    %bl,(%eax,%eax,1)
c000403a:	00 00                	add    %al,(%eax)
c000403c:	3c 00                	cmp    $0x0,%al
c000403e:	00 00                	add    %al,(%eax)
c0004040:	9c                   	pushf  
c0004041:	c1 ff ff             	sar    $0xff,%edi
c0004044:	4e                   	dec    %esi
c0004045:	00 00                	add    %al,(%eax)
c0004047:	00 00                	add    %al,(%eax)
c0004049:	41                   	inc    %ecx
c000404a:	0e                   	push   %cs
c000404b:	08 85 02 42 0d 05    	or     %al,0x50d4202(%ebp)
c0004051:	02 4a c5             	add    -0x3b(%edx),%cl
c0004054:	0c 04                	or     $0x4,%al
c0004056:	04 00                	add    $0x0,%al
c0004058:	1c 00                	sbb    $0x0,%al
c000405a:	00 00                	add    %al,(%eax)
c000405c:	5c                   	pop    %esp
c000405d:	00 00                	add    %al,(%eax)
c000405f:	00 ca                	add    %cl,%dl
c0004061:	c1 ff ff             	sar    $0xff,%edi
c0004064:	49                   	dec    %ecx
c0004065:	00 00                	add    %al,(%eax)
c0004067:	00 00                	add    %al,(%eax)
c0004069:	41                   	inc    %ecx
c000406a:	0e                   	push   %cs
c000406b:	08 85 02 42 0d 05    	or     %al,0x50d4202(%ebp)
c0004071:	02 45 c5             	add    -0x3b(%ebp),%al
c0004074:	0c 04                	or     $0x4,%al
c0004076:	04 00                	add    $0x0,%al
c0004078:	1c 00                	sbb    $0x0,%al
c000407a:	00 00                	add    %al,(%eax)
c000407c:	7c 00                	jl     c000407e <KERNEL_END_TEXT+0x7e>
c000407e:	00 00                	add    %al,(%eax)
c0004080:	f3 c1 ff ff          	repz sar $0xff,%edi
c0004084:	26 00 00             	add    %al,%es:(%eax)
c0004087:	00 00                	add    %al,(%eax)
c0004089:	41                   	inc    %ecx
c000408a:	0e                   	push   %cs
c000408b:	08 85 02 42 0d 05    	or     %al,0x50d4202(%ebp)
c0004091:	62                   	(bad)  
c0004092:	c5 0c 04             	lds    (%esp,%eax,1),%ecx
c0004095:	04 00                	add    $0x0,%al
c0004097:	00 1c 00             	add    %bl,(%eax,%eax,1)
c000409a:	00 00                	add    %al,(%eax)
c000409c:	9c                   	pushf  
c000409d:	00 00                	add    %al,(%eax)
c000409f:	00 f9                	add    %bh,%cl
c00040a1:	c1 ff ff             	sar    $0xff,%edi
c00040a4:	62 00                	bound  %eax,(%eax)
c00040a6:	00 00                	add    %al,(%eax)
c00040a8:	00 41 0e             	add    %al,0xe(%ecx)
c00040ab:	08 85 02 42 0d 05    	or     %al,0x50d4202(%ebp)
c00040b1:	02 5e c5             	add    -0x3b(%esi),%bl
c00040b4:	0c 04                	or     $0x4,%al
c00040b6:	04 00                	add    $0x0,%al
c00040b8:	1c 00                	sbb    $0x0,%al
c00040ba:	00 00                	add    %al,(%eax)
c00040bc:	bc 00 00 00 3b       	mov    $0x3b000000,%esp
c00040c1:	c2 ff ff             	ret    $0xffff
c00040c4:	33 00                	xor    (%eax),%eax
c00040c6:	00 00                	add    %al,(%eax)
c00040c8:	00 41 0e             	add    %al,0xe(%ecx)
c00040cb:	08 85 02 42 0d 05    	or     %al,0x50d4202(%ebp)
c00040d1:	6f                   	outsl  %ds:(%esi),(%dx)
c00040d2:	c5 0c 04             	lds    (%esp,%eax,1),%ecx
c00040d5:	04 00                	add    $0x0,%al
c00040d7:	00 1c 00             	add    %bl,(%eax,%eax,1)
c00040da:	00 00                	add    %al,(%eax)
c00040dc:	dc 00                	faddl  (%eax)
c00040de:	00 00                	add    %al,(%eax)
c00040e0:	4e                   	dec    %esi
c00040e1:	c2 ff ff             	ret    $0xffff
c00040e4:	2d 00 00 00 00       	sub    $0x0,%eax
c00040e9:	41                   	inc    %ecx
c00040ea:	0e                   	push   %cs
c00040eb:	08 85 02 42 0d 05    	or     %al,0x50d4202(%ebp)
c00040f1:	69 c5 0c 04 04 00    	imul   $0x4040c,%ebp,%eax
c00040f7:	00 1c 00             	add    %bl,(%eax,%eax,1)
c00040fa:	00 00                	add    %al,(%eax)
c00040fc:	fc                   	cld    
c00040fd:	00 00                	add    %al,(%eax)
c00040ff:	00 5b c2             	add    %bl,-0x3e(%ebx)
c0004102:	ff                   	(bad)  
c0004103:	ff 49 00             	decl   0x0(%ecx)
c0004106:	00 00                	add    %al,(%eax)
c0004108:	00 41 0e             	add    %al,0xe(%ecx)
c000410b:	08 85 02 42 0d 05    	or     %al,0x50d4202(%ebp)
c0004111:	02 45 c5             	add    -0x3b(%ebp),%al
c0004114:	0c 04                	or     $0x4,%al
c0004116:	04 00                	add    $0x0,%al
c0004118:	1c 00                	sbb    $0x0,%al
c000411a:	00 00                	add    %al,(%eax)
c000411c:	1c 01                	sbb    $0x1,%al
c000411e:	00 00                	add    %al,(%eax)
c0004120:	84 c2                	test   %al,%dl
c0004122:	ff                   	(bad)  
c0004123:	ff 22                	jmp    *(%edx)
c0004125:	00 00                	add    %al,(%eax)
c0004127:	00 00                	add    %al,(%eax)
c0004129:	41                   	inc    %ecx
c000412a:	0e                   	push   %cs
c000412b:	08 85 02 42 0d 05    	or     %al,0x50d4202(%ebp)
c0004131:	5e                   	pop    %esi
c0004132:	c5 0c 04             	lds    (%esp,%eax,1),%ecx
c0004135:	04 00                	add    $0x0,%al
c0004137:	00 1c 00             	add    %bl,(%eax,%eax,1)
c000413a:	00 00                	add    %al,(%eax)
c000413c:	3c 01                	cmp    $0x1,%al
c000413e:	00 00                	add    %al,(%eax)
c0004140:	86 c2                	xchg   %al,%dl
c0004142:	ff                   	(bad)  
c0004143:	ff 82 00 00 00 00    	incl   0x0(%edx)
c0004149:	41                   	inc    %ecx
c000414a:	0e                   	push   %cs
c000414b:	08 85 02 42 0d 05    	or     %al,0x50d4202(%ebp)
c0004151:	02 7e c5             	add    -0x3b(%esi),%bh
c0004154:	0c 04                	or     $0x4,%al
c0004156:	04 00                	add    $0x0,%al
c0004158:	1c 00                	sbb    $0x0,%al
c000415a:	00 00                	add    %al,(%eax)
c000415c:	5c                   	pop    %esp
c000415d:	01 00                	add    %eax,(%eax)
c000415f:	00 e8                	add    %ch,%al
c0004161:	c2 ff ff             	ret    $0xffff
c0004164:	23 00                	and    (%eax),%eax
c0004166:	00 00                	add    %al,(%eax)
c0004168:	00 41 0e             	add    %al,0xe(%ecx)
c000416b:	08 85 02 42 0d 05    	or     %al,0x50d4202(%ebp)
c0004171:	5f                   	pop    %edi
c0004172:	c5 0c 04             	lds    (%esp,%eax,1),%ecx
c0004175:	04 00                	add    $0x0,%al
c0004177:	00 1c 00             	add    %bl,(%eax,%eax,1)
c000417a:	00 00                	add    %al,(%eax)
c000417c:	7c 01                	jl     c000417f <KERNEL_END_TEXT+0x17f>
c000417e:	00 00                	add    %al,(%eax)
c0004180:	eb c2                	jmp    c0004144 <KERNEL_END_TEXT+0x144>
c0004182:	ff                   	(bad)  
c0004183:	ff 6e 01             	ljmp   *0x1(%esi)
c0004186:	00 00                	add    %al,(%eax)
c0004188:	00 41 0e             	add    %al,0xe(%ecx)
c000418b:	08 85 02 42 0d 05    	or     %al,0x50d4202(%ebp)
c0004191:	03 6a 01             	add    0x1(%edx),%ebp
c0004194:	c5 0c 04             	lds    (%esp,%eax,1),%ecx
c0004197:	04 1c                	add    $0x1c,%al
c0004199:	00 00                	add    %al,(%eax)
c000419b:	00 9c 01 00 00 39 c4 	add    %bl,-0x3bc70000(%ecx,%eax,1)
c00041a2:	ff                   	(bad)  
c00041a3:	ff                   	(bad)  
c00041a4:	ff 01                	incl   (%ecx)
c00041a6:	00 00                	add    %al,(%eax)
c00041a8:	00 41 0e             	add    %al,0xe(%ecx)
c00041ab:	08 85 02 42 0d 05    	or     %al,0x50d4202(%ebp)
c00041b1:	03 fb                	add    %ebx,%edi
c00041b3:	01 c5                	add    %eax,%ebp
c00041b5:	0c 04                	or     $0x4,%al
c00041b7:	04 1c                	add    $0x1c,%al
c00041b9:	00 00                	add    %al,(%eax)
c00041bb:	00 bc 01 00 00 18 c6 	add    %bh,-0x39e80000(%ecx,%eax,1)
c00041c2:	ff                   	(bad)  
c00041c3:	ff 1d 00 00 00 00    	lcall  *0x0
c00041c9:	41                   	inc    %ecx
c00041ca:	0e                   	push   %cs
c00041cb:	08 85 02 42 0d 05    	or     %al,0x50d4202(%ebp)
c00041d1:	59                   	pop    %ecx
c00041d2:	c5 0c 04             	lds    (%esp,%eax,1),%ecx
c00041d5:	04 00                	add    $0x0,%al
c00041d7:	00 1c 00             	add    %bl,(%eax,%eax,1)
c00041da:	00 00                	add    %al,(%eax)
c00041dc:	dc 01                	faddl  (%ecx)
c00041de:	00 00                	add    %al,(%eax)
c00041e0:	15 c6 ff ff 1e       	adc    $0x1effffc6,%eax
c00041e5:	00 00                	add    %al,(%eax)
c00041e7:	00 00                	add    %al,(%eax)
c00041e9:	41                   	inc    %ecx
c00041ea:	0e                   	push   %cs
c00041eb:	08 85 02 42 0d 05    	or     %al,0x50d4202(%ebp)
c00041f1:	5a                   	pop    %edx
c00041f2:	c5 0c 04             	lds    (%esp,%eax,1),%ecx
c00041f5:	04 00                	add    $0x0,%al
c00041f7:	00 1c 00             	add    %bl,(%eax,%eax,1)
c00041fa:	00 00                	add    %al,(%eax)
c00041fc:	fc                   	cld    
c00041fd:	01 00                	add    %eax,(%eax)
c00041ff:	00 13                	add    %dl,(%ebx)
c0004201:	c6                   	(bad)  
c0004202:	ff                   	(bad)  
c0004203:	ff d0                	call   *%eax
c0004205:	00 00                	add    %al,(%eax)
c0004207:	00 00                	add    %al,(%eax)
c0004209:	41                   	inc    %ecx
c000420a:	0e                   	push   %cs
c000420b:	08 85 02 42 0d 05    	or     %al,0x50d4202(%ebp)
c0004211:	02 cc                	add    %ah,%cl
c0004213:	c5 0c 04             	lds    (%esp,%eax,1),%ecx
c0004216:	04 00                	add    $0x0,%al
c0004218:	1c 00                	sbb    $0x0,%al
c000421a:	00 00                	add    %al,(%eax)
c000421c:	1c 02                	sbb    $0x2,%al
c000421e:	00 00                	add    %al,(%eax)
c0004220:	c3                   	ret    
c0004221:	c6                   	(bad)  
c0004222:	ff                   	(bad)  
c0004223:	ff 71 00             	pushl  0x0(%ecx)
c0004226:	00 00                	add    %al,(%eax)
c0004228:	00 41 0e             	add    %al,0xe(%ecx)
c000422b:	08 85 02 42 0d 05    	or     %al,0x50d4202(%ebp)
c0004231:	02 6d c5             	add    -0x3b(%ebp),%ch
c0004234:	0c 04                	or     $0x4,%al
c0004236:	04 00                	add    $0x0,%al
c0004238:	1c 00                	sbb    $0x0,%al
c000423a:	00 00                	add    %al,(%eax)
c000423c:	3c 02                	cmp    $0x2,%al
c000423e:	00 00                	add    %al,(%eax)
c0004240:	14 c7                	adc    $0xc7,%al
c0004242:	ff                   	(bad)  
c0004243:	ff 27                	jmp    *(%edi)
c0004245:	00 00                	add    %al,(%eax)
c0004247:	00 00                	add    %al,(%eax)
c0004249:	41                   	inc    %ecx
c000424a:	0e                   	push   %cs
c000424b:	08 85 02 42 0d 05    	or     %al,0x50d4202(%ebp)
c0004251:	63 c5                	arpl   %ax,%bp
c0004253:	0c 04                	or     $0x4,%al
c0004255:	04 00                	add    $0x0,%al
c0004257:	00 1c 00             	add    %bl,(%eax,%eax,1)
c000425a:	00 00                	add    %al,(%eax)
c000425c:	5c                   	pop    %esp
c000425d:	02 00                	add    (%eax),%al
c000425f:	00 1b                	add    %bl,(%ebx)
c0004261:	c7                   	(bad)  
c0004262:	ff                   	(bad)  
c0004263:	ff 9a 00 00 00 00    	lcall  *0x0(%edx)
c0004269:	41                   	inc    %ecx
c000426a:	0e                   	push   %cs
c000426b:	08 85 02 42 0d 05    	or     %al,0x50d4202(%ebp)
c0004271:	02 96 c5 0c 04 04    	add    0x4040cc5(%esi),%dl
c0004277:	00 1c 00             	add    %bl,(%eax,%eax,1)
c000427a:	00 00                	add    %al,(%eax)
c000427c:	7c 02                	jl     c0004280 <KERNEL_END_TEXT+0x280>
c000427e:	00 00                	add    %al,(%eax)
c0004280:	95                   	xchg   %eax,%ebp
c0004281:	c7                   	(bad)  
c0004282:	ff                   	(bad)  
c0004283:	ff                   	(bad)  
c0004284:	79 05                	jns    c000428b <KERNEL_END_TEXT+0x28b>
c0004286:	00 00                	add    %al,(%eax)
c0004288:	00 41 0e             	add    %al,0xe(%ecx)
c000428b:	08 85 02 42 0d 05    	or     %al,0x50d4202(%ebp)
c0004291:	03 75 05             	add    0x5(%ebp),%esi
c0004294:	c5 0c 04             	lds    (%esp,%eax,1),%ecx
c0004297:	04 1c                	add    $0x1c,%al
c0004299:	00 00                	add    %al,(%eax)
c000429b:	00 9c 02 00 00 ee cc 	add    %bl,-0x33120000(%edx,%eax,1)
c00042a2:	ff                   	(bad)  
c00042a3:	ff 1d 00 00 00 00    	lcall  *0x0
c00042a9:	41                   	inc    %ecx
c00042aa:	0e                   	push   %cs
c00042ab:	08 85 02 42 0d 05    	or     %al,0x50d4202(%ebp)
c00042b1:	59                   	pop    %ecx
c00042b2:	c5 0c 04             	lds    (%esp,%eax,1),%ecx
c00042b5:	04 00                	add    $0x0,%al
c00042b7:	00 1c 00             	add    %bl,(%eax,%eax,1)
c00042ba:	00 00                	add    %al,(%eax)
c00042bc:	bc 02 00 00 eb       	mov    $0xeb000002,%esp
c00042c1:	cc                   	int3   
c00042c2:	ff                   	(bad)  
c00042c3:	ff 1e                	lcall  *(%esi)
c00042c5:	00 00                	add    %al,(%eax)
c00042c7:	00 00                	add    %al,(%eax)
c00042c9:	41                   	inc    %ecx
c00042ca:	0e                   	push   %cs
c00042cb:	08 85 02 42 0d 05    	or     %al,0x50d4202(%ebp)
c00042d1:	5a                   	pop    %edx
c00042d2:	c5 0c 04             	lds    (%esp,%eax,1),%ecx
c00042d5:	04 00                	add    $0x0,%al
c00042d7:	00 1c 00             	add    %bl,(%eax,%eax,1)
c00042da:	00 00                	add    %al,(%eax)
c00042dc:	dc 02                	faddl  (%edx)
c00042de:	00 00                	add    %al,(%eax)
c00042e0:	e9 cc ff ff a6       	jmp    670042b1 <PHYSICAL_KERNEL_START+0x66f042b1>
c00042e5:	00 00                	add    %al,(%eax)
c00042e7:	00 00                	add    %al,(%eax)
c00042e9:	41                   	inc    %ecx
c00042ea:	0e                   	push   %cs
c00042eb:	08 85 02 42 0d 05    	or     %al,0x50d4202(%ebp)
c00042f1:	02 a2 c5 0c 04 04    	add    0x4040cc5(%edx),%ah
c00042f7:	00 1c 00             	add    %bl,(%eax,%eax,1)
c00042fa:	00 00                	add    %al,(%eax)
c00042fc:	fc                   	cld    
c00042fd:	02 00                	add    (%eax),%al
c00042ff:	00 6f cd             	add    %ch,-0x33(%edi)
c0004302:	ff                   	(bad)  
c0004303:	ff                   	(bad)  
c0004304:	b8 00 00 00 00       	mov    $0x0,%eax
c0004309:	41                   	inc    %ecx
c000430a:	0e                   	push   %cs
c000430b:	08 85 02 42 0d 05    	or     %al,0x50d4202(%ebp)
c0004311:	02 b4 c5 0c 04 04 00 	add    0x4040c(%ebp,%eax,8),%dh
c0004318:	1c 00                	sbb    $0x0,%al
c000431a:	00 00                	add    %al,(%eax)
c000431c:	1c 03                	sbb    $0x3,%al
c000431e:	00 00                	add    %al,(%eax)
c0004320:	07                   	pop    %es
c0004321:	ce                   	into   
c0004322:	ff                   	(bad)  
c0004323:	ff                   	(bad)  
c0004324:	bc 00 00 00 00       	mov    $0x0,%esp
c0004329:	41                   	inc    %ecx
c000432a:	0e                   	push   %cs
c000432b:	08 85 02 42 0d 05    	or     %al,0x50d4202(%ebp)
c0004331:	02 b8 c5 0c 04 04    	add    0x4040cc5(%eax),%bh
c0004337:	00 1c 00             	add    %bl,(%eax,%eax,1)
c000433a:	00 00                	add    %al,(%eax)
c000433c:	3c 03                	cmp    $0x3,%al
c000433e:	00 00                	add    %al,(%eax)
c0004340:	a3 ce ff ff 70       	mov    %eax,0x70ffffce
c0004345:	00 00                	add    %al,(%eax)
c0004347:	00 00                	add    %al,(%eax)
c0004349:	41                   	inc    %ecx
c000434a:	0e                   	push   %cs
c000434b:	08 85 02 42 0d 05    	or     %al,0x50d4202(%ebp)
c0004351:	02 6c c5 0c          	add    0xc(%ebp,%eax,8),%ch
c0004355:	04 04                	add    $0x4,%al
c0004357:	00 1c 00             	add    %bl,(%eax,%eax,1)
c000435a:	00 00                	add    %al,(%eax)
c000435c:	5c                   	pop    %esp
c000435d:	03 00                	add    (%eax),%eax
c000435f:	00 f3                	add    %dh,%bl
c0004361:	ce                   	into   
c0004362:	ff                   	(bad)  
c0004363:	ff                   	(bad)  
c0004364:	3b 00                	cmp    (%eax),%eax
c0004366:	00 00                	add    %al,(%eax)
c0004368:	00 41 0e             	add    %al,0xe(%ecx)
c000436b:	08 85 02 42 0d 05    	or     %al,0x50d4202(%ebp)
c0004371:	77 c5                	ja     c0004338 <KERNEL_END_TEXT+0x338>
c0004373:	0c 04                	or     $0x4,%al
c0004375:	04 00                	add    $0x0,%al
c0004377:	00 18                	add    %bl,(%eax)
c0004379:	00 00                	add    %al,(%eax)
c000437b:	00 7c 03 00          	add    %bh,0x0(%ebx,%eax,1)
c000437f:	00 0e                	add    %cl,(%esi)
c0004381:	cf                   	iret   
c0004382:	ff                   	(bad)  
c0004383:	ff 29                	ljmp   *(%ecx)
c0004385:	01 00                	add    %eax,(%eax)
c0004387:	00 00                	add    %al,(%eax)
c0004389:	41                   	inc    %ecx
c000438a:	0e                   	push   %cs
c000438b:	08 85 02 42 0d 05    	or     %al,0x50d4202(%ebp)
c0004391:	00 00                	add    %al,(%eax)
c0004393:	00 1c 00             	add    %bl,(%eax,%eax,1)
c0004396:	00 00                	add    %al,(%eax)
c0004398:	98                   	cwtl   
c0004399:	03 00                	add    (%eax),%eax
c000439b:	00 1b                	add    %bl,(%ebx)
c000439d:	d0 ff                	sar    %bh
c000439f:	ff 50 00             	call   *0x0(%eax)
c00043a2:	00 00                	add    %al,(%eax)
c00043a4:	00 41 0e             	add    %al,0xe(%ecx)
c00043a7:	08 85 02 42 0d 05    	or     %al,0x50d4202(%ebp)
c00043ad:	02 4c c5 0c          	add    0xc(%ebp,%eax,8),%cl
c00043b1:	04 04                	add    $0x4,%al
c00043b3:	00 1c 00             	add    %bl,(%eax,%eax,1)
c00043b6:	00 00                	add    %al,(%eax)
c00043b8:	b8 03 00 00 4b       	mov    $0x4b000003,%eax
c00043bd:	d0 ff                	sar    %bh
c00043bf:	ff 50 00             	call   *0x0(%eax)
c00043c2:	00 00                	add    %al,(%eax)
c00043c4:	00 41 0e             	add    %al,0xe(%ecx)
c00043c7:	08 85 02 42 0d 05    	or     %al,0x50d4202(%ebp)
c00043cd:	02 4c c5 0c          	add    0xc(%ebp,%eax,8),%cl
c00043d1:	04 04                	add    $0x4,%al
c00043d3:	00 1c 00             	add    %bl,(%eax,%eax,1)
c00043d6:	00 00                	add    %al,(%eax)
c00043d8:	d8 03                	fadds  (%ebx)
c00043da:	00 00                	add    %al,(%eax)
c00043dc:	7b d0                	jnp    c00043ae <KERNEL_END_TEXT+0x3ae>
c00043de:	ff                   	(bad)  
c00043df:	ff 21                	jmp    *(%ecx)
c00043e1:	00 00                	add    %al,(%eax)
c00043e3:	00 00                	add    %al,(%eax)
c00043e5:	41                   	inc    %ecx
c00043e6:	0e                   	push   %cs
c00043e7:	08 85 02 42 0d 05    	or     %al,0x50d4202(%ebp)
c00043ed:	5d                   	pop    %ebp
c00043ee:	c5 0c 04             	lds    (%esp,%eax,1),%ecx
c00043f1:	04 00                	add    $0x0,%al
c00043f3:	00 20                	add    %ah,(%eax)
c00043f5:	00 00                	add    %al,(%eax)
c00043f7:	00 f8                	add    %bh,%al
c00043f9:	03 00                	add    (%eax),%eax
c00043fb:	00 7c d0 ff          	add    %bh,-0x1(%eax,%edx,8)
c00043ff:	ff                   	(bad)  
c0004400:	dc 00                	faddl  (%eax)
c0004402:	00 00                	add    %al,(%eax)
c0004404:	00 41 0e             	add    %al,0xe(%ecx)
c0004407:	08 85 02 42 0d 05    	or     %al,0x50d4202(%ebp)
c000440d:	44                   	inc    %esp
c000440e:	83 03 02             	addl   $0x2,(%ebx)
c0004411:	d3 c3                	rol    %cl,%ebx
c0004413:	41                   	inc    %ecx
c0004414:	c5 0c 04             	lds    (%esp,%eax,1),%ecx
c0004417:	04 1c                	add    $0x1c,%al
c0004419:	00 00                	add    %al,(%eax)
c000441b:	00 1c 04             	add    %bl,(%esp,%eax,1)
c000441e:	00 00                	add    %al,(%eax)
c0004420:	34 d1                	xor    $0xd1,%al
c0004422:	ff                   	(bad)  
c0004423:	ff a1 00 00 00 00    	jmp    *0x0(%ecx)
c0004429:	41                   	inc    %ecx
c000442a:	0e                   	push   %cs
c000442b:	08 85 02 42 0d 05    	or     %al,0x50d4202(%ebp)
c0004431:	02 9d c5 0c 04 04    	add    0x4040cc5(%ebp),%bl
c0004437:	00 20                	add    %ah,(%eax)
c0004439:	00 00                	add    %al,(%eax)
c000443b:	00 3c 04             	add    %bh,(%esp,%eax,1)
c000443e:	00 00                	add    %al,(%eax)
c0004440:	b5 d1                	mov    $0xd1,%ch
c0004442:	ff                   	(bad)  
c0004443:	ff                   	(bad)  
c0004444:	ff 00                	incl   (%eax)
c0004446:	00 00                	add    %al,(%eax)
c0004448:	00 41 0e             	add    %al,0xe(%ecx)
c000444b:	08 85 02 42 0d 05    	or     %al,0x50d4202(%ebp)
c0004451:	44                   	inc    %esp
c0004452:	83 03 02             	addl   $0x2,(%ebx)
c0004455:	f6 c3 41             	test   $0x41,%bl
c0004458:	c5 0c 04             	lds    (%esp,%eax,1),%ecx
c000445b:	04 1c                	add    $0x1c,%al
c000445d:	00 00                	add    %al,(%eax)
c000445f:	00 60 04             	add    %ah,0x4(%eax)
c0004462:	00 00                	add    %al,(%eax)
c0004464:	90                   	nop
c0004465:	d2 ff                	sar    %cl,%bh
c0004467:	ff 09                	decl   (%ecx)
c0004469:	00 00                	add    %al,(%eax)
c000446b:	00 00                	add    %al,(%eax)
c000446d:	41                   	inc    %ecx
c000446e:	0e                   	push   %cs
c000446f:	08 85 02 42 0d 05    	or     %al,0x50d4202(%ebp)
c0004475:	45                   	inc    %ebp
c0004476:	c5 0c 04             	lds    (%esp,%eax,1),%ecx
c0004479:	04 00                	add    $0x0,%al
c000447b:	00 1c 00             	add    %bl,(%eax,%eax,1)
c000447e:	00 00                	add    %al,(%eax)
c0004480:	80 04 00 00          	addb   $0x0,(%eax,%eax,1)
c0004484:	79 d2                	jns    c0004458 <KERNEL_END_TEXT+0x458>
c0004486:	ff                   	(bad)  
c0004487:	ff 0b                	decl   (%ebx)
c0004489:	00 00                	add    %al,(%eax)
c000448b:	00 00                	add    %al,(%eax)
c000448d:	41                   	inc    %ecx
c000448e:	0e                   	push   %cs
c000448f:	08 85 02 42 0d 05    	or     %al,0x50d4202(%ebp)
c0004495:	47                   	inc    %edi
c0004496:	c5 0c 04             	lds    (%esp,%eax,1),%ecx
c0004499:	04 00                	add    $0x0,%al
c000449b:	00 1c 00             	add    %bl,(%eax,%eax,1)
c000449e:	00 00                	add    %al,(%eax)
c00044a0:	a0 04 00 00 64       	mov    0x64000004,%al
c00044a5:	d2 ff                	sar    %cl,%bh
c00044a7:	ff 4d 00             	decl   0x0(%ebp)
c00044aa:	00 00                	add    %al,(%eax)
c00044ac:	00 41 0e             	add    %al,0xe(%ecx)
c00044af:	08 85 02 42 0d 05    	or     %al,0x50d4202(%ebp)
c00044b5:	02 49 c5             	add    -0x3b(%ecx),%cl
c00044b8:	0c 04                	or     $0x4,%al
c00044ba:	04 00                	add    $0x0,%al
c00044bc:	1c 00                	sbb    $0x0,%al
c00044be:	00 00                	add    %al,(%eax)
c00044c0:	c0 04 00 00          	rolb   $0x0,(%eax,%eax,1)
c00044c4:	91                   	xchg   %eax,%ecx
c00044c5:	d2 ff                	sar    %cl,%bh
c00044c7:	ff                   	(bad)  
c00044c8:	39 00                	cmp    %eax,(%eax)
c00044ca:	00 00                	add    %al,(%eax)
c00044cc:	00 41 0e             	add    %al,0xe(%ecx)
c00044cf:	08 85 02 42 0d 05    	or     %al,0x50d4202(%ebp)
c00044d5:	75 c5                	jne    c000449c <KERNEL_END_TEXT+0x49c>
c00044d7:	0c 04                	or     $0x4,%al
c00044d9:	04 00                	add    $0x0,%al
c00044db:	00 1c 00             	add    %bl,(%eax,%eax,1)
c00044de:	00 00                	add    %al,(%eax)
c00044e0:	e0 04                	loopne c00044e6 <KERNEL_END_TEXT+0x4e6>
c00044e2:	00 00                	add    %al,(%eax)
c00044e4:	aa                   	stos   %al,%es:(%edi)
c00044e5:	d2 ff                	sar    %cl,%bh
c00044e7:	ff 4c 00 00          	decl   0x0(%eax,%eax,1)
c00044eb:	00 00                	add    %al,(%eax)
c00044ed:	41                   	inc    %ecx
c00044ee:	0e                   	push   %cs
c00044ef:	08 85 02 42 0d 05    	or     %al,0x50d4202(%ebp)
c00044f5:	02 48 c5             	add    -0x3b(%eax),%cl
c00044f8:	0c 04                	or     $0x4,%al
c00044fa:	04 00                	add    $0x0,%al
c00044fc:	1c 00                	sbb    $0x0,%al
c00044fe:	00 00                	add    %al,(%eax)
c0004500:	00 05 00 00 d6 d2    	add    %al,0xd2d60000
c0004506:	ff                   	(bad)  
c0004507:	ff 27                	jmp    *(%edi)
c0004509:	01 00                	add    %eax,(%eax)
c000450b:	00 00                	add    %al,(%eax)
c000450d:	41                   	inc    %ecx
c000450e:	0e                   	push   %cs
c000450f:	08 85 02 42 0d 05    	or     %al,0x50d4202(%ebp)
c0004515:	03 23                	add    (%ebx),%esp
c0004517:	01 c5                	add    %eax,%ebp
c0004519:	0c 04                	or     $0x4,%al
c000451b:	04 1c                	add    $0x1c,%al
c000451d:	00 00                	add    %al,(%eax)
c000451f:	00 20                	add    %ah,(%eax)
c0004521:	05 00 00 dd d3       	add    $0xd3dd0000,%eax
c0004526:	ff                   	(bad)  
c0004527:	ff 56 00             	call   *0x0(%esi)
c000452a:	00 00                	add    %al,(%eax)
c000452c:	00 41 0e             	add    %al,0xe(%ecx)
c000452f:	08 85 02 42 0d 05    	or     %al,0x50d4202(%ebp)
c0004535:	02 52 c5             	add    -0x3b(%edx),%dl
c0004538:	0c 04                	or     $0x4,%al
c000453a:	04 00                	add    $0x0,%al
c000453c:	1c 00                	sbb    $0x0,%al
c000453e:	00 00                	add    %al,(%eax)
c0004540:	40                   	inc    %eax
c0004541:	05 00 00 13 d4       	add    $0xd4130000,%eax
c0004546:	ff                   	(bad)  
c0004547:	ff                   	(bad)  
c0004548:	df 00                	fild   (%eax)
c000454a:	00 00                	add    %al,(%eax)
c000454c:	00 41 0e             	add    %al,0xe(%ecx)
c000454f:	08 85 02 42 0d 05    	or     %al,0x50d4202(%ebp)
c0004555:	02 db                	add    %bl,%bl
c0004557:	c5 0c 04             	lds    (%esp,%eax,1),%ecx
c000455a:	04 00                	add    $0x0,%al
c000455c:	1c 00                	sbb    $0x0,%al
c000455e:	00 00                	add    %al,(%eax)
c0004560:	60                   	pusha  
c0004561:	05 00 00 d2 d4       	add    $0xd4d20000,%eax
c0004566:	ff                   	(bad)  
c0004567:	ff 83 00 00 00 00    	incl   0x0(%ebx)
c000456d:	41                   	inc    %ecx
c000456e:	0e                   	push   %cs
c000456f:	08 85 02 42 0d 05    	or     %al,0x50d4202(%ebp)
c0004575:	02 7f c5             	add    -0x3b(%edi),%bh
c0004578:	0c 04                	or     $0x4,%al
c000457a:	04 00                	add    $0x0,%al
c000457c:	1c 00                	sbb    $0x0,%al
c000457e:	00 00                	add    %al,(%eax)
c0004580:	80 05 00 00 35 d5 ff 	addb   $0xff,0xd5350000
c0004587:	ff 1e                	lcall  *(%esi)
c0004589:	00 00                	add    %al,(%eax)
c000458b:	00 00                	add    %al,(%eax)
c000458d:	41                   	inc    %ecx
c000458e:	0e                   	push   %cs
c000458f:	08 85 02 42 0d 05    	or     %al,0x50d4202(%ebp)
c0004595:	5a                   	pop    %edx
c0004596:	c5 0c 04             	lds    (%esp,%eax,1),%ecx
c0004599:	04 00                	add    $0x0,%al
c000459b:	00 20                	add    %ah,(%eax)
c000459d:	00 00                	add    %al,(%eax)
c000459f:	00 a0 05 00 00 33    	add    %ah,0x33000005(%eax)
c00045a5:	d5 ff                	aad    $0xff
c00045a7:	ff 24 00             	jmp    *(%eax,%eax,1)
c00045aa:	00 00                	add    %al,(%eax)
c00045ac:	00 41 0e             	add    %al,0xe(%ecx)
c00045af:	08 85 02 42 0d 05    	or     %al,0x50d4202(%ebp)
c00045b5:	44                   	inc    %esp
c00045b6:	87 03                	xchg   %eax,(%ebx)
c00045b8:	5b                   	pop    %ebx
c00045b9:	c7 41 c5 0c 04 04 00 	movl   $0x4040c,-0x3b(%ecx)
c00045c0:	1c 00                	sbb    $0x0,%al
c00045c2:	00 00                	add    %al,(%eax)
c00045c4:	c4 05 00 00 33 d5    	les    0xd5330000,%eax
c00045ca:	ff                   	(bad)  
c00045cb:	ff 86 00 00 00 00    	incl   0x0(%esi)
c00045d1:	41                   	inc    %ecx
c00045d2:	0e                   	push   %cs
c00045d3:	08 85 02 42 0d 05    	or     %al,0x50d4202(%ebp)
c00045d9:	02 82 c5 0c 04 04    	add    0x4040cc5(%edx),%al
c00045df:	00 1c 00             	add    %bl,(%eax,%eax,1)
c00045e2:	00 00                	add    %al,(%eax)
c00045e4:	e4 05                	in     $0x5,%al
c00045e6:	00 00                	add    %al,(%eax)
c00045e8:	99                   	cltd   
c00045e9:	d5 ff                	aad    $0xff
c00045eb:	ff 18                	lcall  *(%eax)
c00045ed:	00 00                	add    %al,(%eax)
c00045ef:	00 00                	add    %al,(%eax)
c00045f1:	41                   	inc    %ecx
c00045f2:	0e                   	push   %cs
c00045f3:	08 85 02 42 0d 05    	or     %al,0x50d4202(%ebp)
c00045f9:	54                   	push   %esp
c00045fa:	c5 0c 04             	lds    (%esp,%eax,1),%ecx
c00045fd:	04 00                	add    $0x0,%al
c00045ff:	00 1c 00             	add    %bl,(%eax,%eax,1)
c0004602:	00 00                	add    %al,(%eax)
c0004604:	04 06                	add    $0x6,%al
c0004606:	00 00                	add    %al,(%eax)
c0004608:	91                   	xchg   %eax,%ecx
c0004609:	d5 ff                	aad    $0xff
c000460b:	ff 85 00 00 00 00    	incl   0x0(%ebp)
c0004611:	41                   	inc    %ecx
c0004612:	0e                   	push   %cs
c0004613:	08 85 02 42 0d 05    	or     %al,0x50d4202(%ebp)
c0004619:	02 81 c5 0c 04 04    	add    0x4040cc5(%ecx),%al
c000461f:	00 20                	add    %ah,(%eax)
c0004621:	00 00                	add    %al,(%eax)
c0004623:	00 24 06             	add    %ah,(%esi,%eax,1)
c0004626:	00 00                	add    %al,(%eax)
c0004628:	f6 d5                	not    %ch
c000462a:	ff                   	(bad)  
c000462b:	ff                   	(bad)  
c000462c:	de 00                	fiadd  (%eax)
c000462e:	00 00                	add    %al,(%eax)
c0004630:	00 41 0e             	add    %al,0xe(%ecx)
c0004633:	08 85 02 42 0d 05    	or     %al,0x50d4202(%ebp)
c0004639:	44                   	inc    %esp
c000463a:	83 03 02             	addl   $0x2,(%ebx)
c000463d:	d5 c3                	aad    $0xc3
c000463f:	41                   	inc    %ecx
c0004640:	c5 0c 04             	lds    (%esp,%eax,1),%ecx
c0004643:	04 1c                	add    $0x1c,%al
c0004645:	00 00                	add    %al,(%eax)
c0004647:	00 48 06             	add    %cl,0x6(%eax)
c000464a:	00 00                	add    %al,(%eax)
c000464c:	b0 d6                	mov    $0xd6,%al
c000464e:	ff                   	(bad)  
c000464f:	ff 58 00             	lcall  *0x0(%eax)
c0004652:	00 00                	add    %al,(%eax)
c0004654:	00 41 0e             	add    %al,0xe(%ecx)
c0004657:	08 85 02 42 0d 05    	or     %al,0x50d4202(%ebp)
c000465d:	02 54 c5 0c          	add    0xc(%ebp,%eax,8),%dl
c0004661:	04 04                	add    $0x4,%al
c0004663:	00 24 00             	add    %ah,(%eax,%eax,1)
c0004666:	00 00                	add    %al,(%eax)
c0004668:	68 06 00 00 e8       	push   $0xe8000006
c000466d:	d6                   	(bad)  
c000466e:	ff                   	(bad)  
c000466f:	ff a1 01 00 00 00    	jmp    *0x1(%ecx)
c0004675:	41                   	inc    %ecx
c0004676:	0e                   	push   %cs
c0004677:	08 85 02 42 0d 05    	or     %al,0x50d4202(%ebp)
c000467d:	44                   	inc    %esp
c000467e:	83 03 03             	addl   $0x3,(%ebx)
c0004681:	98                   	cwtl   
c0004682:	01 c3                	add    %eax,%ebx
c0004684:	41                   	inc    %ecx
c0004685:	c5 0c 04             	lds    (%esp,%eax,1),%ecx
c0004688:	04 00                	add    $0x0,%al
c000468a:	00 00                	add    %al,(%eax)
c000468c:	1c 00                	sbb    $0x0,%al
c000468e:	00 00                	add    %al,(%eax)
c0004690:	90                   	nop
c0004691:	06                   	push   %es
c0004692:	00 00                	add    %al,(%eax)
c0004694:	61                   	popa   
c0004695:	d8 ff                	fdivr  %st(7),%st
c0004697:	ff 17                	call   *(%edi)
c0004699:	00 00                	add    %al,(%eax)
c000469b:	00 00                	add    %al,(%eax)
c000469d:	41                   	inc    %ecx
c000469e:	0e                   	push   %cs
c000469f:	08 85 02 42 0d 05    	or     %al,0x50d4202(%ebp)
c00046a5:	53                   	push   %ebx
c00046a6:	c5 0c 04             	lds    (%esp,%eax,1),%ecx
c00046a9:	04 00                	add    $0x0,%al
c00046ab:	00 1c 00             	add    %bl,(%eax,%eax,1)
c00046ae:	00 00                	add    %al,(%eax)
c00046b0:	b0 06                	mov    $0x6,%al
c00046b2:	00 00                	add    %al,(%eax)
c00046b4:	58                   	pop    %eax
c00046b5:	d8 ff                	fdivr  %st(7),%st
c00046b7:	ff 35 00 00 00 00    	pushl  0x0
c00046bd:	41                   	inc    %ecx
c00046be:	0e                   	push   %cs
c00046bf:	08 85 02 42 0d 05    	or     %al,0x50d4202(%ebp)
c00046c5:	71 c5                	jno    c000468c <KERNEL_END_TEXT+0x68c>
c00046c7:	0c 04                	or     $0x4,%al
c00046c9:	04 00                	add    $0x0,%al
c00046cb:	00 1c 00             	add    %bl,(%eax,%eax,1)
c00046ce:	00 00                	add    %al,(%eax)
c00046d0:	d0 06                	rolb   (%esi)
c00046d2:	00 00                	add    %al,(%eax)
c00046d4:	6d                   	insl   (%dx),%es:(%edi)
c00046d5:	d8 ff                	fdivr  %st(7),%st
c00046d7:	ff 42 00             	incl   0x0(%edx)
c00046da:	00 00                	add    %al,(%eax)
c00046dc:	00 41 0e             	add    %al,0xe(%ecx)
c00046df:	08 85 02 42 0d 05    	or     %al,0x50d4202(%ebp)
c00046e5:	7e c5                	jle    c00046ac <KERNEL_END_TEXT+0x6ac>
c00046e7:	0c 04                	or     $0x4,%al
c00046e9:	04 00                	add    $0x0,%al
c00046eb:	00 20                	add    %ah,(%eax)
c00046ed:	00 00                	add    %al,(%eax)
c00046ef:	00 f0                	add    %dh,%al
c00046f1:	06                   	push   %es
c00046f2:	00 00                	add    %al,(%eax)
c00046f4:	8f                   	(bad)  
c00046f5:	d8 ff                	fdivr  %st(7),%st
c00046f7:	ff 5e 00             	lcall  *0x0(%esi)
c00046fa:	00 00                	add    %al,(%eax)
c00046fc:	00 41 0e             	add    %al,0xe(%ecx)
c00046ff:	08 85 02 42 0d 05    	or     %al,0x50d4202(%ebp)
c0004705:	44                   	inc    %esp
c0004706:	83 03 02             	addl   $0x2,(%ebx)
c0004709:	55                   	push   %ebp
c000470a:	c3                   	ret    
c000470b:	41                   	inc    %ecx
c000470c:	c5 0c 04             	lds    (%esp,%eax,1),%ecx
c000470f:	04 1c                	add    $0x1c,%al
c0004711:	00 00                	add    %al,(%eax)
c0004713:	00 14 07             	add    %dl,(%edi,%eax,1)
c0004716:	00 00                	add    %al,(%eax)
c0004718:	c9                   	leave  
c0004719:	d8 ff                	fdivr  %st(7),%st
c000471b:	ff a6 03 00 00 00    	jmp    *0x3(%esi)
c0004721:	41                   	inc    %ecx
c0004722:	0e                   	push   %cs
c0004723:	08 85 02 42 0d 05    	or     %al,0x50d4202(%ebp)
c0004729:	03 a2 03 c5 0c 04    	add    0x40cc503(%edx),%esp
c000472f:	04 1c                	add    $0x1c,%al
c0004731:	00 00                	add    %al,(%eax)
c0004733:	00 34 07             	add    %dh,(%edi,%eax,1)
c0004736:	00 00                	add    %al,(%eax)
c0004738:	4f                   	dec    %edi
c0004739:	dc ff                	fdivr  %st,%st(7)
c000473b:	ff cf                	dec    %edi
c000473d:	05 00 00 00 41       	add    $0x41000000,%eax
c0004742:	0e                   	push   %cs
c0004743:	08 85 02 42 0d 05    	or     %al,0x50d4202(%ebp)
c0004749:	03 cb                	add    %ebx,%ecx
c000474b:	05 c5 0c 04 04       	add    $0x4040cc5,%eax

Disassembly of section .data:

c0004760 <KERNEL_DATA>:
KERNEL_DATA():
c0004760:	00 80 02 c0 50 00    	add    %al,0x50c002(%eax)

c0004764 <crt_width>:
c0004764:	50                   	push   %eax
	...

c0004766 <crt_height>:
c0004766:	19 00                	sbb    %eax,(%eax)
	...

c0004780 <_ctype>:
c0004780:	08 08                	or     %cl,(%eax)
c0004782:	08 08                	or     %cl,(%eax)
c0004784:	08 08                	or     %cl,(%eax)
c0004786:	08 08                	or     %cl,(%eax)
c0004788:	08 28                	or     %ch,(%eax)
c000478a:	28 28                	sub    %ch,(%eax)
c000478c:	28 28                	sub    %ch,(%eax)
c000478e:	08 08                	or     %cl,(%eax)
c0004790:	08 08                	or     %cl,(%eax)
c0004792:	08 08                	or     %cl,(%eax)
c0004794:	08 08                	or     %cl,(%eax)
c0004796:	08 08                	or     %cl,(%eax)
c0004798:	08 08                	or     %cl,(%eax)
c000479a:	08 08                	or     %cl,(%eax)
c000479c:	08 08                	or     %cl,(%eax)
c000479e:	08 08                	or     %cl,(%eax)
c00047a0:	a0 10 10 10 10       	mov    0x10101010,%al
c00047a5:	10 10                	adc    %dl,(%eax)
c00047a7:	10 10                	adc    %dl,(%eax)
c00047a9:	10 10                	adc    %dl,(%eax)
c00047ab:	10 10                	adc    %dl,(%eax)
c00047ad:	10 10                	adc    %dl,(%eax)
c00047af:	10 04 04             	adc    %al,(%esp,%eax,1)
c00047b2:	04 04                	add    $0x4,%al
c00047b4:	04 04                	add    $0x4,%al
c00047b6:	04 04                	add    $0x4,%al
c00047b8:	04 04                	add    $0x4,%al
c00047ba:	10 10                	adc    %dl,(%eax)
c00047bc:	10 10                	adc    %dl,(%eax)
c00047be:	10 10                	adc    %dl,(%eax)
c00047c0:	10 41 41             	adc    %al,0x41(%ecx)
c00047c3:	41                   	inc    %ecx
c00047c4:	41                   	inc    %ecx
c00047c5:	41                   	inc    %ecx
c00047c6:	41                   	inc    %ecx
c00047c7:	01 01                	add    %eax,(%ecx)
c00047c9:	01 01                	add    %eax,(%ecx)
c00047cb:	01 01                	add    %eax,(%ecx)
c00047cd:	01 01                	add    %eax,(%ecx)
c00047cf:	01 01                	add    %eax,(%ecx)
c00047d1:	01 01                	add    %eax,(%ecx)
c00047d3:	01 01                	add    %eax,(%ecx)
c00047d5:	01 01                	add    %eax,(%ecx)
c00047d7:	01 01                	add    %eax,(%ecx)
c00047d9:	01 01                	add    %eax,(%ecx)
c00047db:	10 10                	adc    %dl,(%eax)
c00047dd:	10 10                	adc    %dl,(%eax)
c00047df:	10 10                	adc    %dl,(%eax)
c00047e1:	42                   	inc    %edx
c00047e2:	42                   	inc    %edx
c00047e3:	42                   	inc    %edx
c00047e4:	42                   	inc    %edx
c00047e5:	42                   	inc    %edx
c00047e6:	42                   	inc    %edx
c00047e7:	02 02                	add    (%edx),%al
c00047e9:	02 02                	add    (%edx),%al
c00047eb:	02 02                	add    (%edx),%al
c00047ed:	02 02                	add    (%edx),%al
c00047ef:	02 02                	add    (%edx),%al
c00047f1:	02 02                	add    (%edx),%al
c00047f3:	02 02                	add    (%edx),%al
c00047f5:	02 02                	add    (%edx),%al
c00047f7:	02 02                	add    (%edx),%al
c00047f9:	02 02                	add    (%edx),%al
c00047fb:	10 10                	adc    %dl,(%eax)
c00047fd:	10 10                	adc    %dl,(%eax)
c00047ff:	08 00                	or     %al,(%eax)
	...
c000481d:	00 00                	add    %al,(%eax)
c000481f:	00 a0 10 10 10 10    	add    %ah,0x10101010(%eax)
c0004825:	10 10                	adc    %dl,(%eax)
c0004827:	10 10                	adc    %dl,(%eax)
c0004829:	10 10                	adc    %dl,(%eax)
c000482b:	10 10                	adc    %dl,(%eax)
c000482d:	10 10                	adc    %dl,(%eax)
c000482f:	10 10                	adc    %dl,(%eax)
c0004831:	10 10                	adc    %dl,(%eax)
c0004833:	10 10                	adc    %dl,(%eax)
c0004835:	10 10                	adc    %dl,(%eax)
c0004837:	10 10                	adc    %dl,(%eax)
c0004839:	10 10                	adc    %dl,(%eax)
c000483b:	10 10                	adc    %dl,(%eax)
c000483d:	10 10                	adc    %dl,(%eax)
c000483f:	10 01                	adc    %al,(%ecx)
c0004841:	01 01                	add    %eax,(%ecx)
c0004843:	01 01                	add    %eax,(%ecx)
c0004845:	01 01                	add    %eax,(%ecx)
c0004847:	01 01                	add    %eax,(%ecx)
c0004849:	01 01                	add    %eax,(%ecx)
c000484b:	01 01                	add    %eax,(%ecx)
c000484d:	01 01                	add    %eax,(%ecx)
c000484f:	01 01                	add    %eax,(%ecx)
c0004851:	01 01                	add    %eax,(%ecx)
c0004853:	01 01                	add    %eax,(%ecx)
c0004855:	01 01                	add    %eax,(%ecx)
c0004857:	01 01                	add    %eax,(%ecx)
c0004859:	01 01                	add    %eax,(%ecx)
c000485b:	01 01                	add    %eax,(%ecx)
c000485d:	01 01                	add    %eax,(%ecx)
c000485f:	02 02                	add    (%edx),%al
c0004861:	02 02                	add    (%edx),%al
c0004863:	02 02                	add    (%edx),%al
c0004865:	02 02                	add    (%edx),%al
c0004867:	02 02                	add    (%edx),%al
c0004869:	02 02                	add    (%edx),%al
c000486b:	02 02                	add    (%edx),%al
c000486d:	02 02                	add    (%edx),%al
c000486f:	02 02                	add    (%edx),%al
c0004871:	02 02                	add    (%edx),%al
c0004873:	02 02                	add    (%edx),%al
c0004875:	02 02                	add    (%edx),%al
c0004877:	10 02                	adc    %al,(%edx)
c0004879:	02 02                	add    (%edx),%al
c000487b:	02 02                	add    (%edx),%al
c000487d:	02 02                	add    (%edx),%al
c000487f:	02 00                	add    (%eax),%al
	...

Disassembly of section .bss:

c0005000 <_stack>:
	...

c0015000 <KERNEL_BSS>:
_stack_end():
c0015000:	00 00                	add    %al,(%eax)
	...

c0015004 <vir_cons>:
	...

c001501c <spurious_interrupt_show>:
c001501c:	00 00                	add    %al,(%eax)
	...

c0015020 <code.1172>:
c0015020:	00 00                	add    %al,(%eax)
	...

c0015024 <val.1173>:
	...

c0015040 <interrupt_handlers>:
	...

c0015440 <mask.1129>:
	...

c0015441 <mask.1133>:
c0015441:	00 00                	add    %al,(%eax)
	...

c0015444 <pf_panic>:
	...

c0015460 <idt_ptr>:
	...

c0015480 <idt>:
	...

c0015c80 <gdt>:
	...

c0025c80 <gdt_busy_entry>:
	...

c0027c80 <gdt_ptr>:
	...

c0027c88 <VIRTUAL_KERNEL_END>:
	...

Disassembly of section .comment:

00000000 <.comment>:
   0:	47                   	inc    %edi
   1:	43                   	inc    %ebx
   2:	43                   	inc    %ebx
   3:	3a 20                	cmp    (%eax),%ah
   5:	28 55 62             	sub    %dl,0x62(%ebp)
   8:	75 6e                	jne    78 <PAGE_SIZE-0xf88>
   a:	74 75                	je     81 <PAGE_SIZE-0xf7f>
   c:	20 34 2e             	and    %dh,(%esi,%ebp,1)
   f:	38 2e                	cmp    %ch,(%esi)
  11:	34 2d                	xor    $0x2d,%al
  13:	32 75 62             	xor    0x62(%ebp),%dh
  16:	75 6e                	jne    86 <PAGE_SIZE-0xf7a>
  18:	74 75                	je     8f <PAGE_SIZE-0xf71>
  1a:	31 7e 31             	xor    %edi,0x31(%esi)
  1d:	34 2e                	xor    $0x2e,%al
  1f:	30 34 29             	xor    %dh,(%ecx,%ebp,1)
  22:	20 34 2e             	and    %dh,(%esi,%ebp,1)
  25:	38 2e                	cmp    %ch,(%esi)
  27:	34 00                	xor    $0x0,%al
