
../build/bf_kernel32.elf:     file format elf32-i386
../build/bf_kernel32.elf
architecture: i386, flags 0x00000112:
EXEC_P, HAS_SYMS, D_PAGED
start address 0xc0000000

Program Header:
    LOAD off    0x00001000 vaddr 0xc0000000 paddr 0x00100000 align 2**12
         filesz 0x00006000 memsz 0x00006000 flags r-x
    LOAD off    0x00007000 vaddr 0xc0006000 paddr 0x00106000 align 2**12
         filesz 0x00001000 memsz 0x00001000 flags rw-
    LOAD off    0x00008000 vaddr 0xc0007000 paddr 0x00117000 align 2**12
         filesz 0x00000000 memsz 0x00024000 flags rw-
   STACK off    0x00000000 vaddr 0x00000000 paddr 0x00000000 align 2**2
         filesz 0x00000000 memsz 0x00000000 flags rwx

Sections:
Idx Name          Size      VMA       LMA       File off  Algn
  0 .text         00006000  c0000000  00100000  00001000  2**4
                  CONTENTS, ALLOC, LOAD, READONLY, CODE
  1 .data         00001000  c0006000  00106000  00007000  2**5
                  CONTENTS, ALLOC, LOAD, DATA
  2 .bss          00024000  c0007000  00117000  00008000  2**5
                  ALLOC
  3 .comment      0000002c  00000000  00000000  00008000  2**0
                  CONTENTS, READONLY
SYMBOL TABLE:
c0000000 l    d  .text	00000000 .text
c0006000 l    d  .data	00000000 .data
c0007000 l    d  .bss	00000000 .bss
00000000 l    d  .comment	00000000 .comment
00000000 l    df *ABS*	00000000 assembly/start.asm
c0000002 l       .text	00000000 not_used_space
c000000c l       .text	00000000 entry
c0000013 l       .text	00000000 setup_and_enable_paging
c0000035 l       .text	00000000 Map_I_PTE
c0000056 l       .text	00000000 Map_K_PTE
c000008c l       .text	00000000 paging_enabled
00000000 l    df *ABS*	00000000 assembly/exception_top.asm
c000011d l       .text	00000000 COMMON_EXC
00000000 l    df *ABS*	00000000 assembly/interrupt_top.asm
c0000197 l       .text	00000000 COMMON_ISR
00000000 l    df *ABS*	00000000 clock.c
c00001c0 l     F .text	0000001e outport08
00000000 l    df *ABS*	00000000 console.c
c0017020 l     O .bss	000000f0 vir_cons
c0017110 l     O .bss	00000004 current_console_id
00000000 l    df *ABS*	00000000 exception_handler.c
c00004b8 l     F .text	00000173 dump_registers
00000000 l    df *ABS*	00000000 interrupt_controller.c
c0000840 l     F .text	0000001e outport08
00000000 l    df *ABS*	00000000 interrupt_handler.c
c0000f30 l     F .text	0000002a inport08
c0000f5a l     F .text	0000001e outport08
c0017521 l     O .bss	00000001 mask.1141
c0017520 l     O .bss	00000001 mask.1145
00000000 l    df *ABS*	00000000 kernel.c
c0001260 l     F .text	0000001e outport08
00000000 l    df *ABS*	00000000 kmalloc.c
c00014c7 l     F .text	00000071 deallocate.1145
00000000 l    df *ABS*	00000000 main.c
00000000 l    df *ABS*	00000000 mem.c
c00019b4 l     F .text	00000021 k_update_segment_regs
c00019be l       .text	00000000 update_sel
00000000 l    df *ABS*	00000000 paging.c
c0001c58 l     F .text	00000022 memset08
c0001c7a l     F .text	00000009 invlpg
c0001c83 l     F .text	0000000b reload_CR3
00000000 l    df *ABS*	00000000 queue.c
00000000 l    df *ABS*	00000000 task.c
c0002454 l     F .text	0000000e atomic_inc
c0002462 l     F .text	00000022 memset08
c0002484 l     F .text	00000019 memcpy08
c000249d l     F .text	0000000b reload_CR3
c00024a8 l     F .text	00000029 jmp_to_tss
c0017538 l     O .bss	00000008 tss_link.1077
00000000 l    df *ABS*	00000000 dma.c
00000000 l    df *ABS*	00000000 keyboard.c
c00030c4 l     F .text	0000002a inport08
c00030ee l     F .text	0000001e outport08
c0006020 l     O .data	00000100 regular_keymap
c0006120 l     O .data	00000100 with_shift_keymap
c0006220 l     O .data	00000100 with_alt_keymap
c0006320 l     O .data	00000100 with_control_keymap
c0006420 l     O .data	0000000d keypad_char
c0017540 l     O .bss	00000001 shift_flag
c0017541 l     O .bss	00000001 control_flag
c0017542 l     O .bss	00000001 alt_flag
c0017544 l     O .bss	00000004 code.1153
c0017548 l     O .bss	00000004 val.1154
00000000 l    df *ABS*	00000000 video.c
c0003628 l     F .text	0000001e outport08
c0003646 l     F .text	00000024 memset16
00000000 l    df *ABS*	00000000 ctype.c
00000000 l    df *ABS*	00000000 string.c
00000000 l    df *ABS*	00000000 vsnprintf.c
c0003b08 l     F .text	0000005a skip_atoi
c0003b62 l     F .text	000003ea number
c0000f78 g     F .text	000000a4 interrupt_handler_middle
c0001d67 g     F .text	0000011e map_page
c0000154 g       .text	00000000 irq_01
c000016c g       .text	00000000 irq_07
c00011a6 g     F .text	00000076 register_interrupt_handler
c0017114 g     O .bss	00000004 spurious_interrupt_show
c000366a g     F .text	00000087 video_move_cursor
c0003871 g     F .text	0000005a video_place_char
c0017560 g     O .bss	00000006 idt_ptr
c00000c0 g       .text	00000000 exc_00
c00000fe g       .text	00000000 exc_0B
c0002bdf g     F .text	0000000f sched_leave_critical_region
c0000004 g       .text	00000000 var_system_memory_amount
c0000318 g     F .text	00000033 initialize_boot_console
c0017000 g       .bss	00000000 K_STACK_END
c0000184 g       .text	00000000 irq_0D
c00009cb g     F .text	00000565 initialize_IDT
c00004ab g     F .text	0000000a get_curr_console
c0000000 g       *ABS*	00000000 K_VIR_START
c00001de g     F .text	00000053 stop_clock
c0002f1f g     F .text	0000014c ps
c0002314 g     F .text	00000036 pick_queue
c00038cb g     F .text	000001a3 video_put_char
c000356b g     F .text	0000009b kgetchar
c0000000 g       .text	00000000 KERNEL_TEXT
c00000d2 g       .text	00000000 exc_03
c0006000 g     O .data	00000004 free_frames
c0001538 g     F .text	00000117 kfree
c0001b57 g     F .text	000000ff initialize_GDT
c00024d1 g     F .text	00000020 get_pname
c000092e g     F .text	00000076 set_IDT_gate
c0000285 g     F .text	0000002b clock_handler
c0017d80 g     O .bss	00010000 gdt
c0003f4c g     F .text	000005fb vsnprintf
c00002b0 g     F .text	00000067 initialize_clock
c00000ea g       .text	00000000 exc_07
c00000d8 g       .text	00000000 exc_04
c0000160 g       .text	00000000 irq_04
c0017530 g     O .bss	00000004 wait_queue
c00023b0 g     F .text	000000a3 rem_queue
c000085e g     F .text	000000d0 reprogram_PIC_8259
c0002277 g     F .text	0000009b dump_free_frames
c002adc0 g     O .bss	00000004 last_pid
c00024f1 g     F .text	00000007 do_idle
c0002b73 g     F .text	0000005d auto_kill
c0001e85 g     F .text	00000152 delete_page
c0001d1e g     F .text	00000049 init_free_frames
c000234a g     F .text	00000066 add_queue
c0029da0 g     O .bss	00000004 K_VIR_END
c0000150 g       .text	00000000 irq_00
c0003239 g     F .text	00000332 keyboard_handler
c0003abf g     F .text	00000046 strnlen
c0000168 g       .text	00000000 irq_06
c0006432 g     O .data	00000002 crt_height
c000017c g       .text	00000000 irq_0B
00010000 g       *ABS*	00000000 K_STACK_SIZE
c00009a4 g     F .text	00000027 spurious_interrupt
c000313d g     F .text	00000085 update_leds
c000306c g     F .text	00000058 initialize_DMA
c0003709 g     F .text	0000008a video_clrscr
c0000190 g       .text	00000000 irq_unhandled
c0027d80 g     O .bss	00002000 gdt_busy_entry
c0001fd7 g     F .text	00000043 virtual_to_physical_address
c00012f1 g     F .text	00000080 reboot
c001752c g     O .bss	00000004 ready_queue
c000101c g     F .text	000000c3 disable_IRQ
c0001917 g     F .text	0000004f task_test
c00000fa g       .text	00000000 exc_0A
c0000170 g       .text	00000000 irq_08
c0000000 g       .text	00000000 _start
c0001704 g     F .text	00000173 k_main
c0002bee g     F .text	000000e3 scheduler
c000015c g       .text	00000000 irq_03
c00021a7 g     F .text	000000d0 dump_dirty_pages
c000037d g     F .text	0000004e kplacechar
c002b000 g       *ABS*	00000000 KERNEL_TOP
c0017528 g     O .bss	00000004 idle_task
c00000f4 g       .text	00000000 exc_09
c0000106 g       .text	00000000 exc_0D
c0006440 g     O .data	00000100 _ctype
c0000481 g     F .text	0000002a get_console_addr
c002adc8 g     O .bss	00000004 dma_free_frames
c000201a g     F .text	0000010b page_fault_handler
00001000 g       *ABS*	00000000 PAGE_SIZE
c0000008 g       .text	00000000 stage2_return_address
c0000164 g       .text	00000000 irq_05
c0001ce0 g     F .text	0000003e push_frame
c001754c g     O .bss	00000004 pf_panic
c002b000 g       .bss	00000000 KERNEL_END_BSS
c0017524 g     O .bss	00000004 curr_task
c0017000 g       .bss	00000000 _stack_end
c0029d80 g     O .bss	00000006 gdt_ptr
c00003cb g     F .text	00000022 kset_color
c0006430 g     O .data	00000002 crt_width
c0001877 g     F .text	00000050 print_ok
c0002cd1 g     F .text	000000ec kpager
c00036f1 g     F .text	00000018 video_set_color
c0017580 g     O .bss	00000800 idt
c0002531 g     F .text	000003e4 create_process
c0001ab1 g     F .text	000000a6 remove_GDT_entry
c0002915 g     F .text	0000025e create_kthread
c0000231 g     F .text	00000054 delay
c0006000 g       .data	00000000 KERNEL_DATA
c0001966 g     F .text	0000004b sh_test
c00018c7 g     F .text	00000050 print_failed
c00000c6 g       .text	00000000 exc_01
c0000102 g       .text	00000000 exc_0C
c000127e g     F .text	00000073 error
c0017000 g     O .bss	00000004 ticks
c0017120 g     O .bss	00000400 interrupt_handlers
c00010df g     F .text	000000c7 enable_IRQ
c0002dbd g     F .text	00000162 initialize_multitasking
c0000180 g       .text	00000000 irq_0C
c002adcc g     O .bss	00000004 dma_pointer
c0000178 g       .text	00000000 irq_0A
c0000188 g       .text	00000000 irq_0E
c000010e g       .text	00000000 exc_0F
c00000cc g       .text	00000000 exc_02
c0003a6e g     F .text	00000017 initialize_video
c00003ed g     F .text	00000094 kprintf
c000062b g     F .text	00000213 exception_handler_middle
c0002125 g     F .text	00000082 initialize_paging
c0006000 g       .text	00000000 KERNEL_END_TEXT
c0000114 g       .text	00000000 exc_unhandled
c0001371 g     F .text	00000007 halt
c000034b g     F .text	00000032 kputchar
c000121c g     F .text	00000041 unregister_interrupt_handler
c0000174 g       .text	00000000 irq_09
c0000158 g       .text	00000000 irq_02
c000310c g     F .text	00000031 keyboard_wait_controller
c0001378 g     F .text	0000014f kmalloc
c000164f g     F .text	00000036 kmalloc_initialize
c0001685 g     F .text	0000007e dump_memory_map
c00000e4 g       .text	00000000 exc_06
c0017534 g     O .bss	00000004 zombie_queue
c00019d5 g     F .text	000000dc setup_GDT_entry
00100000 g       *ABS*	00000000 K_PHYS_START
c000018c g       .text	00000000 irq_0F
c0003a88 g     F .text	00000037 strlen
c00000f0 g       .text	00000000 exc_08
c00000de g       .text	00000000 exc_05
c0007000 g       .bss	00000000 _stack
c00031c2 g     F .text	00000077 scan_key
c0002bd0 g     F .text	0000000f sched_enter_critical_region
c0001c8e g     F .text	00000052 pop_frame
c0003793 g     F .text	000000de video_scroll_console
c00024f8 g     F .text	00000019 new_pid
c0029dc0 g     O .bss	00001000 K_PDBR
c000010a g       .text	00000000 exc_0E
c002adc4 g     O .bss	00000004 sched_enabled
c0002511 g     F .text	00000020 get_pid
c0017000 g       .bss	00000000 KERNEL_BSS
c0007000 g       .data	00000000 KERNEL_END_DATA
c0003606 g     F .text	00000021 initialize_keyboard



Disassembly of section .text:

c0000000 <KERNEL_TEXT>:
_start():
c0000000:	eb 0a                	jmp    c000000c <entry>

c0000002 <not_used_space>:
	...

c0000004 <var_system_memory_amount>:
var_system_memory_amount():
c0000004:	00 00                	add    %al,(%eax)
	...

c0000008 <stage2_return_address>:
stage2_return_address():
c0000008:	00 00                	add    %al,(%eax)
	...

c000000c <entry>:
entry():
c000000c:	66 ba f2 03          	mov    $0x3f2,%dx
c0000010:	b0 0c                	mov    $0xc,%al
c0000012:	ee                   	out    %al,(%dx)

c0000013 <setup_and_enable_paging>:
setup_and_enable_paging():
c0000013:	bf 00 10 00 00       	mov    $0x1000,%edi
c0000018:	b8 00 00 00 00       	mov    $0x0,%eax
c000001d:	b9 00 10 00 00       	mov    $0x1000,%ecx
c0000022:	fc                   	cld    
c0000023:	f3 aa                	rep stos %al,%es:(%edi)
c0000025:	b8 03 00 00 00       	mov    $0x3,%eax
c000002a:	b9 00 04 00 00       	mov    $0x400,%ecx
c000002f:	bf 00 30 00 00       	mov    $0x3000,%edi
c0000034:	fc                   	cld    

c0000035 <Map_I_PTE>:
Map_I_PTE():
c0000035:	ab                   	stos   %eax,%es:(%edi)
c0000036:	05 00 10 00 00       	add    $0x1000,%eax
c000003b:	e2 f8                	loop   c0000035 <Map_I_PTE>
c000003d:	c7 05 00 10 00 00 07 	movl   $0x3007,0x1000
c0000044:	30 00 00 
c0000047:	b8 03 00 10 00       	mov    $0x100003,%eax
c000004c:	b9 00 04 00 00       	mov    $0x400,%ecx
c0000051:	bf 00 20 00 00       	mov    $0x2000,%edi

c0000056 <Map_K_PTE>:
Map_K_PTE():
c0000056:	ab                   	stos   %eax,%es:(%edi)
c0000057:	05 00 10 00 00       	add    $0x1000,%eax
c000005c:	e2 f8                	loop   c0000056 <Map_K_PTE>
c000005e:	c7 05 00 1c 00 00 07 	movl   $0x2007,0x1c00
c0000065:	20 00 00 
c0000068:	c7 05 fc 1f 00 00 07 	movl   $0x1007,0x1ffc
c000006f:	10 00 00 
c0000072:	b8 00 10 00 00       	mov    $0x1000,%eax
c0000077:	0f 22 d8             	mov    %eax,%cr3
c000007a:	0f 20 c0             	mov    %cr0,%eax
c000007d:	0d 00 00 01 80       	or     $0x80010000,%eax
c0000082:	0f 22 c0             	mov    %eax,%cr0
c0000085:	ea 8c 00 00 c0 08 00 	ljmp   $0x8,$0xc000008c

c000008c <paging_enabled>:
paging_enabled():
c000008c:	b8 10 00 00 00       	mov    $0x10,%eax
c0000091:	8e d8                	mov    %eax,%ds
c0000093:	8e c0                	mov    %eax,%es
c0000095:	8e d0                	mov    %eax,%ss
c0000097:	90                   	nop
c0000098:	8e e0                	mov    %eax,%fs
c000009a:	8e e8                	mov    %eax,%gs
c000009c:	8f 05 08 00 00 c0    	popl   0xc0000008
c00000a2:	8f 05 04 00 00 c0    	popl   0xc0000004
c00000a8:	bc 00 70 01 c0       	mov    $0xc0017000,%esp
c00000ad:	e9 52 16 00 00       	jmp    c0001704 <k_main>
	...

c00000c0 <exc_00>:
exc_00():
c00000c0:	6a 00                	push   $0x0
c00000c2:	6a 00                	push   $0x0
c00000c4:	eb 57                	jmp    c000011d <COMMON_EXC>

c00000c6 <exc_01>:
exc_01():
c00000c6:	6a 00                	push   $0x0
c00000c8:	6a 01                	push   $0x1
c00000ca:	eb 51                	jmp    c000011d <COMMON_EXC>

c00000cc <exc_02>:
exc_02():
c00000cc:	6a 00                	push   $0x0
c00000ce:	6a 02                	push   $0x2
c00000d0:	eb 4b                	jmp    c000011d <COMMON_EXC>

c00000d2 <exc_03>:
exc_03():
c00000d2:	6a 00                	push   $0x0
c00000d4:	6a 03                	push   $0x3
c00000d6:	eb 45                	jmp    c000011d <COMMON_EXC>

c00000d8 <exc_04>:
exc_04():
c00000d8:	6a 00                	push   $0x0
c00000da:	6a 04                	push   $0x4
c00000dc:	eb 3f                	jmp    c000011d <COMMON_EXC>

c00000de <exc_05>:
exc_05():
c00000de:	6a 00                	push   $0x0
c00000e0:	6a 05                	push   $0x5
c00000e2:	eb 39                	jmp    c000011d <COMMON_EXC>

c00000e4 <exc_06>:
exc_06():
c00000e4:	6a 00                	push   $0x0
c00000e6:	6a 06                	push   $0x6
c00000e8:	eb 33                	jmp    c000011d <COMMON_EXC>

c00000ea <exc_07>:
exc_07():
c00000ea:	6a 00                	push   $0x0
c00000ec:	6a 07                	push   $0x7
c00000ee:	eb 2d                	jmp    c000011d <COMMON_EXC>

c00000f0 <exc_08>:
exc_08():
c00000f0:	6a 08                	push   $0x8
c00000f2:	eb 29                	jmp    c000011d <COMMON_EXC>

c00000f4 <exc_09>:
exc_09():
c00000f4:	6a 00                	push   $0x0
c00000f6:	6a 09                	push   $0x9
c00000f8:	eb 23                	jmp    c000011d <COMMON_EXC>

c00000fa <exc_0A>:
exc_0A():
c00000fa:	6a 0a                	push   $0xa
c00000fc:	eb 1f                	jmp    c000011d <COMMON_EXC>

c00000fe <exc_0B>:
exc_0B():
c00000fe:	6a 0b                	push   $0xb
c0000100:	eb 1b                	jmp    c000011d <COMMON_EXC>

c0000102 <exc_0C>:
exc_0C():
c0000102:	6a 0c                	push   $0xc
c0000104:	eb 17                	jmp    c000011d <COMMON_EXC>

c0000106 <exc_0D>:
exc_0D():
c0000106:	6a 0d                	push   $0xd
c0000108:	eb 13                	jmp    c000011d <COMMON_EXC>

c000010a <exc_0E>:
exc_0E():
c000010a:	6a 0e                	push   $0xe
c000010c:	eb 0f                	jmp    c000011d <COMMON_EXC>

c000010e <exc_0F>:
exc_0F():
c000010e:	6a 00                	push   $0x0
c0000110:	6a 0f                	push   $0xf
c0000112:	eb 09                	jmp    c000011d <COMMON_EXC>

c0000114 <exc_unhandled>:
exc_unhandled():
c0000114:	6a 00                	push   $0x0
c0000116:	68 ff 00 00 00       	push   $0xff
c000011b:	eb 00                	jmp    c000011d <COMMON_EXC>

c000011d <COMMON_EXC>:
COMMON_EXC():
c000011d:	0f a8                	push   %gs
c000011f:	0f a0                	push   %fs
c0000121:	1e                   	push   %ds
c0000122:	06                   	push   %es
c0000123:	60                   	pusha  
c0000124:	b8 10 00 00 00       	mov    $0x10,%eax
c0000129:	8e d8                	mov    %eax,%ds
c000012b:	8e c0                	mov    %eax,%es
c000012d:	8e e0                	mov    %eax,%fs
c000012f:	8e e8                	mov    %eax,%gs
c0000131:	54                   	push   %esp
c0000132:	e8 f4 04 00 00       	call   c000062b <exception_handler_middle>
c0000137:	5c                   	pop    %esp
c0000138:	61                   	popa   
c0000139:	07                   	pop    %es
c000013a:	1f                   	pop    %ds
c000013b:	0f a1                	pop    %fs
c000013d:	0f a9                	pop    %gs
c000013f:	83 c4 08             	add    $0x8,%esp
c0000142:	cf                   	iret   
	...

c0000150 <irq_00>:
irq_00():
c0000150:	6a 00                	push   $0x0
c0000152:	eb 43                	jmp    c0000197 <COMMON_ISR>

c0000154 <irq_01>:
irq_01():
c0000154:	6a 01                	push   $0x1
c0000156:	eb 3f                	jmp    c0000197 <COMMON_ISR>

c0000158 <irq_02>:
irq_02():
c0000158:	6a 02                	push   $0x2
c000015a:	eb 3b                	jmp    c0000197 <COMMON_ISR>

c000015c <irq_03>:
irq_03():
c000015c:	6a 03                	push   $0x3
c000015e:	eb 37                	jmp    c0000197 <COMMON_ISR>

c0000160 <irq_04>:
irq_04():
c0000160:	6a 04                	push   $0x4
c0000162:	eb 33                	jmp    c0000197 <COMMON_ISR>

c0000164 <irq_05>:
irq_05():
c0000164:	6a 05                	push   $0x5
c0000166:	eb 2f                	jmp    c0000197 <COMMON_ISR>

c0000168 <irq_06>:
irq_06():
c0000168:	6a 06                	push   $0x6
c000016a:	eb 2b                	jmp    c0000197 <COMMON_ISR>

c000016c <irq_07>:
irq_07():
c000016c:	6a 07                	push   $0x7
c000016e:	eb 27                	jmp    c0000197 <COMMON_ISR>

c0000170 <irq_08>:
irq_08():
c0000170:	6a 08                	push   $0x8
c0000172:	eb 23                	jmp    c0000197 <COMMON_ISR>

c0000174 <irq_09>:
irq_09():
c0000174:	6a 09                	push   $0x9
c0000176:	eb 1f                	jmp    c0000197 <COMMON_ISR>

c0000178 <irq_0A>:
irq_0A():
c0000178:	6a 0a                	push   $0xa
c000017a:	eb 1b                	jmp    c0000197 <COMMON_ISR>

c000017c <irq_0B>:
irq_0B():
c000017c:	6a 0b                	push   $0xb
c000017e:	eb 17                	jmp    c0000197 <COMMON_ISR>

c0000180 <irq_0C>:
irq_0C():
c0000180:	6a 0c                	push   $0xc
c0000182:	eb 13                	jmp    c0000197 <COMMON_ISR>

c0000184 <irq_0D>:
irq_0D():
c0000184:	6a 0d                	push   $0xd
c0000186:	eb 0f                	jmp    c0000197 <COMMON_ISR>

c0000188 <irq_0E>:
irq_0E():
c0000188:	6a 0e                	push   $0xe
c000018a:	eb 0b                	jmp    c0000197 <COMMON_ISR>

c000018c <irq_0F>:
irq_0F():
c000018c:	6a 0f                	push   $0xf
c000018e:	eb 07                	jmp    c0000197 <COMMON_ISR>

c0000190 <irq_unhandled>:
irq_unhandled():
c0000190:	68 ff 00 00 00       	push   $0xff
c0000195:	eb 00                	jmp    c0000197 <COMMON_ISR>

c0000197 <COMMON_ISR>:
COMMON_ISR():
c0000197:	0f a8                	push   %gs
c0000199:	0f a0                	push   %fs
c000019b:	06                   	push   %es
c000019c:	1e                   	push   %ds
c000019d:	60                   	pusha  
c000019e:	bb 10 00 00 00       	mov    $0x10,%ebx
c00001a3:	8e db                	mov    %ebx,%ds
c00001a5:	8e c3                	mov    %ebx,%es
c00001a7:	8e e3                	mov    %ebx,%fs
c00001a9:	8e eb                	mov    %ebx,%gs
c00001ab:	54                   	push   %esp
c00001ac:	e8 c7 0d 00 00       	call   c0000f78 <interrupt_handler_middle>
c00001b1:	5c                   	pop    %esp
c00001b2:	61                   	popa   
c00001b3:	1f                   	pop    %ds
c00001b4:	07                   	pop    %es
c00001b5:	0f a1                	pop    %fs
c00001b7:	0f a9                	pop    %gs
c00001b9:	66 83 c4 04          	add    $0x4,%sp
c00001bd:	cf                   	iret   
	...

c00001c0 <outport08>:
outport08():
c00001c0:	55                   	push   %ebp
c00001c1:	89 e5                	mov    %esp,%ebp
c00001c3:	83 ec 08             	sub    $0x8,%esp
c00001c6:	8b 55 08             	mov    0x8(%ebp),%edx
c00001c9:	8b 45 0c             	mov    0xc(%ebp),%eax
c00001cc:	66 89 55 fc          	mov    %dx,-0x4(%ebp)
c00001d0:	88 45 f8             	mov    %al,-0x8(%ebp)
c00001d3:	0f b7 55 fc          	movzwl -0x4(%ebp),%edx
c00001d7:	0f b6 45 f8          	movzbl -0x8(%ebp),%eax
c00001db:	ee                   	out    %al,(%dx)
c00001dc:	c9                   	leave  
c00001dd:	c3                   	ret    

c00001de <stop_clock>:
stop_clock():
c00001de:	55                   	push   %ebp
c00001df:	89 e5                	mov    %esp,%ebp
c00001e1:	53                   	push   %ebx
c00001e2:	83 ec 18             	sub    $0x18,%esp
c00001e5:	9c                   	pushf  
c00001e6:	5b                   	pop    %ebx
c00001e7:	fa                   	cli    
c00001e8:	89 5d f8             	mov    %ebx,-0x8(%ebp)
c00001eb:	c7 44 24 04 36 00 00 	movl   $0x36,0x4(%esp)
c00001f2:	00 
c00001f3:	c7 04 24 43 00 00 00 	movl   $0x43,(%esp)
c00001fa:	e8 c1 ff ff ff       	call   c00001c0 <outport08>
c00001ff:	c7 44 24 04 00 00 00 	movl   $0x0,0x4(%esp)
c0000206:	00 
c0000207:	c7 04 24 40 00 00 00 	movl   $0x40,(%esp)
c000020e:	e8 ad ff ff ff       	call   c00001c0 <outport08>
c0000213:	c7 44 24 04 00 00 00 	movl   $0x0,0x4(%esp)
c000021a:	00 
c000021b:	c7 04 24 40 00 00 00 	movl   $0x40,(%esp)
c0000222:	e8 99 ff ff ff       	call   c00001c0 <outport08>
c0000227:	ff 75 f8             	pushl  -0x8(%ebp)
c000022a:	9d                   	popf   
c000022b:	83 c4 18             	add    $0x18,%esp
c000022e:	5b                   	pop    %ebx
c000022f:	5d                   	pop    %ebp
c0000230:	c3                   	ret    

c0000231 <delay>:
delay():
c0000231:	55                   	push   %ebp
c0000232:	89 e5                	mov    %esp,%ebp
c0000234:	53                   	push   %ebx
c0000235:	83 ec 14             	sub    $0x14,%esp
c0000238:	9c                   	pushf  
c0000239:	5b                   	pop    %ebx
c000023a:	89 5d f4             	mov    %ebx,-0xc(%ebp)
c000023d:	c7 45 f8 00 00 00 00 	movl   $0x0,-0x8(%ebp)
c0000244:	eb 2d                	jmp    c0000273 <delay+0x42>
c0000246:	a1 00 70 01 c0       	mov    0xc0017000,%eax
c000024b:	89 45 f0             	mov    %eax,-0x10(%ebp)
c000024e:	fb                   	sti    
c000024f:	f4                   	hlt    
c0000250:	a1 00 70 01 c0       	mov    0xc0017000,%eax
c0000255:	2b 45 f0             	sub    -0x10(%ebp),%eax
c0000258:	69 c0 e8 03 00 00    	imul   $0x3e8,%eax,%eax
c000025e:	89 45 e8             	mov    %eax,-0x18(%ebp)
c0000261:	ba 1f 85 eb 51       	mov    $0x51eb851f,%edx
c0000266:	8b 45 e8             	mov    -0x18(%ebp),%eax
c0000269:	f7 e2                	mul    %edx
c000026b:	89 d0                	mov    %edx,%eax
c000026d:	c1 e8 06             	shr    $0x6,%eax
c0000270:	01 45 f8             	add    %eax,-0x8(%ebp)
c0000273:	8b 45 f8             	mov    -0x8(%ebp),%eax
c0000276:	3b 45 08             	cmp    0x8(%ebp),%eax
c0000279:	72 cb                	jb     c0000246 <delay+0x15>
c000027b:	ff 75 f4             	pushl  -0xc(%ebp)
c000027e:	9d                   	popf   
c000027f:	83 c4 14             	add    $0x14,%esp
c0000282:	5b                   	pop    %ebx
c0000283:	5d                   	pop    %ebp
c0000284:	c3                   	ret    

c0000285 <clock_handler>:
clock_handler():
c0000285:	55                   	push   %ebp
c0000286:	89 e5                	mov    %esp,%ebp
c0000288:	83 ec 18             	sub    $0x18,%esp
c000028b:	a1 00 70 01 c0       	mov    0xc0017000,%eax
c0000290:	83 c0 01             	add    $0x1,%eax
c0000293:	a3 00 70 01 c0       	mov    %eax,0xc0017000
c0000298:	e8 51 29 00 00       	call   c0002bee <scheduler>
c000029d:	8b 45 08             	mov    0x8(%ebp),%eax
c00002a0:	8b 40 30             	mov    0x30(%eax),%eax
c00002a3:	0f b6 c0             	movzbl %al,%eax
c00002a6:	89 04 24             	mov    %eax,(%esp)
c00002a9:	e8 31 0e 00 00       	call   c00010df <enable_IRQ>
c00002ae:	c9                   	leave  
c00002af:	c3                   	ret    

c00002b0 <initialize_clock>:
initialize_clock():
c00002b0:	55                   	push   %ebp
c00002b1:	89 e5                	mov    %esp,%ebp
c00002b3:	53                   	push   %ebx
c00002b4:	83 ec 24             	sub    $0x24,%esp
c00002b7:	9c                   	pushf  
c00002b8:	5b                   	pop    %ebx
c00002b9:	fa                   	cli    
c00002ba:	89 5d f4             	mov    %ebx,-0xc(%ebp)
c00002bd:	c7 44 24 04 36 00 00 	movl   $0x36,0x4(%esp)
c00002c4:	00 
c00002c5:	c7 04 24 43 00 00 00 	movl   $0x43,(%esp)
c00002cc:	e8 ef fe ff ff       	call   c00001c0 <outport08>
c00002d1:	c7 44 24 04 4d 00 00 	movl   $0x4d,0x4(%esp)
c00002d8:	00 
c00002d9:	c7 04 24 40 00 00 00 	movl   $0x40,(%esp)
c00002e0:	e8 db fe ff ff       	call   c00001c0 <outport08>
c00002e5:	c7 44 24 04 17 00 00 	movl   $0x17,0x4(%esp)
c00002ec:	00 
c00002ed:	c7 04 24 40 00 00 00 	movl   $0x40,(%esp)
c00002f4:	e8 c7 fe ff ff       	call   c00001c0 <outport08>
c00002f9:	c7 44 24 04 85 02 00 	movl   $0xc0000285,0x4(%esp)
c0000300:	c0 
c0000301:	c7 04 24 00 00 00 00 	movl   $0x0,(%esp)
c0000308:	e8 99 0e 00 00       	call   c00011a6 <register_interrupt_handler>
c000030d:	ff 75 f4             	pushl  -0xc(%ebp)
c0000310:	9d                   	popf   
c0000311:	83 c4 24             	add    $0x24,%esp
c0000314:	5b                   	pop    %ebx
c0000315:	5d                   	pop    %ebp
c0000316:	c3                   	ret    
	...

c0000318 <initialize_boot_console>:
initialize_boot_console():
c0000318:	55                   	push   %ebp
c0000319:	89 e5                	mov    %esp,%ebp
c000031b:	83 ec 18             	sub    $0x18,%esp
c000031e:	c7 05 20 70 01 c0 00 	movl   $0xe00b8000,0xc0017020
c0000325:	80 0b e0 
c0000328:	c6 05 24 70 01 c0 00 	movb   $0x0,0xc0017024
c000032f:	c6 05 25 70 01 c0 00 	movb   $0x0,0xc0017025
c0000336:	c6 05 26 70 01 c0 07 	movb   $0x7,0xc0017026
c000033d:	c7 04 24 20 70 01 c0 	movl   $0xc0017020,(%esp)
c0000344:	e8 c0 33 00 00       	call   c0003709 <video_clrscr>
c0000349:	c9                   	leave  
c000034a:	c3                   	ret    

c000034b <kputchar>:
kputchar():
c000034b:	55                   	push   %ebp
c000034c:	89 e5                	mov    %esp,%ebp
c000034e:	53                   	push   %ebx
c000034f:	83 ec 24             	sub    $0x24,%esp
c0000352:	9c                   	pushf  
c0000353:	5b                   	pop    %ebx
c0000354:	fa                   	cli    
c0000355:	89 5d f4             	mov    %ebx,-0xc(%ebp)
c0000358:	8b 45 08             	mov    0x8(%ebp),%eax
c000035b:	0f b6 c0             	movzbl %al,%eax
c000035e:	c7 44 24 04 20 70 01 	movl   $0xc0017020,0x4(%esp)
c0000365:	c0 
c0000366:	89 04 24             	mov    %eax,(%esp)
c0000369:	e8 5d 35 00 00       	call   c00038cb <video_put_char>
c000036e:	ff 75 f4             	pushl  -0xc(%ebp)
c0000371:	9d                   	popf   
c0000372:	b8 00 00 00 00       	mov    $0x0,%eax
c0000377:	83 c4 24             	add    $0x24,%esp
c000037a:	5b                   	pop    %ebx
c000037b:	5d                   	pop    %ebp
c000037c:	c3                   	ret    

c000037d <kplacechar>:
kplacechar():
c000037d:	55                   	push   %ebp
c000037e:	89 e5                	mov    %esp,%ebp
c0000380:	53                   	push   %ebx
c0000381:	83 ec 34             	sub    $0x34,%esp
c0000384:	8b 55 08             	mov    0x8(%ebp),%edx
c0000387:	8b 45 0c             	mov    0xc(%ebp),%eax
c000038a:	88 55 e4             	mov    %dl,-0x1c(%ebp)
c000038d:	88 45 e0             	mov    %al,-0x20(%ebp)
c0000390:	9c                   	pushf  
c0000391:	5b                   	pop    %ebx
c0000392:	fa                   	cli    
c0000393:	89 5d f4             	mov    %ebx,-0xc(%ebp)
c0000396:	8b 45 10             	mov    0x10(%ebp),%eax
c0000399:	0f b6 c8             	movzbl %al,%ecx
c000039c:	0f b6 55 e0          	movzbl -0x20(%ebp),%edx
c00003a0:	0f b6 45 e4          	movzbl -0x1c(%ebp),%eax
c00003a4:	c7 44 24 0c 20 70 01 	movl   $0xc0017020,0xc(%esp)
c00003ab:	c0 
c00003ac:	89 4c 24 08          	mov    %ecx,0x8(%esp)
c00003b0:	89 54 24 04          	mov    %edx,0x4(%esp)
c00003b4:	89 04 24             	mov    %eax,(%esp)
c00003b7:	e8 b5 34 00 00       	call   c0003871 <video_place_char>
c00003bc:	ff 75 f4             	pushl  -0xc(%ebp)
c00003bf:	9d                   	popf   
c00003c0:	b8 00 00 00 00       	mov    $0x0,%eax
c00003c5:	83 c4 34             	add    $0x34,%esp
c00003c8:	5b                   	pop    %ebx
c00003c9:	5d                   	pop    %ebp
c00003ca:	c3                   	ret    

c00003cb <kset_color>:
kset_color():
c00003cb:	55                   	push   %ebp
c00003cc:	89 e5                	mov    %esp,%ebp
c00003ce:	83 ec 28             	sub    $0x28,%esp
c00003d1:	8b 45 08             	mov    0x8(%ebp),%eax
c00003d4:	88 45 f4             	mov    %al,-0xc(%ebp)
c00003d7:	0f b6 45 f4          	movzbl -0xc(%ebp),%eax
c00003db:	89 44 24 04          	mov    %eax,0x4(%esp)
c00003df:	c7 04 24 20 70 01 c0 	movl   $0xc0017020,(%esp)
c00003e6:	e8 06 33 00 00       	call   c00036f1 <video_set_color>
c00003eb:	c9                   	leave  
c00003ec:	c3                   	ret    

c00003ed <kprintf>:
kprintf():
c00003ed:	55                   	push   %ebp
c00003ee:	89 e5                	mov    %esp,%ebp
c00003f0:	53                   	push   %ebx
c00003f1:	81 ec 24 04 00 00    	sub    $0x424,%esp
c00003f7:	8d 45 08             	lea    0x8(%ebp),%eax
c00003fa:	83 c0 04             	add    $0x4,%eax
c00003fd:	89 45 f0             	mov    %eax,-0x10(%ebp)
c0000400:	8b 45 08             	mov    0x8(%ebp),%eax
c0000403:	8b 55 f0             	mov    -0x10(%ebp),%edx
c0000406:	89 54 24 0c          	mov    %edx,0xc(%esp)
c000040a:	89 44 24 08          	mov    %eax,0x8(%esp)
c000040e:	c7 44 24 04 00 04 00 	movl   $0x400,0x4(%esp)
c0000415:	00 
c0000416:	8d 85 ec fb ff ff    	lea    -0x414(%ebp),%eax
c000041c:	89 04 24             	mov    %eax,(%esp)
c000041f:	e8 28 3b 00 00       	call   c0003f4c <vsnprintf>
c0000424:	c7 45 f0 00 00 00 00 	movl   $0x0,-0x10(%ebp)
c000042b:	9c                   	pushf  
c000042c:	5b                   	pop    %ebx
c000042d:	fa                   	cli    
c000042e:	89 5d ec             	mov    %ebx,-0x14(%ebp)
c0000431:	c7 45 f4 00 00 00 00 	movl   $0x0,-0xc(%ebp)
c0000438:	eb 2b                	jmp    c0000465 <kprintf+0x78>
c000043a:	8d 85 ec fb ff ff    	lea    -0x414(%ebp),%eax
c0000440:	03 45 f4             	add    -0xc(%ebp),%eax
c0000443:	0f b6 00             	movzbl (%eax),%eax
c0000446:	84 c0                	test   %al,%al
c0000448:	74 26                	je     c0000470 <kprintf+0x83>
c000044a:	8d 85 ec fb ff ff    	lea    -0x414(%ebp),%eax
c0000450:	03 45 f4             	add    -0xc(%ebp),%eax
c0000453:	0f b6 00             	movzbl (%eax),%eax
c0000456:	0f be c0             	movsbl %al,%eax
c0000459:	89 04 24             	mov    %eax,(%esp)
c000045c:	e8 ea fe ff ff       	call   c000034b <kputchar>
c0000461:	83 45 f4 01          	addl   $0x1,-0xc(%ebp)
c0000465:	81 7d f4 ff 03 00 00 	cmpl   $0x3ff,-0xc(%ebp)
c000046c:	76 cc                	jbe    c000043a <kprintf+0x4d>
c000046e:	eb 01                	jmp    c0000471 <kprintf+0x84>
c0000470:	90                   	nop
c0000471:	ff 75 ec             	pushl  -0x14(%ebp)
c0000474:	9d                   	popf   
c0000475:	8b 45 f4             	mov    -0xc(%ebp),%eax
c0000478:	81 c4 24 04 00 00    	add    $0x424,%esp
c000047e:	5b                   	pop    %ebx
c000047f:	5d                   	pop    %ebp
c0000480:	c3                   	ret    

c0000481 <get_console_addr>:
get_console_addr():
c0000481:	55                   	push   %ebp
c0000482:	89 e5                	mov    %esp,%ebp
c0000484:	83 7d 08 00          	cmpl   $0x0,0x8(%ebp)
c0000488:	78 1a                	js     c00004a4 <get_console_addr+0x23>
c000048a:	83 7d 08 02          	cmpl   $0x2,0x8(%ebp)
c000048e:	7f 14                	jg     c00004a4 <get_console_addr+0x23>
c0000490:	8b 55 08             	mov    0x8(%ebp),%edx
c0000493:	89 d0                	mov    %edx,%eax
c0000495:	c1 e0 02             	shl    $0x2,%eax
c0000498:	01 d0                	add    %edx,%eax
c000049a:	c1 e0 04             	shl    $0x4,%eax
c000049d:	05 20 70 01 c0       	add    $0xc0017020,%eax
c00004a2:	eb 05                	jmp    c00004a9 <get_console_addr+0x28>
c00004a4:	b8 00 00 00 00       	mov    $0x0,%eax
c00004a9:	5d                   	pop    %ebp
c00004aa:	c3                   	ret    

c00004ab <get_curr_console>:
get_curr_console():
c00004ab:	55                   	push   %ebp
c00004ac:	89 e5                	mov    %esp,%ebp
c00004ae:	a1 10 71 01 c0       	mov    0xc0017110,%eax
c00004b3:	5d                   	pop    %ebp
c00004b4:	c3                   	ret    
c00004b5:	00 00                	add    %al,(%eax)
	...

c00004b8 <dump_registers>:
dump_registers():
c00004b8:	55                   	push   %ebp
c00004b9:	89 e5                	mov    %esp,%ebp
c00004bb:	53                   	push   %ebx
c00004bc:	83 ec 44             	sub    $0x44,%esp
c00004bf:	c7 44 24 0c 48 45 00 	movl   $0xc0004548,0xc(%esp)
c00004c6:	c0 
c00004c7:	c7 44 24 08 66 45 00 	movl   $0xc0004566,0x8(%esp)
c00004ce:	c0 
c00004cf:	c7 44 24 04 34 00 00 	movl   $0x34,0x4(%esp)
c00004d6:	00 
c00004d7:	c7 04 24 84 45 00 c0 	movl   $0xc0004584,(%esp)
c00004de:	e8 0a ff ff ff       	call   c00003ed <kprintf>
c00004e3:	66 8c d3             	mov    %ss,%bx
c00004e6:	66 89 5d f6          	mov    %bx,-0xa(%ebp)
c00004ea:	8c 65 e2             	mov    %fs,-0x1e(%ebp)
c00004ed:	8c 6d e0             	mov    %gs,-0x20(%ebp)
c00004f0:	0f 20 c3             	mov    %cr0,%ebx
c00004f3:	89 5d f0             	mov    %ebx,-0x10(%ebp)
c00004f6:	0f 20 d3             	mov    %cr2,%ebx
c00004f9:	89 5d ec             	mov    %ebx,-0x14(%ebp)
c00004fc:	0f 20 db             	mov    %cr3,%ebx
c00004ff:	89 5d e8             	mov    %ebx,-0x18(%ebp)
c0000502:	0f 20 d3             	mov    %cr2,%ebx
c0000505:	89 5d e4             	mov    %ebx,-0x1c(%ebp)
c0000508:	8b 45 08             	mov    0x8(%ebp),%eax
c000050b:	8b 40 20             	mov    0x20(%eax),%eax
c000050e:	0f b7 d0             	movzwl %ax,%edx
c0000511:	8b 45 08             	mov    0x8(%ebp),%eax
c0000514:	8b 40 1c             	mov    0x1c(%eax),%eax
c0000517:	8b 4d 08             	mov    0x8(%ebp),%ecx
c000051a:	89 4c 24 10          	mov    %ecx,0x10(%esp)
c000051e:	8b 4d f0             	mov    -0x10(%ebp),%ecx
c0000521:	89 4c 24 0c          	mov    %ecx,0xc(%esp)
c0000525:	89 54 24 08          	mov    %edx,0x8(%esp)
c0000529:	89 44 24 04          	mov    %eax,0x4(%esp)
c000052d:	c7 04 24 c4 45 00 c0 	movl   $0xc00045c4,(%esp)
c0000534:	e8 b4 fe ff ff       	call   c00003ed <kprintf>
c0000539:	8b 45 08             	mov    0x8(%ebp),%eax
c000053c:	8b 48 08             	mov    0x8(%eax),%ecx
c000053f:	8b 45 08             	mov    0x8(%ebp),%eax
c0000542:	8b 40 24             	mov    0x24(%eax),%eax
c0000545:	0f b7 d0             	movzwl %ax,%edx
c0000548:	8b 45 08             	mov    0x8(%ebp),%eax
c000054b:	8b 40 10             	mov    0x10(%eax),%eax
c000054e:	89 4c 24 10          	mov    %ecx,0x10(%esp)
c0000552:	8b 4d ec             	mov    -0x14(%ebp),%ecx
c0000555:	89 4c 24 0c          	mov    %ecx,0xc(%esp)
c0000559:	89 54 24 08          	mov    %edx,0x8(%esp)
c000055d:	89 44 24 04          	mov    %eax,0x4(%esp)
c0000561:	c7 04 24 00 46 00 c0 	movl   $0xc0004600,(%esp)
c0000568:	e8 80 fe ff ff       	call   c00003ed <kprintf>
c000056d:	8b 45 08             	mov    0x8(%ebp),%eax
c0000570:	8b 48 38             	mov    0x38(%eax),%ecx
c0000573:	0f b7 45 e2          	movzwl -0x1e(%ebp),%eax
c0000577:	0f b7 d0             	movzwl %ax,%edx
c000057a:	8b 45 08             	mov    0x8(%ebp),%eax
c000057d:	8b 40 18             	mov    0x18(%eax),%eax
c0000580:	89 4c 24 10          	mov    %ecx,0x10(%esp)
c0000584:	8b 4d e8             	mov    -0x18(%ebp),%ecx
c0000587:	89 4c 24 0c          	mov    %ecx,0xc(%esp)
c000058b:	89 54 24 08          	mov    %edx,0x8(%esp)
c000058f:	89 44 24 04          	mov    %eax,0x4(%esp)
c0000593:	c7 04 24 3c 46 00 c0 	movl   $0xc000463c,(%esp)
c000059a:	e8 4e fe ff ff       	call   c00003ed <kprintf>
c000059f:	8b 45 08             	mov    0x8(%ebp),%eax
c00005a2:	8b 48 40             	mov    0x40(%eax),%ecx
c00005a5:	0f b7 45 e0          	movzwl -0x20(%ebp),%eax
c00005a9:	0f b7 d0             	movzwl %ax,%edx
c00005ac:	8b 45 08             	mov    0x8(%ebp),%eax
c00005af:	8b 40 14             	mov    0x14(%eax),%eax
c00005b2:	89 4c 24 10          	mov    %ecx,0x10(%esp)
c00005b6:	8b 4d e4             	mov    -0x1c(%ebp),%ecx
c00005b9:	89 4c 24 0c          	mov    %ecx,0xc(%esp)
c00005bd:	89 54 24 08          	mov    %edx,0x8(%esp)
c00005c1:	89 44 24 04          	mov    %eax,0x4(%esp)
c00005c5:	c7 04 24 78 46 00 c0 	movl   $0xc0004678,(%esp)
c00005cc:	e8 1c fe ff ff       	call   c00003ed <kprintf>
c00005d1:	8b 45 08             	mov    0x8(%ebp),%eax
c00005d4:	8b 48 30             	mov    0x30(%eax),%ecx
c00005d7:	0f b7 55 f6          	movzwl -0xa(%ebp),%edx
c00005db:	8b 45 08             	mov    0x8(%ebp),%eax
c00005de:	8b 40 04             	mov    0x4(%eax),%eax
c00005e1:	89 4c 24 0c          	mov    %ecx,0xc(%esp)
c00005e5:	89 54 24 08          	mov    %edx,0x8(%esp)
c00005e9:	89 44 24 04          	mov    %eax,0x4(%esp)
c00005ed:	c7 04 24 b4 46 00 c0 	movl   $0xc00046b4,(%esp)
c00005f4:	e8 f4 fd ff ff       	call   c00003ed <kprintf>
c00005f9:	8b 45 08             	mov    0x8(%ebp),%eax
c00005fc:	8b 48 34             	mov    0x34(%eax),%ecx
c00005ff:	8b 45 08             	mov    0x8(%ebp),%eax
c0000602:	8b 40 3c             	mov    0x3c(%eax),%eax
c0000605:	0f b7 d0             	movzwl %ax,%edx
c0000608:	8b 45 08             	mov    0x8(%ebp),%eax
c000060b:	8b 00                	mov    (%eax),%eax
c000060d:	89 4c 24 0c          	mov    %ecx,0xc(%esp)
c0000611:	89 54 24 08          	mov    %edx,0x8(%esp)
c0000615:	89 44 24 04          	mov    %eax,0x4(%esp)
c0000619:	c7 04 24 e0 46 00 c0 	movl   $0xc00046e0,(%esp)
c0000620:	e8 c8 fd ff ff       	call   c00003ed <kprintf>
c0000625:	83 c4 44             	add    $0x44,%esp
c0000628:	5b                   	pop    %ebx
c0000629:	5d                   	pop    %ebp
c000062a:	c3                   	ret    

c000062b <exception_handler_middle>:
exception_handler_middle():
c000062b:	55                   	push   %ebp
c000062c:	89 e5                	mov    %esp,%ebp
c000062e:	53                   	push   %ebx
c000062f:	83 ec 24             	sub    $0x24,%esp
c0000632:	8b 45 08             	mov    0x8(%ebp),%eax
c0000635:	8b 40 30             	mov    0x30(%eax),%eax
c0000638:	83 f8 0f             	cmp    $0xf,%eax
c000063b:	0f 87 ad 01 00 00    	ja     c00007ee <exception_handler_middle+0x1c3>
c0000641:	8b 04 85 d8 4a 00 c0 	mov    -0x3fffb528(,%eax,4),%eax
c0000648:	ff e0                	jmp    *%eax
c000064a:	c7 04 24 0c 47 00 c0 	movl   $0xc000470c,(%esp)
c0000651:	e8 97 fd ff ff       	call   c00003ed <kprintf>
c0000656:	e9 aa 01 00 00       	jmp    c0000805 <exception_handler_middle+0x1da>
c000065b:	c7 04 24 30 47 00 c0 	movl   $0xc0004730,(%esp)
c0000662:	e8 86 fd ff ff       	call   c00003ed <kprintf>
c0000667:	e9 99 01 00 00       	jmp    c0000805 <exception_handler_middle+0x1da>
c000066c:	c7 04 24 5c 47 00 c0 	movl   $0xc000475c,(%esp)
c0000673:	e8 75 fd ff ff       	call   c00003ed <kprintf>
c0000678:	e9 88 01 00 00       	jmp    c0000805 <exception_handler_middle+0x1da>
c000067d:	c7 04 24 84 47 00 c0 	movl   $0xc0004784,(%esp)
c0000684:	e8 64 fd ff ff       	call   c00003ed <kprintf>
c0000689:	8b 45 08             	mov    0x8(%ebp),%eax
c000068c:	89 04 24             	mov    %eax,(%esp)
c000068f:	e8 24 fe ff ff       	call   c00004b8 <dump_registers>
c0000694:	c7 44 24 0c 49 00 00 	movl   $0x49,0xc(%esp)
c000069b:	00 
c000069c:	c7 44 24 08 b4 47 00 	movl   $0xc00047b4,0x8(%esp)
c00006a3:	c0 
c00006a4:	c7 44 24 04 d0 47 00 	movl   $0xc00047d0,0x4(%esp)
c00006ab:	c0 
c00006ac:	c7 04 24 f0 47 00 c0 	movl   $0xc00047f0,(%esp)
c00006b3:	e8 35 fd ff ff       	call   c00003ed <kprintf>
c00006b8:	fa                   	cli    
c00006b9:	eb fe                	jmp    c00006b9 <exception_handler_middle+0x8e>
c00006bb:	c7 04 24 18 48 00 c0 	movl   $0xc0004818,(%esp)
c00006c2:	e8 26 fd ff ff       	call   c00003ed <kprintf>
c00006c7:	e9 39 01 00 00       	jmp    c0000805 <exception_handler_middle+0x1da>
c00006cc:	c7 04 24 40 48 00 c0 	movl   $0xc0004840,(%esp)
c00006d3:	e8 15 fd ff ff       	call   c00003ed <kprintf>
c00006d8:	e9 28 01 00 00       	jmp    c0000805 <exception_handler_middle+0x1da>
c00006dd:	c7 04 24 68 48 00 c0 	movl   $0xc0004868,(%esp)
c00006e4:	e8 04 fd ff ff       	call   c00003ed <kprintf>
c00006e9:	e9 17 01 00 00       	jmp    c0000805 <exception_handler_middle+0x1da>
c00006ee:	c7 04 24 88 48 00 c0 	movl   $0xc0004888,(%esp)
c00006f5:	e8 f3 fc ff ff       	call   c00003ed <kprintf>
c00006fa:	e9 06 01 00 00       	jmp    c0000805 <exception_handler_middle+0x1da>
c00006ff:	c7 04 24 bc 48 00 c0 	movl   $0xc00048bc,(%esp)
c0000706:	e8 e2 fc ff ff       	call   c00003ed <kprintf>
c000070b:	e9 f5 00 00 00       	jmp    c0000805 <exception_handler_middle+0x1da>
c0000710:	c7 04 24 e4 48 00 c0 	movl   $0xc00048e4,(%esp)
c0000717:	e8 d1 fc ff ff       	call   c00003ed <kprintf>
c000071c:	e9 e4 00 00 00       	jmp    c0000805 <exception_handler_middle+0x1da>
c0000721:	c7 04 24 1c 49 00 c0 	movl   $0xc000491c,(%esp)
c0000728:	e8 c0 fc ff ff       	call   c00003ed <kprintf>
c000072d:	e9 d3 00 00 00       	jmp    c0000805 <exception_handler_middle+0x1da>
c0000732:	c7 04 24 48 49 00 c0 	movl   $0xc0004948,(%esp)
c0000739:	e8 af fc ff ff       	call   c00003ed <kprintf>
c000073e:	e9 c2 00 00 00       	jmp    c0000805 <exception_handler_middle+0x1da>
c0000743:	c7 04 24 6c 49 00 c0 	movl   $0xc000496c,(%esp)
c000074a:	e8 9e fc ff ff       	call   c00003ed <kprintf>
c000074f:	e9 b1 00 00 00       	jmp    c0000805 <exception_handler_middle+0x1da>
c0000754:	8b 45 08             	mov    0x8(%ebp),%eax
c0000757:	8b 40 40             	mov    0x40(%eax),%eax
c000075a:	25 00 00 02 00       	and    $0x20000,%eax
c000075f:	85 c0                	test   %eax,%eax
c0000761:	74 27                	je     c000078a <exception_handler_middle+0x15f>
c0000763:	c7 44 24 0c 75 00 00 	movl   $0x75,0xc(%esp)
c000076a:	00 
c000076b:	c7 44 24 08 b4 47 00 	movl   $0xc00047b4,0x8(%esp)
c0000772:	c0 
c0000773:	c7 44 24 04 88 49 00 	movl   $0xc0004988,0x4(%esp)
c000077a:	c0 
c000077b:	c7 04 24 f0 47 00 c0 	movl   $0xc00047f0,(%esp)
c0000782:	e8 66 fc ff ff       	call   c00003ed <kprintf>
c0000787:	fa                   	cli    
c0000788:	eb fe                	jmp    c0000788 <exception_handler_middle+0x15d>
c000078a:	c7 04 24 a8 49 00 c0 	movl   $0xc00049a8,(%esp)
c0000791:	e8 57 fc ff ff       	call   c00003ed <kprintf>
c0000796:	eb 6d                	jmp    c0000805 <exception_handler_middle+0x1da>
c0000798:	0f 20 d3             	mov    %cr2,%ebx
c000079b:	89 5d f4             	mov    %ebx,-0xc(%ebp)
c000079e:	8b 45 08             	mov    0x8(%ebp),%eax
c00007a1:	8b 40 34             	mov    0x34(%eax),%eax
c00007a4:	83 e0 01             	and    $0x1,%eax
c00007a7:	85 c0                	test   %eax,%eax
c00007a9:	75 27                	jne    c00007d2 <exception_handler_middle+0x1a7>
c00007ab:	8b 45 08             	mov    0x8(%ebp),%eax
c00007ae:	8b 40 34             	mov    0x34(%eax),%eax
c00007b1:	8b 55 f4             	mov    -0xc(%ebp),%edx
c00007b4:	89 54 24 04          	mov    %edx,0x4(%esp)
c00007b8:	89 04 24             	mov    %eax,(%esp)
c00007bb:	e8 5a 18 00 00       	call   c000201a <page_fault_handler>
c00007c0:	85 c0                	test   %eax,%eax
c00007c2:	74 73                	je     c0000837 <exception_handler_middle+0x20c>
c00007c4:	c7 04 24 d4 49 00 c0 	movl   $0xc00049d4,(%esp)
c00007cb:	e8 1d fc ff ff       	call   c00003ed <kprintf>
c00007d0:	eb 33                	jmp    c0000805 <exception_handler_middle+0x1da>
c00007d2:	c7 04 24 00 4a 00 c0 	movl   $0xc0004a00,(%esp)
c00007d9:	e8 0f fc ff ff       	call   c00003ed <kprintf>
c00007de:	eb 25                	jmp    c0000805 <exception_handler_middle+0x1da>
c00007e0:	c7 04 24 40 4a 00 c0 	movl   $0xc0004a40,(%esp)
c00007e7:	e8 01 fc ff ff       	call   c00003ed <kprintf>
c00007ec:	eb 17                	jmp    c0000805 <exception_handler_middle+0x1da>
c00007ee:	8b 45 08             	mov    0x8(%ebp),%eax
c00007f1:	8b 40 30             	mov    0x30(%eax),%eax
c00007f4:	89 44 24 04          	mov    %eax,0x4(%esp)
c00007f8:	c7 04 24 64 4a 00 c0 	movl   $0xc0004a64,(%esp)
c00007ff:	e8 e9 fb ff ff       	call   c00003ed <kprintf>
c0000804:	90                   	nop
c0000805:	8b 45 08             	mov    0x8(%ebp),%eax
c0000808:	89 04 24             	mov    %eax,(%esp)
c000080b:	e8 a8 fc ff ff       	call   c00004b8 <dump_registers>
c0000810:	c7 44 24 0c 96 00 00 	movl   $0x96,0xc(%esp)
c0000817:	00 
c0000818:	c7 44 24 08 b4 47 00 	movl   $0xc00047b4,0x8(%esp)
c000081f:	c0 
c0000820:	c7 44 24 04 90 4a 00 	movl   $0xc0004a90,0x4(%esp)
c0000827:	c0 
c0000828:	c7 04 24 f0 47 00 c0 	movl   $0xc00047f0,(%esp)
c000082f:	e8 b9 fb ff ff       	call   c00003ed <kprintf>
c0000834:	fa                   	cli    
c0000835:	eb fe                	jmp    c0000835 <exception_handler_middle+0x20a>
c0000837:	90                   	nop
c0000838:	83 c4 24             	add    $0x24,%esp
c000083b:	5b                   	pop    %ebx
c000083c:	5d                   	pop    %ebp
c000083d:	c3                   	ret    
	...

c0000840 <outport08>:
outport08():
c0000840:	55                   	push   %ebp
c0000841:	89 e5                	mov    %esp,%ebp
c0000843:	83 ec 08             	sub    $0x8,%esp
c0000846:	8b 55 08             	mov    0x8(%ebp),%edx
c0000849:	8b 45 0c             	mov    0xc(%ebp),%eax
c000084c:	66 89 55 fc          	mov    %dx,-0x4(%ebp)
c0000850:	88 45 f8             	mov    %al,-0x8(%ebp)
c0000853:	0f b7 55 fc          	movzwl -0x4(%ebp),%edx
c0000857:	0f b6 45 f8          	movzbl -0x8(%ebp),%eax
c000085b:	ee                   	out    %al,(%dx)
c000085c:	c9                   	leave  
c000085d:	c3                   	ret    

c000085e <reprogram_PIC_8259>:
reprogram_PIC_8259():
c000085e:	55                   	push   %ebp
c000085f:	89 e5                	mov    %esp,%ebp
c0000861:	83 ec 08             	sub    $0x8,%esp
c0000864:	c7 44 24 04 11 00 00 	movl   $0x11,0x4(%esp)
c000086b:	00 
c000086c:	c7 04 24 20 00 00 00 	movl   $0x20,(%esp)
c0000873:	e8 c8 ff ff ff       	call   c0000840 <outport08>
c0000878:	c7 44 24 04 11 00 00 	movl   $0x11,0x4(%esp)
c000087f:	00 
c0000880:	c7 04 24 a0 00 00 00 	movl   $0xa0,(%esp)
c0000887:	e8 b4 ff ff ff       	call   c0000840 <outport08>
c000088c:	c7 44 24 04 20 00 00 	movl   $0x20,0x4(%esp)
c0000893:	00 
c0000894:	c7 04 24 21 00 00 00 	movl   $0x21,(%esp)
c000089b:	e8 a0 ff ff ff       	call   c0000840 <outport08>
c00008a0:	c7 44 24 04 28 00 00 	movl   $0x28,0x4(%esp)
c00008a7:	00 
c00008a8:	c7 04 24 a1 00 00 00 	movl   $0xa1,(%esp)
c00008af:	e8 8c ff ff ff       	call   c0000840 <outport08>
c00008b4:	c7 44 24 04 04 00 00 	movl   $0x4,0x4(%esp)
c00008bb:	00 
c00008bc:	c7 04 24 21 00 00 00 	movl   $0x21,(%esp)
c00008c3:	e8 78 ff ff ff       	call   c0000840 <outport08>
c00008c8:	c7 44 24 04 02 00 00 	movl   $0x2,0x4(%esp)
c00008cf:	00 
c00008d0:	c7 04 24 a1 00 00 00 	movl   $0xa1,(%esp)
c00008d7:	e8 64 ff ff ff       	call   c0000840 <outport08>
c00008dc:	c7 44 24 04 01 00 00 	movl   $0x1,0x4(%esp)
c00008e3:	00 
c00008e4:	c7 04 24 21 00 00 00 	movl   $0x21,(%esp)
c00008eb:	e8 50 ff ff ff       	call   c0000840 <outport08>
c00008f0:	c7 44 24 04 01 00 00 	movl   $0x1,0x4(%esp)
c00008f7:	00 
c00008f8:	c7 04 24 a1 00 00 00 	movl   $0xa1,(%esp)
c00008ff:	e8 3c ff ff ff       	call   c0000840 <outport08>
c0000904:	c7 44 24 04 ff 00 00 	movl   $0xff,0x4(%esp)
c000090b:	00 
c000090c:	c7 04 24 21 00 00 00 	movl   $0x21,(%esp)
c0000913:	e8 28 ff ff ff       	call   c0000840 <outport08>
c0000918:	c7 44 24 04 ff 00 00 	movl   $0xff,0x4(%esp)
c000091f:	00 
c0000920:	c7 04 24 a1 00 00 00 	movl   $0xa1,(%esp)
c0000927:	e8 14 ff ff ff       	call   c0000840 <outport08>
c000092c:	c9                   	leave  
c000092d:	c3                   	ret    

c000092e <set_IDT_gate>:
set_IDT_gate():
c000092e:	55                   	push   %ebp
c000092f:	89 e5                	mov    %esp,%ebp
c0000931:	53                   	push   %ebx
c0000932:	83 ec 1c             	sub    $0x1c,%esp
c0000935:	8b 4d 08             	mov    0x8(%ebp),%ecx
c0000938:	8b 55 10             	mov    0x10(%ebp),%edx
c000093b:	8b 45 14             	mov    0x14(%ebp),%eax
c000093e:	88 4d e8             	mov    %cl,-0x18(%ebp)
c0000941:	66 89 55 e4          	mov    %dx,-0x1c(%ebp)
c0000945:	88 45 e0             	mov    %al,-0x20(%ebp)
c0000948:	9c                   	pushf  
c0000949:	5b                   	pop    %ebx
c000094a:	fa                   	cli    
c000094b:	89 5d f8             	mov    %ebx,-0x8(%ebp)
c000094e:	0f b6 45 e8          	movzbl -0x18(%ebp),%eax
c0000952:	8b 55 0c             	mov    0xc(%ebp),%edx
c0000955:	66 89 14 c5 80 75 01 	mov    %dx,-0x3ffe8a80(,%eax,8)
c000095c:	c0 
c000095d:	0f b6 45 e8          	movzbl -0x18(%ebp),%eax
c0000961:	0f b7 55 e4          	movzwl -0x1c(%ebp),%edx
c0000965:	66 89 14 c5 82 75 01 	mov    %dx,-0x3ffe8a7e(,%eax,8)
c000096c:	c0 
c000096d:	0f b6 45 e8          	movzbl -0x18(%ebp),%eax
c0000971:	c6 04 c5 84 75 01 c0 	movb   $0x0,-0x3ffe8a7c(,%eax,8)
c0000978:	00 
c0000979:	0f b6 45 e8          	movzbl -0x18(%ebp),%eax
c000097d:	0f b6 55 e0          	movzbl -0x20(%ebp),%edx
c0000981:	88 14 c5 85 75 01 c0 	mov    %dl,-0x3ffe8a7b(,%eax,8)
c0000988:	0f b6 45 e8          	movzbl -0x18(%ebp),%eax
c000098c:	8b 55 0c             	mov    0xc(%ebp),%edx
c000098f:	c1 ea 10             	shr    $0x10,%edx
c0000992:	66 89 14 c5 86 75 01 	mov    %dx,-0x3ffe8a7a(,%eax,8)
c0000999:	c0 
c000099a:	ff 75 f8             	pushl  -0x8(%ebp)
c000099d:	9d                   	popf   
c000099e:	83 c4 1c             	add    $0x1c,%esp
c00009a1:	5b                   	pop    %ebx
c00009a2:	5d                   	pop    %ebp
c00009a3:	c3                   	ret    

c00009a4 <spurious_interrupt>:
spurious_interrupt():
c00009a4:	55                   	push   %ebp
c00009a5:	89 e5                	mov    %esp,%ebp
c00009a7:	83 ec 18             	sub    $0x18,%esp
c00009aa:	a1 14 71 01 c0       	mov    0xc0017114,%eax
c00009af:	85 c0                	test   %eax,%eax
c00009b1:	74 16                	je     c00009c9 <spurious_interrupt+0x25>
c00009b3:	8b 45 08             	mov    0x8(%ebp),%eax
c00009b6:	8b 40 30             	mov    0x30(%eax),%eax
c00009b9:	89 44 24 04          	mov    %eax,0x4(%esp)
c00009bd:	c7 04 24 18 4b 00 c0 	movl   $0xc0004b18,(%esp)
c00009c4:	e8 24 fa ff ff       	call   c00003ed <kprintf>
c00009c9:	c9                   	leave  
c00009ca:	c3                   	ret    

c00009cb <initialize_IDT>:
initialize_IDT():
c00009cb:	55                   	push   %ebp
c00009cc:	89 e5                	mov    %esp,%ebp
c00009ce:	83 ec 28             	sub    $0x28,%esp
c00009d1:	c7 45 f4 00 00 00 00 	movl   $0x0,-0xc(%ebp)
c00009d8:	eb 2b                	jmp    c0000a05 <initialize_IDT+0x3a>
c00009da:	ba 14 01 00 c0       	mov    $0xc0000114,%edx
c00009df:	8b 45 f4             	mov    -0xc(%ebp),%eax
c00009e2:	0f b6 c0             	movzbl %al,%eax
c00009e5:	c7 44 24 0c 8e 00 00 	movl   $0x8e,0xc(%esp)
c00009ec:	00 
c00009ed:	c7 44 24 08 08 00 00 	movl   $0x8,0x8(%esp)
c00009f4:	00 
c00009f5:	89 54 24 04          	mov    %edx,0x4(%esp)
c00009f9:	89 04 24             	mov    %eax,(%esp)
c00009fc:	e8 2d ff ff ff       	call   c000092e <set_IDT_gate>
c0000a01:	83 45 f4 01          	addl   $0x1,-0xc(%ebp)
c0000a05:	83 7d f4 1f          	cmpl   $0x1f,-0xc(%ebp)
c0000a09:	76 cf                	jbe    c00009da <initialize_IDT+0xf>
c0000a0b:	b8 c0 00 00 c0       	mov    $0xc00000c0,%eax
c0000a10:	c7 44 24 0c 8f 00 00 	movl   $0x8f,0xc(%esp)
c0000a17:	00 
c0000a18:	c7 44 24 08 08 00 00 	movl   $0x8,0x8(%esp)
c0000a1f:	00 
c0000a20:	89 44 24 04          	mov    %eax,0x4(%esp)
c0000a24:	c7 04 24 00 00 00 00 	movl   $0x0,(%esp)
c0000a2b:	e8 fe fe ff ff       	call   c000092e <set_IDT_gate>
c0000a30:	b8 c6 00 00 c0       	mov    $0xc00000c6,%eax
c0000a35:	c7 44 24 0c 8f 00 00 	movl   $0x8f,0xc(%esp)
c0000a3c:	00 
c0000a3d:	c7 44 24 08 08 00 00 	movl   $0x8,0x8(%esp)
c0000a44:	00 
c0000a45:	89 44 24 04          	mov    %eax,0x4(%esp)
c0000a49:	c7 04 24 01 00 00 00 	movl   $0x1,(%esp)
c0000a50:	e8 d9 fe ff ff       	call   c000092e <set_IDT_gate>
c0000a55:	b8 cc 00 00 c0       	mov    $0xc00000cc,%eax
c0000a5a:	c7 44 24 0c 8f 00 00 	movl   $0x8f,0xc(%esp)
c0000a61:	00 
c0000a62:	c7 44 24 08 08 00 00 	movl   $0x8,0x8(%esp)
c0000a69:	00 
c0000a6a:	89 44 24 04          	mov    %eax,0x4(%esp)
c0000a6e:	c7 04 24 02 00 00 00 	movl   $0x2,(%esp)
c0000a75:	e8 b4 fe ff ff       	call   c000092e <set_IDT_gate>
c0000a7a:	b8 d2 00 00 c0       	mov    $0xc00000d2,%eax
c0000a7f:	c7 44 24 0c ef 00 00 	movl   $0xef,0xc(%esp)
c0000a86:	00 
c0000a87:	c7 44 24 08 08 00 00 	movl   $0x8,0x8(%esp)
c0000a8e:	00 
c0000a8f:	89 44 24 04          	mov    %eax,0x4(%esp)
c0000a93:	c7 04 24 03 00 00 00 	movl   $0x3,(%esp)
c0000a9a:	e8 8f fe ff ff       	call   c000092e <set_IDT_gate>
c0000a9f:	b8 d8 00 00 c0       	mov    $0xc00000d8,%eax
c0000aa4:	c7 44 24 0c ef 00 00 	movl   $0xef,0xc(%esp)
c0000aab:	00 
c0000aac:	c7 44 24 08 08 00 00 	movl   $0x8,0x8(%esp)
c0000ab3:	00 
c0000ab4:	89 44 24 04          	mov    %eax,0x4(%esp)
c0000ab8:	c7 04 24 04 00 00 00 	movl   $0x4,(%esp)
c0000abf:	e8 6a fe ff ff       	call   c000092e <set_IDT_gate>
c0000ac4:	b8 de 00 00 c0       	mov    $0xc00000de,%eax
c0000ac9:	c7 44 24 0c ef 00 00 	movl   $0xef,0xc(%esp)
c0000ad0:	00 
c0000ad1:	c7 44 24 08 08 00 00 	movl   $0x8,0x8(%esp)
c0000ad8:	00 
c0000ad9:	89 44 24 04          	mov    %eax,0x4(%esp)
c0000add:	c7 04 24 05 00 00 00 	movl   $0x5,(%esp)
c0000ae4:	e8 45 fe ff ff       	call   c000092e <set_IDT_gate>
c0000ae9:	b8 e4 00 00 c0       	mov    $0xc00000e4,%eax
c0000aee:	c7 44 24 0c 8f 00 00 	movl   $0x8f,0xc(%esp)
c0000af5:	00 
c0000af6:	c7 44 24 08 08 00 00 	movl   $0x8,0x8(%esp)
c0000afd:	00 
c0000afe:	89 44 24 04          	mov    %eax,0x4(%esp)
c0000b02:	c7 04 24 06 00 00 00 	movl   $0x6,(%esp)
c0000b09:	e8 20 fe ff ff       	call   c000092e <set_IDT_gate>
c0000b0e:	b8 ea 00 00 c0       	mov    $0xc00000ea,%eax
c0000b13:	c7 44 24 0c 8f 00 00 	movl   $0x8f,0xc(%esp)
c0000b1a:	00 
c0000b1b:	c7 44 24 08 08 00 00 	movl   $0x8,0x8(%esp)
c0000b22:	00 
c0000b23:	89 44 24 04          	mov    %eax,0x4(%esp)
c0000b27:	c7 04 24 07 00 00 00 	movl   $0x7,(%esp)
c0000b2e:	e8 fb fd ff ff       	call   c000092e <set_IDT_gate>
c0000b33:	b8 f0 00 00 c0       	mov    $0xc00000f0,%eax
c0000b38:	c7 44 24 0c 8f 00 00 	movl   $0x8f,0xc(%esp)
c0000b3f:	00 
c0000b40:	c7 44 24 08 08 00 00 	movl   $0x8,0x8(%esp)
c0000b47:	00 
c0000b48:	89 44 24 04          	mov    %eax,0x4(%esp)
c0000b4c:	c7 04 24 08 00 00 00 	movl   $0x8,(%esp)
c0000b53:	e8 d6 fd ff ff       	call   c000092e <set_IDT_gate>
c0000b58:	b8 f4 00 00 c0       	mov    $0xc00000f4,%eax
c0000b5d:	c7 44 24 0c 8f 00 00 	movl   $0x8f,0xc(%esp)
c0000b64:	00 
c0000b65:	c7 44 24 08 08 00 00 	movl   $0x8,0x8(%esp)
c0000b6c:	00 
c0000b6d:	89 44 24 04          	mov    %eax,0x4(%esp)
c0000b71:	c7 04 24 09 00 00 00 	movl   $0x9,(%esp)
c0000b78:	e8 b1 fd ff ff       	call   c000092e <set_IDT_gate>
c0000b7d:	b8 fa 00 00 c0       	mov    $0xc00000fa,%eax
c0000b82:	c7 44 24 0c 8f 00 00 	movl   $0x8f,0xc(%esp)
c0000b89:	00 
c0000b8a:	c7 44 24 08 08 00 00 	movl   $0x8,0x8(%esp)
c0000b91:	00 
c0000b92:	89 44 24 04          	mov    %eax,0x4(%esp)
c0000b96:	c7 04 24 0a 00 00 00 	movl   $0xa,(%esp)
c0000b9d:	e8 8c fd ff ff       	call   c000092e <set_IDT_gate>
c0000ba2:	b8 fe 00 00 c0       	mov    $0xc00000fe,%eax
c0000ba7:	c7 44 24 0c 8f 00 00 	movl   $0x8f,0xc(%esp)
c0000bae:	00 
c0000baf:	c7 44 24 08 08 00 00 	movl   $0x8,0x8(%esp)
c0000bb6:	00 
c0000bb7:	89 44 24 04          	mov    %eax,0x4(%esp)
c0000bbb:	c7 04 24 0b 00 00 00 	movl   $0xb,(%esp)
c0000bc2:	e8 67 fd ff ff       	call   c000092e <set_IDT_gate>
c0000bc7:	b8 02 01 00 c0       	mov    $0xc0000102,%eax
c0000bcc:	c7 44 24 0c 8f 00 00 	movl   $0x8f,0xc(%esp)
c0000bd3:	00 
c0000bd4:	c7 44 24 08 08 00 00 	movl   $0x8,0x8(%esp)
c0000bdb:	00 
c0000bdc:	89 44 24 04          	mov    %eax,0x4(%esp)
c0000be0:	c7 04 24 0c 00 00 00 	movl   $0xc,(%esp)
c0000be7:	e8 42 fd ff ff       	call   c000092e <set_IDT_gate>
c0000bec:	b8 06 01 00 c0       	mov    $0xc0000106,%eax
c0000bf1:	c7 44 24 0c 8f 00 00 	movl   $0x8f,0xc(%esp)
c0000bf8:	00 
c0000bf9:	c7 44 24 08 08 00 00 	movl   $0x8,0x8(%esp)
c0000c00:	00 
c0000c01:	89 44 24 04          	mov    %eax,0x4(%esp)
c0000c05:	c7 04 24 0d 00 00 00 	movl   $0xd,(%esp)
c0000c0c:	e8 1d fd ff ff       	call   c000092e <set_IDT_gate>
c0000c11:	b8 0a 01 00 c0       	mov    $0xc000010a,%eax
c0000c16:	c7 44 24 0c 8f 00 00 	movl   $0x8f,0xc(%esp)
c0000c1d:	00 
c0000c1e:	c7 44 24 08 08 00 00 	movl   $0x8,0x8(%esp)
c0000c25:	00 
c0000c26:	89 44 24 04          	mov    %eax,0x4(%esp)
c0000c2a:	c7 04 24 0e 00 00 00 	movl   $0xe,(%esp)
c0000c31:	e8 f8 fc ff ff       	call   c000092e <set_IDT_gate>
c0000c36:	b8 0e 01 00 c0       	mov    $0xc000010e,%eax
c0000c3b:	c7 44 24 0c 8f 00 00 	movl   $0x8f,0xc(%esp)
c0000c42:	00 
c0000c43:	c7 44 24 08 08 00 00 	movl   $0x8,0x8(%esp)
c0000c4a:	00 
c0000c4b:	89 44 24 04          	mov    %eax,0x4(%esp)
c0000c4f:	c7 04 24 0f 00 00 00 	movl   $0xf,(%esp)
c0000c56:	e8 d3 fc ff ff       	call   c000092e <set_IDT_gate>
c0000c5b:	c7 45 f4 20 00 00 00 	movl   $0x20,-0xc(%ebp)
c0000c62:	eb 2b                	jmp    c0000c8f <initialize_IDT+0x2c4>
c0000c64:	ba 90 01 00 c0       	mov    $0xc0000190,%edx
c0000c69:	8b 45 f4             	mov    -0xc(%ebp),%eax
c0000c6c:	0f b6 c0             	movzbl %al,%eax
c0000c6f:	c7 44 24 0c 8e 00 00 	movl   $0x8e,0xc(%esp)
c0000c76:	00 
c0000c77:	c7 44 24 08 08 00 00 	movl   $0x8,0x8(%esp)
c0000c7e:	00 
c0000c7f:	89 54 24 04          	mov    %edx,0x4(%esp)
c0000c83:	89 04 24             	mov    %eax,(%esp)
c0000c86:	e8 a3 fc ff ff       	call   c000092e <set_IDT_gate>
c0000c8b:	83 45 f4 01          	addl   $0x1,-0xc(%ebp)
c0000c8f:	81 7d f4 ff 00 00 00 	cmpl   $0xff,-0xc(%ebp)
c0000c96:	76 cc                	jbe    c0000c64 <initialize_IDT+0x299>
c0000c98:	b8 50 01 00 c0       	mov    $0xc0000150,%eax
c0000c9d:	c7 44 24 0c 8e 00 00 	movl   $0x8e,0xc(%esp)
c0000ca4:	00 
c0000ca5:	c7 44 24 08 08 00 00 	movl   $0x8,0x8(%esp)
c0000cac:	00 
c0000cad:	89 44 24 04          	mov    %eax,0x4(%esp)
c0000cb1:	c7 04 24 20 00 00 00 	movl   $0x20,(%esp)
c0000cb8:	e8 71 fc ff ff       	call   c000092e <set_IDT_gate>
c0000cbd:	b8 54 01 00 c0       	mov    $0xc0000154,%eax
c0000cc2:	c7 44 24 0c 8e 00 00 	movl   $0x8e,0xc(%esp)
c0000cc9:	00 
c0000cca:	c7 44 24 08 08 00 00 	movl   $0x8,0x8(%esp)
c0000cd1:	00 
c0000cd2:	89 44 24 04          	mov    %eax,0x4(%esp)
c0000cd6:	c7 04 24 21 00 00 00 	movl   $0x21,(%esp)
c0000cdd:	e8 4c fc ff ff       	call   c000092e <set_IDT_gate>
c0000ce2:	b8 58 01 00 c0       	mov    $0xc0000158,%eax
c0000ce7:	c7 44 24 0c 8e 00 00 	movl   $0x8e,0xc(%esp)
c0000cee:	00 
c0000cef:	c7 44 24 08 08 00 00 	movl   $0x8,0x8(%esp)
c0000cf6:	00 
c0000cf7:	89 44 24 04          	mov    %eax,0x4(%esp)
c0000cfb:	c7 04 24 22 00 00 00 	movl   $0x22,(%esp)
c0000d02:	e8 27 fc ff ff       	call   c000092e <set_IDT_gate>
c0000d07:	b8 5c 01 00 c0       	mov    $0xc000015c,%eax
c0000d0c:	c7 44 24 0c 8e 00 00 	movl   $0x8e,0xc(%esp)
c0000d13:	00 
c0000d14:	c7 44 24 08 08 00 00 	movl   $0x8,0x8(%esp)
c0000d1b:	00 
c0000d1c:	89 44 24 04          	mov    %eax,0x4(%esp)
c0000d20:	c7 04 24 23 00 00 00 	movl   $0x23,(%esp)
c0000d27:	e8 02 fc ff ff       	call   c000092e <set_IDT_gate>
c0000d2c:	b8 60 01 00 c0       	mov    $0xc0000160,%eax
c0000d31:	c7 44 24 0c 8e 00 00 	movl   $0x8e,0xc(%esp)
c0000d38:	00 
c0000d39:	c7 44 24 08 08 00 00 	movl   $0x8,0x8(%esp)
c0000d40:	00 
c0000d41:	89 44 24 04          	mov    %eax,0x4(%esp)
c0000d45:	c7 04 24 24 00 00 00 	movl   $0x24,(%esp)
c0000d4c:	e8 dd fb ff ff       	call   c000092e <set_IDT_gate>
c0000d51:	b8 64 01 00 c0       	mov    $0xc0000164,%eax
c0000d56:	c7 44 24 0c 8e 00 00 	movl   $0x8e,0xc(%esp)
c0000d5d:	00 
c0000d5e:	c7 44 24 08 08 00 00 	movl   $0x8,0x8(%esp)
c0000d65:	00 
c0000d66:	89 44 24 04          	mov    %eax,0x4(%esp)
c0000d6a:	c7 04 24 25 00 00 00 	movl   $0x25,(%esp)
c0000d71:	e8 b8 fb ff ff       	call   c000092e <set_IDT_gate>
c0000d76:	b8 68 01 00 c0       	mov    $0xc0000168,%eax
c0000d7b:	c7 44 24 0c 8e 00 00 	movl   $0x8e,0xc(%esp)
c0000d82:	00 
c0000d83:	c7 44 24 08 08 00 00 	movl   $0x8,0x8(%esp)
c0000d8a:	00 
c0000d8b:	89 44 24 04          	mov    %eax,0x4(%esp)
c0000d8f:	c7 04 24 26 00 00 00 	movl   $0x26,(%esp)
c0000d96:	e8 93 fb ff ff       	call   c000092e <set_IDT_gate>
c0000d9b:	b8 6c 01 00 c0       	mov    $0xc000016c,%eax
c0000da0:	c7 44 24 0c 8e 00 00 	movl   $0x8e,0xc(%esp)
c0000da7:	00 
c0000da8:	c7 44 24 08 08 00 00 	movl   $0x8,0x8(%esp)
c0000daf:	00 
c0000db0:	89 44 24 04          	mov    %eax,0x4(%esp)
c0000db4:	c7 04 24 27 00 00 00 	movl   $0x27,(%esp)
c0000dbb:	e8 6e fb ff ff       	call   c000092e <set_IDT_gate>
c0000dc0:	b8 70 01 00 c0       	mov    $0xc0000170,%eax
c0000dc5:	c7 44 24 0c 8e 00 00 	movl   $0x8e,0xc(%esp)
c0000dcc:	00 
c0000dcd:	c7 44 24 08 08 00 00 	movl   $0x8,0x8(%esp)
c0000dd4:	00 
c0000dd5:	89 44 24 04          	mov    %eax,0x4(%esp)
c0000dd9:	c7 04 24 28 00 00 00 	movl   $0x28,(%esp)
c0000de0:	e8 49 fb ff ff       	call   c000092e <set_IDT_gate>
c0000de5:	b8 74 01 00 c0       	mov    $0xc0000174,%eax
c0000dea:	c7 44 24 0c 8e 00 00 	movl   $0x8e,0xc(%esp)
c0000df1:	00 
c0000df2:	c7 44 24 08 08 00 00 	movl   $0x8,0x8(%esp)
c0000df9:	00 
c0000dfa:	89 44 24 04          	mov    %eax,0x4(%esp)
c0000dfe:	c7 04 24 29 00 00 00 	movl   $0x29,(%esp)
c0000e05:	e8 24 fb ff ff       	call   c000092e <set_IDT_gate>
c0000e0a:	b8 78 01 00 c0       	mov    $0xc0000178,%eax
c0000e0f:	c7 44 24 0c 8e 00 00 	movl   $0x8e,0xc(%esp)
c0000e16:	00 
c0000e17:	c7 44 24 08 08 00 00 	movl   $0x8,0x8(%esp)
c0000e1e:	00 
c0000e1f:	89 44 24 04          	mov    %eax,0x4(%esp)
c0000e23:	c7 04 24 2a 00 00 00 	movl   $0x2a,(%esp)
c0000e2a:	e8 ff fa ff ff       	call   c000092e <set_IDT_gate>
c0000e2f:	b8 7c 01 00 c0       	mov    $0xc000017c,%eax
c0000e34:	c7 44 24 0c 8e 00 00 	movl   $0x8e,0xc(%esp)
c0000e3b:	00 
c0000e3c:	c7 44 24 08 08 00 00 	movl   $0x8,0x8(%esp)
c0000e43:	00 
c0000e44:	89 44 24 04          	mov    %eax,0x4(%esp)
c0000e48:	c7 04 24 2b 00 00 00 	movl   $0x2b,(%esp)
c0000e4f:	e8 da fa ff ff       	call   c000092e <set_IDT_gate>
c0000e54:	b8 80 01 00 c0       	mov    $0xc0000180,%eax
c0000e59:	c7 44 24 0c 8e 00 00 	movl   $0x8e,0xc(%esp)
c0000e60:	00 
c0000e61:	c7 44 24 08 08 00 00 	movl   $0x8,0x8(%esp)
c0000e68:	00 
c0000e69:	89 44 24 04          	mov    %eax,0x4(%esp)
c0000e6d:	c7 04 24 2c 00 00 00 	movl   $0x2c,(%esp)
c0000e74:	e8 b5 fa ff ff       	call   c000092e <set_IDT_gate>
c0000e79:	b8 84 01 00 c0       	mov    $0xc0000184,%eax
c0000e7e:	c7 44 24 0c 8e 00 00 	movl   $0x8e,0xc(%esp)
c0000e85:	00 
c0000e86:	c7 44 24 08 08 00 00 	movl   $0x8,0x8(%esp)
c0000e8d:	00 
c0000e8e:	89 44 24 04          	mov    %eax,0x4(%esp)
c0000e92:	c7 04 24 2d 00 00 00 	movl   $0x2d,(%esp)
c0000e99:	e8 90 fa ff ff       	call   c000092e <set_IDT_gate>
c0000e9e:	b8 88 01 00 c0       	mov    $0xc0000188,%eax
c0000ea3:	c7 44 24 0c 8e 00 00 	movl   $0x8e,0xc(%esp)
c0000eaa:	00 
c0000eab:	c7 44 24 08 08 00 00 	movl   $0x8,0x8(%esp)
c0000eb2:	00 
c0000eb3:	89 44 24 04          	mov    %eax,0x4(%esp)
c0000eb7:	c7 04 24 2e 00 00 00 	movl   $0x2e,(%esp)
c0000ebe:	e8 6b fa ff ff       	call   c000092e <set_IDT_gate>
c0000ec3:	b8 8c 01 00 c0       	mov    $0xc000018c,%eax
c0000ec8:	c7 44 24 0c 8e 00 00 	movl   $0x8e,0xc(%esp)
c0000ecf:	00 
c0000ed0:	c7 44 24 08 08 00 00 	movl   $0x8,0x8(%esp)
c0000ed7:	00 
c0000ed8:	89 44 24 04          	mov    %eax,0x4(%esp)
c0000edc:	c7 04 24 2f 00 00 00 	movl   $0x2f,(%esp)
c0000ee3:	e8 46 fa ff ff       	call   c000092e <set_IDT_gate>
c0000ee8:	66 c7 05 60 75 01 c0 	movw   $0x7ff,0xc0017560
c0000eef:	ff 07 
c0000ef1:	b8 62 75 01 c0       	mov    $0xc0017562,%eax
c0000ef6:	ba 80 75 01 c0       	mov    $0xc0017580,%edx
c0000efb:	89 10                	mov    %edx,(%eax)
c0000efd:	b8 60 75 01 c0       	mov    $0xc0017560,%eax
c0000f02:	0f 01 18             	lidtl  (%eax)
c0000f05:	c7 44 24 04 a4 09 00 	movl   $0xc00009a4,0x4(%esp)
c0000f0c:	c0 
c0000f0d:	c7 04 24 07 00 00 00 	movl   $0x7,(%esp)
c0000f14:	e8 8d 02 00 00       	call   c00011a6 <register_interrupt_handler>
c0000f19:	c7 44 24 04 a4 09 00 	movl   $0xc00009a4,0x4(%esp)
c0000f20:	c0 
c0000f21:	c7 04 24 0f 00 00 00 	movl   $0xf,(%esp)
c0000f28:	e8 79 02 00 00       	call   c00011a6 <register_interrupt_handler>
c0000f2d:	fb                   	sti    
c0000f2e:	c9                   	leave  
c0000f2f:	c3                   	ret    

c0000f30 <inport08>:
inport08():
c0000f30:	55                   	push   %ebp
c0000f31:	89 e5                	mov    %esp,%ebp
c0000f33:	53                   	push   %ebx
c0000f34:	83 ec 18             	sub    $0x18,%esp
c0000f37:	8b 45 08             	mov    0x8(%ebp),%eax
c0000f3a:	66 89 45 e8          	mov    %ax,-0x18(%ebp)
c0000f3e:	0f b7 45 e8          	movzwl -0x18(%ebp),%eax
c0000f42:	66 89 45 e6          	mov    %ax,-0x1a(%ebp)
c0000f46:	0f b7 55 e6          	movzwl -0x1a(%ebp),%edx
c0000f4a:	ec                   	in     (%dx),%al
c0000f4b:	89 c3                	mov    %eax,%ebx
c0000f4d:	88 5d fb             	mov    %bl,-0x5(%ebp)
c0000f50:	0f b6 45 fb          	movzbl -0x5(%ebp),%eax
c0000f54:	83 c4 18             	add    $0x18,%esp
c0000f57:	5b                   	pop    %ebx
c0000f58:	5d                   	pop    %ebp
c0000f59:	c3                   	ret    

c0000f5a <outport08>:
outport08():
c0000f5a:	55                   	push   %ebp
c0000f5b:	89 e5                	mov    %esp,%ebp
c0000f5d:	83 ec 08             	sub    $0x8,%esp
c0000f60:	8b 55 08             	mov    0x8(%ebp),%edx
c0000f63:	8b 45 0c             	mov    0xc(%ebp),%eax
c0000f66:	66 89 55 fc          	mov    %dx,-0x4(%ebp)
c0000f6a:	88 45 f8             	mov    %al,-0x8(%ebp)
c0000f6d:	0f b7 55 fc          	movzwl -0x4(%ebp),%edx
c0000f71:	0f b6 45 f8          	movzbl -0x8(%ebp),%eax
c0000f75:	ee                   	out    %al,(%dx)
c0000f76:	c9                   	leave  
c0000f77:	c3                   	ret    

c0000f78 <interrupt_handler_middle>:
interrupt_handler_middle():
c0000f78:	55                   	push   %ebp
c0000f79:	89 e5                	mov    %esp,%ebp
c0000f7b:	83 ec 28             	sub    $0x28,%esp
c0000f7e:	8b 45 08             	mov    0x8(%ebp),%eax
c0000f81:	8b 40 30             	mov    0x30(%eax),%eax
c0000f84:	83 f8 06             	cmp    $0x6,%eax
c0000f87:	76 14                	jbe    c0000f9d <interrupt_handler_middle+0x25>
c0000f89:	c7 44 24 04 20 00 00 	movl   $0x20,0x4(%esp)
c0000f90:	00 
c0000f91:	c7 04 24 a0 00 00 00 	movl   $0xa0,(%esp)
c0000f98:	e8 bd ff ff ff       	call   c0000f5a <outport08>
c0000f9d:	c7 44 24 04 20 00 00 	movl   $0x20,0x4(%esp)
c0000fa4:	00 
c0000fa5:	c7 04 24 20 00 00 00 	movl   $0x20,(%esp)
c0000fac:	e8 a9 ff ff ff       	call   c0000f5a <outport08>
c0000fb1:	8b 45 08             	mov    0x8(%ebp),%eax
c0000fb4:	8b 40 30             	mov    0x30(%eax),%eax
c0000fb7:	8b 04 85 20 71 01 c0 	mov    -0x3ffe8ee0(,%eax,4),%eax
c0000fbe:	85 c0                	test   %eax,%eax
c0000fc0:	74 1d                	je     c0000fdf <interrupt_handler_middle+0x67>
c0000fc2:	8b 45 08             	mov    0x8(%ebp),%eax
c0000fc5:	8b 40 30             	mov    0x30(%eax),%eax
c0000fc8:	8b 04 85 20 71 01 c0 	mov    -0x3ffe8ee0(,%eax,4),%eax
c0000fcf:	89 45 f4             	mov    %eax,-0xc(%ebp)
c0000fd2:	8b 45 08             	mov    0x8(%ebp),%eax
c0000fd5:	89 04 24             	mov    %eax,(%esp)
c0000fd8:	8b 45 f4             	mov    -0xc(%ebp),%eax
c0000fdb:	ff d0                	call   *%eax
c0000fdd:	c9                   	leave  
c0000fde:	c3                   	ret    
c0000fdf:	8b 45 08             	mov    0x8(%ebp),%eax
c0000fe2:	8b 40 30             	mov    0x30(%eax),%eax
c0000fe5:	89 44 24 04          	mov    %eax,0x4(%esp)
c0000fe9:	c7 04 24 34 4b 00 c0 	movl   $0xc0004b34,(%esp)
c0000ff0:	e8 f8 f3 ff ff       	call   c00003ed <kprintf>
c0000ff5:	c7 44 24 0c 22 00 00 	movl   $0x22,0xc(%esp)
c0000ffc:	00 
c0000ffd:	c7 44 24 08 50 4b 00 	movl   $0xc0004b50,0x8(%esp)
c0001004:	c0 
c0001005:	c7 44 24 04 6b 4b 00 	movl   $0xc0004b6b,0x4(%esp)
c000100c:	c0 
c000100d:	c7 04 24 80 4b 00 c0 	movl   $0xc0004b80,(%esp)
c0001014:	e8 d4 f3 ff ff       	call   c00003ed <kprintf>
c0001019:	fa                   	cli    
c000101a:	eb fe                	jmp    c000101a <interrupt_handler_middle+0xa2>

c000101c <disable_IRQ>:
disable_IRQ():
c000101c:	55                   	push   %ebp
c000101d:	89 e5                	mov    %esp,%ebp
c000101f:	53                   	push   %ebx
c0001020:	83 ec 0c             	sub    $0xc,%esp
c0001023:	8b 45 08             	mov    0x8(%ebp),%eax
c0001026:	88 45 f8             	mov    %al,-0x8(%ebp)
c0001029:	80 7d f8 10          	cmpb   $0x10,-0x8(%ebp)
c000102d:	0f 87 a5 00 00 00    	ja     c00010d8 <disable_IRQ+0xbc>
c0001033:	80 7d f8 07          	cmpb   $0x7,-0x8(%ebp)
c0001037:	77 4e                	ja     c0001087 <disable_IRQ+0x6b>
c0001039:	c7 04 24 21 00 00 00 	movl   $0x21,(%esp)
c0001040:	e8 eb fe ff ff       	call   c0000f30 <inport08>
c0001045:	a2 21 75 01 c0       	mov    %al,0xc0017521
c000104a:	0f b6 45 f8          	movzbl -0x8(%ebp),%eax
c000104e:	ba 01 00 00 00       	mov    $0x1,%edx
c0001053:	89 d3                	mov    %edx,%ebx
c0001055:	89 c1                	mov    %eax,%ecx
c0001057:	d3 e3                	shl    %cl,%ebx
c0001059:	89 d8                	mov    %ebx,%eax
c000105b:	89 c2                	mov    %eax,%edx
c000105d:	0f b6 05 21 75 01 c0 	movzbl 0xc0017521,%eax
c0001064:	09 d0                	or     %edx,%eax
c0001066:	a2 21 75 01 c0       	mov    %al,0xc0017521
c000106b:	0f b6 05 21 75 01 c0 	movzbl 0xc0017521,%eax
c0001072:	0f b6 c0             	movzbl %al,%eax
c0001075:	89 44 24 04          	mov    %eax,0x4(%esp)
c0001079:	c7 04 24 21 00 00 00 	movl   $0x21,(%esp)
c0001080:	e8 d5 fe ff ff       	call   c0000f5a <outport08>
c0001085:	eb 52                	jmp    c00010d9 <disable_IRQ+0xbd>
c0001087:	c7 04 24 a1 00 00 00 	movl   $0xa1,(%esp)
c000108e:	e8 9d fe ff ff       	call   c0000f30 <inport08>
c0001093:	a2 21 75 01 c0       	mov    %al,0xc0017521
c0001098:	0f b6 45 f8          	movzbl -0x8(%ebp),%eax
c000109c:	83 e8 08             	sub    $0x8,%eax
c000109f:	ba 01 00 00 00       	mov    $0x1,%edx
c00010a4:	89 d3                	mov    %edx,%ebx
c00010a6:	89 c1                	mov    %eax,%ecx
c00010a8:	d3 e3                	shl    %cl,%ebx
c00010aa:	89 d8                	mov    %ebx,%eax
c00010ac:	89 c2                	mov    %eax,%edx
c00010ae:	0f b6 05 21 75 01 c0 	movzbl 0xc0017521,%eax
c00010b5:	09 d0                	or     %edx,%eax
c00010b7:	a2 21 75 01 c0       	mov    %al,0xc0017521
c00010bc:	0f b6 05 21 75 01 c0 	movzbl 0xc0017521,%eax
c00010c3:	0f b6 c0             	movzbl %al,%eax
c00010c6:	89 44 24 04          	mov    %eax,0x4(%esp)
c00010ca:	c7 04 24 a1 00 00 00 	movl   $0xa1,(%esp)
c00010d1:	e8 84 fe ff ff       	call   c0000f5a <outport08>
c00010d6:	eb 01                	jmp    c00010d9 <disable_IRQ+0xbd>
c00010d8:	90                   	nop
c00010d9:	83 c4 0c             	add    $0xc,%esp
c00010dc:	5b                   	pop    %ebx
c00010dd:	5d                   	pop    %ebp
c00010de:	c3                   	ret    

c00010df <enable_IRQ>:
enable_IRQ():
c00010df:	55                   	push   %ebp
c00010e0:	89 e5                	mov    %esp,%ebp
c00010e2:	53                   	push   %ebx
c00010e3:	83 ec 0c             	sub    $0xc,%esp
c00010e6:	8b 45 08             	mov    0x8(%ebp),%eax
c00010e9:	88 45 f8             	mov    %al,-0x8(%ebp)
c00010ec:	80 7d f8 10          	cmpb   $0x10,-0x8(%ebp)
c00010f0:	0f 87 a9 00 00 00    	ja     c000119f <enable_IRQ+0xc0>
c00010f6:	80 7d f8 07          	cmpb   $0x7,-0x8(%ebp)
c00010fa:	77 50                	ja     c000114c <enable_IRQ+0x6d>
c00010fc:	c7 04 24 21 00 00 00 	movl   $0x21,(%esp)
c0001103:	e8 28 fe ff ff       	call   c0000f30 <inport08>
c0001108:	a2 20 75 01 c0       	mov    %al,0xc0017520
c000110d:	0f b6 45 f8          	movzbl -0x8(%ebp),%eax
c0001111:	ba 01 00 00 00       	mov    $0x1,%edx
c0001116:	89 d3                	mov    %edx,%ebx
c0001118:	89 c1                	mov    %eax,%ecx
c000111a:	d3 e3                	shl    %cl,%ebx
c000111c:	89 d8                	mov    %ebx,%eax
c000111e:	89 c2                	mov    %eax,%edx
c0001120:	f7 d2                	not    %edx
c0001122:	0f b6 05 20 75 01 c0 	movzbl 0xc0017520,%eax
c0001129:	21 d0                	and    %edx,%eax
c000112b:	a2 20 75 01 c0       	mov    %al,0xc0017520
c0001130:	0f b6 05 20 75 01 c0 	movzbl 0xc0017520,%eax
c0001137:	0f b6 c0             	movzbl %al,%eax
c000113a:	89 44 24 04          	mov    %eax,0x4(%esp)
c000113e:	c7 04 24 21 00 00 00 	movl   $0x21,(%esp)
c0001145:	e8 10 fe ff ff       	call   c0000f5a <outport08>
c000114a:	eb 54                	jmp    c00011a0 <enable_IRQ+0xc1>
c000114c:	c7 04 24 a1 00 00 00 	movl   $0xa1,(%esp)
c0001153:	e8 d8 fd ff ff       	call   c0000f30 <inport08>
c0001158:	a2 20 75 01 c0       	mov    %al,0xc0017520
c000115d:	0f b6 45 f8          	movzbl -0x8(%ebp),%eax
c0001161:	83 e8 08             	sub    $0x8,%eax
c0001164:	ba 01 00 00 00       	mov    $0x1,%edx
c0001169:	89 d3                	mov    %edx,%ebx
c000116b:	89 c1                	mov    %eax,%ecx
c000116d:	d3 e3                	shl    %cl,%ebx
c000116f:	89 d8                	mov    %ebx,%eax
c0001171:	89 c2                	mov    %eax,%edx
c0001173:	f7 d2                	not    %edx
c0001175:	0f b6 05 20 75 01 c0 	movzbl 0xc0017520,%eax
c000117c:	21 d0                	and    %edx,%eax
c000117e:	a2 20 75 01 c0       	mov    %al,0xc0017520
c0001183:	0f b6 05 20 75 01 c0 	movzbl 0xc0017520,%eax
c000118a:	0f b6 c0             	movzbl %al,%eax
c000118d:	89 44 24 04          	mov    %eax,0x4(%esp)
c0001191:	c7 04 24 a1 00 00 00 	movl   $0xa1,(%esp)
c0001198:	e8 bd fd ff ff       	call   c0000f5a <outport08>
c000119d:	eb 01                	jmp    c00011a0 <enable_IRQ+0xc1>
c000119f:	90                   	nop
c00011a0:	83 c4 0c             	add    $0xc,%esp
c00011a3:	5b                   	pop    %ebx
c00011a4:	5d                   	pop    %ebp
c00011a5:	c3                   	ret    

c00011a6 <register_interrupt_handler>:
register_interrupt_handler():
c00011a6:	55                   	push   %ebp
c00011a7:	89 e5                	mov    %esp,%ebp
c00011a9:	53                   	push   %ebx
c00011aa:	83 ec 34             	sub    $0x34,%esp
c00011ad:	8b 45 08             	mov    0x8(%ebp),%eax
c00011b0:	88 45 e4             	mov    %al,-0x1c(%ebp)
c00011b3:	80 7d e4 10          	cmpb   $0x10,-0x1c(%ebp)
c00011b7:	77 5c                	ja     c0001215 <register_interrupt_handler+0x6f>
c00011b9:	0f b6 45 e4          	movzbl -0x1c(%ebp),%eax
c00011bd:	8b 04 85 20 71 01 c0 	mov    -0x3ffe8ee0(,%eax,4),%eax
c00011c4:	85 c0                	test   %eax,%eax
c00011c6:	74 27                	je     c00011ef <register_interrupt_handler+0x49>
c00011c8:	c7 44 24 0c 5c 00 00 	movl   $0x5c,0xc(%esp)
c00011cf:	00 
c00011d0:	c7 44 24 08 50 4b 00 	movl   $0xc0004b50,0x8(%esp)
c00011d7:	c0 
c00011d8:	c7 44 24 04 a8 4b 00 	movl   $0xc0004ba8,0x4(%esp)
c00011df:	c0 
c00011e0:	c7 04 24 80 4b 00 c0 	movl   $0xc0004b80,(%esp)
c00011e7:	e8 01 f2 ff ff       	call   c00003ed <kprintf>
c00011ec:	fa                   	cli    
c00011ed:	eb fe                	jmp    c00011ed <register_interrupt_handler+0x47>
c00011ef:	9c                   	pushf  
c00011f0:	5b                   	pop    %ebx
c00011f1:	fa                   	cli    
c00011f2:	89 5d f4             	mov    %ebx,-0xc(%ebp)
c00011f5:	0f b6 45 e4          	movzbl -0x1c(%ebp),%eax
c00011f9:	8b 55 0c             	mov    0xc(%ebp),%edx
c00011fc:	89 14 85 20 71 01 c0 	mov    %edx,-0x3ffe8ee0(,%eax,4)
c0001203:	0f b6 45 e4          	movzbl -0x1c(%ebp),%eax
c0001207:	89 04 24             	mov    %eax,(%esp)
c000120a:	e8 d0 fe ff ff       	call   c00010df <enable_IRQ>
c000120f:	ff 75 f4             	pushl  -0xc(%ebp)
c0001212:	9d                   	popf   
c0001213:	eb 01                	jmp    c0001216 <register_interrupt_handler+0x70>
c0001215:	90                   	nop
c0001216:	83 c4 34             	add    $0x34,%esp
c0001219:	5b                   	pop    %ebx
c000121a:	5d                   	pop    %ebp
c000121b:	c3                   	ret    

c000121c <unregister_interrupt_handler>:
unregister_interrupt_handler():
c000121c:	55                   	push   %ebp
c000121d:	89 e5                	mov    %esp,%ebp
c000121f:	53                   	push   %ebx
c0001220:	83 ec 18             	sub    $0x18,%esp
c0001223:	8b 45 08             	mov    0x8(%ebp),%eax
c0001226:	88 45 e8             	mov    %al,-0x18(%ebp)
c0001229:	80 7d e8 10          	cmpb   $0x10,-0x18(%ebp)
c000122d:	77 27                	ja     c0001256 <unregister_interrupt_handler+0x3a>
c000122f:	9c                   	pushf  
c0001230:	5b                   	pop    %ebx
c0001231:	fa                   	cli    
c0001232:	89 5d f8             	mov    %ebx,-0x8(%ebp)
c0001235:	0f b6 45 e8          	movzbl -0x18(%ebp),%eax
c0001239:	c7 04 85 20 71 01 c0 	movl   $0x0,-0x3ffe8ee0(,%eax,4)
c0001240:	00 00 00 00 
c0001244:	0f b6 45 e8          	movzbl -0x18(%ebp),%eax
c0001248:	89 04 24             	mov    %eax,(%esp)
c000124b:	e8 cc fd ff ff       	call   c000101c <disable_IRQ>
c0001250:	ff 75 f8             	pushl  -0x8(%ebp)
c0001253:	9d                   	popf   
c0001254:	eb 01                	jmp    c0001257 <unregister_interrupt_handler+0x3b>
c0001256:	90                   	nop
c0001257:	83 c4 18             	add    $0x18,%esp
c000125a:	5b                   	pop    %ebx
c000125b:	5d                   	pop    %ebp
c000125c:	c3                   	ret    
c000125d:	00 00                	add    %al,(%eax)
	...

c0001260 <outport08>:
outport08():
c0001260:	55                   	push   %ebp
c0001261:	89 e5                	mov    %esp,%ebp
c0001263:	83 ec 08             	sub    $0x8,%esp
c0001266:	8b 55 08             	mov    0x8(%ebp),%edx
c0001269:	8b 45 0c             	mov    0xc(%ebp),%eax
c000126c:	66 89 55 fc          	mov    %dx,-0x4(%ebp)
c0001270:	88 45 f8             	mov    %al,-0x8(%ebp)
c0001273:	0f b7 55 fc          	movzwl -0x4(%ebp),%edx
c0001277:	0f b6 45 f8          	movzbl -0x8(%ebp),%eax
c000127b:	ee                   	out    %al,(%dx)
c000127c:	c9                   	leave  
c000127d:	c3                   	ret    

c000127e <error>:
error():
c000127e:	55                   	push   %ebp
c000127f:	89 e5                	mov    %esp,%ebp
c0001281:	53                   	push   %ebx
c0001282:	83 ec 14             	sub    $0x14,%esp
c0001285:	fa                   	cli    
c0001286:	c7 04 24 0c 00 00 00 	movl   $0xc,(%esp)
c000128d:	e8 39 f1 ff ff       	call   c00003cb <kset_color>
c0001292:	8b 45 08             	mov    0x8(%ebp),%eax
c0001295:	89 44 24 04          	mov    %eax,0x4(%esp)
c0001299:	c7 04 24 dd 4b 00 c0 	movl   $0xc0004bdd,(%esp)
c00012a0:	e8 48 f1 ff ff       	call   c00003ed <kprintf>
c00012a5:	c7 04 24 07 00 00 00 	movl   $0x7,(%esp)
c00012ac:	e8 1a f1 ff ff       	call   c00003cb <kset_color>
c00012b1:	e8 5b 12 00 00       	call   c0002511 <get_pid>
c00012b6:	89 c3                	mov    %eax,%ebx
c00012b8:	e8 14 12 00 00       	call   c00024d1 <get_pname>
c00012bd:	89 5c 24 08          	mov    %ebx,0x8(%esp)
c00012c1:	89 44 24 04          	mov    %eax,0x4(%esp)
c00012c5:	c7 04 24 e9 4b 00 c0 	movl   $0xc0004be9,(%esp)
c00012cc:	e8 1c f1 ff ff       	call   c00003ed <kprintf>
c00012d1:	e8 09 19 00 00       	call   c0002bdf <sched_leave_critical_region>
c00012d6:	e8 36 12 00 00       	call   c0002511 <get_pid>
c00012db:	85 c0                	test   %eax,%eax
c00012dd:	74 07                	je     c00012e6 <error+0x68>
c00012df:	e8 8f 18 00 00       	call   c0002b73 <auto_kill>
c00012e4:	eb 05                	jmp    c00012eb <error+0x6d>
c00012e6:	e8 86 00 00 00       	call   c0001371 <halt>
c00012eb:	83 c4 14             	add    $0x14,%esp
c00012ee:	5b                   	pop    %ebx
c00012ef:	5d                   	pop    %ebp
c00012f0:	c3                   	ret    

c00012f1 <reboot>:
reboot():
c00012f1:	55                   	push   %ebp
c00012f2:	89 e5                	mov    %esp,%ebp
c00012f4:	83 ec 18             	sub    $0x18,%esp
c00012f7:	fa                   	cli    
c00012f8:	c7 04 24 07 00 00 00 	movl   $0x7,(%esp)
c00012ff:	e8 c7 f0 ff ff       	call   c00003cb <kset_color>
c0001304:	c7 04 24 02 4c 00 c0 	movl   $0xc0004c02,(%esp)
c000130b:	e8 dd f0 ff ff       	call   c00003ed <kprintf>
c0001310:	c7 04 24 05 4c 00 c0 	movl   $0xc0004c05,(%esp)
c0001317:	e8 d1 f0 ff ff       	call   c00003ed <kprintf>
c000131c:	e8 bd ee ff ff       	call   c00001de <stop_clock>
c0001321:	c7 04 24 02 00 00 00 	movl   $0x2,(%esp)
c0001328:	e8 9e f0 ff ff       	call   c00003cb <kset_color>
c000132d:	c7 04 24 1b 4c 00 c0 	movl   $0xc0004c1b,(%esp)
c0001334:	e8 b4 f0 ff ff       	call   c00003ed <kprintf>
c0001339:	c7 04 24 07 00 00 00 	movl   $0x7,(%esp)
c0001340:	e8 86 f0 ff ff       	call   c00003cb <kset_color>
c0001345:	c7 04 24 2a 4c 00 c0 	movl   $0xc0004c2a,(%esp)
c000134c:	e8 9c f0 ff ff       	call   c00003ed <kprintf>
c0001351:	e8 b6 1d 00 00       	call   c000310c <keyboard_wait_controller>
c0001356:	c7 44 24 04 fe 00 00 	movl   $0xfe,0x4(%esp)
c000135d:	00 
c000135e:	c7 04 24 64 00 00 00 	movl   $0x64,(%esp)
c0001365:	e8 f6 fe ff ff       	call   c0001260 <outport08>
c000136a:	e8 02 00 00 00       	call   c0001371 <halt>
c000136f:	c9                   	leave  
c0001370:	c3                   	ret    

c0001371 <halt>:
halt():
c0001371:	55                   	push   %ebp
c0001372:	89 e5                	mov    %esp,%ebp
c0001374:	fa                   	cli    
c0001375:	f4                   	hlt    
c0001376:	5d                   	pop    %ebp
c0001377:	c3                   	ret    

c0001378 <kmalloc>:
kmalloc():
c0001378:	55                   	push   %ebp
c0001379:	89 e5                	mov    %esp,%ebp
c000137b:	53                   	push   %ebx
c000137c:	83 ec 14             	sub    $0x14,%esp
c000137f:	c7 45 f0 00 00 00 00 	movl   $0x0,-0x10(%ebp)
c0001386:	83 7d 08 00          	cmpl   $0x0,0x8(%ebp)
c000138a:	75 0a                	jne    c0001396 <kmalloc+0x1e>
c000138c:	b8 00 00 00 00       	mov    $0x0,%eax
c0001391:	e9 2b 01 00 00       	jmp    c00014c1 <kmalloc+0x149>
c0001396:	9c                   	pushf  
c0001397:	5b                   	pop    %ebx
c0001398:	fa                   	cli    
c0001399:	89 5d ec             	mov    %ebx,-0x14(%ebp)
c000139c:	8b 45 08             	mov    0x8(%ebp),%eax
c000139f:	83 e0 0f             	and    $0xf,%eax
c00013a2:	85 c0                	test   %eax,%eax
c00013a4:	74 0c                	je     c00013b2 <kmalloc+0x3a>
c00013a6:	8b 45 08             	mov    0x8(%ebp),%eax
c00013a9:	83 e0 f0             	and    $0xfffffff0,%eax
c00013ac:	83 c0 10             	add    $0x10,%eax
c00013af:	89 45 08             	mov    %eax,0x8(%ebp)
c00013b2:	c7 45 f4 00 00 00 d0 	movl   $0xd0000000,-0xc(%ebp)
c00013b9:	eb 58                	jmp    c0001413 <kmalloc+0x9b>
c00013bb:	8b 45 f4             	mov    -0xc(%ebp),%eax
c00013be:	8b 40 04             	mov    0x4(%eax),%eax
c00013c1:	85 c0                	test   %eax,%eax
c00013c3:	75 42                	jne    c0001407 <kmalloc+0x8f>
c00013c5:	8b 45 f4             	mov    -0xc(%ebp),%eax
c00013c8:	8b 40 08             	mov    0x8(%eax),%eax
c00013cb:	3b 45 08             	cmp    0x8(%ebp),%eax
c00013ce:	75 08                	jne    c00013d8 <kmalloc+0x60>
c00013d0:	8b 45 f4             	mov    -0xc(%ebp),%eax
c00013d3:	89 45 f0             	mov    %eax,-0x10(%ebp)
c00013d6:	eb 44                	jmp    c000141c <kmalloc+0xa4>
c00013d8:	8b 45 f4             	mov    -0xc(%ebp),%eax
c00013db:	8b 40 08             	mov    0x8(%eax),%eax
c00013de:	3b 45 08             	cmp    0x8(%ebp),%eax
c00013e1:	76 24                	jbe    c0001407 <kmalloc+0x8f>
c00013e3:	83 7d f0 00          	cmpl   $0x0,-0x10(%ebp)
c00013e7:	75 08                	jne    c00013f1 <kmalloc+0x79>
c00013e9:	8b 45 f4             	mov    -0xc(%ebp),%eax
c00013ec:	89 45 f0             	mov    %eax,-0x10(%ebp)
c00013ef:	eb 16                	jmp    c0001407 <kmalloc+0x8f>
c00013f1:	8b 45 f0             	mov    -0x10(%ebp),%eax
c00013f4:	8b 50 08             	mov    0x8(%eax),%edx
c00013f7:	8b 45 f4             	mov    -0xc(%ebp),%eax
c00013fa:	8b 40 08             	mov    0x8(%eax),%eax
c00013fd:	39 c2                	cmp    %eax,%edx
c00013ff:	76 06                	jbe    c0001407 <kmalloc+0x8f>
c0001401:	8b 45 f4             	mov    -0xc(%ebp),%eax
c0001404:	89 45 f0             	mov    %eax,-0x10(%ebp)
c0001407:	8b 45 f4             	mov    -0xc(%ebp),%eax
c000140a:	8b 40 08             	mov    0x8(%eax),%eax
c000140d:	83 c0 10             	add    $0x10,%eax
c0001410:	01 45 f4             	add    %eax,-0xc(%ebp)
c0001413:	81 7d f4 ff ff ff df 	cmpl   $0xdfffffff,-0xc(%ebp)
c000141a:	76 9f                	jbe    c00013bb <kmalloc+0x43>
c000141c:	83 7d f0 00          	cmpl   $0x0,-0x10(%ebp)
c0001420:	75 0e                	jne    c0001430 <kmalloc+0xb8>
c0001422:	ff 75 ec             	pushl  -0x14(%ebp)
c0001425:	9d                   	popf   
c0001426:	b8 00 00 00 00       	mov    $0x0,%eax
c000142b:	e9 91 00 00 00       	jmp    c00014c1 <kmalloc+0x149>
c0001430:	8b 45 f0             	mov    -0x10(%ebp),%eax
c0001433:	c7 00 ef be ad de    	movl   $0xdeadbeef,(%eax)
c0001439:	8b 45 f0             	mov    -0x10(%ebp),%eax
c000143c:	c7 40 04 01 00 00 00 	movl   $0x1,0x4(%eax)
c0001443:	e8 c9 10 00 00       	call   c0002511 <get_pid>
c0001448:	89 c2                	mov    %eax,%edx
c000144a:	8b 45 f0             	mov    -0x10(%ebp),%eax
c000144d:	89 50 0c             	mov    %edx,0xc(%eax)
c0001450:	8b 45 f0             	mov    -0x10(%ebp),%eax
c0001453:	c7 40 0c 00 00 00 00 	movl   $0x0,0xc(%eax)
c000145a:	8b 45 f0             	mov    -0x10(%ebp),%eax
c000145d:	8b 40 08             	mov    0x8(%eax),%eax
c0001460:	3b 45 08             	cmp    0x8(%ebp),%eax
c0001463:	75 0d                	jne    c0001472 <kmalloc+0xfa>
c0001465:	83 45 f0 10          	addl   $0x10,-0x10(%ebp)
c0001469:	ff 75 ec             	pushl  -0x14(%ebp)
c000146c:	9d                   	popf   
c000146d:	8b 45 f0             	mov    -0x10(%ebp),%eax
c0001470:	eb 4f                	jmp    c00014c1 <kmalloc+0x149>
c0001472:	8b 45 08             	mov    0x8(%ebp),%eax
c0001475:	83 c0 10             	add    $0x10,%eax
c0001478:	03 45 f0             	add    -0x10(%ebp),%eax
c000147b:	89 45 f4             	mov    %eax,-0xc(%ebp)
c000147e:	8b 45 f4             	mov    -0xc(%ebp),%eax
c0001481:	c7 00 ef be ad de    	movl   $0xdeadbeef,(%eax)
c0001487:	8b 45 f4             	mov    -0xc(%ebp),%eax
c000148a:	c7 40 04 00 00 00 00 	movl   $0x0,0x4(%eax)
c0001491:	8b 45 f0             	mov    -0x10(%ebp),%eax
c0001494:	8b 40 08             	mov    0x8(%eax),%eax
c0001497:	2b 45 08             	sub    0x8(%ebp),%eax
c000149a:	8d 50 f0             	lea    -0x10(%eax),%edx
c000149d:	8b 45 f4             	mov    -0xc(%ebp),%eax
c00014a0:	89 50 08             	mov    %edx,0x8(%eax)
c00014a3:	8b 45 f4             	mov    -0xc(%ebp),%eax
c00014a6:	c7 40 0c 00 00 00 00 	movl   $0x0,0xc(%eax)
c00014ad:	8b 45 f0             	mov    -0x10(%ebp),%eax
c00014b0:	8b 55 08             	mov    0x8(%ebp),%edx
c00014b3:	89 50 08             	mov    %edx,0x8(%eax)
c00014b6:	83 45 f0 10          	addl   $0x10,-0x10(%ebp)
c00014ba:	ff 75 ec             	pushl  -0x14(%ebp)
c00014bd:	9d                   	popf   
c00014be:	8b 45 f0             	mov    -0x10(%ebp),%eax
c00014c1:	83 c4 14             	add    $0x14,%esp
c00014c4:	5b                   	pop    %ebx
c00014c5:	5d                   	pop    %ebp
c00014c6:	c3                   	ret    

c00014c7 <deallocate.1145>:
deallocate.1145():
c00014c7:	55                   	push   %ebp
c00014c8:	89 e5                	mov    %esp,%ebp
c00014ca:	83 ec 28             	sub    $0x28,%esp
c00014cd:	8b 45 08             	mov    0x8(%ebp),%eax
c00014d0:	83 c0 10             	add    $0x10,%eax
c00014d3:	05 ff 0f 00 00       	add    $0xfff,%eax
c00014d8:	25 00 f0 ff ff       	and    $0xfffff000,%eax
c00014dd:	89 45 f4             	mov    %eax,-0xc(%ebp)
c00014e0:	8b 45 08             	mov    0x8(%ebp),%eax
c00014e3:	8b 40 08             	mov    0x8(%eax),%eax
c00014e6:	83 c0 10             	add    $0x10,%eax
c00014e9:	03 45 08             	add    0x8(%ebp),%eax
c00014ec:	25 00 f0 ff ff       	and    $0xfffff000,%eax
c00014f1:	89 45 f0             	mov    %eax,-0x10(%ebp)
c00014f4:	eb 38                	jmp    c000152e <deallocate.1145+0x67>
c00014f6:	8b 45 f4             	mov    -0xc(%ebp),%eax
c00014f9:	c1 e8 14             	shr    $0x14,%eax
c00014fc:	83 e0 fc             	and    $0xfffffffc,%eax
c00014ff:	2d 00 10 00 00       	sub    $0x1000,%eax
c0001504:	8b 00                	mov    (%eax),%eax
c0001506:	85 c0                	test   %eax,%eax
c0001508:	74 14                	je     c000151e <deallocate.1145+0x57>
c000150a:	8b 45 f4             	mov    -0xc(%ebp),%eax
c000150d:	89 04 24             	mov    %eax,(%esp)
c0001510:	e8 70 09 00 00       	call   c0001e85 <delete_page>
c0001515:	81 45 f4 00 10 00 00 	addl   $0x1000,-0xc(%ebp)
c000151c:	eb 10                	jmp    c000152e <deallocate.1145+0x67>
c000151e:	8b 45 f4             	mov    -0xc(%ebp),%eax
c0001521:	25 00 00 c0 ff       	and    $0xffc00000,%eax
c0001526:	05 00 00 40 00       	add    $0x400000,%eax
c000152b:	89 45 f4             	mov    %eax,-0xc(%ebp)
c000152e:	8b 45 f4             	mov    -0xc(%ebp),%eax
c0001531:	3b 45 f0             	cmp    -0x10(%ebp),%eax
c0001534:	72 c0                	jb     c00014f6 <deallocate.1145+0x2f>
c0001536:	c9                   	leave  
c0001537:	c3                   	ret    

c0001538 <kfree>:
kfree():
c0001538:	55                   	push   %ebp
c0001539:	89 e5                	mov    %esp,%ebp
c000153b:	53                   	push   %ebx
c000153c:	83 ec 24             	sub    $0x24,%esp
c000153f:	83 7d 08 00          	cmpl   $0x0,0x8(%ebp)
c0001543:	0f 84 f9 00 00 00    	je     c0001642 <kfree+0x10a>
c0001549:	9c                   	pushf  
c000154a:	5b                   	pop    %ebx
c000154b:	fa                   	cli    
c000154c:	89 5d ec             	mov    %ebx,-0x14(%ebp)
c000154f:	8b 45 08             	mov    0x8(%ebp),%eax
c0001552:	83 e8 10             	sub    $0x10,%eax
c0001555:	89 45 f4             	mov    %eax,-0xc(%ebp)
c0001558:	8b 45 f4             	mov    -0xc(%ebp),%eax
c000155b:	8b 00                	mov    (%eax),%eax
c000155d:	3d ef be ad de       	cmp    $0xdeadbeef,%eax
c0001562:	0f 85 dd 00 00 00    	jne    c0001645 <kfree+0x10d>
c0001568:	8b 45 f4             	mov    -0xc(%ebp),%eax
c000156b:	8b 40 04             	mov    0x4(%eax),%eax
c000156e:	83 f8 01             	cmp    $0x1,%eax
c0001571:	0f 85 d1 00 00 00    	jne    c0001648 <kfree+0x110>
c0001577:	8b 45 f4             	mov    -0xc(%ebp),%eax
c000157a:	c7 40 04 00 00 00 00 	movl   $0x0,0x4(%eax)
c0001581:	8b 45 f4             	mov    -0xc(%ebp),%eax
c0001584:	c7 40 0c 00 00 00 00 	movl   $0x0,0xc(%eax)
c000158b:	8b 45 f4             	mov    -0xc(%ebp),%eax
c000158e:	8b 40 08             	mov    0x8(%eax),%eax
c0001591:	83 c0 10             	add    $0x10,%eax
c0001594:	03 45 f4             	add    -0xc(%ebp),%eax
c0001597:	89 45 f0             	mov    %eax,-0x10(%ebp)
c000159a:	81 7d f0 ff ff ff df 	cmpl   $0xdfffffff,-0x10(%ebp)
c00015a1:	77 2b                	ja     c00015ce <kfree+0x96>
c00015a3:	8b 45 f0             	mov    -0x10(%ebp),%eax
c00015a6:	8b 40 04             	mov    0x4(%eax),%eax
c00015a9:	85 c0                	test   %eax,%eax
c00015ab:	75 21                	jne    c00015ce <kfree+0x96>
c00015ad:	8b 45 f4             	mov    -0xc(%ebp),%eax
c00015b0:	8b 50 08             	mov    0x8(%eax),%edx
c00015b3:	8b 45 f0             	mov    -0x10(%ebp),%eax
c00015b6:	8b 40 08             	mov    0x8(%eax),%eax
c00015b9:	8d 04 02             	lea    (%edx,%eax,1),%eax
c00015bc:	8d 50 10             	lea    0x10(%eax),%edx
c00015bf:	8b 45 f4             	mov    -0xc(%ebp),%eax
c00015c2:	89 50 08             	mov    %edx,0x8(%eax)
c00015c5:	8b 45 f0             	mov    -0x10(%ebp),%eax
c00015c8:	c7 00 00 00 00 00    	movl   $0x0,(%eax)
c00015ce:	81 7d f4 00 00 00 d0 	cmpl   $0xd0000000,-0xc(%ebp)
c00015d5:	74 5a                	je     c0001631 <kfree+0xf9>
c00015d7:	c7 45 f0 00 00 00 d0 	movl   $0xd0000000,-0x10(%ebp)
c00015de:	8b 45 f0             	mov    -0x10(%ebp),%eax
c00015e1:	8b 40 08             	mov    0x8(%eax),%eax
c00015e4:	83 c0 10             	add    $0x10,%eax
c00015e7:	03 45 f0             	add    -0x10(%ebp),%eax
c00015ea:	3b 45 f4             	cmp    -0xc(%ebp),%eax
c00015ed:	75 33                	jne    c0001622 <kfree+0xea>
c00015ef:	8b 45 f0             	mov    -0x10(%ebp),%eax
c00015f2:	8b 40 04             	mov    0x4(%eax),%eax
c00015f5:	85 c0                	test   %eax,%eax
c00015f7:	75 37                	jne    c0001630 <kfree+0xf8>
c00015f9:	8b 45 f0             	mov    -0x10(%ebp),%eax
c00015fc:	8b 50 08             	mov    0x8(%eax),%edx
c00015ff:	8b 45 f4             	mov    -0xc(%ebp),%eax
c0001602:	8b 40 08             	mov    0x8(%eax),%eax
c0001605:	8d 04 02             	lea    (%edx,%eax,1),%eax
c0001608:	8d 50 10             	lea    0x10(%eax),%edx
c000160b:	8b 45 f0             	mov    -0x10(%ebp),%eax
c000160e:	89 50 08             	mov    %edx,0x8(%eax)
c0001611:	8b 45 f4             	mov    -0xc(%ebp),%eax
c0001614:	c7 00 00 00 00 00    	movl   $0x0,(%eax)
c000161a:	8b 45 f0             	mov    -0x10(%ebp),%eax
c000161d:	89 45 f4             	mov    %eax,-0xc(%ebp)
c0001620:	eb 0f                	jmp    c0001631 <kfree+0xf9>
c0001622:	8b 45 f0             	mov    -0x10(%ebp),%eax
c0001625:	8b 40 08             	mov    0x8(%eax),%eax
c0001628:	83 c0 10             	add    $0x10,%eax
c000162b:	01 45 f0             	add    %eax,-0x10(%ebp)
c000162e:	eb ae                	jmp    c00015de <kfree+0xa6>
c0001630:	90                   	nop
c0001631:	8b 45 f4             	mov    -0xc(%ebp),%eax
c0001634:	89 04 24             	mov    %eax,(%esp)
c0001637:	e8 8b fe ff ff       	call   c00014c7 <deallocate.1145>
c000163c:	ff 75 ec             	pushl  -0x14(%ebp)
c000163f:	9d                   	popf   
c0001640:	eb 07                	jmp    c0001649 <kfree+0x111>
c0001642:	90                   	nop
c0001643:	eb 04                	jmp    c0001649 <kfree+0x111>
c0001645:	90                   	nop
c0001646:	eb 01                	jmp    c0001649 <kfree+0x111>
c0001648:	90                   	nop
c0001649:	83 c4 24             	add    $0x24,%esp
c000164c:	5b                   	pop    %ebx
c000164d:	5d                   	pop    %ebp
c000164e:	c3                   	ret    

c000164f <kmalloc_initialize>:
kmalloc_initialize():
c000164f:	55                   	push   %ebp
c0001650:	89 e5                	mov    %esp,%ebp
c0001652:	83 ec 10             	sub    $0x10,%esp
c0001655:	c7 45 fc 00 00 00 d0 	movl   $0xd0000000,-0x4(%ebp)
c000165c:	8b 45 fc             	mov    -0x4(%ebp),%eax
c000165f:	c7 00 ef be ad de    	movl   $0xdeadbeef,(%eax)
c0001665:	8b 45 fc             	mov    -0x4(%ebp),%eax
c0001668:	c7 40 04 00 00 00 00 	movl   $0x0,0x4(%eax)
c000166f:	8b 45 fc             	mov    -0x4(%ebp),%eax
c0001672:	c7 40 08 f0 ff ff 0f 	movl   $0xffffff0,0x8(%eax)
c0001679:	8b 45 fc             	mov    -0x4(%ebp),%eax
c000167c:	c7 40 0c 00 00 00 00 	movl   $0x0,0xc(%eax)
c0001683:	c9                   	leave  
c0001684:	c3                   	ret    

c0001685 <dump_memory_map>:
dump_memory_map():
c0001685:	55                   	push   %ebp
c0001686:	89 e5                	mov    %esp,%ebp
c0001688:	56                   	push   %esi
c0001689:	53                   	push   %ebx
c000168a:	83 ec 30             	sub    $0x30,%esp
c000168d:	c7 45 f4 00 00 00 d0 	movl   $0xd0000000,-0xc(%ebp)
c0001694:	8b 45 f4             	mov    -0xc(%ebp),%eax
c0001697:	8b 58 0c             	mov    0xc(%eax),%ebx
c000169a:	8b 45 f4             	mov    -0xc(%ebp),%eax
c000169d:	8b 48 08             	mov    0x8(%eax),%ecx
c00016a0:	8b 45 f4             	mov    -0xc(%ebp),%eax
c00016a3:	8b 50 04             	mov    0x4(%eax),%edx
c00016a6:	8b 45 f4             	mov    -0xc(%ebp),%eax
c00016a9:	8b 00                	mov    (%eax),%eax
c00016ab:	8b 75 f4             	mov    -0xc(%ebp),%esi
c00016ae:	83 c6 10             	add    $0x10,%esi
c00016b1:	89 5c 24 14          	mov    %ebx,0x14(%esp)
c00016b5:	89 4c 24 10          	mov    %ecx,0x10(%esp)
c00016b9:	89 54 24 0c          	mov    %edx,0xc(%esp)
c00016bd:	89 44 24 08          	mov    %eax,0x8(%esp)
c00016c1:	89 74 24 04          	mov    %esi,0x4(%esp)
c00016c5:	c7 04 24 40 4c 00 c0 	movl   $0xc0004c40,(%esp)
c00016cc:	e8 1c ed ff ff       	call   c00003ed <kprintf>
c00016d1:	8b 45 f4             	mov    -0xc(%ebp),%eax
c00016d4:	8b 40 08             	mov    0x8(%eax),%eax
c00016d7:	83 c0 10             	add    $0x10,%eax
c00016da:	01 45 f4             	add    %eax,-0xc(%ebp)
c00016dd:	81 7d f4 ff ff ff df 	cmpl   $0xdfffffff,-0xc(%ebp)
c00016e4:	77 15                	ja     c00016fb <dump_memory_map+0x76>
c00016e6:	c7 45 f0 80 96 98 00 	movl   $0x989680,-0x10(%ebp)
c00016ed:	eb 04                	jmp    c00016f3 <dump_memory_map+0x6e>
c00016ef:	83 6d f0 01          	subl   $0x1,-0x10(%ebp)
c00016f3:	83 7d f0 00          	cmpl   $0x0,-0x10(%ebp)
c00016f7:	75 f6                	jne    c00016ef <dump_memory_map+0x6a>
c00016f9:	eb 99                	jmp    c0001694 <dump_memory_map+0xf>
c00016fb:	90                   	nop
c00016fc:	83 c4 30             	add    $0x30,%esp
c00016ff:	5b                   	pop    %ebx
c0001700:	5e                   	pop    %esi
c0001701:	5d                   	pop    %ebp
c0001702:	c3                   	ret    
	...

c0001704 <k_main>:
k_main():
c0001704:	55                   	push   %ebp
c0001705:	89 e5                	mov    %esp,%ebp
c0001707:	83 ec 28             	sub    $0x28,%esp
c000170a:	e8 16 0a 00 00       	call   c0002125 <initialize_paging>
c000170f:	e8 5a 23 00 00       	call   c0003a6e <initialize_video>
c0001714:	e8 ff eb ff ff       	call   c0000318 <initialize_boot_console>
c0001719:	c7 04 24 98 4c 00 c0 	movl   $0xc0004c98,(%esp)
c0001720:	e8 c8 ec ff ff       	call   c00003ed <kprintf>
c0001725:	c7 04 24 07 00 00 00 	movl   $0x7,(%esp)
c000172c:	e8 9a ec ff ff       	call   c00003cb <kset_color>
c0001731:	c7 04 24 c6 4c 00 c0 	movl   $0xc0004cc6,(%esp)
c0001738:	e8 b0 ec ff ff       	call   c00003ed <kprintf>
c000173d:	c7 04 24 09 00 00 00 	movl   $0x9,(%esp)
c0001744:	e8 82 ec ff ff       	call   c00003cb <kset_color>
c0001749:	c7 04 24 d2 4c 00 c0 	movl   $0xc0004cd2,(%esp)
c0001750:	e8 98 ec ff ff       	call   c00003ed <kprintf>
c0001755:	c7 04 24 07 00 00 00 	movl   $0x7,(%esp)
c000175c:	e8 6a ec ff ff       	call   c00003cb <kset_color>
c0001761:	c7 44 24 08 e0 4c 00 	movl   $0xc0004ce0,0x8(%esp)
c0001768:	c0 
c0001769:	c7 44 24 04 e9 4c 00 	movl   $0xc0004ce9,0x4(%esp)
c0001770:	c0 
c0001771:	c7 04 24 fb 4c 00 c0 	movl   $0xc0004cfb,(%esp)
c0001778:	e8 70 ec ff ff       	call   c00003ed <kprintf>
c000177d:	b8 00 00 00 c0       	mov    $0xc0000000,%eax
c0001782:	89 44 24 04          	mov    %eax,0x4(%esp)
c0001786:	c7 04 24 10 4d 00 c0 	movl   $0xc0004d10,(%esp)
c000178d:	e8 5b ec ff ff       	call   c00003ed <kprintf>
c0001792:	a1 04 00 00 c0       	mov    0xc0000004,%eax
c0001797:	c1 e8 14             	shr    $0x14,%eax
c000179a:	89 44 24 04          	mov    %eax,0x4(%esp)
c000179e:	c7 04 24 40 4d 00 c0 	movl   $0xc0004d40,(%esp)
c00017a5:	e8 43 ec ff ff       	call   c00003ed <kprintf>
c00017aa:	c7 04 24 60 4d 00 c0 	movl   $0xc0004d60,(%esp)
c00017b1:	e8 37 ec ff ff       	call   c00003ed <kprintf>
c00017b6:	e8 a3 f0 ff ff       	call   c000085e <reprogram_PIC_8259>
c00017bb:	e8 b7 00 00 00       	call   c0001877 <print_ok>
c00017c0:	c7 04 24 7a 4d 00 c0 	movl   $0xc0004d7a,(%esp)
c00017c7:	e8 21 ec ff ff       	call   c00003ed <kprintf>
c00017cc:	e8 86 03 00 00       	call   c0001b57 <initialize_GDT>
c00017d1:	e8 a1 00 00 00       	call   c0001877 <print_ok>
c00017d6:	c7 04 24 93 4d 00 c0 	movl   $0xc0004d93,(%esp)
c00017dd:	e8 0b ec ff ff       	call   c00003ed <kprintf>
c00017e2:	e8 e4 f1 ff ff       	call   c00009cb <initialize_IDT>
c00017e7:	e8 8b 00 00 00       	call   c0001877 <print_ok>
c00017ec:	c7 04 24 ac 4d 00 c0 	movl   $0xc0004dac,(%esp)
c00017f3:	e8 f5 eb ff ff       	call   c00003ed <kprintf>
c00017f8:	e8 52 fe ff ff       	call   c000164f <kmalloc_initialize>
c00017fd:	e8 75 00 00 00       	call   c0001877 <print_ok>
c0001802:	c7 04 24 cc 4d 00 c0 	movl   $0xc0004dcc,(%esp)
c0001809:	e8 df eb ff ff       	call   c00003ed <kprintf>
c000180e:	e8 59 18 00 00       	call   c000306c <initialize_DMA>
c0001813:	e8 5f 00 00 00       	call   c0001877 <print_ok>
c0001818:	c7 04 24 f1 4d 00 c0 	movl   $0xc0004df1,(%esp)
c000181f:	e8 c9 eb ff ff       	call   c00003ed <kprintf>
c0001824:	e8 94 15 00 00       	call   c0002dbd <initialize_multitasking>
c0001829:	e8 49 00 00 00       	call   c0001877 <print_ok>
c000182e:	c7 04 24 0e 4e 00 c0 	movl   $0xc0004e0e,(%esp)
c0001835:	e8 b3 eb ff ff       	call   c00003ed <kprintf>
c000183a:	e8 71 ea ff ff       	call   c00002b0 <initialize_clock>
c000183f:	e8 33 00 00 00       	call   c0001877 <print_ok>
c0001844:	c7 04 24 2b 4e 00 c0 	movl   $0xc0004e2b,(%esp)
c000184b:	e8 9d eb ff ff       	call   c00003ed <kprintf>
c0001850:	e8 b1 1d 00 00       	call   c0003606 <initialize_keyboard>
c0001855:	e8 1d 00 00 00       	call   c0001877 <print_ok>
c000185a:	e8 0c 1d 00 00       	call   c000356b <kgetchar>
c000185f:	89 45 f4             	mov    %eax,-0xc(%ebp)
c0001862:	8b 45 f4             	mov    -0xc(%ebp),%eax
c0001865:	89 44 24 04          	mov    %eax,0x4(%esp)
c0001869:	c7 04 24 43 4e 00 c0 	movl   $0xc0004e43,(%esp)
c0001870:	e8 78 eb ff ff       	call   c00003ed <kprintf>
c0001875:	eb e3                	jmp    c000185a <k_main+0x156>

c0001877 <print_ok>:
print_ok():
c0001877:	55                   	push   %ebp
c0001878:	89 e5                	mov    %esp,%ebp
c000187a:	83 ec 18             	sub    $0x18,%esp
c000187d:	c7 04 24 07 00 00 00 	movl   $0x7,(%esp)
c0001884:	e8 42 eb ff ff       	call   c00003cb <kset_color>
c0001889:	c7 04 24 46 4e 00 c0 	movl   $0xc0004e46,(%esp)
c0001890:	e8 58 eb ff ff       	call   c00003ed <kprintf>
c0001895:	c7 04 24 02 00 00 00 	movl   $0x2,(%esp)
c000189c:	e8 2a eb ff ff       	call   c00003cb <kset_color>
c00018a1:	c7 04 24 50 4e 00 c0 	movl   $0xc0004e50,(%esp)
c00018a8:	e8 40 eb ff ff       	call   c00003ed <kprintf>
c00018ad:	c7 04 24 07 00 00 00 	movl   $0x7,(%esp)
c00018b4:	e8 12 eb ff ff       	call   c00003cb <kset_color>
c00018b9:	c7 04 24 53 4e 00 c0 	movl   $0xc0004e53,(%esp)
c00018c0:	e8 28 eb ff ff       	call   c00003ed <kprintf>
c00018c5:	c9                   	leave  
c00018c6:	c3                   	ret    

c00018c7 <print_failed>:
print_failed():
c00018c7:	55                   	push   %ebp
c00018c8:	89 e5                	mov    %esp,%ebp
c00018ca:	83 ec 18             	sub    $0x18,%esp
c00018cd:	c7 04 24 07 00 00 00 	movl   $0x7,(%esp)
c00018d4:	e8 f2 ea ff ff       	call   c00003cb <kset_color>
c00018d9:	c7 04 24 46 4e 00 c0 	movl   $0xc0004e46,(%esp)
c00018e0:	e8 08 eb ff ff       	call   c00003ed <kprintf>
c00018e5:	c7 04 24 0c 00 00 00 	movl   $0xc,(%esp)
c00018ec:	e8 da ea ff ff       	call   c00003cb <kset_color>
c00018f1:	c7 04 24 57 4e 00 c0 	movl   $0xc0004e57,(%esp)
c00018f8:	e8 f0 ea ff ff       	call   c00003ed <kprintf>
c00018fd:	c7 04 24 07 00 00 00 	movl   $0x7,(%esp)
c0001904:	e8 c2 ea ff ff       	call   c00003cb <kset_color>
c0001909:	c7 04 24 53 4e 00 c0 	movl   $0xc0004e53,(%esp)
c0001910:	e8 d8 ea ff ff       	call   c00003ed <kprintf>
c0001915:	c9                   	leave  
c0001916:	c3                   	ret    

c0001917 <task_test>:
task_test():
c0001917:	55                   	push   %ebp
c0001918:	89 e5                	mov    %esp,%ebp
c000191a:	53                   	push   %ebx
c000191b:	83 ec 24             	sub    $0x24,%esp
c000191e:	c7 04 24 04 00 00 00 	movl   $0x4,(%esp)
c0001925:	e8 4e fa ff ff       	call   c0001378 <kmalloc>
c000192a:	89 45 f4             	mov    %eax,-0xc(%ebp)
c000192d:	0f 20 db             	mov    %cr3,%ebx
c0001930:	e8 dc 0b 00 00       	call   c0002511 <get_pid>
c0001935:	89 5c 24 0c          	mov    %ebx,0xc(%esp)
c0001939:	8b 55 f4             	mov    -0xc(%ebp),%edx
c000193c:	89 54 24 08          	mov    %edx,0x8(%esp)
c0001940:	89 44 24 04          	mov    %eax,0x4(%esp)
c0001944:	c7 04 24 60 4e 00 c0 	movl   $0xc0004e60,(%esp)
c000194b:	e8 9d ea ff ff       	call   c00003ed <kprintf>
c0001950:	8b 45 f4             	mov    -0xc(%ebp),%eax
c0001953:	89 04 24             	mov    %eax,(%esp)
c0001956:	e8 dd fb ff ff       	call   c0001538 <kfree>
c000195b:	e8 13 12 00 00       	call   c0002b73 <auto_kill>
c0001960:	83 c4 24             	add    $0x24,%esp
c0001963:	5b                   	pop    %ebx
c0001964:	5d                   	pop    %ebp
c0001965:	c3                   	ret    

c0001966 <sh_test>:
sh_test():
c0001966:	55                   	push   %ebp
c0001967:	89 e5                	mov    %esp,%ebp
c0001969:	83 ec 28             	sub    $0x28,%esp
c000196c:	c7 44 24 04 04 00 00 	movl   $0x4,0x4(%esp)
c0001973:	00 
c0001974:	c7 04 24 a0 4e 00 c0 	movl   $0xc0004ea0,(%esp)
c000197b:	e8 6d ea ff ff       	call   c00003ed <kprintf>
c0001980:	c7 45 f4 00 00 00 00 	movl   $0x0,-0xc(%ebp)
c0001987:	eb 20                	jmp    c00019a9 <sh_test+0x43>
c0001989:	c7 44 24 08 c4 4e 00 	movl   $0xc0004ec4,0x8(%esp)
c0001990:	c0 
c0001991:	c7 44 24 04 17 19 00 	movl   $0xc0001917,0x4(%esp)
c0001998:	c0 
c0001999:	c7 04 24 17 19 00 c0 	movl   $0xc0001917,(%esp)
c00019a0:	e8 8c 0b 00 00       	call   c0002531 <create_process>
c00019a5:	83 45 f4 01          	addl   $0x1,-0xc(%ebp)
c00019a9:	83 7d f4 03          	cmpl   $0x3,-0xc(%ebp)
c00019ad:	76 da                	jbe    c0001989 <sh_test+0x23>
c00019af:	c9                   	leave  
c00019b0:	c3                   	ret    
c00019b1:	00 00                	add    %al,(%eax)
	...

c00019b4 <k_update_segment_regs>:
k_update_segment_regs():
c00019b4:	55                   	push   %ebp
c00019b5:	89 e5                	mov    %esp,%ebp
c00019b7:	ea be 19 00 c0 08 00 	ljmp   $0x8,$0xc00019be

c00019be <update_sel>:
update_sel():
c00019be:	b8 10 00 00 00       	mov    $0x10,%eax
c00019c3:	8e d8                	mov    %eax,%ds
c00019c5:	8e c0                	mov    %eax,%es
c00019c7:	8e d0                	mov    %eax,%ss
c00019c9:	90                   	nop
c00019ca:	b8 10 00 00 00       	mov    $0x10,%eax
c00019cf:	8e e0                	mov    %eax,%fs
c00019d1:	8e e8                	mov    %eax,%gs
c00019d3:	5d                   	pop    %ebp
c00019d4:	c3                   	ret    

c00019d5 <setup_GDT_entry>:
setup_GDT_entry():
c00019d5:	55                   	push   %ebp
c00019d6:	89 e5                	mov    %esp,%ebp
c00019d8:	56                   	push   %esi
c00019d9:	53                   	push   %ebx
c00019da:	83 ec 30             	sub    $0x30,%esp
c00019dd:	8b 4d 08             	mov    0x8(%ebp),%ecx
c00019e0:	8b 55 10             	mov    0x10(%ebp),%edx
c00019e3:	8b 45 14             	mov    0x14(%ebp),%eax
c00019e6:	66 89 4d e4          	mov    %cx,-0x1c(%ebp)
c00019ea:	88 55 e0             	mov    %dl,-0x20(%ebp)
c00019ed:	88 45 dc             	mov    %al,-0x24(%ebp)
c00019f0:	bb 00 00 00 00       	mov    $0x0,%ebx
c00019f5:	eb 31                	jmp    c0001a28 <setup_GDT_entry+0x53>
c00019f7:	66 81 fb 00 20       	cmp    $0x2000,%bx
c00019fc:	75 27                	jne    c0001a25 <setup_GDT_entry+0x50>
c00019fe:	c7 44 24 0c 1d 00 00 	movl   $0x1d,0xc(%esp)
c0001a05:	00 
c0001a06:	c7 44 24 08 d4 4e 00 	movl   $0xc0004ed4,0x8(%esp)
c0001a0d:	c0 
c0001a0e:	c7 44 24 04 e1 4e 00 	movl   $0xc0004ee1,0x4(%esp)
c0001a15:	c0 
c0001a16:	c7 04 24 f8 4e 00 c0 	movl   $0xc0004ef8,(%esp)
c0001a1d:	e8 cb e9 ff ff       	call   c00003ed <kprintf>
c0001a22:	fa                   	cli    
c0001a23:	eb fe                	jmp    c0001a23 <setup_GDT_entry+0x4e>
c0001a25:	83 c3 01             	add    $0x1,%ebx
c0001a28:	0f b7 c3             	movzwl %bx,%eax
c0001a2b:	0f b6 80 80 7d 02 c0 	movzbl -0x3ffd8280(%eax),%eax
c0001a32:	84 c0                	test   %al,%al
c0001a34:	75 c1                	jne    c00019f7 <setup_GDT_entry+0x22>
c0001a36:	9c                   	pushf  
c0001a37:	5e                   	pop    %esi
c0001a38:	fa                   	cli    
c0001a39:	89 75 f4             	mov    %esi,-0xc(%ebp)
c0001a3c:	0f b7 c3             	movzwl %bx,%eax
c0001a3f:	0f b7 55 e4          	movzwl -0x1c(%ebp),%edx
c0001a43:	66 89 14 c5 80 7d 01 	mov    %dx,-0x3ffe8280(,%eax,8)
c0001a4a:	c0 
c0001a4b:	0f b7 c3             	movzwl %bx,%eax
c0001a4e:	8b 55 0c             	mov    0xc(%ebp),%edx
c0001a51:	66 89 14 c5 82 7d 01 	mov    %dx,-0x3ffe827e(,%eax,8)
c0001a58:	c0 
c0001a59:	0f b7 c3             	movzwl %bx,%eax
c0001a5c:	8b 55 0c             	mov    0xc(%ebp),%edx
c0001a5f:	c1 ea 10             	shr    $0x10,%edx
c0001a62:	88 14 c5 84 7d 01 c0 	mov    %dl,-0x3ffe827c(,%eax,8)
c0001a69:	0f b7 c3             	movzwl %bx,%eax
c0001a6c:	8b 55 0c             	mov    0xc(%ebp),%edx
c0001a6f:	c1 ea 18             	shr    $0x18,%edx
c0001a72:	88 14 c5 87 7d 01 c0 	mov    %dl,-0x3ffe8279(,%eax,8)
c0001a79:	0f b7 c3             	movzwl %bx,%eax
c0001a7c:	0f b6 55 e0          	movzbl -0x20(%ebp),%edx
c0001a80:	88 14 c5 85 7d 01 c0 	mov    %dl,-0x3ffe827b(,%eax,8)
c0001a87:	0f b7 c3             	movzwl %bx,%eax
c0001a8a:	0f b6 55 dc          	movzbl -0x24(%ebp),%edx
c0001a8e:	88 14 c5 86 7d 01 c0 	mov    %dl,-0x3ffe827a(,%eax,8)
c0001a95:	0f b7 c3             	movzwl %bx,%eax
c0001a98:	c6 80 80 7d 02 c0 01 	movb   $0x1,-0x3ffd8280(%eax)
c0001a9f:	ff 75 f4             	pushl  -0xc(%ebp)
c0001aa2:	9d                   	popf   
c0001aa3:	8d 04 dd 00 00 00 00 	lea    0x0(,%ebx,8),%eax
c0001aaa:	83 c4 30             	add    $0x30,%esp
c0001aad:	5b                   	pop    %ebx
c0001aae:	5e                   	pop    %esi
c0001aaf:	5d                   	pop    %ebp
c0001ab0:	c3                   	ret    

c0001ab1 <remove_GDT_entry>:
remove_GDT_entry():
c0001ab1:	55                   	push   %ebp
c0001ab2:	89 e5                	mov    %esp,%ebp
c0001ab4:	53                   	push   %ebx
c0001ab5:	83 ec 14             	sub    $0x14,%esp
c0001ab8:	8b 45 08             	mov    0x8(%ebp),%eax
c0001abb:	66 89 45 e8          	mov    %ax,-0x18(%ebp)
c0001abf:	9c                   	pushf  
c0001ac0:	5b                   	pop    %ebx
c0001ac1:	fa                   	cli    
c0001ac2:	89 5d f8             	mov    %ebx,-0x8(%ebp)
c0001ac5:	0f b7 45 e8          	movzwl -0x18(%ebp),%eax
c0001ac9:	66 c1 e8 03          	shr    $0x3,%ax
c0001acd:	0f b7 c0             	movzwl %ax,%eax
c0001ad0:	66 c7 04 c5 80 7d 01 	movw   $0x0,-0x3ffe8280(,%eax,8)
c0001ad7:	c0 00 00 
c0001ada:	0f b7 45 e8          	movzwl -0x18(%ebp),%eax
c0001ade:	66 c1 e8 03          	shr    $0x3,%ax
c0001ae2:	0f b7 c0             	movzwl %ax,%eax
c0001ae5:	66 c7 04 c5 82 7d 01 	movw   $0x0,-0x3ffe827e(,%eax,8)
c0001aec:	c0 00 00 
c0001aef:	0f b7 45 e8          	movzwl -0x18(%ebp),%eax
c0001af3:	66 c1 e8 03          	shr    $0x3,%ax
c0001af7:	0f b7 c0             	movzwl %ax,%eax
c0001afa:	c6 04 c5 84 7d 01 c0 	movb   $0x0,-0x3ffe827c(,%eax,8)
c0001b01:	00 
c0001b02:	0f b7 45 e8          	movzwl -0x18(%ebp),%eax
c0001b06:	66 c1 e8 03          	shr    $0x3,%ax
c0001b0a:	0f b7 c0             	movzwl %ax,%eax
c0001b0d:	c6 04 c5 87 7d 01 c0 	movb   $0x0,-0x3ffe8279(,%eax,8)
c0001b14:	00 
c0001b15:	0f b7 45 e8          	movzwl -0x18(%ebp),%eax
c0001b19:	66 c1 e8 03          	shr    $0x3,%ax
c0001b1d:	0f b7 c0             	movzwl %ax,%eax
c0001b20:	c6 04 c5 85 7d 01 c0 	movb   $0x0,-0x3ffe827b(,%eax,8)
c0001b27:	00 
c0001b28:	0f b7 45 e8          	movzwl -0x18(%ebp),%eax
c0001b2c:	66 c1 e8 03          	shr    $0x3,%ax
c0001b30:	0f b7 c0             	movzwl %ax,%eax
c0001b33:	c6 04 c5 86 7d 01 c0 	movb   $0x0,-0x3ffe827a(,%eax,8)
c0001b3a:	00 
c0001b3b:	0f b7 45 e8          	movzwl -0x18(%ebp),%eax
c0001b3f:	66 c1 e8 03          	shr    $0x3,%ax
c0001b43:	0f b7 c0             	movzwl %ax,%eax
c0001b46:	c6 80 80 7d 02 c0 00 	movb   $0x0,-0x3ffd8280(%eax)
c0001b4d:	ff 75 f8             	pushl  -0x8(%ebp)
c0001b50:	9d                   	popf   
c0001b51:	83 c4 14             	add    $0x14,%esp
c0001b54:	5b                   	pop    %ebx
c0001b55:	5d                   	pop    %ebp
c0001b56:	c3                   	ret    

c0001b57 <initialize_GDT>:
initialize_GDT():
c0001b57:	55                   	push   %ebp
c0001b58:	89 e5                	mov    %esp,%ebp
c0001b5a:	53                   	push   %ebx
c0001b5b:	83 ec 14             	sub    $0x14,%esp
c0001b5e:	bb 00 00 00 00       	mov    $0x0,%ebx
c0001b63:	eb 0e                	jmp    c0001b73 <initialize_GDT+0x1c>
c0001b65:	0f b7 c3             	movzwl %bx,%eax
c0001b68:	89 04 24             	mov    %eax,(%esp)
c0001b6b:	e8 41 ff ff ff       	call   c0001ab1 <remove_GDT_entry>
c0001b70:	83 c3 08             	add    $0x8,%ebx
c0001b73:	66 81 fb ff 1f       	cmp    $0x1fff,%bx
c0001b78:	76 eb                	jbe    c0001b65 <initialize_GDT+0xe>
c0001b7a:	c7 44 24 0c 00 00 00 	movl   $0x0,0xc(%esp)
c0001b81:	00 
c0001b82:	c7 44 24 08 00 00 00 	movl   $0x0,0x8(%esp)
c0001b89:	00 
c0001b8a:	c7 44 24 04 00 00 00 	movl   $0x0,0x4(%esp)
c0001b91:	00 
c0001b92:	c7 04 24 00 00 00 00 	movl   $0x0,(%esp)
c0001b99:	e8 37 fe ff ff       	call   c00019d5 <setup_GDT_entry>
c0001b9e:	c7 44 24 0c cf 00 00 	movl   $0xcf,0xc(%esp)
c0001ba5:	00 
c0001ba6:	c7 44 24 08 9a 00 00 	movl   $0x9a,0x8(%esp)
c0001bad:	00 
c0001bae:	c7 44 24 04 00 00 00 	movl   $0x0,0x4(%esp)
c0001bb5:	00 
c0001bb6:	c7 04 24 ff ff 00 00 	movl   $0xffff,(%esp)
c0001bbd:	e8 13 fe ff ff       	call   c00019d5 <setup_GDT_entry>
c0001bc2:	c7 44 24 0c cf 00 00 	movl   $0xcf,0xc(%esp)
c0001bc9:	00 
c0001bca:	c7 44 24 08 92 00 00 	movl   $0x92,0x8(%esp)
c0001bd1:	00 
c0001bd2:	c7 44 24 04 00 00 00 	movl   $0x0,0x4(%esp)
c0001bd9:	00 
c0001bda:	c7 04 24 ff ff 00 00 	movl   $0xffff,(%esp)
c0001be1:	e8 ef fd ff ff       	call   c00019d5 <setup_GDT_entry>
c0001be6:	c7 44 24 0c cf 00 00 	movl   $0xcf,0xc(%esp)
c0001bed:	00 
c0001bee:	c7 44 24 08 fa 00 00 	movl   $0xfa,0x8(%esp)
c0001bf5:	00 
c0001bf6:	c7 44 24 04 00 00 00 	movl   $0x0,0x4(%esp)
c0001bfd:	00 
c0001bfe:	c7 04 24 ff ff 00 00 	movl   $0xffff,(%esp)
c0001c05:	e8 cb fd ff ff       	call   c00019d5 <setup_GDT_entry>
c0001c0a:	c7 44 24 0c cf 00 00 	movl   $0xcf,0xc(%esp)
c0001c11:	00 
c0001c12:	c7 44 24 08 f2 00 00 	movl   $0xf2,0x8(%esp)
c0001c19:	00 
c0001c1a:	c7 44 24 04 00 00 00 	movl   $0x0,0x4(%esp)
c0001c21:	00 
c0001c22:	c7 04 24 ff ff 00 00 	movl   $0xffff,(%esp)
c0001c29:	e8 a7 fd ff ff       	call   c00019d5 <setup_GDT_entry>
c0001c2e:	66 c7 05 80 9d 02 c0 	movw   $0xffff,0xc0029d80
c0001c35:	ff ff 
c0001c37:	b8 82 9d 02 c0       	mov    $0xc0029d82,%eax
c0001c3c:	ba 80 7d 01 c0       	mov    $0xc0017d80,%edx
c0001c41:	89 10                	mov    %edx,(%eax)
c0001c43:	b8 80 9d 02 c0       	mov    $0xc0029d80,%eax
c0001c48:	0f 01 10             	lgdtl  (%eax)
c0001c4b:	e8 64 fd ff ff       	call   c00019b4 <k_update_segment_regs>
c0001c50:	83 c4 14             	add    $0x14,%esp
c0001c53:	5b                   	pop    %ebx
c0001c54:	5d                   	pop    %ebp
c0001c55:	c3                   	ret    
	...

c0001c58 <memset08>:
memset08():
c0001c58:	55                   	push   %ebp
c0001c59:	89 e5                	mov    %esp,%ebp
c0001c5b:	57                   	push   %edi
c0001c5c:	83 ec 04             	sub    $0x4,%esp
c0001c5f:	8b 45 0c             	mov    0xc(%ebp),%eax
c0001c62:	88 45 f8             	mov    %al,-0x8(%ebp)
c0001c65:	8b 55 08             	mov    0x8(%ebp),%edx
c0001c68:	8b 4d 10             	mov    0x10(%ebp),%ecx
c0001c6b:	0f b6 45 f8          	movzbl -0x8(%ebp),%eax
c0001c6f:	89 d7                	mov    %edx,%edi
c0001c71:	fc                   	cld    
c0001c72:	f3 aa                	rep stos %al,%es:(%edi)
c0001c74:	83 c4 04             	add    $0x4,%esp
c0001c77:	5f                   	pop    %edi
c0001c78:	5d                   	pop    %ebp
c0001c79:	c3                   	ret    

c0001c7a <invlpg>:
invlpg():
c0001c7a:	55                   	push   %ebp
c0001c7b:	89 e5                	mov    %esp,%ebp
c0001c7d:	0f 01 7d 08          	invlpg 0x8(%ebp)
c0001c81:	5d                   	pop    %ebp
c0001c82:	c3                   	ret    

c0001c83 <reload_CR3>:
reload_CR3():
c0001c83:	55                   	push   %ebp
c0001c84:	89 e5                	mov    %esp,%ebp
c0001c86:	0f 20 d8             	mov    %cr3,%eax
c0001c89:	0f 22 d8             	mov    %eax,%cr3
c0001c8c:	5d                   	pop    %ebp
c0001c8d:	c3                   	ret    

c0001c8e <pop_frame>:
pop_frame():
c0001c8e:	55                   	push   %ebp
c0001c8f:	89 e5                	mov    %esp,%ebp
c0001c91:	53                   	push   %ebx
c0001c92:	83 ec 10             	sub    $0x10,%esp
c0001c95:	9c                   	pushf  
c0001c96:	5b                   	pop    %ebx
c0001c97:	fa                   	cli    
c0001c98:	89 5d f8             	mov    %ebx,-0x8(%ebp)
c0001c9b:	a1 00 60 00 c0       	mov    0xc0006000,%eax
c0001ca0:	8b 00                	mov    (%eax),%eax
c0001ca2:	85 c0                	test   %eax,%eax
c0001ca4:	74 2b                	je     c0001cd1 <pop_frame+0x43>
c0001ca6:	a1 00 60 00 c0       	mov    0xc0006000,%eax
c0001cab:	8b 00                	mov    (%eax),%eax
c0001cad:	89 45 f4             	mov    %eax,-0xc(%ebp)
c0001cb0:	a1 00 60 00 c0       	mov    0xc0006000,%eax
c0001cb5:	c7 00 00 00 00 00    	movl   $0x0,(%eax)
c0001cbb:	a1 00 60 00 c0       	mov    0xc0006000,%eax
c0001cc0:	83 c0 04             	add    $0x4,%eax
c0001cc3:	a3 00 60 00 c0       	mov    %eax,0xc0006000
c0001cc8:	ff 75 f8             	pushl  -0x8(%ebp)
c0001ccb:	9d                   	popf   
c0001ccc:	8b 45 f4             	mov    -0xc(%ebp),%eax
c0001ccf:	eb 09                	jmp    c0001cda <pop_frame+0x4c>
c0001cd1:	ff 75 f8             	pushl  -0x8(%ebp)
c0001cd4:	9d                   	popf   
c0001cd5:	b8 00 00 00 00       	mov    $0x0,%eax
c0001cda:	83 c4 10             	add    $0x10,%esp
c0001cdd:	5b                   	pop    %ebx
c0001cde:	5d                   	pop    %ebp
c0001cdf:	c3                   	ret    

c0001ce0 <push_frame>:
push_frame():
c0001ce0:	55                   	push   %ebp
c0001ce1:	89 e5                	mov    %esp,%ebp
c0001ce3:	53                   	push   %ebx
c0001ce4:	83 ec 10             	sub    $0x10,%esp
c0001ce7:	9c                   	pushf  
c0001ce8:	5b                   	pop    %ebx
c0001ce9:	fa                   	cli    
c0001cea:	89 5d f8             	mov    %ebx,-0x8(%ebp)
c0001ced:	a1 00 60 00 c0       	mov    0xc0006000,%eax
c0001cf2:	89 c2                	mov    %eax,%edx
c0001cf4:	b8 00 b0 02 c0       	mov    $0xc002b000,%eax
c0001cf9:	39 c2                	cmp    %eax,%edx
c0001cfb:	76 17                	jbe    c0001d14 <push_frame+0x34>
c0001cfd:	a1 00 60 00 c0       	mov    0xc0006000,%eax
c0001d02:	83 e8 04             	sub    $0x4,%eax
c0001d05:	a3 00 60 00 c0       	mov    %eax,0xc0006000
c0001d0a:	a1 00 60 00 c0       	mov    0xc0006000,%eax
c0001d0f:	8b 55 08             	mov    0x8(%ebp),%edx
c0001d12:	89 10                	mov    %edx,(%eax)
c0001d14:	ff 75 f8             	pushl  -0x8(%ebp)
c0001d17:	9d                   	popf   
c0001d18:	83 c4 10             	add    $0x10,%esp
c0001d1b:	5b                   	pop    %ebx
c0001d1c:	5d                   	pop    %ebp
c0001d1d:	c3                   	ret    

c0001d1e <init_free_frames>:
init_free_frames():
c0001d1e:	55                   	push   %ebp
c0001d1f:	89 e5                	mov    %esp,%ebp
c0001d21:	83 ec 10             	sub    $0x10,%esp
c0001d24:	c7 45 fc 00 10 00 00 	movl   $0x1000,-0x4(%ebp)
c0001d2b:	a1 00 60 00 c0       	mov    0xc0006000,%eax
c0001d30:	a3 a0 9d 02 c0       	mov    %eax,0xc0029da0
c0001d35:	eb 16                	jmp    c0001d4d <init_free_frames+0x2f>
c0001d37:	a1 a0 9d 02 c0       	mov    0xc0029da0,%eax
c0001d3c:	8b 55 fc             	mov    -0x4(%ebp),%edx
c0001d3f:	89 10                	mov    %edx,(%eax)
c0001d41:	83 c0 04             	add    $0x4,%eax
c0001d44:	a3 a0 9d 02 c0       	mov    %eax,0xc0029da0
c0001d49:	83 45 fc 01          	addl   $0x1,-0x4(%ebp)
c0001d4d:	a1 04 00 00 c0       	mov    0xc0000004,%eax
c0001d52:	c1 e8 0c             	shr    $0xc,%eax
c0001d55:	3b 45 fc             	cmp    -0x4(%ebp),%eax
c0001d58:	77 dd                	ja     c0001d37 <init_free_frames+0x19>
c0001d5a:	a1 a0 9d 02 c0       	mov    0xc0029da0,%eax
c0001d5f:	c7 00 00 00 00 00    	movl   $0x0,(%eax)
c0001d65:	c9                   	leave  
c0001d66:	c3                   	ret    

c0001d67 <map_page>:
map_page():
c0001d67:	55                   	push   %ebp
c0001d68:	89 e5                	mov    %esp,%ebp
c0001d6a:	53                   	push   %ebx
c0001d6b:	83 ec 18             	sub    $0x18,%esp
c0001d6e:	8b 45 10             	mov    0x10(%ebp),%eax
c0001d71:	66 89 45 e8          	mov    %ax,-0x18(%ebp)
c0001d75:	9c                   	pushf  
c0001d76:	5b                   	pop    %ebx
c0001d77:	fa                   	cli    
c0001d78:	89 5d f4             	mov    %ebx,-0xc(%ebp)
c0001d7b:	81 65 08 00 f0 ff ff 	andl   $0xfffff000,0x8(%ebp)
c0001d82:	81 65 0c 00 f0 ff ff 	andl   $0xfffff000,0xc(%ebp)
c0001d89:	66 81 65 e8 ff 0f    	andw   $0xfff,-0x18(%ebp)
c0001d8f:	8b 45 08             	mov    0x8(%ebp),%eax
c0001d92:	c1 e8 14             	shr    $0x14,%eax
c0001d95:	83 e0 fc             	and    $0xfffffffc,%eax
c0001d98:	2d 00 10 00 00       	sub    $0x1000,%eax
c0001d9d:	8b 00                	mov    (%eax),%eax
c0001d9f:	85 c0                	test   %eax,%eax
c0001da1:	0f 85 ad 00 00 00    	jne    c0001e54 <map_page+0xed>
c0001da7:	e8 e2 fe ff ff       	call   c0001c8e <pop_frame>
c0001dac:	c1 e0 0c             	shl    $0xc,%eax
c0001daf:	89 45 f0             	mov    %eax,-0x10(%ebp)
c0001db2:	83 7d f0 00          	cmpl   $0x0,-0x10(%ebp)
c0001db6:	75 0e                	jne    c0001dc6 <map_page+0x5f>
c0001db8:	ff 75 f4             	pushl  -0xc(%ebp)
c0001dbb:	9d                   	popf   
c0001dbc:	b8 00 00 00 00       	mov    $0x0,%eax
c0001dc1:	e9 b9 00 00 00       	jmp    c0001e7f <map_page+0x118>
c0001dc6:	8b 45 08             	mov    0x8(%ebp),%eax
c0001dc9:	c1 e8 14             	shr    $0x14,%eax
c0001dcc:	83 e0 fc             	and    $0xfffffffc,%eax
c0001dcf:	2d 00 10 00 00       	sub    $0x1000,%eax
c0001dd4:	8b 55 f0             	mov    -0x10(%ebp),%edx
c0001dd7:	83 ca 07             	or     $0x7,%edx
c0001dda:	89 10                	mov    %edx,(%eax)
c0001ddc:	8b 45 08             	mov    0x8(%ebp),%eax
c0001ddf:	c1 e8 0a             	shr    $0xa,%eax
c0001de2:	83 e0 fc             	and    $0xfffffffc,%eax
c0001de5:	2d 00 00 40 00       	sub    $0x400000,%eax
c0001dea:	89 04 24             	mov    %eax,(%esp)
c0001ded:	e8 88 fe ff ff       	call   c0001c7a <invlpg>
c0001df2:	8b 45 08             	mov    0x8(%ebp),%eax
c0001df5:	25 00 00 c0 ff       	and    $0xffc00000,%eax
c0001dfa:	89 45 f8             	mov    %eax,-0x8(%ebp)
c0001dfd:	eb 1b                	jmp    c0001e1a <map_page+0xb3>
c0001dff:	8b 45 f8             	mov    -0x8(%ebp),%eax
c0001e02:	c1 e8 0a             	shr    $0xa,%eax
c0001e05:	83 e0 fc             	and    $0xfffffffc,%eax
c0001e08:	2d 00 00 40 00       	sub    $0x400000,%eax
c0001e0d:	c7 00 00 00 00 00    	movl   $0x0,(%eax)
c0001e13:	81 45 f8 00 10 00 00 	addl   $0x1000,-0x8(%ebp)
c0001e1a:	8b 45 08             	mov    0x8(%ebp),%eax
c0001e1d:	25 00 00 c0 ff       	and    $0xffc00000,%eax
c0001e22:	05 00 00 40 00       	add    $0x400000,%eax
c0001e27:	3b 45 f8             	cmp    -0x8(%ebp),%eax
c0001e2a:	77 d3                	ja     c0001dff <map_page+0x98>
c0001e2c:	81 7d 08 ff ff ff bf 	cmpl   $0xbfffffff,0x8(%ebp)
c0001e33:	76 1f                	jbe    c0001e54 <map_page+0xed>
c0001e35:	8b 45 08             	mov    0x8(%ebp),%eax
c0001e38:	89 c2                	mov    %eax,%edx
c0001e3a:	c1 ea 16             	shr    $0x16,%edx
c0001e3d:	8b 45 08             	mov    0x8(%ebp),%eax
c0001e40:	c1 e8 14             	shr    $0x14,%eax
c0001e43:	83 e0 fc             	and    $0xfffffffc,%eax
c0001e46:	2d 00 10 00 00       	sub    $0x1000,%eax
c0001e4b:	8b 00                	mov    (%eax),%eax
c0001e4d:	89 04 95 c0 9d 02 c0 	mov    %eax,-0x3ffd6240(,%edx,4)
c0001e54:	8b 45 08             	mov    0x8(%ebp),%eax
c0001e57:	c1 e8 0a             	shr    $0xa,%eax
c0001e5a:	83 e0 fc             	and    $0xfffffffc,%eax
c0001e5d:	2d 00 00 40 00       	sub    $0x400000,%eax
c0001e62:	0f b7 55 e8          	movzwl -0x18(%ebp),%edx
c0001e66:	0b 55 0c             	or     0xc(%ebp),%edx
c0001e69:	89 10                	mov    %edx,(%eax)
c0001e6b:	8b 45 08             	mov    0x8(%ebp),%eax
c0001e6e:	89 04 24             	mov    %eax,(%esp)
c0001e71:	e8 04 fe ff ff       	call   c0001c7a <invlpg>
c0001e76:	ff 75 f4             	pushl  -0xc(%ebp)
c0001e79:	9d                   	popf   
c0001e7a:	b8 01 00 00 00       	mov    $0x1,%eax
c0001e7f:	83 c4 18             	add    $0x18,%esp
c0001e82:	5b                   	pop    %ebx
c0001e83:	5d                   	pop    %ebp
c0001e84:	c3                   	ret    

c0001e85 <delete_page>:
delete_page():
c0001e85:	55                   	push   %ebp
c0001e86:	89 e5                	mov    %esp,%ebp
c0001e88:	53                   	push   %ebx
c0001e89:	83 ec 24             	sub    $0x24,%esp
c0001e8c:	81 65 08 00 f0 ff ff 	andl   $0xfffff000,0x8(%ebp)
c0001e93:	8b 45 08             	mov    0x8(%ebp),%eax
c0001e96:	c1 e8 14             	shr    $0x14,%eax
c0001e99:	83 e0 fc             	and    $0xfffffffc,%eax
c0001e9c:	2d 00 10 00 00       	sub    $0x1000,%eax
c0001ea1:	8b 00                	mov    (%eax),%eax
c0001ea3:	85 c0                	test   %eax,%eax
c0001ea5:	0f 84 22 01 00 00    	je     c0001fcd <delete_page+0x148>
c0001eab:	8b 45 08             	mov    0x8(%ebp),%eax
c0001eae:	c1 e8 0a             	shr    $0xa,%eax
c0001eb1:	83 e0 fc             	and    $0xfffffffc,%eax
c0001eb4:	2d 00 00 40 00       	sub    $0x400000,%eax
c0001eb9:	8b 00                	mov    (%eax),%eax
c0001ebb:	85 c0                	test   %eax,%eax
c0001ebd:	0f 84 0d 01 00 00    	je     c0001fd0 <delete_page+0x14b>
c0001ec3:	9c                   	pushf  
c0001ec4:	5b                   	pop    %ebx
c0001ec5:	fa                   	cli    
c0001ec6:	89 5d f0             	mov    %ebx,-0x10(%ebp)
c0001ec9:	8b 45 08             	mov    0x8(%ebp),%eax
c0001ecc:	89 04 24             	mov    %eax,(%esp)
c0001ecf:	e8 03 01 00 00       	call   c0001fd7 <virtual_to_physical_address>
c0001ed4:	3d 00 00 00 01       	cmp    $0x1000000,%eax
c0001ed9:	76 2b                	jbe    c0001f06 <delete_page+0x81>
c0001edb:	8b 45 08             	mov    0x8(%ebp),%eax
c0001ede:	89 04 24             	mov    %eax,(%esp)
c0001ee1:	e8 f1 00 00 00       	call   c0001fd7 <virtual_to_physical_address>
c0001ee6:	8b 15 04 00 00 c0    	mov    0xc0000004,%edx
c0001eec:	39 d0                	cmp    %edx,%eax
c0001eee:	73 16                	jae    c0001f06 <delete_page+0x81>
c0001ef0:	8b 45 08             	mov    0x8(%ebp),%eax
c0001ef3:	89 04 24             	mov    %eax,(%esp)
c0001ef6:	e8 dc 00 00 00       	call   c0001fd7 <virtual_to_physical_address>
c0001efb:	c1 e8 0c             	shr    $0xc,%eax
c0001efe:	89 04 24             	mov    %eax,(%esp)
c0001f01:	e8 da fd ff ff       	call   c0001ce0 <push_frame>
c0001f06:	8b 45 08             	mov    0x8(%ebp),%eax
c0001f09:	c1 e8 0a             	shr    $0xa,%eax
c0001f0c:	83 e0 fc             	and    $0xfffffffc,%eax
c0001f0f:	2d 00 00 40 00       	sub    $0x400000,%eax
c0001f14:	c7 00 00 00 00 00    	movl   $0x0,(%eax)
c0001f1a:	8b 45 08             	mov    0x8(%ebp),%eax
c0001f1d:	89 04 24             	mov    %eax,(%esp)
c0001f20:	e8 55 fd ff ff       	call   c0001c7a <invlpg>
c0001f25:	8b 45 08             	mov    0x8(%ebp),%eax
c0001f28:	25 00 00 c0 ff       	and    $0xffc00000,%eax
c0001f2d:	89 45 f4             	mov    %eax,-0xc(%ebp)
c0001f30:	eb 24                	jmp    c0001f56 <delete_page+0xd1>
c0001f32:	8b 45 f4             	mov    -0xc(%ebp),%eax
c0001f35:	c1 e8 0a             	shr    $0xa,%eax
c0001f38:	83 e0 fc             	and    $0xfffffffc,%eax
c0001f3b:	2d 00 00 40 00       	sub    $0x400000,%eax
c0001f40:	8b 00                	mov    (%eax),%eax
c0001f42:	85 c0                	test   %eax,%eax
c0001f44:	74 09                	je     c0001f4f <delete_page+0xca>
c0001f46:	ff 75 f0             	pushl  -0x10(%ebp)
c0001f49:	9d                   	popf   
c0001f4a:	e9 82 00 00 00       	jmp    c0001fd1 <delete_page+0x14c>
c0001f4f:	81 45 f4 00 10 00 00 	addl   $0x1000,-0xc(%ebp)
c0001f56:	8b 45 08             	mov    0x8(%ebp),%eax
c0001f59:	25 00 00 c0 ff       	and    $0xffc00000,%eax
c0001f5e:	05 00 00 40 00       	add    $0x400000,%eax
c0001f63:	3b 45 f4             	cmp    -0xc(%ebp),%eax
c0001f66:	77 ca                	ja     c0001f32 <delete_page+0xad>
c0001f68:	8b 45 08             	mov    0x8(%ebp),%eax
c0001f6b:	c1 e8 14             	shr    $0x14,%eax
c0001f6e:	83 e0 fc             	and    $0xfffffffc,%eax
c0001f71:	2d 00 10 00 00       	sub    $0x1000,%eax
c0001f76:	8b 00                	mov    (%eax),%eax
c0001f78:	c1 e8 0c             	shr    $0xc,%eax
c0001f7b:	89 04 24             	mov    %eax,(%esp)
c0001f7e:	e8 5d fd ff ff       	call   c0001ce0 <push_frame>
c0001f83:	8b 45 08             	mov    0x8(%ebp),%eax
c0001f86:	c1 e8 14             	shr    $0x14,%eax
c0001f89:	83 e0 fc             	and    $0xfffffffc,%eax
c0001f8c:	2d 00 10 00 00       	sub    $0x1000,%eax
c0001f91:	c7 00 00 00 00 00    	movl   $0x0,(%eax)
c0001f97:	8b 45 08             	mov    0x8(%ebp),%eax
c0001f9a:	c1 e8 0a             	shr    $0xa,%eax
c0001f9d:	83 e0 fc             	and    $0xfffffffc,%eax
c0001fa0:	2d 00 00 40 00       	sub    $0x400000,%eax
c0001fa5:	89 04 24             	mov    %eax,(%esp)
c0001fa8:	e8 cd fc ff ff       	call   c0001c7a <invlpg>
c0001fad:	81 7d 08 ff ff ff bf 	cmpl   $0xbfffffff,0x8(%ebp)
c0001fb4:	76 11                	jbe    c0001fc7 <delete_page+0x142>
c0001fb6:	8b 45 08             	mov    0x8(%ebp),%eax
c0001fb9:	c1 e8 16             	shr    $0x16,%eax
c0001fbc:	c7 04 85 c0 9d 02 c0 	movl   $0x0,-0x3ffd6240(,%eax,4)
c0001fc3:	00 00 00 00 
c0001fc7:	ff 75 f0             	pushl  -0x10(%ebp)
c0001fca:	9d                   	popf   
c0001fcb:	eb 04                	jmp    c0001fd1 <delete_page+0x14c>
c0001fcd:	90                   	nop
c0001fce:	eb 01                	jmp    c0001fd1 <delete_page+0x14c>
c0001fd0:	90                   	nop
c0001fd1:	83 c4 24             	add    $0x24,%esp
c0001fd4:	5b                   	pop    %ebx
c0001fd5:	5d                   	pop    %ebp
c0001fd6:	c3                   	ret    

c0001fd7 <virtual_to_physical_address>:
virtual_to_physical_address():
c0001fd7:	55                   	push   %ebp
c0001fd8:	89 e5                	mov    %esp,%ebp
c0001fda:	8b 45 08             	mov    0x8(%ebp),%eax
c0001fdd:	c1 e8 14             	shr    $0x14,%eax
c0001fe0:	83 e0 fc             	and    $0xfffffffc,%eax
c0001fe3:	2d 00 10 00 00       	sub    $0x1000,%eax
c0001fe8:	8b 00                	mov    (%eax),%eax
c0001fea:	85 c0                	test   %eax,%eax
c0001fec:	75 07                	jne    c0001ff5 <virtual_to_physical_address+0x1e>
c0001fee:	b8 00 00 00 00       	mov    $0x0,%eax
c0001ff3:	eb 23                	jmp    c0002018 <virtual_to_physical_address+0x41>
c0001ff5:	8b 45 08             	mov    0x8(%ebp),%eax
c0001ff8:	c1 e8 0a             	shr    $0xa,%eax
c0001ffb:	83 e0 fc             	and    $0xfffffffc,%eax
c0001ffe:	2d 00 00 40 00       	sub    $0x400000,%eax
c0002003:	8b 00                	mov    (%eax),%eax
c0002005:	89 c2                	mov    %eax,%edx
c0002007:	81 e2 00 f0 ff ff    	and    $0xfffff000,%edx
c000200d:	8b 45 08             	mov    0x8(%ebp),%eax
c0002010:	25 ff 0f 00 00       	and    $0xfff,%eax
c0002015:	8d 04 02             	lea    (%edx,%eax,1),%eax
c0002018:	5d                   	pop    %ebp
c0002019:	c3                   	ret    

c000201a <page_fault_handler>:
page_fault_handler():
c000201a:	55                   	push   %ebp
c000201b:	89 e5                	mov    %esp,%ebp
c000201d:	83 ec 28             	sub    $0x28,%esp
c0002020:	e8 69 fc ff ff       	call   c0001c8e <pop_frame>
c0002025:	c1 e0 0c             	shl    $0xc,%eax
c0002028:	89 45 f4             	mov    %eax,-0xc(%ebp)
c000202b:	83 7d f4 00          	cmpl   $0x0,-0xc(%ebp)
c000202f:	75 2e                	jne    c000205f <page_fault_handler+0x45>
c0002031:	c7 04 24 0c 00 00 00 	movl   $0xc,(%esp)
c0002038:	e8 8e e3 ff ff       	call   c00003cb <kset_color>
c000203d:	c7 04 24 20 4f 00 c0 	movl   $0xc0004f20,(%esp)
c0002044:	e8 a4 e3 ff ff       	call   c00003ed <kprintf>
c0002049:	c7 04 24 07 00 00 00 	movl   $0x7,(%esp)
c0002050:	e8 76 e3 ff ff       	call   c00003cb <kset_color>
c0002055:	b8 01 00 00 00       	mov    $0x1,%eax
c000205a:	e9 c4 00 00 00       	jmp    c0002123 <page_fault_handler+0x109>
c000205f:	83 65 08 07          	andl   $0x7,0x8(%ebp)
c0002063:	81 7d 0c ff ff ff bf 	cmpl   $0xbfffffff,0xc(%ebp)
c000206a:	76 49                	jbe    c00020b5 <page_fault_handler+0x9b>
c000206c:	c7 44 24 08 03 00 00 	movl   $0x3,0x8(%esp)
c0002073:	00 
c0002074:	8b 45 f4             	mov    -0xc(%ebp),%eax
c0002077:	89 44 24 04          	mov    %eax,0x4(%esp)
c000207b:	8b 45 0c             	mov    0xc(%ebp),%eax
c000207e:	89 04 24             	mov    %eax,(%esp)
c0002081:	e8 e1 fc ff ff       	call   c0001d67 <map_page>
c0002086:	85 c0                	test   %eax,%eax
c0002088:	75 74                	jne    c00020fe <page_fault_handler+0xe4>
c000208a:	c7 04 24 0c 00 00 00 	movl   $0xc,(%esp)
c0002091:	e8 35 e3 ff ff       	call   c00003cb <kset_color>
c0002096:	c7 04 24 20 4f 00 c0 	movl   $0xc0004f20,(%esp)
c000209d:	e8 4b e3 ff ff       	call   c00003ed <kprintf>
c00020a2:	c7 04 24 07 00 00 00 	movl   $0x7,(%esp)
c00020a9:	e8 1d e3 ff ff       	call   c00003cb <kset_color>
c00020ae:	b8 01 00 00 00       	mov    $0x1,%eax
c00020b3:	eb 6e                	jmp    c0002123 <page_fault_handler+0x109>
c00020b5:	c7 44 24 08 07 00 00 	movl   $0x7,0x8(%esp)
c00020bc:	00 
c00020bd:	8b 45 f4             	mov    -0xc(%ebp),%eax
c00020c0:	89 44 24 04          	mov    %eax,0x4(%esp)
c00020c4:	8b 45 0c             	mov    0xc(%ebp),%eax
c00020c7:	89 04 24             	mov    %eax,(%esp)
c00020ca:	e8 98 fc ff ff       	call   c0001d67 <map_page>
c00020cf:	85 c0                	test   %eax,%eax
c00020d1:	75 2b                	jne    c00020fe <page_fault_handler+0xe4>
c00020d3:	c7 04 24 0c 00 00 00 	movl   $0xc,(%esp)
c00020da:	e8 ec e2 ff ff       	call   c00003cb <kset_color>
c00020df:	c7 04 24 20 4f 00 c0 	movl   $0xc0004f20,(%esp)
c00020e6:	e8 02 e3 ff ff       	call   c00003ed <kprintf>
c00020eb:	c7 04 24 07 00 00 00 	movl   $0x7,(%esp)
c00020f2:	e8 d4 e2 ff ff       	call   c00003cb <kset_color>
c00020f7:	b8 01 00 00 00       	mov    $0x1,%eax
c00020fc:	eb 25                	jmp    c0002123 <page_fault_handler+0x109>
c00020fe:	8b 45 0c             	mov    0xc(%ebp),%eax
c0002101:	25 00 f0 ff ff       	and    $0xfffff000,%eax
c0002106:	c7 44 24 08 00 10 00 	movl   $0x1000,0x8(%esp)
c000210d:	00 
c000210e:	c7 44 24 04 00 00 00 	movl   $0x0,0x4(%esp)
c0002115:	00 
c0002116:	89 04 24             	mov    %eax,(%esp)
c0002119:	e8 3a fb ff ff       	call   c0001c58 <memset08>
c000211e:	b8 00 00 00 00       	mov    $0x0,%eax
c0002123:	c9                   	leave  
c0002124:	c3                   	ret    

c0002125 <initialize_paging>:
initialize_paging():
c0002125:	55                   	push   %ebp
c0002126:	89 e5                	mov    %esp,%ebp
c0002128:	83 ec 1c             	sub    $0x1c,%esp
c000212b:	e8 ee fb ff ff       	call   c0001d1e <init_free_frames>
c0002130:	b8 00 f0 ff ff       	mov    $0xfffff000,%eax
c0002135:	c7 00 00 00 00 00    	movl   $0x0,(%eax)
c000213b:	c7 45 fc 00 00 00 e0 	movl   $0xe0000000,-0x4(%ebp)
c0002142:	eb 26                	jmp    c000216a <initialize_paging+0x45>
c0002144:	8b 45 fc             	mov    -0x4(%ebp),%eax
c0002147:	05 00 00 00 20       	add    $0x20000000,%eax
c000214c:	c7 44 24 08 03 00 00 	movl   $0x3,0x8(%esp)
c0002153:	00 
c0002154:	89 44 24 04          	mov    %eax,0x4(%esp)
c0002158:	8b 45 fc             	mov    -0x4(%ebp),%eax
c000215b:	89 04 24             	mov    %eax,(%esp)
c000215e:	e8 04 fc ff ff       	call   c0001d67 <map_page>
c0002163:	81 45 fc 00 10 00 00 	addl   $0x1000,-0x4(%ebp)
c000216a:	81 7d fc ff ff ff e0 	cmpl   $0xe0ffffff,-0x4(%ebp)
c0002171:	76 d1                	jbe    c0002144 <initialize_paging+0x1f>
c0002173:	c7 45 fc 00 00 00 00 	movl   $0x0,-0x4(%ebp)
c000217a:	eb 1b                	jmp    c0002197 <initialize_paging+0x72>
c000217c:	8b 45 fc             	mov    -0x4(%ebp),%eax
c000217f:	c1 e0 02             	shl    $0x2,%eax
c0002182:	2d 00 10 00 00       	sub    $0x1000,%eax
c0002187:	8b 10                	mov    (%eax),%edx
c0002189:	8b 45 fc             	mov    -0x4(%ebp),%eax
c000218c:	89 14 85 c0 9d 02 c0 	mov    %edx,-0x3ffd6240(,%eax,4)
c0002193:	83 45 fc 01          	addl   $0x1,-0x4(%ebp)
c0002197:	81 7d fc ff 03 00 00 	cmpl   $0x3ff,-0x4(%ebp)
c000219e:	76 dc                	jbe    c000217c <initialize_paging+0x57>
c00021a0:	e8 de fa ff ff       	call   c0001c83 <reload_CR3>
c00021a5:	c9                   	leave  
c00021a6:	c3                   	ret    

c00021a7 <dump_dirty_pages>:
dump_dirty_pages():
c00021a7:	55                   	push   %ebp
c00021a8:	89 e5                	mov    %esp,%ebp
c00021aa:	83 ec 28             	sub    $0x28,%esp
c00021ad:	c7 45 f0 01 00 00 00 	movl   $0x1,-0x10(%ebp)
c00021b4:	c7 04 24 4d 4f 00 c0 	movl   $0xc0004f4d,(%esp)
c00021bb:	e8 2d e2 ff ff       	call   c00003ed <kprintf>
c00021c0:	c7 45 f4 00 00 00 00 	movl   $0x0,-0xc(%ebp)
c00021c7:	e9 90 00 00 00       	jmp    c000225c <dump_dirty_pages+0xb5>
c00021cc:	8b 45 f4             	mov    -0xc(%ebp),%eax
c00021cf:	c1 e8 14             	shr    $0x14,%eax
c00021d2:	83 e0 fc             	and    $0xfffffffc,%eax
c00021d5:	2d 00 10 00 00       	sub    $0x1000,%eax
c00021da:	8b 00                	mov    (%eax),%eax
c00021dc:	85 c0                	test   %eax,%eax
c00021de:	74 75                	je     c0002255 <dump_dirty_pages+0xae>
c00021e0:	8b 45 f4             	mov    -0xc(%ebp),%eax
c00021e3:	c1 e8 0a             	shr    $0xa,%eax
c00021e6:	83 e0 fc             	and    $0xfffffffc,%eax
c00021e9:	2d 00 00 40 00       	sub    $0x400000,%eax
c00021ee:	8b 00                	mov    (%eax),%eax
c00021f0:	83 e0 40             	and    $0x40,%eax
c00021f3:	85 c0                	test   %eax,%eax
c00021f5:	74 5e                	je     c0002255 <dump_dirty_pages+0xae>
c00021f7:	83 45 f0 01          	addl   $0x1,-0x10(%ebp)
c00021fb:	8b 4d f0             	mov    -0x10(%ebp),%ecx
c00021fe:	ba ab aa aa aa       	mov    $0xaaaaaaab,%edx
c0002203:	89 c8                	mov    %ecx,%eax
c0002205:	f7 e2                	mul    %edx
c0002207:	c1 ea 04             	shr    $0x4,%edx
c000220a:	89 d0                	mov    %edx,%eax
c000220c:	01 c0                	add    %eax,%eax
c000220e:	01 d0                	add    %edx,%eax
c0002210:	c1 e0 03             	shl    $0x3,%eax
c0002213:	89 ca                	mov    %ecx,%edx
c0002215:	29 c2                	sub    %eax,%edx
c0002217:	85 d2                	test   %edx,%edx
c0002219:	75 13                	jne    c000222e <dump_dirty_pages+0x87>
c000221b:	c7 45 ec 00 2d 31 01 	movl   $0x1312d00,-0x14(%ebp)
c0002222:	eb 04                	jmp    c0002228 <dump_dirty_pages+0x81>
c0002224:	83 6d ec 01          	subl   $0x1,-0x14(%ebp)
c0002228:	83 7d ec 00          	cmpl   $0x0,-0x14(%ebp)
c000222c:	75 f6                	jne    c0002224 <dump_dirty_pages+0x7d>
c000222e:	8b 45 f4             	mov    -0xc(%ebp),%eax
c0002231:	c1 e8 0a             	shr    $0xa,%eax
c0002234:	83 e0 fc             	and    $0xfffffffc,%eax
c0002237:	2d 00 00 40 00       	sub    $0x400000,%eax
c000223c:	8b 00                	mov    (%eax),%eax
c000223e:	89 44 24 08          	mov    %eax,0x8(%esp)
c0002242:	8b 45 f4             	mov    -0xc(%ebp),%eax
c0002245:	89 44 24 04          	mov    %eax,0x4(%esp)
c0002249:	c7 04 24 5c 4f 00 c0 	movl   $0xc0004f5c,(%esp)
c0002250:	e8 98 e1 ff ff       	call   c00003ed <kprintf>
c0002255:	81 45 f4 00 10 00 00 	addl   $0x1000,-0xc(%ebp)
c000225c:	81 7d f4 ff ff bf ff 	cmpl   $0xffbfffff,-0xc(%ebp)
c0002263:	0f 86 63 ff ff ff    	jbe    c00021cc <dump_dirty_pages+0x25>
c0002269:	c7 04 24 7b 4f 00 c0 	movl   $0xc0004f7b,(%esp)
c0002270:	e8 78 e1 ff ff       	call   c00003ed <kprintf>
c0002275:	c9                   	leave  
c0002276:	c3                   	ret    

c0002277 <dump_free_frames>:
dump_free_frames():
c0002277:	55                   	push   %ebp
c0002278:	89 e5                	mov    %esp,%ebp
c000227a:	83 ec 28             	sub    $0x28,%esp
c000227d:	a1 00 60 00 c0       	mov    0xc0006000,%eax
c0002282:	89 45 f4             	mov    %eax,-0xc(%ebp)
c0002285:	c7 45 f0 01 00 00 00 	movl   $0x1,-0x10(%ebp)
c000228c:	b8 00 b0 02 c0       	mov    $0xc002b000,%eax
c0002291:	89 44 24 04          	mov    %eax,0x4(%esp)
c0002295:	c7 04 24 80 4f 00 c0 	movl   $0xc0004f80,(%esp)
c000229c:	e8 4c e1 ff ff       	call   c00003ed <kprintf>
c00022a1:	8b 45 f4             	mov    -0xc(%ebp),%eax
c00022a4:	8b 00                	mov    (%eax),%eax
c00022a6:	85 c0                	test   %eax,%eax
c00022a8:	74 59                	je     c0002303 <dump_free_frames+0x8c>
c00022aa:	83 45 f0 01          	addl   $0x1,-0x10(%ebp)
c00022ae:	8b 4d f0             	mov    -0x10(%ebp),%ecx
c00022b1:	ba ab aa aa aa       	mov    $0xaaaaaaab,%edx
c00022b6:	89 c8                	mov    %ecx,%eax
c00022b8:	f7 e2                	mul    %edx
c00022ba:	c1 ea 04             	shr    $0x4,%edx
c00022bd:	89 d0                	mov    %edx,%eax
c00022bf:	01 c0                	add    %eax,%eax
c00022c1:	01 d0                	add    %edx,%eax
c00022c3:	c1 e0 03             	shl    $0x3,%eax
c00022c6:	89 ca                	mov    %ecx,%edx
c00022c8:	29 c2                	sub    %eax,%edx
c00022ca:	85 d2                	test   %edx,%edx
c00022cc:	75 13                	jne    c00022e1 <dump_free_frames+0x6a>
c00022ce:	c7 45 ec 00 2d 31 01 	movl   $0x1312d00,-0x14(%ebp)
c00022d5:	eb 04                	jmp    c00022db <dump_free_frames+0x64>
c00022d7:	83 6d ec 01          	subl   $0x1,-0x14(%ebp)
c00022db:	83 7d ec 00          	cmpl   $0x0,-0x14(%ebp)
c00022df:	75 f6                	jne    c00022d7 <dump_free_frames+0x60>
c00022e1:	8b 55 f4             	mov    -0xc(%ebp),%edx
c00022e4:	8b 45 f4             	mov    -0xc(%ebp),%eax
c00022e7:	8b 00                	mov    (%eax),%eax
c00022e9:	89 54 24 08          	mov    %edx,0x8(%esp)
c00022ed:	89 44 24 04          	mov    %eax,0x4(%esp)
c00022f1:	c7 04 24 a4 4f 00 c0 	movl   $0xc0004fa4,(%esp)
c00022f8:	e8 f0 e0 ff ff       	call   c00003ed <kprintf>
c00022fd:	83 45 f4 04          	addl   $0x4,-0xc(%ebp)
c0002301:	eb 9e                	jmp    c00022a1 <dump_free_frames+0x2a>
c0002303:	90                   	nop
c0002304:	c7 04 24 7b 4f 00 c0 	movl   $0xc0004f7b,(%esp)
c000230b:	e8 dd e0 ff ff       	call   c00003ed <kprintf>
c0002310:	c9                   	leave  
c0002311:	c3                   	ret    
	...

c0002314 <pick_queue>:
pick_queue():
c0002314:	55                   	push   %ebp
c0002315:	89 e5                	mov    %esp,%ebp
c0002317:	83 7d 08 00          	cmpl   $0x0,0x8(%ebp)
c000231b:	75 07                	jne    c0002324 <pick_queue+0x10>
c000231d:	b8 00 00 00 00       	mov    $0x0,%eax
c0002322:	eb 24                	jmp    c0002348 <pick_queue+0x34>
c0002324:	8b 45 08             	mov    0x8(%ebp),%eax
c0002327:	8b 00                	mov    (%eax),%eax
c0002329:	85 c0                	test   %eax,%eax
c000232b:	75 07                	jne    c0002334 <pick_queue+0x20>
c000232d:	b8 00 00 00 00       	mov    $0x0,%eax
c0002332:	eb 14                	jmp    c0002348 <pick_queue+0x34>
c0002334:	8b 45 08             	mov    0x8(%ebp),%eax
c0002337:	8b 00                	mov    (%eax),%eax
c0002339:	8b 50 04             	mov    0x4(%eax),%edx
c000233c:	8b 45 08             	mov    0x8(%ebp),%eax
c000233f:	89 10                	mov    %edx,(%eax)
c0002341:	8b 45 08             	mov    0x8(%ebp),%eax
c0002344:	8b 00                	mov    (%eax),%eax
c0002346:	8b 00                	mov    (%eax),%eax
c0002348:	5d                   	pop    %ebp
c0002349:	c3                   	ret    

c000234a <add_queue>:
add_queue():
c000234a:	55                   	push   %ebp
c000234b:	89 e5                	mov    %esp,%ebp
c000234d:	83 ec 28             	sub    $0x28,%esp
c0002350:	c7 04 24 08 00 00 00 	movl   $0x8,(%esp)
c0002357:	e8 1c f0 ff ff       	call   c0001378 <kmalloc>
c000235c:	89 45 f4             	mov    %eax,-0xc(%ebp)
c000235f:	83 7d f4 00          	cmpl   $0x0,-0xc(%ebp)
c0002363:	75 0c                	jne    c0002371 <add_queue+0x27>
c0002365:	c7 04 24 b9 4f 00 c0 	movl   $0xc0004fb9,(%esp)
c000236c:	e8 0d ef ff ff       	call   c000127e <error>
c0002371:	8b 45 f4             	mov    -0xc(%ebp),%eax
c0002374:	8b 55 0c             	mov    0xc(%ebp),%edx
c0002377:	89 10                	mov    %edx,(%eax)
c0002379:	8b 45 08             	mov    0x8(%ebp),%eax
c000237c:	8b 00                	mov    (%eax),%eax
c000237e:	85 c0                	test   %eax,%eax
c0002380:	75 13                	jne    c0002395 <add_queue+0x4b>
c0002382:	8b 45 f4             	mov    -0xc(%ebp),%eax
c0002385:	8b 55 f4             	mov    -0xc(%ebp),%edx
c0002388:	89 50 04             	mov    %edx,0x4(%eax)
c000238b:	8b 45 08             	mov    0x8(%ebp),%eax
c000238e:	8b 55 f4             	mov    -0xc(%ebp),%edx
c0002391:	89 10                	mov    %edx,(%eax)
c0002393:	eb 19                	jmp    c00023ae <add_queue+0x64>
c0002395:	8b 45 08             	mov    0x8(%ebp),%eax
c0002398:	8b 00                	mov    (%eax),%eax
c000239a:	8b 50 04             	mov    0x4(%eax),%edx
c000239d:	8b 45 f4             	mov    -0xc(%ebp),%eax
c00023a0:	89 50 04             	mov    %edx,0x4(%eax)
c00023a3:	8b 45 08             	mov    0x8(%ebp),%eax
c00023a6:	8b 00                	mov    (%eax),%eax
c00023a8:	8b 55 f4             	mov    -0xc(%ebp),%edx
c00023ab:	89 50 04             	mov    %edx,0x4(%eax)
c00023ae:	c9                   	leave  
c00023af:	c3                   	ret    

c00023b0 <rem_queue>:
rem_queue():
c00023b0:	55                   	push   %ebp
c00023b1:	89 e5                	mov    %esp,%ebp
c00023b3:	83 ec 28             	sub    $0x28,%esp
c00023b6:	83 7d 08 00          	cmpl   $0x0,0x8(%ebp)
c00023ba:	75 0a                	jne    c00023c6 <rem_queue+0x16>
c00023bc:	b8 00 00 00 00       	mov    $0x0,%eax
c00023c1:	e9 8b 00 00 00       	jmp    c0002451 <rem_queue+0xa1>
c00023c6:	8b 45 08             	mov    0x8(%ebp),%eax
c00023c9:	8b 00                	mov    (%eax),%eax
c00023cb:	85 c0                	test   %eax,%eax
c00023cd:	75 07                	jne    c00023d6 <rem_queue+0x26>
c00023cf:	b8 00 00 00 00       	mov    $0x0,%eax
c00023d4:	eb 7b                	jmp    c0002451 <rem_queue+0xa1>
c00023d6:	8b 45 08             	mov    0x8(%ebp),%eax
c00023d9:	8b 00                	mov    (%eax),%eax
c00023db:	89 45 f4             	mov    %eax,-0xc(%ebp)
c00023de:	8b 45 f4             	mov    -0xc(%ebp),%eax
c00023e1:	89 45 f0             	mov    %eax,-0x10(%ebp)
c00023e4:	8b 45 f4             	mov    -0xc(%ebp),%eax
c00023e7:	8b 40 04             	mov    0x4(%eax),%eax
c00023ea:	89 45 f4             	mov    %eax,-0xc(%ebp)
c00023ed:	8b 45 f4             	mov    -0xc(%ebp),%eax
c00023f0:	8b 00                	mov    (%eax),%eax
c00023f2:	3b 45 0c             	cmp    0xc(%ebp),%eax
c00023f5:	75 4b                	jne    c0002442 <rem_queue+0x92>
c00023f7:	8b 45 f4             	mov    -0xc(%ebp),%eax
c00023fa:	8b 50 04             	mov    0x4(%eax),%edx
c00023fd:	8b 45 f0             	mov    -0x10(%ebp),%eax
c0002400:	89 50 04             	mov    %edx,0x4(%eax)
c0002403:	8b 45 08             	mov    0x8(%ebp),%eax
c0002406:	8b 00                	mov    (%eax),%eax
c0002408:	3b 45 f4             	cmp    -0xc(%ebp),%eax
c000240b:	75 23                	jne    c0002430 <rem_queue+0x80>
c000240d:	8b 45 f4             	mov    -0xc(%ebp),%eax
c0002410:	8b 40 04             	mov    0x4(%eax),%eax
c0002413:	3b 45 f4             	cmp    -0xc(%ebp),%eax
c0002416:	75 0b                	jne    c0002423 <rem_queue+0x73>
c0002418:	8b 45 08             	mov    0x8(%ebp),%eax
c000241b:	c7 00 00 00 00 00    	movl   $0x0,(%eax)
c0002421:	eb 0d                	jmp    c0002430 <rem_queue+0x80>
c0002423:	8b 45 08             	mov    0x8(%ebp),%eax
c0002426:	8b 00                	mov    (%eax),%eax
c0002428:	8b 50 04             	mov    0x4(%eax),%edx
c000242b:	8b 45 08             	mov    0x8(%ebp),%eax
c000242e:	89 10                	mov    %edx,(%eax)
c0002430:	8b 45 f4             	mov    -0xc(%ebp),%eax
c0002433:	89 04 24             	mov    %eax,(%esp)
c0002436:	e8 fd f0 ff ff       	call   c0001538 <kfree>
c000243b:	b8 01 00 00 00       	mov    $0x1,%eax
c0002440:	eb 0f                	jmp    c0002451 <rem_queue+0xa1>
c0002442:	8b 45 08             	mov    0x8(%ebp),%eax
c0002445:	8b 00                	mov    (%eax),%eax
c0002447:	3b 45 f4             	cmp    -0xc(%ebp),%eax
c000244a:	75 92                	jne    c00023de <rem_queue+0x2e>
c000244c:	b8 00 00 00 00       	mov    $0x0,%eax
c0002451:	c9                   	leave  
c0002452:	c3                   	ret    
	...

c0002454 <atomic_inc>:
atomic_inc():
c0002454:	55                   	push   %ebp
c0002455:	89 e5                	mov    %esp,%ebp
c0002457:	8b 45 08             	mov    0x8(%ebp),%eax
c000245a:	8b 55 08             	mov    0x8(%ebp),%edx
c000245d:	f0 ff 00             	lock incl (%eax)
c0002460:	5d                   	pop    %ebp
c0002461:	c3                   	ret    

c0002462 <memset08>:
memset08():
c0002462:	55                   	push   %ebp
c0002463:	89 e5                	mov    %esp,%ebp
c0002465:	57                   	push   %edi
c0002466:	83 ec 04             	sub    $0x4,%esp
c0002469:	8b 45 0c             	mov    0xc(%ebp),%eax
c000246c:	88 45 f8             	mov    %al,-0x8(%ebp)
c000246f:	8b 55 08             	mov    0x8(%ebp),%edx
c0002472:	8b 4d 10             	mov    0x10(%ebp),%ecx
c0002475:	0f b6 45 f8          	movzbl -0x8(%ebp),%eax
c0002479:	89 d7                	mov    %edx,%edi
c000247b:	fc                   	cld    
c000247c:	f3 aa                	rep stos %al,%es:(%edi)
c000247e:	83 c4 04             	add    $0x4,%esp
c0002481:	5f                   	pop    %edi
c0002482:	5d                   	pop    %ebp
c0002483:	c3                   	ret    

c0002484 <memcpy08>:
memcpy08():
c0002484:	55                   	push   %ebp
c0002485:	89 e5                	mov    %esp,%ebp
c0002487:	57                   	push   %edi
c0002488:	56                   	push   %esi
c0002489:	8b 45 08             	mov    0x8(%ebp),%eax
c000248c:	8b 55 0c             	mov    0xc(%ebp),%edx
c000248f:	8b 4d 10             	mov    0x10(%ebp),%ecx
c0002492:	89 c7                	mov    %eax,%edi
c0002494:	89 d6                	mov    %edx,%esi
c0002496:	fc                   	cld    
c0002497:	f3 a4                	rep movsb %ds:(%esi),%es:(%edi)
c0002499:	5e                   	pop    %esi
c000249a:	5f                   	pop    %edi
c000249b:	5d                   	pop    %ebp
c000249c:	c3                   	ret    

c000249d <reload_CR3>:
reload_CR3():
c000249d:	55                   	push   %ebp
c000249e:	89 e5                	mov    %esp,%ebp
c00024a0:	0f 20 d8             	mov    %cr3,%eax
c00024a3:	0f 22 d8             	mov    %eax,%cr3
c00024a6:	5d                   	pop    %ebp
c00024a7:	c3                   	ret    

c00024a8 <jmp_to_tss>:
jmp_to_tss():
c00024a8:	55                   	push   %ebp
c00024a9:	89 e5                	mov    %esp,%ebp
c00024ab:	83 ec 04             	sub    $0x4,%esp
c00024ae:	8b 45 08             	mov    0x8(%ebp),%eax
c00024b1:	66 89 45 fc          	mov    %ax,-0x4(%ebp)
c00024b5:	c7 05 38 75 01 c0 00 	movl   $0x0,0xc0017538
c00024bc:	00 00 00 
c00024bf:	0f b7 45 fc          	movzwl -0x4(%ebp),%eax
c00024c3:	66 a3 3c 75 01 c0    	mov    %ax,0xc001753c
c00024c9:	ff 2d 38 75 01 c0    	ljmp   *0xc0017538
c00024cf:	c9                   	leave  
c00024d0:	c3                   	ret    

c00024d1 <get_pname>:
get_pname():
c00024d1:	55                   	push   %ebp
c00024d2:	89 e5                	mov    %esp,%ebp
c00024d4:	a1 24 75 01 c0       	mov    0xc0017524,%eax
c00024d9:	85 c0                	test   %eax,%eax
c00024db:	75 07                	jne    c00024e4 <get_pname+0x13>
c00024dd:	b8 00 00 00 00       	mov    $0x0,%eax
c00024e2:	eb 0b                	jmp    c00024ef <get_pname+0x1e>
c00024e4:	a1 24 75 01 c0       	mov    0xc0017524,%eax
c00024e9:	8b 80 78 20 00 00    	mov    0x2078(%eax),%eax
c00024ef:	5d                   	pop    %ebp
c00024f0:	c3                   	ret    

c00024f1 <do_idle>:
do_idle():
c00024f1:	55                   	push   %ebp
c00024f2:	89 e5                	mov    %esp,%ebp
c00024f4:	fb                   	sti    
c00024f5:	f4                   	hlt    
c00024f6:	eb fc                	jmp    c00024f4 <do_idle+0x3>

c00024f8 <new_pid>:
new_pid():
c00024f8:	55                   	push   %ebp
c00024f9:	89 e5                	mov    %esp,%ebp
c00024fb:	83 ec 04             	sub    $0x4,%esp
c00024fe:	c7 04 24 c0 ad 02 c0 	movl   $0xc002adc0,(%esp)
c0002505:	e8 4a ff ff ff       	call   c0002454 <atomic_inc>
c000250a:	a1 c0 ad 02 c0       	mov    0xc002adc0,%eax
c000250f:	c9                   	leave  
c0002510:	c3                   	ret    

c0002511 <get_pid>:
get_pid():
c0002511:	55                   	push   %ebp
c0002512:	89 e5                	mov    %esp,%ebp
c0002514:	a1 24 75 01 c0       	mov    0xc0017524,%eax
c0002519:	85 c0                	test   %eax,%eax
c000251b:	75 07                	jne    c0002524 <get_pid+0x13>
c000251d:	b8 00 00 00 00       	mov    $0x0,%eax
c0002522:	eb 0b                	jmp    c000252f <get_pid+0x1e>
c0002524:	a1 24 75 01 c0       	mov    0xc0017524,%eax
c0002529:	8b 80 6c 20 00 00    	mov    0x206c(%eax),%eax
c000252f:	5d                   	pop    %ebp
c0002530:	c3                   	ret    

c0002531 <create_process>:
create_process():
c0002531:	55                   	push   %ebp
c0002532:	89 e5                	mov    %esp,%ebp
c0002534:	53                   	push   %ebx
c0002535:	83 ec 34             	sub    $0x34,%esp
c0002538:	e8 93 06 00 00       	call   c0002bd0 <sched_enter_critical_region>
c000253d:	c7 04 24 7c 20 00 00 	movl   $0x207c,(%esp)
c0002544:	e8 2f ee ff ff       	call   c0001378 <kmalloc>
c0002549:	89 45 f0             	mov    %eax,-0x10(%ebp)
c000254c:	83 7d f0 00          	cmpl   $0x0,-0x10(%ebp)
c0002550:	75 3a                	jne    c000258c <create_process+0x5b>
c0002552:	c7 04 24 0c 00 00 00 	movl   $0xc,(%esp)
c0002559:	e8 6d de ff ff       	call   c00003cb <kset_color>
c000255e:	8b 45 10             	mov    0x10(%ebp),%eax
c0002561:	89 44 24 04          	mov    %eax,0x4(%esp)
c0002565:	c7 04 24 d4 4f 00 c0 	movl   $0xc0004fd4,(%esp)
c000256c:	e8 7c de ff ff       	call   c00003ed <kprintf>
c0002571:	c7 04 24 07 00 00 00 	movl   $0x7,(%esp)
c0002578:	e8 4e de ff ff       	call   c00003cb <kset_color>
c000257d:	e8 5d 06 00 00       	call   c0002bdf <sched_leave_critical_region>
c0002582:	b8 00 00 00 00       	mov    $0x0,%eax
c0002587:	e9 83 03 00 00       	jmp    c000290f <create_process+0x3de>
c000258c:	c7 44 24 08 7c 20 00 	movl   $0x207c,0x8(%esp)
c0002593:	00 
c0002594:	c7 44 24 04 00 00 00 	movl   $0x0,0x4(%esp)
c000259b:	00 
c000259c:	8b 45 f0             	mov    -0x10(%ebp),%eax
c000259f:	89 04 24             	mov    %eax,(%esp)
c00025a2:	e8 bb fe ff ff       	call   c0002462 <memset08>
c00025a7:	c7 04 24 00 80 00 00 	movl   $0x8000,(%esp)
c00025ae:	e8 c5 ed ff ff       	call   c0001378 <kmalloc>
c00025b3:	89 45 ec             	mov    %eax,-0x14(%ebp)
c00025b6:	83 7d ec 00          	cmpl   $0x0,-0x14(%ebp)
c00025ba:	75 45                	jne    c0002601 <create_process+0xd0>
c00025bc:	c7 04 24 0c 00 00 00 	movl   $0xc,(%esp)
c00025c3:	e8 03 de ff ff       	call   c00003cb <kset_color>
c00025c8:	8b 45 10             	mov    0x10(%ebp),%eax
c00025cb:	89 44 24 04          	mov    %eax,0x4(%esp)
c00025cf:	c7 04 24 d4 4f 00 c0 	movl   $0xc0004fd4,(%esp)
c00025d6:	e8 12 de ff ff       	call   c00003ed <kprintf>
c00025db:	c7 04 24 07 00 00 00 	movl   $0x7,(%esp)
c00025e2:	e8 e4 dd ff ff       	call   c00003cb <kset_color>
c00025e7:	8b 45 f0             	mov    -0x10(%ebp),%eax
c00025ea:	89 04 24             	mov    %eax,(%esp)
c00025ed:	e8 46 ef ff ff       	call   c0001538 <kfree>
c00025f2:	e8 e8 05 00 00       	call   c0002bdf <sched_leave_critical_region>
c00025f7:	b8 00 00 00 00       	mov    $0x0,%eax
c00025fc:	e9 0e 03 00 00       	jmp    c000290f <create_process+0x3de>
c0002601:	c7 44 24 08 00 80 00 	movl   $0x8000,0x8(%esp)
c0002608:	00 
c0002609:	c7 44 24 04 00 00 00 	movl   $0x0,0x4(%esp)
c0002610:	00 
c0002611:	8b 45 ec             	mov    -0x14(%ebp),%eax
c0002614:	89 04 24             	mov    %eax,(%esp)
c0002617:	e8 46 fe ff ff       	call   c0002462 <memset08>
c000261c:	8b 45 f0             	mov    -0x10(%ebp),%eax
c000261f:	c7 40 08 10 00 00 00 	movl   $0x10,0x8(%eax)
c0002626:	8b 45 ec             	mov    -0x14(%ebp),%eax
c0002629:	05 00 80 00 00       	add    $0x8000,%eax
c000262e:	89 c2                	mov    %eax,%edx
c0002630:	8b 45 f0             	mov    -0x10(%ebp),%eax
c0002633:	89 90 70 20 00 00    	mov    %edx,0x2070(%eax)
c0002639:	8b 45 f0             	mov    -0x10(%ebp),%eax
c000263c:	8b 90 70 20 00 00    	mov    0x2070(%eax),%edx
c0002642:	8b 45 f0             	mov    -0x10(%ebp),%eax
c0002645:	89 50 04             	mov    %edx,0x4(%eax)
c0002648:	8b 45 f0             	mov    -0x10(%ebp),%eax
c000264b:	c7 44 24 0c 00 00 00 	movl   $0x0,0xc(%esp)
c0002652:	00 
c0002653:	c7 44 24 08 89 00 00 	movl   $0x89,0x8(%esp)
c000265a:	00 
c000265b:	89 44 24 04          	mov    %eax,0x4(%esp)
c000265f:	c7 04 24 68 20 00 00 	movl   $0x2068,(%esp)
c0002666:	e8 6a f3 ff ff       	call   c00019d5 <setup_GDT_entry>
c000266b:	8b 55 f0             	mov    -0x10(%ebp),%edx
c000266e:	66 89 82 68 20 00 00 	mov    %ax,0x2068(%edx)
c0002675:	e8 14 f6 ff ff       	call   c0001c8e <pop_frame>
c000267a:	c1 e0 0c             	shl    $0xc,%eax
c000267d:	89 45 e8             	mov    %eax,-0x18(%ebp)
c0002680:	83 7d e8 00          	cmpl   $0x0,-0x18(%ebp)
c0002684:	75 50                	jne    c00026d6 <create_process+0x1a5>
c0002686:	c7 04 24 0c 00 00 00 	movl   $0xc,(%esp)
c000268d:	e8 39 dd ff ff       	call   c00003cb <kset_color>
c0002692:	8b 45 10             	mov    0x10(%ebp),%eax
c0002695:	89 44 24 04          	mov    %eax,0x4(%esp)
c0002699:	c7 04 24 08 50 00 c0 	movl   $0xc0005008,(%esp)
c00026a0:	e8 48 dd ff ff       	call   c00003ed <kprintf>
c00026a5:	c7 04 24 07 00 00 00 	movl   $0x7,(%esp)
c00026ac:	e8 1a dd ff ff       	call   c00003cb <kset_color>
c00026b1:	8b 45 ec             	mov    -0x14(%ebp),%eax
c00026b4:	89 04 24             	mov    %eax,(%esp)
c00026b7:	e8 7c ee ff ff       	call   c0001538 <kfree>
c00026bc:	8b 45 f0             	mov    -0x10(%ebp),%eax
c00026bf:	89 04 24             	mov    %eax,(%esp)
c00026c2:	e8 71 ee ff ff       	call   c0001538 <kfree>
c00026c7:	e8 13 05 00 00       	call   c0002bdf <sched_leave_critical_region>
c00026cc:	b8 00 00 00 00       	mov    $0x0,%eax
c00026d1:	e9 39 02 00 00       	jmp    c000290f <create_process+0x3de>
c00026d6:	c7 44 24 08 03 00 00 	movl   $0x3,0x8(%esp)
c00026dd:	00 
c00026de:	8b 45 e8             	mov    -0x18(%ebp),%eax
c00026e1:	89 44 24 04          	mov    %eax,0x4(%esp)
c00026e5:	c7 04 24 00 00 00 f0 	movl   $0xf0000000,(%esp)
c00026ec:	e8 76 f6 ff ff       	call   c0001d67 <map_page>
c00026f1:	85 c0                	test   %eax,%eax
c00026f3:	75 5e                	jne    c0002753 <create_process+0x222>
c00026f5:	c7 04 24 0c 00 00 00 	movl   $0xc,(%esp)
c00026fc:	e8 ca dc ff ff       	call   c00003cb <kset_color>
c0002701:	8b 45 10             	mov    0x10(%ebp),%eax
c0002704:	89 44 24 04          	mov    %eax,0x4(%esp)
c0002708:	c7 04 24 08 50 00 c0 	movl   $0xc0005008,(%esp)
c000270f:	e8 d9 dc ff ff       	call   c00003ed <kprintf>
c0002714:	c7 04 24 07 00 00 00 	movl   $0x7,(%esp)
c000271b:	e8 ab dc ff ff       	call   c00003cb <kset_color>
c0002720:	8b 45 ec             	mov    -0x14(%ebp),%eax
c0002723:	89 04 24             	mov    %eax,(%esp)
c0002726:	e8 0d ee ff ff       	call   c0001538 <kfree>
c000272b:	8b 45 f0             	mov    -0x10(%ebp),%eax
c000272e:	89 04 24             	mov    %eax,(%esp)
c0002731:	e8 02 ee ff ff       	call   c0001538 <kfree>
c0002736:	8b 45 e8             	mov    -0x18(%ebp),%eax
c0002739:	c1 e8 0c             	shr    $0xc,%eax
c000273c:	89 04 24             	mov    %eax,(%esp)
c000273f:	e8 9c f5 ff ff       	call   c0001ce0 <push_frame>
c0002744:	e8 96 04 00 00       	call   c0002bdf <sched_leave_critical_region>
c0002749:	b8 00 00 00 00       	mov    $0x0,%eax
c000274e:	e9 bc 01 00 00       	jmp    c000290f <create_process+0x3de>
c0002753:	c7 45 e4 00 00 00 f0 	movl   $0xf0000000,-0x1c(%ebp)
c000275a:	c7 44 24 08 00 10 00 	movl   $0x1000,0x8(%esp)
c0002761:	00 
c0002762:	c7 44 24 04 00 00 00 	movl   $0x0,0x4(%esp)
c0002769:	00 
c000276a:	8b 45 e4             	mov    -0x1c(%ebp),%eax
c000276d:	89 04 24             	mov    %eax,(%esp)
c0002770:	e8 ed fc ff ff       	call   c0002462 <memset08>
c0002775:	c7 45 f4 00 03 00 00 	movl   $0x300,-0xc(%ebp)
c000277c:	eb 19                	jmp    c0002797 <create_process+0x266>
c000277e:	8b 45 f4             	mov    -0xc(%ebp),%eax
c0002781:	c1 e0 02             	shl    $0x2,%eax
c0002784:	03 45 e4             	add    -0x1c(%ebp),%eax
c0002787:	8b 55 f4             	mov    -0xc(%ebp),%edx
c000278a:	8b 14 95 c0 9d 02 c0 	mov    -0x3ffd6240(,%edx,4),%edx
c0002791:	89 10                	mov    %edx,(%eax)
c0002793:	83 45 f4 01          	addl   $0x1,-0xc(%ebp)
c0002797:	81 7d f4 ff 03 00 00 	cmpl   $0x3ff,-0xc(%ebp)
c000279e:	76 de                	jbe    c000277e <create_process+0x24d>
c00027a0:	8b 45 e4             	mov    -0x1c(%ebp),%eax
c00027a3:	05 fc 0f 00 00       	add    $0xffc,%eax
c00027a8:	8b 55 e8             	mov    -0x18(%ebp),%edx
c00027ab:	83 ca 03             	or     $0x3,%edx
c00027ae:	89 10                	mov    %edx,(%eax)
c00027b0:	0f 20 db             	mov    %cr3,%ebx
c00027b3:	89 5d e0             	mov    %ebx,-0x20(%ebp)
c00027b6:	8b 45 e8             	mov    -0x18(%ebp),%eax
c00027b9:	0f 22 d8             	mov    %eax,%cr3
c00027bc:	c7 44 24 08 00 80 00 	movl   $0x8000,0x8(%esp)
c00027c3:	00 
c00027c4:	c7 44 24 04 00 00 00 	movl   $0x0,0x4(%esp)
c00027cb:	00 
c00027cc:	c7 04 24 00 00 00 80 	movl   $0x80000000,(%esp)
c00027d3:	e8 8a fc ff ff       	call   c0002462 <memset08>
c00027d8:	8b 45 f0             	mov    -0x10(%ebp),%eax
c00027db:	c7 40 50 10 00 00 00 	movl   $0x10,0x50(%eax)
c00027e2:	8b 45 f0             	mov    -0x10(%ebp),%eax
c00027e5:	c7 40 38 00 80 00 80 	movl   $0x80008000,0x38(%eax)
c00027ec:	8b 45 08             	mov    0x8(%ebp),%eax
c00027ef:	3b 45 0c             	cmp    0xc(%ebp),%eax
c00027f2:	74 1a                	je     c000280e <create_process+0x2dd>
c00027f4:	c7 44 24 08 00 02 00 	movl   $0x200,0x8(%esp)
c00027fb:	00 
c00027fc:	8b 45 0c             	mov    0xc(%ebp),%eax
c00027ff:	89 44 24 04          	mov    %eax,0x4(%esp)
c0002803:	8b 45 08             	mov    0x8(%ebp),%eax
c0002806:	89 04 24             	mov    %eax,(%esp)
c0002809:	e8 76 fc ff ff       	call   c0002484 <memcpy08>
c000280e:	8b 45 e0             	mov    -0x20(%ebp),%eax
c0002811:	0f 22 d8             	mov    %eax,%cr3
c0002814:	8b 45 f0             	mov    -0x10(%ebp),%eax
c0002817:	8b 55 e8             	mov    -0x18(%ebp),%edx
c000281a:	89 50 1c             	mov    %edx,0x1c(%eax)
c000281d:	8b 45 f0             	mov    -0x10(%ebp),%eax
c0002820:	66 c7 40 66 68 00    	movw   $0x68,0x66(%eax)
c0002826:	8b 45 f0             	mov    -0x10(%ebp),%eax
c0002829:	c7 40 48 10 00 00 00 	movl   $0x10,0x48(%eax)
c0002830:	8b 45 f0             	mov    -0x10(%ebp),%eax
c0002833:	8b 50 48             	mov    0x48(%eax),%edx
c0002836:	8b 45 f0             	mov    -0x10(%ebp),%eax
c0002839:	89 50 54             	mov    %edx,0x54(%eax)
c000283c:	8b 45 f0             	mov    -0x10(%ebp),%eax
c000283f:	c7 40 5c 10 00 00 00 	movl   $0x10,0x5c(%eax)
c0002846:	8b 45 f0             	mov    -0x10(%ebp),%eax
c0002849:	8b 50 5c             	mov    0x5c(%eax),%edx
c000284c:	8b 45 f0             	mov    -0x10(%ebp),%eax
c000284f:	89 50 58             	mov    %edx,0x58(%eax)
c0002852:	8b 45 f0             	mov    -0x10(%ebp),%eax
c0002855:	c7 40 24 02 02 00 00 	movl   $0x202,0x24(%eax)
c000285c:	8b 45 f0             	mov    -0x10(%ebp),%eax
c000285f:	c7 40 34 00 00 00 00 	movl   $0x0,0x34(%eax)
c0002866:	8b 45 f0             	mov    -0x10(%ebp),%eax
c0002869:	8b 50 34             	mov    0x34(%eax),%edx
c000286c:	8b 45 f0             	mov    -0x10(%ebp),%eax
c000286f:	89 50 28             	mov    %edx,0x28(%eax)
c0002872:	8b 45 f0             	mov    -0x10(%ebp),%eax
c0002875:	c7 40 30 00 00 00 00 	movl   $0x0,0x30(%eax)
c000287c:	8b 45 f0             	mov    -0x10(%ebp),%eax
c000287f:	8b 50 30             	mov    0x30(%eax),%edx
c0002882:	8b 45 f0             	mov    -0x10(%ebp),%eax
c0002885:	89 50 2c             	mov    %edx,0x2c(%eax)
c0002888:	8b 45 f0             	mov    -0x10(%ebp),%eax
c000288b:	c7 40 44 00 00 00 00 	movl   $0x0,0x44(%eax)
c0002892:	8b 45 f0             	mov    -0x10(%ebp),%eax
c0002895:	8b 50 44             	mov    0x44(%eax),%edx
c0002898:	8b 45 f0             	mov    -0x10(%ebp),%eax
c000289b:	89 50 40             	mov    %edx,0x40(%eax)
c000289e:	8b 45 f0             	mov    -0x10(%ebp),%eax
c00028a1:	c7 40 60 00 00 00 00 	movl   $0x0,0x60(%eax)
c00028a8:	8b 45 f0             	mov    -0x10(%ebp),%eax
c00028ab:	66 c7 40 64 00 00    	movw   $0x0,0x64(%eax)
c00028b1:	8b 45 f0             	mov    -0x10(%ebp),%eax
c00028b4:	c7 40 4c 08 00 00 00 	movl   $0x8,0x4c(%eax)
c00028bb:	8b 55 08             	mov    0x8(%ebp),%edx
c00028be:	8b 45 f0             	mov    -0x10(%ebp),%eax
c00028c1:	89 50 20             	mov    %edx,0x20(%eax)
c00028c4:	e8 2f fc ff ff       	call   c00024f8 <new_pid>
c00028c9:	89 c2                	mov    %eax,%edx
c00028cb:	8b 45 f0             	mov    -0x10(%ebp),%eax
c00028ce:	89 90 6c 20 00 00    	mov    %edx,0x206c(%eax)
c00028d4:	8b 45 f0             	mov    -0x10(%ebp),%eax
c00028d7:	8b 55 10             	mov    0x10(%ebp),%edx
c00028da:	89 90 78 20 00 00    	mov    %edx,0x2078(%eax)
c00028e0:	8b 45 f0             	mov    -0x10(%ebp),%eax
c00028e3:	c6 80 76 20 00 00 01 	movb   $0x1,0x2076(%eax)
c00028ea:	8b 45 f0             	mov    -0x10(%ebp),%eax
c00028ed:	c6 80 74 20 00 00 01 	movb   $0x1,0x2074(%eax)
c00028f4:	8b 45 f0             	mov    -0x10(%ebp),%eax
c00028f7:	89 44 24 04          	mov    %eax,0x4(%esp)
c00028fb:	c7 04 24 2c 75 01 c0 	movl   $0xc001752c,(%esp)
c0002902:	e8 43 fa ff ff       	call   c000234a <add_queue>
c0002907:	e8 d3 02 00 00       	call   c0002bdf <sched_leave_critical_region>
c000290c:	8b 45 f0             	mov    -0x10(%ebp),%eax
c000290f:	83 c4 34             	add    $0x34,%esp
c0002912:	5b                   	pop    %ebx
c0002913:	5d                   	pop    %ebp
c0002914:	c3                   	ret    

c0002915 <create_kthread>:
create_kthread():
c0002915:	55                   	push   %ebp
c0002916:	89 e5                	mov    %esp,%ebp
c0002918:	83 ec 28             	sub    $0x28,%esp
c000291b:	e8 b0 02 00 00       	call   c0002bd0 <sched_enter_critical_region>
c0002920:	c7 04 24 7c 20 00 00 	movl   $0x207c,(%esp)
c0002927:	e8 4c ea ff ff       	call   c0001378 <kmalloc>
c000292c:	89 45 f4             	mov    %eax,-0xc(%ebp)
c000292f:	83 7d f4 00          	cmpl   $0x0,-0xc(%ebp)
c0002933:	75 3a                	jne    c000296f <create_kthread+0x5a>
c0002935:	c7 04 24 0c 00 00 00 	movl   $0xc,(%esp)
c000293c:	e8 8a da ff ff       	call   c00003cb <kset_color>
c0002941:	8b 45 0c             	mov    0xc(%ebp),%eax
c0002944:	89 44 24 04          	mov    %eax,0x4(%esp)
c0002948:	c7 04 24 d4 4f 00 c0 	movl   $0xc0004fd4,(%esp)
c000294f:	e8 99 da ff ff       	call   c00003ed <kprintf>
c0002954:	c7 04 24 07 00 00 00 	movl   $0x7,(%esp)
c000295b:	e8 6b da ff ff       	call   c00003cb <kset_color>
c0002960:	e8 7a 02 00 00       	call   c0002bdf <sched_leave_critical_region>
c0002965:	b8 00 00 00 00       	mov    $0x0,%eax
c000296a:	e9 02 02 00 00       	jmp    c0002b71 <create_kthread+0x25c>
c000296f:	c7 44 24 08 7c 20 00 	movl   $0x207c,0x8(%esp)
c0002976:	00 
c0002977:	c7 44 24 04 00 00 00 	movl   $0x0,0x4(%esp)
c000297e:	00 
c000297f:	8b 45 f4             	mov    -0xc(%ebp),%eax
c0002982:	89 04 24             	mov    %eax,(%esp)
c0002985:	e8 d8 fa ff ff       	call   c0002462 <memset08>
c000298a:	c7 04 24 00 80 00 00 	movl   $0x8000,(%esp)
c0002991:	e8 e2 e9 ff ff       	call   c0001378 <kmalloc>
c0002996:	89 45 f0             	mov    %eax,-0x10(%ebp)
c0002999:	83 7d f0 00          	cmpl   $0x0,-0x10(%ebp)
c000299d:	75 45                	jne    c00029e4 <create_kthread+0xcf>
c000299f:	c7 04 24 0c 00 00 00 	movl   $0xc,(%esp)
c00029a6:	e8 20 da ff ff       	call   c00003cb <kset_color>
c00029ab:	8b 45 0c             	mov    0xc(%ebp),%eax
c00029ae:	89 44 24 04          	mov    %eax,0x4(%esp)
c00029b2:	c7 04 24 d4 4f 00 c0 	movl   $0xc0004fd4,(%esp)
c00029b9:	e8 2f da ff ff       	call   c00003ed <kprintf>
c00029be:	c7 04 24 07 00 00 00 	movl   $0x7,(%esp)
c00029c5:	e8 01 da ff ff       	call   c00003cb <kset_color>
c00029ca:	8b 45 f4             	mov    -0xc(%ebp),%eax
c00029cd:	89 04 24             	mov    %eax,(%esp)
c00029d0:	e8 63 eb ff ff       	call   c0001538 <kfree>
c00029d5:	e8 05 02 00 00       	call   c0002bdf <sched_leave_critical_region>
c00029da:	b8 00 00 00 00       	mov    $0x0,%eax
c00029df:	e9 8d 01 00 00       	jmp    c0002b71 <create_kthread+0x25c>
c00029e4:	c7 44 24 08 00 80 00 	movl   $0x8000,0x8(%esp)
c00029eb:	00 
c00029ec:	c7 44 24 04 00 00 00 	movl   $0x0,0x4(%esp)
c00029f3:	00 
c00029f4:	8b 45 f0             	mov    -0x10(%ebp),%eax
c00029f7:	89 04 24             	mov    %eax,(%esp)
c00029fa:	e8 63 fa ff ff       	call   c0002462 <memset08>
c00029ff:	8b 45 f4             	mov    -0xc(%ebp),%eax
c0002a02:	c7 40 50 10 00 00 00 	movl   $0x10,0x50(%eax)
c0002a09:	8b 45 f4             	mov    -0xc(%ebp),%eax
c0002a0c:	8b 50 50             	mov    0x50(%eax),%edx
c0002a0f:	8b 45 f4             	mov    -0xc(%ebp),%eax
c0002a12:	89 50 08             	mov    %edx,0x8(%eax)
c0002a15:	8b 45 f0             	mov    -0x10(%ebp),%eax
c0002a18:	05 00 80 00 00       	add    $0x8000,%eax
c0002a1d:	89 c2                	mov    %eax,%edx
c0002a1f:	8b 45 f4             	mov    -0xc(%ebp),%eax
c0002a22:	89 90 70 20 00 00    	mov    %edx,0x2070(%eax)
c0002a28:	8b 45 f4             	mov    -0xc(%ebp),%eax
c0002a2b:	8b 90 70 20 00 00    	mov    0x2070(%eax),%edx
c0002a31:	8b 45 f4             	mov    -0xc(%ebp),%eax
c0002a34:	89 50 38             	mov    %edx,0x38(%eax)
c0002a37:	8b 45 f4             	mov    -0xc(%ebp),%eax
c0002a3a:	8b 50 38             	mov    0x38(%eax),%edx
c0002a3d:	8b 45 f4             	mov    -0xc(%ebp),%eax
c0002a40:	89 50 04             	mov    %edx,0x4(%eax)
c0002a43:	8b 45 f4             	mov    -0xc(%ebp),%eax
c0002a46:	c7 44 24 0c 00 00 00 	movl   $0x0,0xc(%esp)
c0002a4d:	00 
c0002a4e:	c7 44 24 08 89 00 00 	movl   $0x89,0x8(%esp)
c0002a55:	00 
c0002a56:	89 44 24 04          	mov    %eax,0x4(%esp)
c0002a5a:	c7 04 24 68 20 00 00 	movl   $0x2068,(%esp)
c0002a61:	e8 6f ef ff ff       	call   c00019d5 <setup_GDT_entry>
c0002a66:	8b 55 f4             	mov    -0xc(%ebp),%edx
c0002a69:	66 89 82 68 20 00 00 	mov    %ax,0x2068(%edx)
c0002a70:	b8 fc ff ff ff       	mov    $0xfffffffc,%eax
c0002a75:	8b 00                	mov    (%eax),%eax
c0002a77:	89 c2                	mov    %eax,%edx
c0002a79:	81 e2 00 f0 ff ff    	and    $0xfffff000,%edx
c0002a7f:	8b 45 f4             	mov    -0xc(%ebp),%eax
c0002a82:	89 50 1c             	mov    %edx,0x1c(%eax)
c0002a85:	8b 45 f4             	mov    -0xc(%ebp),%eax
c0002a88:	66 c7 40 66 68 00    	movw   $0x68,0x66(%eax)
c0002a8e:	8b 45 f4             	mov    -0xc(%ebp),%eax
c0002a91:	c7 40 48 10 00 00 00 	movl   $0x10,0x48(%eax)
c0002a98:	8b 45 f4             	mov    -0xc(%ebp),%eax
c0002a9b:	8b 50 48             	mov    0x48(%eax),%edx
c0002a9e:	8b 45 f4             	mov    -0xc(%ebp),%eax
c0002aa1:	89 50 54             	mov    %edx,0x54(%eax)
c0002aa4:	8b 45 f4             	mov    -0xc(%ebp),%eax
c0002aa7:	c7 40 5c 10 00 00 00 	movl   $0x10,0x5c(%eax)
c0002aae:	8b 45 f4             	mov    -0xc(%ebp),%eax
c0002ab1:	8b 50 5c             	mov    0x5c(%eax),%edx
c0002ab4:	8b 45 f4             	mov    -0xc(%ebp),%eax
c0002ab7:	89 50 58             	mov    %edx,0x58(%eax)
c0002aba:	8b 45 f4             	mov    -0xc(%ebp),%eax
c0002abd:	c7 40 24 02 02 00 00 	movl   $0x202,0x24(%eax)
c0002ac4:	8b 45 f4             	mov    -0xc(%ebp),%eax
c0002ac7:	c7 40 44 00 00 00 00 	movl   $0x0,0x44(%eax)
c0002ace:	8b 45 f4             	mov    -0xc(%ebp),%eax
c0002ad1:	8b 50 44             	mov    0x44(%eax),%edx
c0002ad4:	8b 45 f4             	mov    -0xc(%ebp),%eax
c0002ad7:	89 50 40             	mov    %edx,0x40(%eax)
c0002ada:	8b 45 f4             	mov    -0xc(%ebp),%eax
c0002add:	8b 50 40             	mov    0x40(%eax),%edx
c0002ae0:	8b 45 f4             	mov    -0xc(%ebp),%eax
c0002ae3:	89 50 30             	mov    %edx,0x30(%eax)
c0002ae6:	8b 45 f4             	mov    -0xc(%ebp),%eax
c0002ae9:	8b 50 30             	mov    0x30(%eax),%edx
c0002aec:	8b 45 f4             	mov    -0xc(%ebp),%eax
c0002aef:	89 50 2c             	mov    %edx,0x2c(%eax)
c0002af2:	8b 45 f4             	mov    -0xc(%ebp),%eax
c0002af5:	8b 50 2c             	mov    0x2c(%eax),%edx
c0002af8:	8b 45 f4             	mov    -0xc(%ebp),%eax
c0002afb:	89 50 34             	mov    %edx,0x34(%eax)
c0002afe:	8b 45 f4             	mov    -0xc(%ebp),%eax
c0002b01:	8b 50 34             	mov    0x34(%eax),%edx
c0002b04:	8b 45 f4             	mov    -0xc(%ebp),%eax
c0002b07:	89 50 28             	mov    %edx,0x28(%eax)
c0002b0a:	8b 45 f4             	mov    -0xc(%ebp),%eax
c0002b0d:	66 c7 40 64 00 00    	movw   $0x0,0x64(%eax)
c0002b13:	8b 45 f4             	mov    -0xc(%ebp),%eax
c0002b16:	c7 40 4c 08 00 00 00 	movl   $0x8,0x4c(%eax)
c0002b1d:	8b 55 08             	mov    0x8(%ebp),%edx
c0002b20:	8b 45 f4             	mov    -0xc(%ebp),%eax
c0002b23:	89 50 20             	mov    %edx,0x20(%eax)
c0002b26:	e8 cd f9 ff ff       	call   c00024f8 <new_pid>
c0002b2b:	89 c2                	mov    %eax,%edx
c0002b2d:	8b 45 f4             	mov    -0xc(%ebp),%eax
c0002b30:	89 90 6c 20 00 00    	mov    %edx,0x206c(%eax)
c0002b36:	8b 45 f4             	mov    -0xc(%ebp),%eax
c0002b39:	8b 55 0c             	mov    0xc(%ebp),%edx
c0002b3c:	89 90 78 20 00 00    	mov    %edx,0x2078(%eax)
c0002b42:	8b 45 f4             	mov    -0xc(%ebp),%eax
c0002b45:	c6 80 76 20 00 00 00 	movb   $0x0,0x2076(%eax)
c0002b4c:	8b 45 f4             	mov    -0xc(%ebp),%eax
c0002b4f:	c6 80 74 20 00 00 01 	movb   $0x1,0x2074(%eax)
c0002b56:	8b 45 f4             	mov    -0xc(%ebp),%eax
c0002b59:	89 44 24 04          	mov    %eax,0x4(%esp)
c0002b5d:	c7 04 24 2c 75 01 c0 	movl   $0xc001752c,(%esp)
c0002b64:	e8 e1 f7 ff ff       	call   c000234a <add_queue>
c0002b69:	e8 71 00 00 00       	call   c0002bdf <sched_leave_critical_region>
c0002b6e:	8b 45 f4             	mov    -0xc(%ebp),%eax
c0002b71:	c9                   	leave  
c0002b72:	c3                   	ret    

c0002b73 <auto_kill>:
auto_kill():
c0002b73:	55                   	push   %ebp
c0002b74:	89 e5                	mov    %esp,%ebp
c0002b76:	83 ec 18             	sub    $0x18,%esp
c0002b79:	a1 24 75 01 c0       	mov    0xc0017524,%eax
c0002b7e:	0f b6 80 76 20 00 00 	movzbl 0x2076(%eax),%eax
c0002b85:	84 c0                	test   %al,%al
c0002b87:	74 40                	je     c0002bc9 <auto_kill+0x56>
c0002b89:	e8 42 00 00 00       	call   c0002bd0 <sched_enter_critical_region>
c0002b8e:	a1 24 75 01 c0       	mov    0xc0017524,%eax
c0002b93:	89 44 24 04          	mov    %eax,0x4(%esp)
c0002b97:	c7 04 24 2c 75 01 c0 	movl   $0xc001752c,(%esp)
c0002b9e:	e8 0d f8 ff ff       	call   c00023b0 <rem_queue>
c0002ba3:	a1 24 75 01 c0       	mov    0xc0017524,%eax
c0002ba8:	89 44 24 04          	mov    %eax,0x4(%esp)
c0002bac:	c7 04 24 34 75 01 c0 	movl   $0xc0017534,(%esp)
c0002bb3:	e8 92 f7 ff ff       	call   c000234a <add_queue>
c0002bb8:	a1 24 75 01 c0       	mov    0xc0017524,%eax
c0002bbd:	c6 80 74 20 00 00 03 	movb   $0x3,0x2074(%eax)
c0002bc4:	e8 16 00 00 00       	call   c0002bdf <sched_leave_critical_region>
c0002bc9:	e8 23 f9 ff ff       	call   c00024f1 <do_idle>
c0002bce:	c9                   	leave  
c0002bcf:	c3                   	ret    

c0002bd0 <sched_enter_critical_region>:
sched_enter_critical_region():
c0002bd0:	55                   	push   %ebp
c0002bd1:	89 e5                	mov    %esp,%ebp
c0002bd3:	c7 05 c4 ad 02 c0 00 	movl   $0x0,0xc002adc4
c0002bda:	00 00 00 
c0002bdd:	5d                   	pop    %ebp
c0002bde:	c3                   	ret    

c0002bdf <sched_leave_critical_region>:
sched_leave_critical_region():
c0002bdf:	55                   	push   %ebp
c0002be0:	89 e5                	mov    %esp,%ebp
c0002be2:	c7 05 c4 ad 02 c0 01 	movl   $0x1,0xc002adc4
c0002be9:	00 00 00 
c0002bec:	5d                   	pop    %ebp
c0002bed:	c3                   	ret    

c0002bee <scheduler>:
scheduler():
c0002bee:	55                   	push   %ebp
c0002bef:	89 e5                	mov    %esp,%ebp
c0002bf1:	53                   	push   %ebx
c0002bf2:	83 ec 24             	sub    $0x24,%esp
c0002bf5:	9c                   	pushf  
c0002bf6:	5b                   	pop    %ebx
c0002bf7:	fa                   	cli    
c0002bf8:	89 5d f0             	mov    %ebx,-0x10(%ebp)
c0002bfb:	a1 c4 ad 02 c0       	mov    0xc002adc4,%eax
c0002c00:	85 c0                	test   %eax,%eax
c0002c02:	0f 84 bf 00 00 00    	je     c0002cc7 <scheduler+0xd9>
c0002c08:	a1 24 75 01 c0       	mov    0xc0017524,%eax
c0002c0d:	89 45 ec             	mov    %eax,-0x14(%ebp)
c0002c10:	c7 04 24 2c 75 01 c0 	movl   $0xc001752c,(%esp)
c0002c17:	e8 f8 f6 ff ff       	call   c0002314 <pick_queue>
c0002c1c:	a3 24 75 01 c0       	mov    %eax,0xc0017524
c0002c21:	a1 24 75 01 c0       	mov    0xc0017524,%eax
c0002c26:	85 c0                	test   %eax,%eax
c0002c28:	75 0a                	jne    c0002c34 <scheduler+0x46>
c0002c2a:	a1 28 75 01 c0       	mov    0xc0017528,%eax
c0002c2f:	a3 24 75 01 c0       	mov    %eax,0xc0017524
c0002c34:	a1 24 75 01 c0       	mov    0xc0017524,%eax
c0002c39:	39 45 ec             	cmp    %eax,-0x14(%ebp)
c0002c3c:	0f 84 85 00 00 00    	je     c0002cc7 <scheduler+0xd9>
c0002c42:	a1 24 75 01 c0       	mov    0xc0017524,%eax
c0002c47:	8b 40 1c             	mov    0x1c(%eax),%eax
c0002c4a:	c7 44 24 08 03 00 00 	movl   $0x3,0x8(%esp)
c0002c51:	00 
c0002c52:	89 44 24 04          	mov    %eax,0x4(%esp)
c0002c56:	c7 04 24 00 00 00 f0 	movl   $0xf0000000,(%esp)
c0002c5d:	e8 05 f1 ff ff       	call   c0001d67 <map_page>
c0002c62:	85 c0                	test   %eax,%eax
c0002c64:	75 0e                	jne    c0002c74 <scheduler+0x86>
c0002c66:	8b 45 ec             	mov    -0x14(%ebp),%eax
c0002c69:	a3 24 75 01 c0       	mov    %eax,0xc0017524
c0002c6e:	ff 75 f0             	pushl  -0x10(%ebp)
c0002c71:	9d                   	popf   
c0002c72:	eb 57                	jmp    c0002ccb <scheduler+0xdd>
c0002c74:	c7 45 f4 00 00 00 c0 	movl   $0xc0000000,-0xc(%ebp)
c0002c7b:	eb 25                	jmp    c0002ca2 <scheduler+0xb4>
c0002c7d:	8b 45 f4             	mov    -0xc(%ebp),%eax
c0002c80:	c1 e8 16             	shr    $0x16,%eax
c0002c83:	c1 e0 02             	shl    $0x2,%eax
c0002c86:	8d 90 00 00 00 f0    	lea    -0x10000000(%eax),%edx
c0002c8c:	8b 45 f4             	mov    -0xc(%ebp),%eax
c0002c8f:	c1 e8 16             	shr    $0x16,%eax
c0002c92:	8b 04 85 c0 9d 02 c0 	mov    -0x3ffd6240(,%eax,4),%eax
c0002c99:	89 02                	mov    %eax,(%edx)
c0002c9b:	81 45 f4 00 00 40 00 	addl   $0x400000,-0xc(%ebp)
c0002ca2:	81 7d f4 ff ff bf ff 	cmpl   $0xffbfffff,-0xc(%ebp)
c0002ca9:	76 d2                	jbe    c0002c7d <scheduler+0x8f>
c0002cab:	e8 ed f7 ff ff       	call   c000249d <reload_CR3>
c0002cb0:	a1 24 75 01 c0       	mov    0xc0017524,%eax
c0002cb5:	0f b7 80 68 20 00 00 	movzwl 0x2068(%eax),%eax
c0002cbc:	0f b7 c0             	movzwl %ax,%eax
c0002cbf:	89 04 24             	mov    %eax,(%esp)
c0002cc2:	e8 e1 f7 ff ff       	call   c00024a8 <jmp_to_tss>
c0002cc7:	ff 75 f0             	pushl  -0x10(%ebp)
c0002cca:	9d                   	popf   
c0002ccb:	83 c4 24             	add    $0x24,%esp
c0002cce:	5b                   	pop    %ebx
c0002ccf:	5d                   	pop    %ebp
c0002cd0:	c3                   	ret    

c0002cd1 <kpager>:
kpager():
c0002cd1:	55                   	push   %ebp
c0002cd2:	89 e5                	mov    %esp,%ebp
c0002cd4:	83 ec 28             	sub    $0x28,%esp
c0002cd7:	c7 04 24 34 75 01 c0 	movl   $0xc0017534,(%esp)
c0002cde:	e8 31 f6 ff ff       	call   c0002314 <pick_queue>
c0002ce3:	89 45 f0             	mov    %eax,-0x10(%ebp)
c0002ce6:	83 7d f0 00          	cmpl   $0x0,-0x10(%ebp)
c0002cea:	75 04                	jne    c0002cf0 <kpager+0x1f>
c0002cec:	fb                   	sti    
c0002ced:	f4                   	hlt    
c0002cee:	eb e7                	jmp    c0002cd7 <kpager+0x6>
c0002cf0:	e8 db fe ff ff       	call   c0002bd0 <sched_enter_critical_region>
c0002cf5:	8b 45 f0             	mov    -0x10(%ebp),%eax
c0002cf8:	8b 40 1c             	mov    0x1c(%eax),%eax
c0002cfb:	89 45 ec             	mov    %eax,-0x14(%ebp)
c0002cfe:	8b 45 f0             	mov    -0x10(%ebp),%eax
c0002d01:	8b 40 1c             	mov    0x1c(%eax),%eax
c0002d04:	0f 22 d8             	mov    %eax,%cr3
c0002d07:	c7 45 f4 00 00 00 00 	movl   $0x0,-0xc(%ebp)
c0002d0e:	eb 38                	jmp    c0002d48 <kpager+0x77>
c0002d10:	8b 45 f4             	mov    -0xc(%ebp),%eax
c0002d13:	c1 e8 14             	shr    $0x14,%eax
c0002d16:	83 e0 fc             	and    $0xfffffffc,%eax
c0002d19:	2d 00 10 00 00       	sub    $0x1000,%eax
c0002d1e:	8b 00                	mov    (%eax),%eax
c0002d20:	85 c0                	test   %eax,%eax
c0002d22:	74 0d                	je     c0002d31 <kpager+0x60>
c0002d24:	8b 45 f4             	mov    -0xc(%ebp),%eax
c0002d27:	89 04 24             	mov    %eax,(%esp)
c0002d2a:	e8 56 f1 ff ff       	call   c0001e85 <delete_page>
c0002d2f:	eb 10                	jmp    c0002d41 <kpager+0x70>
c0002d31:	8b 45 f4             	mov    -0xc(%ebp),%eax
c0002d34:	25 00 00 c0 ff       	and    $0xffc00000,%eax
c0002d39:	05 00 00 40 00       	add    $0x400000,%eax
c0002d3e:	89 45 f4             	mov    %eax,-0xc(%ebp)
c0002d41:	81 45 f4 00 10 00 00 	addl   $0x1000,-0xc(%ebp)
c0002d48:	81 7d f4 ff ff ff bf 	cmpl   $0xbfffffff,-0xc(%ebp)
c0002d4f:	76 bf                	jbe    c0002d10 <kpager+0x3f>
c0002d51:	8b 45 f0             	mov    -0x10(%ebp),%eax
c0002d54:	8b 80 70 20 00 00    	mov    0x2070(%eax),%eax
c0002d5a:	2d 00 80 00 00       	sub    $0x8000,%eax
c0002d5f:	89 04 24             	mov    %eax,(%esp)
c0002d62:	e8 d1 e7 ff ff       	call   c0001538 <kfree>
c0002d67:	8b 45 f0             	mov    -0x10(%ebp),%eax
c0002d6a:	0f b7 80 68 20 00 00 	movzwl 0x2068(%eax),%eax
c0002d71:	0f b7 c0             	movzwl %ax,%eax
c0002d74:	89 04 24             	mov    %eax,(%esp)
c0002d77:	e8 35 ed ff ff       	call   c0001ab1 <remove_GDT_entry>
c0002d7c:	8b 45 f0             	mov    -0x10(%ebp),%eax
c0002d7f:	89 44 24 04          	mov    %eax,0x4(%esp)
c0002d83:	c7 04 24 34 75 01 c0 	movl   $0xc0017534,(%esp)
c0002d8a:	e8 21 f6 ff ff       	call   c00023b0 <rem_queue>
c0002d8f:	8b 45 f0             	mov    -0x10(%ebp),%eax
c0002d92:	89 04 24             	mov    %eax,(%esp)
c0002d95:	e8 9e e7 ff ff       	call   c0001538 <kfree>
c0002d9a:	a1 24 75 01 c0       	mov    0xc0017524,%eax
c0002d9f:	8b 40 1c             	mov    0x1c(%eax),%eax
c0002da2:	0f 22 d8             	mov    %eax,%cr3
c0002da5:	8b 45 ec             	mov    -0x14(%ebp),%eax
c0002da8:	c1 e8 0c             	shr    $0xc,%eax
c0002dab:	89 04 24             	mov    %eax,(%esp)
c0002dae:	e8 2d ef ff ff       	call   c0001ce0 <push_frame>
c0002db3:	e8 27 fe ff ff       	call   c0002bdf <sched_leave_critical_region>
c0002db8:	e9 1a ff ff ff       	jmp    c0002cd7 <kpager+0x6>

c0002dbd <initialize_multitasking>:
initialize_multitasking():
c0002dbd:	55                   	push   %ebp
c0002dbe:	89 e5                	mov    %esp,%ebp
c0002dc0:	53                   	push   %ebx
c0002dc1:	83 ec 14             	sub    $0x14,%esp
c0002dc4:	c7 05 c0 ad 02 c0 ff 	movl   $0xffffffff,0xc002adc0
c0002dcb:	ff ff ff 
c0002dce:	c7 05 c4 ad 02 c0 01 	movl   $0x1,0xc002adc4
c0002dd5:	00 00 00 
c0002dd8:	c7 04 24 7c 20 00 00 	movl   $0x207c,(%esp)
c0002ddf:	e8 94 e5 ff ff       	call   c0001378 <kmalloc>
c0002de4:	a3 24 75 01 c0       	mov    %eax,0xc0017524
c0002de9:	a1 24 75 01 c0       	mov    0xc0017524,%eax
c0002dee:	c7 44 24 08 7c 20 00 	movl   $0x207c,0x8(%esp)
c0002df5:	00 
c0002df6:	c7 44 24 04 00 00 00 	movl   $0x0,0x4(%esp)
c0002dfd:	00 
c0002dfe:	89 04 24             	mov    %eax,(%esp)
c0002e01:	e8 5c f6 ff ff       	call   c0002462 <memset08>
c0002e06:	8b 1d 24 75 01 c0    	mov    0xc0017524,%ebx
c0002e0c:	a1 24 75 01 c0       	mov    0xc0017524,%eax
c0002e11:	c7 44 24 0c 00 00 00 	movl   $0x0,0xc(%esp)
c0002e18:	00 
c0002e19:	c7 44 24 08 89 00 00 	movl   $0x89,0x8(%esp)
c0002e20:	00 
c0002e21:	89 44 24 04          	mov    %eax,0x4(%esp)
c0002e25:	c7 04 24 68 20 00 00 	movl   $0x2068,(%esp)
c0002e2c:	e8 a4 eb ff ff       	call   c00019d5 <setup_GDT_entry>
c0002e31:	66 89 83 68 20 00 00 	mov    %ax,0x2068(%ebx)
c0002e38:	a1 24 75 01 c0       	mov    0xc0017524,%eax
c0002e3d:	ba fc ff ff ff       	mov    $0xfffffffc,%edx
c0002e42:	8b 12                	mov    (%edx),%edx
c0002e44:	81 e2 00 f0 ff ff    	and    $0xfffff000,%edx
c0002e4a:	89 50 1c             	mov    %edx,0x1c(%eax)
c0002e4d:	a1 24 75 01 c0       	mov    0xc0017524,%eax
c0002e52:	c7 40 08 10 00 00 00 	movl   $0x10,0x8(%eax)
c0002e59:	a1 24 75 01 c0       	mov    0xc0017524,%eax
c0002e5e:	c7 40 24 02 00 00 00 	movl   $0x2,0x24(%eax)
c0002e65:	a1 24 75 01 c0       	mov    0xc0017524,%eax
c0002e6a:	c7 40 60 00 00 00 00 	movl   $0x0,0x60(%eax)
c0002e71:	a1 24 75 01 c0       	mov    0xc0017524,%eax
c0002e76:	66 c7 40 64 00 00    	movw   $0x0,0x64(%eax)
c0002e7c:	a1 24 75 01 c0       	mov    0xc0017524,%eax
c0002e81:	66 c7 40 66 68 00    	movw   $0x68,0x66(%eax)
c0002e87:	8b 1d 24 75 01 c0    	mov    0xc0017524,%ebx
c0002e8d:	e8 66 f6 ff ff       	call   c00024f8 <new_pid>
c0002e92:	89 83 6c 20 00 00    	mov    %eax,0x206c(%ebx)
c0002e98:	a1 24 75 01 c0       	mov    0xc0017524,%eax
c0002e9d:	c7 80 78 20 00 00 3d 	movl   $0xc000503d,0x2078(%eax)
c0002ea4:	50 00 c0 
c0002ea7:	a1 24 75 01 c0       	mov    0xc0017524,%eax
c0002eac:	89 44 24 04          	mov    %eax,0x4(%esp)
c0002eb0:	c7 04 24 2c 75 01 c0 	movl   $0xc001752c,(%esp)
c0002eb7:	e8 8e f4 ff ff       	call   c000234a <add_queue>
c0002ebc:	a1 24 75 01 c0       	mov    0xc0017524,%eax
c0002ec1:	c6 80 74 20 00 00 01 	movb   $0x1,0x2074(%eax)
c0002ec8:	a1 24 75 01 c0       	mov    0xc0017524,%eax
c0002ecd:	0f b7 80 68 20 00 00 	movzwl 0x2068(%eax),%eax
c0002ed4:	0f 00 d8             	ltr    %ax
c0002ed7:	c7 44 24 04 42 50 00 	movl   $0xc0005042,0x4(%esp)
c0002ede:	c0 
c0002edf:	c7 04 24 f1 24 00 c0 	movl   $0xc00024f1,(%esp)
c0002ee6:	e8 2a fa ff ff       	call   c0002915 <create_kthread>
c0002eeb:	a3 28 75 01 c0       	mov    %eax,0xc0017528
c0002ef0:	a1 28 75 01 c0       	mov    0xc0017528,%eax
c0002ef5:	89 44 24 04          	mov    %eax,0x4(%esp)
c0002ef9:	c7 04 24 2c 75 01 c0 	movl   $0xc001752c,(%esp)
c0002f00:	e8 ab f4 ff ff       	call   c00023b0 <rem_queue>
c0002f05:	c7 44 24 04 47 50 00 	movl   $0xc0005047,0x4(%esp)
c0002f0c:	c0 
c0002f0d:	c7 04 24 d1 2c 00 c0 	movl   $0xc0002cd1,(%esp)
c0002f14:	e8 fc f9 ff ff       	call   c0002915 <create_kthread>
c0002f19:	83 c4 14             	add    $0x14,%esp
c0002f1c:	5b                   	pop    %ebx
c0002f1d:	5d                   	pop    %ebp
c0002f1e:	c3                   	ret    

c0002f1f <ps>:
ps():
c0002f1f:	55                   	push   %ebp
c0002f20:	89 e5                	mov    %esp,%ebp
c0002f22:	83 ec 28             	sub    $0x28,%esp
c0002f25:	a1 24 75 01 c0       	mov    0xc0017524,%eax
c0002f2a:	89 45 f4             	mov    %eax,-0xc(%ebp)
c0002f2d:	8b 45 f4             	mov    -0xc(%ebp),%eax
c0002f30:	89 45 f0             	mov    %eax,-0x10(%ebp)
c0002f33:	83 7d f0 00          	cmpl   $0x0,-0x10(%ebp)
c0002f37:	0f 84 2b 01 00 00    	je     c0003068 <ps+0x149>
c0002f3d:	c7 04 24 0f 00 00 00 	movl   $0xf,(%esp)
c0002f44:	e8 82 d4 ff ff       	call   c00003cb <kset_color>
c0002f49:	c7 04 24 4e 50 00 c0 	movl   $0xc000504e,(%esp)
c0002f50:	e8 98 d4 ff ff       	call   c00003ed <kprintf>
c0002f55:	c7 04 24 07 00 00 00 	movl   $0x7,(%esp)
c0002f5c:	e8 6a d4 ff ff       	call   c00003cb <kset_color>
c0002f61:	e8 6a fc ff ff       	call   c0002bd0 <sched_enter_critical_region>
c0002f66:	eb 01                	jmp    c0002f69 <ps+0x4a>
c0002f68:	90                   	nop
c0002f69:	8b 45 f4             	mov    -0xc(%ebp),%eax
c0002f6c:	8b 90 78 20 00 00    	mov    0x2078(%eax),%edx
c0002f72:	8b 45 f4             	mov    -0xc(%ebp),%eax
c0002f75:	8b 80 6c 20 00 00    	mov    0x206c(%eax),%eax
c0002f7b:	89 54 24 08          	mov    %edx,0x8(%esp)
c0002f7f:	89 44 24 04          	mov    %eax,0x4(%esp)
c0002f83:	c7 04 24 61 50 00 c0 	movl   $0xc0005061,(%esp)
c0002f8a:	e8 5e d4 ff ff       	call   c00003ed <kprintf>
c0002f8f:	c7 04 24 2c 75 01 c0 	movl   $0xc001752c,(%esp)
c0002f96:	e8 79 f3 ff ff       	call   c0002314 <pick_queue>
c0002f9b:	89 45 f4             	mov    %eax,-0xc(%ebp)
c0002f9e:	a1 24 75 01 c0       	mov    0xc0017524,%eax
c0002fa3:	39 45 f4             	cmp    %eax,-0xc(%ebp)
c0002fa6:	75 c0                	jne    c0002f68 <ps+0x49>
c0002fa8:	90                   	nop
c0002fa9:	c7 04 24 30 75 01 c0 	movl   $0xc0017530,(%esp)
c0002fb0:	e8 5f f3 ff ff       	call   c0002314 <pick_queue>
c0002fb5:	89 45 f4             	mov    %eax,-0xc(%ebp)
c0002fb8:	8b 45 f4             	mov    -0xc(%ebp),%eax
c0002fbb:	89 45 f0             	mov    %eax,-0x10(%ebp)
c0002fbe:	83 7d f0 00          	cmpl   $0x0,-0x10(%ebp)
c0002fc2:	74 41                	je     c0003005 <ps+0xe6>
c0002fc4:	eb 01                	jmp    c0002fc7 <ps+0xa8>
c0002fc6:	90                   	nop
c0002fc7:	8b 45 f4             	mov    -0xc(%ebp),%eax
c0002fca:	8b 90 78 20 00 00    	mov    0x2078(%eax),%edx
c0002fd0:	8b 45 f4             	mov    -0xc(%ebp),%eax
c0002fd3:	8b 80 6c 20 00 00    	mov    0x206c(%eax),%eax
c0002fd9:	89 54 24 08          	mov    %edx,0x8(%esp)
c0002fdd:	89 44 24 04          	mov    %eax,0x4(%esp)
c0002fe1:	c7 04 24 6e 50 00 c0 	movl   $0xc000506e,(%esp)
c0002fe8:	e8 00 d4 ff ff       	call   c00003ed <kprintf>
c0002fed:	c7 04 24 30 75 01 c0 	movl   $0xc0017530,(%esp)
c0002ff4:	e8 1b f3 ff ff       	call   c0002314 <pick_queue>
c0002ff9:	89 45 f4             	mov    %eax,-0xc(%ebp)
c0002ffc:	8b 45 f4             	mov    -0xc(%ebp),%eax
c0002fff:	3b 45 f0             	cmp    -0x10(%ebp),%eax
c0003002:	75 c2                	jne    c0002fc6 <ps+0xa7>
c0003004:	90                   	nop
c0003005:	c7 04 24 34 75 01 c0 	movl   $0xc0017534,(%esp)
c000300c:	e8 03 f3 ff ff       	call   c0002314 <pick_queue>
c0003011:	89 45 f4             	mov    %eax,-0xc(%ebp)
c0003014:	8b 45 f4             	mov    -0xc(%ebp),%eax
c0003017:	89 45 f0             	mov    %eax,-0x10(%ebp)
c000301a:	83 7d f0 00          	cmpl   $0x0,-0x10(%ebp)
c000301e:	74 41                	je     c0003061 <ps+0x142>
c0003020:	eb 01                	jmp    c0003023 <ps+0x104>
c0003022:	90                   	nop
c0003023:	8b 45 f4             	mov    -0xc(%ebp),%eax
c0003026:	8b 90 78 20 00 00    	mov    0x2078(%eax),%edx
c000302c:	8b 45 f4             	mov    -0xc(%ebp),%eax
c000302f:	8b 80 6c 20 00 00    	mov    0x206c(%eax),%eax
c0003035:	89 54 24 08          	mov    %edx,0x8(%esp)
c0003039:	89 44 24 04          	mov    %eax,0x4(%esp)
c000303d:	c7 04 24 7a 50 00 c0 	movl   $0xc000507a,(%esp)
c0003044:	e8 a4 d3 ff ff       	call   c00003ed <kprintf>
c0003049:	c7 04 24 34 75 01 c0 	movl   $0xc0017534,(%esp)
c0003050:	e8 bf f2 ff ff       	call   c0002314 <pick_queue>
c0003055:	89 45 f4             	mov    %eax,-0xc(%ebp)
c0003058:	8b 45 f4             	mov    -0xc(%ebp),%eax
c000305b:	3b 45 f0             	cmp    -0x10(%ebp),%eax
c000305e:	75 c2                	jne    c0003022 <ps+0x103>
c0003060:	90                   	nop
c0003061:	e8 79 fb ff ff       	call   c0002bdf <sched_leave_critical_region>
c0003066:	eb 01                	jmp    c0003069 <ps+0x14a>
c0003068:	90                   	nop
c0003069:	c9                   	leave  
c000306a:	c3                   	ret    
	...

c000306c <initialize_DMA>:
initialize_DMA():
c000306c:	55                   	push   %ebp
c000306d:	89 e5                	mov    %esp,%ebp
c000306f:	83 ec 28             	sub    $0x28,%esp
c0003072:	c7 05 cc ad 02 c0 00 	movl   $0x0,0xc002adcc
c0003079:	00 00 00 
c000307c:	c7 04 24 f4 3f 00 00 	movl   $0x3ff4,(%esp)
c0003083:	e8 f0 e2 ff ff       	call   c0001378 <kmalloc>
c0003088:	a3 c8 ad 02 c0       	mov    %eax,0xc002adc8
c000308d:	c7 45 f4 00 00 00 00 	movl   $0x0,-0xc(%ebp)
c0003094:	c7 45 f0 03 00 00 00 	movl   $0x3,-0x10(%ebp)
c000309b:	eb 1b                	jmp    c00030b8 <initialize_DMA+0x4c>
c000309d:	a1 c8 ad 02 c0       	mov    0xc002adc8,%eax
c00030a2:	8b 55 f4             	mov    -0xc(%ebp),%edx
c00030a5:	c1 e2 02             	shl    $0x2,%edx
c00030a8:	8d 14 10             	lea    (%eax,%edx,1),%edx
c00030ab:	8b 45 f0             	mov    -0x10(%ebp),%eax
c00030ae:	89 02                	mov    %eax,(%edx)
c00030b0:	83 45 f4 01          	addl   $0x1,-0xc(%ebp)
c00030b4:	83 45 f0 01          	addl   $0x1,-0x10(%ebp)
c00030b8:	8b 45 f4             	mov    -0xc(%ebp),%eax
c00030bb:	3d fc 0f 00 00       	cmp    $0xffc,%eax
c00030c0:	76 db                	jbe    c000309d <initialize_DMA+0x31>
c00030c2:	c9                   	leave  
c00030c3:	c3                   	ret    

c00030c4 <inport08>:
inport08():
c00030c4:	55                   	push   %ebp
c00030c5:	89 e5                	mov    %esp,%ebp
c00030c7:	53                   	push   %ebx
c00030c8:	83 ec 18             	sub    $0x18,%esp
c00030cb:	8b 45 08             	mov    0x8(%ebp),%eax
c00030ce:	66 89 45 e8          	mov    %ax,-0x18(%ebp)
c00030d2:	0f b7 45 e8          	movzwl -0x18(%ebp),%eax
c00030d6:	66 89 45 e6          	mov    %ax,-0x1a(%ebp)
c00030da:	0f b7 55 e6          	movzwl -0x1a(%ebp),%edx
c00030de:	ec                   	in     (%dx),%al
c00030df:	89 c3                	mov    %eax,%ebx
c00030e1:	88 5d fb             	mov    %bl,-0x5(%ebp)
c00030e4:	0f b6 45 fb          	movzbl -0x5(%ebp),%eax
c00030e8:	83 c4 18             	add    $0x18,%esp
c00030eb:	5b                   	pop    %ebx
c00030ec:	5d                   	pop    %ebp
c00030ed:	c3                   	ret    

c00030ee <outport08>:
outport08():
c00030ee:	55                   	push   %ebp
c00030ef:	89 e5                	mov    %esp,%ebp
c00030f1:	83 ec 08             	sub    $0x8,%esp
c00030f4:	8b 55 08             	mov    0x8(%ebp),%edx
c00030f7:	8b 45 0c             	mov    0xc(%ebp),%eax
c00030fa:	66 89 55 fc          	mov    %dx,-0x4(%ebp)
c00030fe:	88 45 f8             	mov    %al,-0x8(%ebp)
c0003101:	0f b7 55 fc          	movzwl -0x4(%ebp),%edx
c0003105:	0f b6 45 f8          	movzbl -0x8(%ebp),%eax
c0003109:	ee                   	out    %al,(%dx)
c000310a:	c9                   	leave  
c000310b:	c3                   	ret    

c000310c <keyboard_wait_controller>:
keyboard_wait_controller():
c000310c:	55                   	push   %ebp
c000310d:	89 e5                	mov    %esp,%ebp
c000310f:	83 ec 14             	sub    $0x14,%esp
c0003112:	c7 45 fc 20 a1 07 00 	movl   $0x7a120,-0x4(%ebp)
c0003119:	eb 04                	jmp    c000311f <keyboard_wait_controller+0x13>
c000311b:	83 6d fc 01          	subl   $0x1,-0x4(%ebp)
c000311f:	c7 04 24 64 00 00 00 	movl   $0x64,(%esp)
c0003126:	e8 99 ff ff ff       	call   c00030c4 <inport08>
c000312b:	0f b6 c0             	movzbl %al,%eax
c000312e:	83 e0 02             	and    $0x2,%eax
c0003131:	85 c0                	test   %eax,%eax
c0003133:	74 06                	je     c000313b <keyboard_wait_controller+0x2f>
c0003135:	83 7d fc 00          	cmpl   $0x0,-0x4(%ebp)
c0003139:	75 e0                	jne    c000311b <keyboard_wait_controller+0xf>
c000313b:	c9                   	leave  
c000313c:	c3                   	ret    

c000313d <update_leds>:
update_leds():
c000313d:	55                   	push   %ebp
c000313e:	89 e5                	mov    %esp,%ebp
c0003140:	53                   	push   %ebx
c0003141:	83 ec 24             	sub    $0x24,%esp
c0003144:	e8 62 d3 ff ff       	call   c00004ab <get_curr_console>
c0003149:	89 04 24             	mov    %eax,(%esp)
c000314c:	e8 30 d3 ff ff       	call   c0000481 <get_console_addr>
c0003151:	89 45 f4             	mov    %eax,-0xc(%ebp)
c0003154:	8b 45 f4             	mov    -0xc(%ebp),%eax
c0003157:	0f b6 40 09          	movzbl 0x9(%eax),%eax
c000315b:	0f b6 d0             	movzbl %al,%edx
c000315e:	8b 45 f4             	mov    -0xc(%ebp),%eax
c0003161:	0f b6 40 07          	movzbl 0x7(%eax),%eax
c0003165:	0f b6 c0             	movzbl %al,%eax
c0003168:	01 c0                	add    %eax,%eax
c000316a:	09 c2                	or     %eax,%edx
c000316c:	8b 45 f4             	mov    -0xc(%ebp),%eax
c000316f:	0f b6 40 08          	movzbl 0x8(%eax),%eax
c0003173:	0f b6 c0             	movzbl %al,%eax
c0003176:	c1 e0 02             	shl    $0x2,%eax
c0003179:	09 d0                	or     %edx,%eax
c000317b:	89 45 f0             	mov    %eax,-0x10(%ebp)
c000317e:	9c                   	pushf  
c000317f:	5b                   	pop    %ebx
c0003180:	fa                   	cli    
c0003181:	89 5d ec             	mov    %ebx,-0x14(%ebp)
c0003184:	e8 83 ff ff ff       	call   c000310c <keyboard_wait_controller>
c0003189:	c7 44 24 04 ed 00 00 	movl   $0xed,0x4(%esp)
c0003190:	00 
c0003191:	c7 04 24 60 00 00 00 	movl   $0x60,(%esp)
c0003198:	e8 51 ff ff ff       	call   c00030ee <outport08>
c000319d:	e8 6a ff ff ff       	call   c000310c <keyboard_wait_controller>
c00031a2:	8b 45 f0             	mov    -0x10(%ebp),%eax
c00031a5:	0f b6 c0             	movzbl %al,%eax
c00031a8:	89 44 24 04          	mov    %eax,0x4(%esp)
c00031ac:	c7 04 24 60 00 00 00 	movl   $0x60,(%esp)
c00031b3:	e8 36 ff ff ff       	call   c00030ee <outport08>
c00031b8:	ff 75 ec             	pushl  -0x14(%ebp)
c00031bb:	9d                   	popf   
c00031bc:	83 c4 24             	add    $0x24,%esp
c00031bf:	5b                   	pop    %ebx
c00031c0:	5d                   	pop    %ebp
c00031c1:	c3                   	ret    

c00031c2 <scan_key>:
scan_key():
c00031c2:	55                   	push   %ebp
c00031c3:	89 e5                	mov    %esp,%ebp
c00031c5:	53                   	push   %ebx
c00031c6:	83 ec 18             	sub    $0x18,%esp
c00031c9:	9c                   	pushf  
c00031ca:	5b                   	pop    %ebx
c00031cb:	fa                   	cli    
c00031cc:	89 5d f8             	mov    %ebx,-0x8(%ebp)
c00031cf:	c7 04 24 60 00 00 00 	movl   $0x60,(%esp)
c00031d6:	e8 e9 fe ff ff       	call   c00030c4 <inport08>
c00031db:	0f b6 c0             	movzbl %al,%eax
c00031de:	a3 44 75 01 c0       	mov    %eax,0xc0017544
c00031e3:	c7 04 24 61 00 00 00 	movl   $0x61,(%esp)
c00031ea:	e8 d5 fe ff ff       	call   c00030c4 <inport08>
c00031ef:	0f b6 c0             	movzbl %al,%eax
c00031f2:	a3 48 75 01 c0       	mov    %eax,0xc0017548
c00031f7:	a1 48 75 01 c0       	mov    0xc0017548,%eax
c00031fc:	83 c8 80             	or     $0xffffff80,%eax
c00031ff:	0f b6 c0             	movzbl %al,%eax
c0003202:	89 44 24 04          	mov    %eax,0x4(%esp)
c0003206:	c7 04 24 61 00 00 00 	movl   $0x61,(%esp)
c000320d:	e8 dc fe ff ff       	call   c00030ee <outport08>
c0003212:	a1 48 75 01 c0       	mov    0xc0017548,%eax
c0003217:	0f b6 c0             	movzbl %al,%eax
c000321a:	89 44 24 04          	mov    %eax,0x4(%esp)
c000321e:	c7 04 24 61 00 00 00 	movl   $0x61,(%esp)
c0003225:	e8 c4 fe ff ff       	call   c00030ee <outport08>
c000322a:	ff 75 f8             	pushl  -0x8(%ebp)
c000322d:	9d                   	popf   
c000322e:	a1 44 75 01 c0       	mov    0xc0017544,%eax
c0003233:	83 c4 18             	add    $0x18,%esp
c0003236:	5b                   	pop    %ebx
c0003237:	5d                   	pop    %ebp
c0003238:	c3                   	ret    

c0003239 <keyboard_handler>:
keyboard_handler():
c0003239:	55                   	push   %ebp
c000323a:	89 e5                	mov    %esp,%ebp
c000323c:	83 ec 28             	sub    $0x28,%esp
c000323f:	e8 7e ff ff ff       	call   c00031c2 <scan_key>
c0003244:	66 89 45 f4          	mov    %ax,-0xc(%ebp)
c0003248:	e8 5e d2 ff ff       	call   c00004ab <get_curr_console>
c000324d:	89 04 24             	mov    %eax,(%esp)
c0003250:	e8 2c d2 ff ff       	call   c0000481 <get_console_addr>
c0003255:	89 45 f0             	mov    %eax,-0x10(%ebp)
c0003258:	0f b6 05 41 75 01 c0 	movzbl 0xc0017541,%eax
c000325f:	3c 01                	cmp    $0x1,%al
c0003261:	75 17                	jne    c000327a <keyboard_handler+0x41>
c0003263:	0f b6 05 42 75 01 c0 	movzbl 0xc0017542,%eax
c000326a:	3c 01                	cmp    $0x1,%al
c000326c:	75 0c                	jne    c000327a <keyboard_handler+0x41>
c000326e:	66 83 7d f4 53       	cmpw   $0x53,-0xc(%ebp)
c0003273:	75 05                	jne    c000327a <keyboard_handler+0x41>
c0003275:	e8 77 e0 ff ff       	call   c00012f1 <reboot>
c000327a:	0f b6 05 42 75 01 c0 	movzbl 0xc0017542,%eax
c0003281:	3c 01                	cmp    $0x1,%al
c0003283:	75 15                	jne    c000329a <keyboard_handler+0x61>
c0003285:	0f b7 45 f4          	movzwl -0xc(%ebp),%eax
c0003289:	0f b7 84 00 20 62 00 	movzwl -0x3fff9de0(%eax,%eax,1),%eax
c0003290:	c0 
c0003291:	66 89 45 f6          	mov    %ax,-0xa(%ebp)
c0003295:	e9 25 01 00 00       	jmp    c00033bf <keyboard_handler+0x186>
c000329a:	0f b6 05 41 75 01 c0 	movzbl 0xc0017541,%eax
c00032a1:	3c 01                	cmp    $0x1,%al
c00032a3:	75 15                	jne    c00032ba <keyboard_handler+0x81>
c00032a5:	0f b7 45 f4          	movzwl -0xc(%ebp),%eax
c00032a9:	0f b7 84 00 20 63 00 	movzwl -0x3fff9ce0(%eax,%eax,1),%eax
c00032b0:	c0 
c00032b1:	66 89 45 f6          	mov    %ax,-0xa(%ebp)
c00032b5:	e9 05 01 00 00       	jmp    c00033bf <keyboard_handler+0x186>
c00032ba:	8b 45 f0             	mov    -0x10(%ebp),%eax
c00032bd:	0f b6 40 08          	movzbl 0x8(%eax),%eax
c00032c1:	84 c0                	test   %al,%al
c00032c3:	75 20                	jne    c00032e5 <keyboard_handler+0xac>
c00032c5:	0f b6 05 40 75 01 c0 	movzbl 0xc0017540,%eax
c00032cc:	84 c0                	test   %al,%al
c00032ce:	75 15                	jne    c00032e5 <keyboard_handler+0xac>
c00032d0:	0f b7 45 f4          	movzwl -0xc(%ebp),%eax
c00032d4:	0f b7 84 00 20 60 00 	movzwl -0x3fff9fe0(%eax,%eax,1),%eax
c00032db:	c0 
c00032dc:	66 89 45 f6          	mov    %ax,-0xa(%ebp)
c00032e0:	e9 a5 00 00 00       	jmp    c000338a <keyboard_handler+0x151>
c00032e5:	8b 45 f0             	mov    -0x10(%ebp),%eax
c00032e8:	0f b6 40 08          	movzbl 0x8(%eax),%eax
c00032ec:	84 c0                	test   %al,%al
c00032ee:	75 1d                	jne    c000330d <keyboard_handler+0xd4>
c00032f0:	0f b6 05 40 75 01 c0 	movzbl 0xc0017540,%eax
c00032f7:	3c 01                	cmp    $0x1,%al
c00032f9:	75 12                	jne    c000330d <keyboard_handler+0xd4>
c00032fb:	0f b7 45 f4          	movzwl -0xc(%ebp),%eax
c00032ff:	0f b7 84 00 20 61 00 	movzwl -0x3fff9ee0(%eax,%eax,1),%eax
c0003306:	c0 
c0003307:	66 89 45 f6          	mov    %ax,-0xa(%ebp)
c000330b:	eb 7d                	jmp    c000338a <keyboard_handler+0x151>
c000330d:	8b 45 f0             	mov    -0x10(%ebp),%eax
c0003310:	0f b6 40 08          	movzbl 0x8(%eax),%eax
c0003314:	3c 01                	cmp    $0x1,%al
c0003316:	75 3e                	jne    c0003356 <keyboard_handler+0x11d>
c0003318:	0f b6 05 40 75 01 c0 	movzbl 0xc0017540,%eax
c000331f:	84 c0                	test   %al,%al
c0003321:	75 33                	jne    c0003356 <keyboard_handler+0x11d>
c0003323:	0f b7 45 f4          	movzwl -0xc(%ebp),%eax
c0003327:	0f b7 84 00 20 60 00 	movzwl -0x3fff9fe0(%eax,%eax,1),%eax
c000332e:	c0 
c000332f:	66 89 45 f6          	mov    %ax,-0xa(%ebp)
c0003333:	0f b7 45 f6          	movzwl -0xa(%ebp),%eax
c0003337:	25 ff 00 00 00       	and    $0xff,%eax
c000333c:	83 f8 60             	cmp    $0x60,%eax
c000333f:	7e 49                	jle    c000338a <keyboard_handler+0x151>
c0003341:	0f b7 45 f6          	movzwl -0xa(%ebp),%eax
c0003345:	25 ff 00 00 00       	and    $0xff,%eax
c000334a:	83 f8 7a             	cmp    $0x7a,%eax
c000334d:	7f 3a                	jg     c0003389 <keyboard_handler+0x150>
c000334f:	66 83 6d f6 20       	subw   $0x20,-0xa(%ebp)
c0003354:	eb 34                	jmp    c000338a <keyboard_handler+0x151>
c0003356:	0f b7 45 f4          	movzwl -0xc(%ebp),%eax
c000335a:	0f b7 84 00 20 61 00 	movzwl -0x3fff9ee0(%eax,%eax,1),%eax
c0003361:	c0 
c0003362:	66 89 45 f6          	mov    %ax,-0xa(%ebp)
c0003366:	0f b7 45 f6          	movzwl -0xa(%ebp),%eax
c000336a:	25 ff 00 00 00       	and    $0xff,%eax
c000336f:	83 f8 40             	cmp    $0x40,%eax
c0003372:	7e 16                	jle    c000338a <keyboard_handler+0x151>
c0003374:	0f b7 45 f6          	movzwl -0xa(%ebp),%eax
c0003378:	25 ff 00 00 00       	and    $0xff,%eax
c000337d:	83 f8 5a             	cmp    $0x5a,%eax
c0003380:	7f 08                	jg     c000338a <keyboard_handler+0x151>
c0003382:	66 83 45 f6 20       	addw   $0x20,-0xa(%ebp)
c0003387:	eb 01                	jmp    c000338a <keyboard_handler+0x151>
c0003389:	90                   	nop
c000338a:	8b 45 f0             	mov    -0x10(%ebp),%eax
c000338d:	0f b6 50 07          	movzbl 0x7(%eax),%edx
c0003391:	0f b6 05 40 75 01 c0 	movzbl 0xc0017540,%eax
c0003398:	38 c2                	cmp    %al,%dl
c000339a:	74 23                	je     c00033bf <keyboard_handler+0x186>
c000339c:	66 83 7d f4 46       	cmpw   $0x46,-0xc(%ebp)
c00033a1:	76 1c                	jbe    c00033bf <keyboard_handler+0x186>
c00033a3:	66 83 7d f4 53       	cmpw   $0x53,-0xc(%ebp)
c00033a8:	77 15                	ja     c00033bf <keyboard_handler+0x186>
c00033aa:	0f b7 45 f4          	movzwl -0xc(%ebp),%eax
c00033ae:	83 e8 47             	sub    $0x47,%eax
c00033b1:	0f b6 80 20 64 00 c0 	movzbl -0x3fff9be0(%eax),%eax
c00033b8:	0f b6 c0             	movzbl %al,%eax
c00033bb:	66 89 45 f6          	mov    %ax,-0xa(%ebp)
c00033bf:	0f b7 45 f4          	movzwl -0xc(%ebp),%eax
c00033c3:	83 f8 45             	cmp    $0x45,%eax
c00033c6:	0f 84 e7 00 00 00    	je     c00034b3 <keyboard_handler+0x27a>
c00033cc:	83 f8 45             	cmp    $0x45,%eax
c00033cf:	7f 30                	jg     c0003401 <keyboard_handler+0x1c8>
c00033d1:	83 f8 36             	cmp    $0x36,%eax
c00033d4:	74 79                	je     c000344f <keyboard_handler+0x216>
c00033d6:	83 f8 36             	cmp    $0x36,%eax
c00033d9:	7f 13                	jg     c00033ee <keyboard_handler+0x1b5>
c00033db:	83 f8 1d             	cmp    $0x1d,%eax
c00033de:	0f 84 9b 00 00 00    	je     c000347f <keyboard_handler+0x246>
c00033e4:	83 f8 2a             	cmp    $0x2a,%eax
c00033e7:	74 4e                	je     c0003437 <keyboard_handler+0x1fe>
c00033e9:	e9 fa 00 00 00       	jmp    c00034e8 <keyboard_handler+0x2af>
c00033ee:	83 f8 38             	cmp    $0x38,%eax
c00033f1:	74 74                	je     c0003467 <keyboard_handler+0x22e>
c00033f3:	83 f8 3a             	cmp    $0x3a,%eax
c00033f6:	0f 84 9b 00 00 00    	je     c0003497 <keyboard_handler+0x25e>
c00033fc:	e9 e7 00 00 00       	jmp    c00034e8 <keyboard_handler+0x2af>
c0003401:	3d aa 00 00 00       	cmp    $0xaa,%eax
c0003406:	74 3b                	je     c0003443 <keyboard_handler+0x20a>
c0003408:	3d aa 00 00 00       	cmp    $0xaa,%eax
c000340d:	7f 15                	jg     c0003424 <keyboard_handler+0x1eb>
c000340f:	83 f8 46             	cmp    $0x46,%eax
c0003412:	0f 84 b7 00 00 00    	je     c00034cf <keyboard_handler+0x296>
c0003418:	3d 9d 00 00 00       	cmp    $0x9d,%eax
c000341d:	74 6c                	je     c000348b <keyboard_handler+0x252>
c000341f:	e9 c4 00 00 00       	jmp    c00034e8 <keyboard_handler+0x2af>
c0003424:	3d b6 00 00 00       	cmp    $0xb6,%eax
c0003429:	74 30                	je     c000345b <keyboard_handler+0x222>
c000342b:	3d b8 00 00 00       	cmp    $0xb8,%eax
c0003430:	74 41                	je     c0003473 <keyboard_handler+0x23a>
c0003432:	e9 b1 00 00 00       	jmp    c00034e8 <keyboard_handler+0x2af>
c0003437:	c6 05 40 75 01 c0 01 	movb   $0x1,0xc0017540
c000343e:	e9 15 01 00 00       	jmp    c0003558 <keyboard_handler+0x31f>
c0003443:	c6 05 40 75 01 c0 00 	movb   $0x0,0xc0017540
c000344a:	e9 09 01 00 00       	jmp    c0003558 <keyboard_handler+0x31f>
c000344f:	c6 05 40 75 01 c0 01 	movb   $0x1,0xc0017540
c0003456:	e9 fd 00 00 00       	jmp    c0003558 <keyboard_handler+0x31f>
c000345b:	c6 05 40 75 01 c0 00 	movb   $0x0,0xc0017540
c0003462:	e9 f1 00 00 00       	jmp    c0003558 <keyboard_handler+0x31f>
c0003467:	c6 05 42 75 01 c0 01 	movb   $0x1,0xc0017542
c000346e:	e9 e5 00 00 00       	jmp    c0003558 <keyboard_handler+0x31f>
c0003473:	c6 05 42 75 01 c0 00 	movb   $0x0,0xc0017542
c000347a:	e9 d9 00 00 00       	jmp    c0003558 <keyboard_handler+0x31f>
c000347f:	c6 05 41 75 01 c0 01 	movb   $0x1,0xc0017541
c0003486:	e9 cd 00 00 00       	jmp    c0003558 <keyboard_handler+0x31f>
c000348b:	c6 05 41 75 01 c0 00 	movb   $0x0,0xc0017541
c0003492:	e9 c1 00 00 00       	jmp    c0003558 <keyboard_handler+0x31f>
c0003497:	8b 45 f0             	mov    -0x10(%ebp),%eax
c000349a:	0f b6 40 08          	movzbl 0x8(%eax),%eax
c000349e:	89 c2                	mov    %eax,%edx
c00034a0:	83 f2 01             	xor    $0x1,%edx
c00034a3:	8b 45 f0             	mov    -0x10(%ebp),%eax
c00034a6:	88 50 08             	mov    %dl,0x8(%eax)
c00034a9:	e8 8f fc ff ff       	call   c000313d <update_leds>
c00034ae:	e9 a5 00 00 00       	jmp    c0003558 <keyboard_handler+0x31f>
c00034b3:	8b 45 f0             	mov    -0x10(%ebp),%eax
c00034b6:	0f b6 40 07          	movzbl 0x7(%eax),%eax
c00034ba:	89 c2                	mov    %eax,%edx
c00034bc:	83 f2 01             	xor    $0x1,%edx
c00034bf:	8b 45 f0             	mov    -0x10(%ebp),%eax
c00034c2:	88 50 07             	mov    %dl,0x7(%eax)
c00034c5:	e8 73 fc ff ff       	call   c000313d <update_leds>
c00034ca:	e9 89 00 00 00       	jmp    c0003558 <keyboard_handler+0x31f>
c00034cf:	8b 45 f0             	mov    -0x10(%ebp),%eax
c00034d2:	0f b6 40 09          	movzbl 0x9(%eax),%eax
c00034d6:	89 c2                	mov    %eax,%edx
c00034d8:	83 f2 01             	xor    $0x1,%edx
c00034db:	8b 45 f0             	mov    -0x10(%ebp),%eax
c00034de:	88 50 09             	mov    %dl,0x9(%eax)
c00034e1:	e8 57 fc ff ff       	call   c000313d <update_leds>
c00034e6:	eb 70                	jmp    c0003558 <keyboard_handler+0x31f>
c00034e8:	0f b7 45 f4          	movzwl -0xc(%ebp),%eax
c00034ec:	25 80 00 00 00       	and    $0x80,%eax
c00034f1:	85 c0                	test   %eax,%eax
c00034f3:	75 5f                	jne    c0003554 <keyboard_handler+0x31b>
c00034f5:	8b 45 f0             	mov    -0x10(%ebp),%eax
c00034f8:	0f b7 40 0e          	movzwl 0xe(%eax),%eax
c00034fc:	66 83 f8 1f          	cmp    $0x1f,%ax
c0003500:	77 55                	ja     c0003557 <keyboard_handler+0x31e>
c0003502:	8b 45 f0             	mov    -0x10(%ebp),%eax
c0003505:	0f b7 40 0e          	movzwl 0xe(%eax),%eax
c0003509:	8d 50 01             	lea    0x1(%eax),%edx
c000350c:	8b 45 f0             	mov    -0x10(%ebp),%eax
c000350f:	66 89 50 0e          	mov    %dx,0xe(%eax)
c0003513:	8b 45 f0             	mov    -0x10(%ebp),%eax
c0003516:	0f b7 40 0c          	movzwl 0xc(%eax),%eax
c000351a:	8d 50 01             	lea    0x1(%eax),%edx
c000351d:	8b 45 f0             	mov    -0x10(%ebp),%eax
c0003520:	66 89 50 0c          	mov    %dx,0xc(%eax)
c0003524:	8b 45 f0             	mov    -0x10(%ebp),%eax
c0003527:	0f b7 40 0c          	movzwl 0xc(%eax),%eax
c000352b:	66 83 f8 1f          	cmp    $0x1f,%ax
c000352f:	76 09                	jbe    c000353a <keyboard_handler+0x301>
c0003531:	8b 45 f0             	mov    -0x10(%ebp),%eax
c0003534:	66 c7 40 0c 00 00    	movw   $0x0,0xc(%eax)
c000353a:	8b 45 f0             	mov    -0x10(%ebp),%eax
c000353d:	0f b7 40 0c          	movzwl 0xc(%eax),%eax
c0003541:	0f b7 d0             	movzwl %ax,%edx
c0003544:	8b 45 f0             	mov    -0x10(%ebp),%eax
c0003547:	8d 4a 08             	lea    0x8(%edx),%ecx
c000354a:	0f b7 55 f6          	movzwl -0xa(%ebp),%edx
c000354e:	66 89 14 48          	mov    %dx,(%eax,%ecx,2)
c0003552:	eb 04                	jmp    c0003558 <keyboard_handler+0x31f>
c0003554:	90                   	nop
c0003555:	eb 01                	jmp    c0003558 <keyboard_handler+0x31f>
c0003557:	90                   	nop
c0003558:	8b 45 08             	mov    0x8(%ebp),%eax
c000355b:	8b 40 30             	mov    0x30(%eax),%eax
c000355e:	0f b6 c0             	movzbl %al,%eax
c0003561:	89 04 24             	mov    %eax,(%esp)
c0003564:	e8 76 db ff ff       	call   c00010df <enable_IRQ>
c0003569:	c9                   	leave  
c000356a:	c3                   	ret    

c000356b <kgetchar>:
kgetchar():
c000356b:	55                   	push   %ebp
c000356c:	89 e5                	mov    %esp,%ebp
c000356e:	53                   	push   %ebx
c000356f:	83 ec 24             	sub    $0x24,%esp
c0003572:	9c                   	pushf  
c0003573:	5b                   	pop    %ebx
c0003574:	fa                   	cli    
c0003575:	89 5d f4             	mov    %ebx,-0xc(%ebp)
c0003578:	e8 2e cf ff ff       	call   c00004ab <get_curr_console>
c000357d:	89 04 24             	mov    %eax,(%esp)
c0003580:	e8 fc ce ff ff       	call   c0000481 <get_console_addr>
c0003585:	89 45 f0             	mov    %eax,-0x10(%ebp)
c0003588:	8b 45 f0             	mov    -0x10(%ebp),%eax
c000358b:	0f b7 40 0e          	movzwl 0xe(%eax),%eax
c000358f:	66 85 c0             	test   %ax,%ax
c0003592:	75 06                	jne    c000359a <kgetchar+0x2f>
c0003594:	fb                   	sti    
c0003595:	eb 04                	jmp    c000359b <kgetchar+0x30>
c0003597:	f4                   	hlt    
c0003598:	eb 01                	jmp    c000359b <kgetchar+0x30>
c000359a:	90                   	nop
c000359b:	8b 45 f0             	mov    -0x10(%ebp),%eax
c000359e:	0f b7 40 0e          	movzwl 0xe(%eax),%eax
c00035a2:	66 85 c0             	test   %ax,%ax
c00035a5:	74 f0                	je     c0003597 <kgetchar+0x2c>
c00035a7:	fa                   	cli    
c00035a8:	8b 45 f0             	mov    -0x10(%ebp),%eax
c00035ab:	0f b7 40 0e          	movzwl 0xe(%eax),%eax
c00035af:	8d 50 ff             	lea    -0x1(%eax),%edx
c00035b2:	8b 45 f0             	mov    -0x10(%ebp),%eax
c00035b5:	66 89 50 0e          	mov    %dx,0xe(%eax)
c00035b9:	8b 45 f0             	mov    -0x10(%ebp),%eax
c00035bc:	0f b7 40 0a          	movzwl 0xa(%eax),%eax
c00035c0:	8d 50 01             	lea    0x1(%eax),%edx
c00035c3:	8b 45 f0             	mov    -0x10(%ebp),%eax
c00035c6:	66 89 50 0a          	mov    %dx,0xa(%eax)
c00035ca:	8b 45 f0             	mov    -0x10(%ebp),%eax
c00035cd:	0f b7 40 0a          	movzwl 0xa(%eax),%eax
c00035d1:	66 83 f8 1f          	cmp    $0x1f,%ax
c00035d5:	76 09                	jbe    c00035e0 <kgetchar+0x75>
c00035d7:	8b 45 f0             	mov    -0x10(%ebp),%eax
c00035da:	66 c7 40 0a 00 00    	movw   $0x0,0xa(%eax)
c00035e0:	8b 45 f0             	mov    -0x10(%ebp),%eax
c00035e3:	0f b7 40 0a          	movzwl 0xa(%eax),%eax
c00035e7:	0f b7 d0             	movzwl %ax,%edx
c00035ea:	8b 45 f0             	mov    -0x10(%ebp),%eax
c00035ed:	83 c2 08             	add    $0x8,%edx
c00035f0:	0f b7 04 50          	movzwl (%eax,%edx,2),%eax
c00035f4:	66 89 45 ee          	mov    %ax,-0x12(%ebp)
c00035f8:	ff 75 f4             	pushl  -0xc(%ebp)
c00035fb:	9d                   	popf   
c00035fc:	0f b7 45 ee          	movzwl -0x12(%ebp),%eax
c0003600:	83 c4 24             	add    $0x24,%esp
c0003603:	5b                   	pop    %ebx
c0003604:	5d                   	pop    %ebp
c0003605:	c3                   	ret    

c0003606 <initialize_keyboard>:
initialize_keyboard():
c0003606:	55                   	push   %ebp
c0003607:	89 e5                	mov    %esp,%ebp
c0003609:	83 ec 18             	sub    $0x18,%esp
c000360c:	e8 2c fb ff ff       	call   c000313d <update_leds>
c0003611:	c7 44 24 04 39 32 00 	movl   $0xc0003239,0x4(%esp)
c0003618:	c0 
c0003619:	c7 04 24 01 00 00 00 	movl   $0x1,(%esp)
c0003620:	e8 81 db ff ff       	call   c00011a6 <register_interrupt_handler>
c0003625:	c9                   	leave  
c0003626:	c3                   	ret    
	...

c0003628 <outport08>:
outport08():
c0003628:	55                   	push   %ebp
c0003629:	89 e5                	mov    %esp,%ebp
c000362b:	83 ec 08             	sub    $0x8,%esp
c000362e:	8b 55 08             	mov    0x8(%ebp),%edx
c0003631:	8b 45 0c             	mov    0xc(%ebp),%eax
c0003634:	66 89 55 fc          	mov    %dx,-0x4(%ebp)
c0003638:	88 45 f8             	mov    %al,-0x8(%ebp)
c000363b:	0f b7 55 fc          	movzwl -0x4(%ebp),%edx
c000363f:	0f b6 45 f8          	movzbl -0x8(%ebp),%eax
c0003643:	ee                   	out    %al,(%dx)
c0003644:	c9                   	leave  
c0003645:	c3                   	ret    

c0003646 <memset16>:
memset16():
c0003646:	55                   	push   %ebp
c0003647:	89 e5                	mov    %esp,%ebp
c0003649:	57                   	push   %edi
c000364a:	83 ec 04             	sub    $0x4,%esp
c000364d:	8b 45 0c             	mov    0xc(%ebp),%eax
c0003650:	66 89 45 f8          	mov    %ax,-0x8(%ebp)
c0003654:	8b 55 08             	mov    0x8(%ebp),%edx
c0003657:	8b 4d 10             	mov    0x10(%ebp),%ecx
c000365a:	0f b7 45 f8          	movzwl -0x8(%ebp),%eax
c000365e:	89 d7                	mov    %edx,%edi
c0003660:	fc                   	cld    
c0003661:	66 f3 ab             	rep stos %ax,%es:(%edi)
c0003664:	83 c4 04             	add    $0x4,%esp
c0003667:	5f                   	pop    %edi
c0003668:	5d                   	pop    %ebp
c0003669:	c3                   	ret    

c000366a <video_move_cursor>:
video_move_cursor():
c000366a:	55                   	push   %ebp
c000366b:	89 e5                	mov    %esp,%ebp
c000366d:	83 ec 20             	sub    $0x20,%esp
c0003670:	8b 55 08             	mov    0x8(%ebp),%edx
c0003673:	8b 45 0c             	mov    0xc(%ebp),%eax
c0003676:	88 55 ec             	mov    %dl,-0x14(%ebp)
c0003679:	88 45 e8             	mov    %al,-0x18(%ebp)
c000367c:	0f b6 55 e8          	movzbl -0x18(%ebp),%edx
c0003680:	0f b7 05 30 64 00 c0 	movzwl 0xc0006430,%eax
c0003687:	0f af d0             	imul   %eax,%edx
c000368a:	0f b6 45 ec          	movzbl -0x14(%ebp),%eax
c000368e:	8d 04 02             	lea    (%edx,%eax,1),%eax
c0003691:	66 89 45 fe          	mov    %ax,-0x2(%ebp)
c0003695:	c7 44 24 04 0e 00 00 	movl   $0xe,0x4(%esp)
c000369c:	00 
c000369d:	c7 04 24 d4 03 00 00 	movl   $0x3d4,(%esp)
c00036a4:	e8 7f ff ff ff       	call   c0003628 <outport08>
c00036a9:	0f b7 45 fe          	movzwl -0x2(%ebp),%eax
c00036ad:	66 c1 e8 08          	shr    $0x8,%ax
c00036b1:	0f b6 c0             	movzbl %al,%eax
c00036b4:	89 44 24 04          	mov    %eax,0x4(%esp)
c00036b8:	c7 04 24 d5 03 00 00 	movl   $0x3d5,(%esp)
c00036bf:	e8 64 ff ff ff       	call   c0003628 <outport08>
c00036c4:	c7 44 24 04 0f 00 00 	movl   $0xf,0x4(%esp)
c00036cb:	00 
c00036cc:	c7 04 24 d4 03 00 00 	movl   $0x3d4,(%esp)
c00036d3:	e8 50 ff ff ff       	call   c0003628 <outport08>
c00036d8:	0f b7 45 fe          	movzwl -0x2(%ebp),%eax
c00036dc:	0f b6 c0             	movzbl %al,%eax
c00036df:	89 44 24 04          	mov    %eax,0x4(%esp)
c00036e3:	c7 04 24 d5 03 00 00 	movl   $0x3d5,(%esp)
c00036ea:	e8 39 ff ff ff       	call   c0003628 <outport08>
c00036ef:	c9                   	leave  
c00036f0:	c3                   	ret    

c00036f1 <video_set_color>:
video_set_color():
c00036f1:	55                   	push   %ebp
c00036f2:	89 e5                	mov    %esp,%ebp
c00036f4:	83 ec 04             	sub    $0x4,%esp
c00036f7:	8b 45 0c             	mov    0xc(%ebp),%eax
c00036fa:	88 45 fc             	mov    %al,-0x4(%ebp)
c00036fd:	8b 45 08             	mov    0x8(%ebp),%eax
c0003700:	0f b6 55 fc          	movzbl -0x4(%ebp),%edx
c0003704:	88 50 06             	mov    %dl,0x6(%eax)
c0003707:	c9                   	leave  
c0003708:	c3                   	ret    

c0003709 <video_clrscr>:
video_clrscr():
c0003709:	55                   	push   %ebp
c000370a:	89 e5                	mov    %esp,%ebp
c000370c:	53                   	push   %ebx
c000370d:	83 ec 24             	sub    $0x24,%esp
c0003710:	9c                   	pushf  
c0003711:	5b                   	pop    %ebx
c0003712:	fa                   	cli    
c0003713:	89 5d f4             	mov    %ebx,-0xc(%ebp)
c0003716:	0f b7 05 30 64 00 c0 	movzwl 0xc0006430,%eax
c000371d:	0f b7 d0             	movzwl %ax,%edx
c0003720:	0f b7 05 32 64 00 c0 	movzwl 0xc0006432,%eax
c0003727:	0f b7 c0             	movzwl %ax,%eax
c000372a:	0f af c2             	imul   %edx,%eax
c000372d:	01 c0                	add    %eax,%eax
c000372f:	89 c2                	mov    %eax,%edx
c0003731:	8b 45 08             	mov    0x8(%ebp),%eax
c0003734:	8b 00                	mov    (%eax),%eax
c0003736:	89 54 24 08          	mov    %edx,0x8(%esp)
c000373a:	c7 44 24 04 20 0f 00 	movl   $0xf20,0x4(%esp)
c0003741:	00 
c0003742:	89 04 24             	mov    %eax,(%esp)
c0003745:	e8 fc fe ff ff       	call   c0003646 <memset16>
c000374a:	8b 45 08             	mov    0x8(%ebp),%eax
c000374d:	c6 40 04 00          	movb   $0x0,0x4(%eax)
c0003751:	8b 45 08             	mov    0x8(%ebp),%eax
c0003754:	c6 40 05 00          	movb   $0x0,0x5(%eax)
c0003758:	c7 04 24 00 00 00 00 	movl   $0x0,(%esp)
c000375f:	e8 1d cd ff ff       	call   c0000481 <get_console_addr>
c0003764:	3b 45 08             	cmp    0x8(%ebp),%eax
c0003767:	75 20                	jne    c0003789 <video_clrscr+0x80>
c0003769:	8b 45 08             	mov    0x8(%ebp),%eax
c000376c:	0f b6 40 05          	movzbl 0x5(%eax),%eax
c0003770:	0f b6 d0             	movzbl %al,%edx
c0003773:	8b 45 08             	mov    0x8(%ebp),%eax
c0003776:	0f b6 40 04          	movzbl 0x4(%eax),%eax
c000377a:	0f b6 c0             	movzbl %al,%eax
c000377d:	89 54 24 04          	mov    %edx,0x4(%esp)
c0003781:	89 04 24             	mov    %eax,(%esp)
c0003784:	e8 e1 fe ff ff       	call   c000366a <video_move_cursor>
c0003789:	ff 75 f4             	pushl  -0xc(%ebp)
c000378c:	9d                   	popf   
c000378d:	83 c4 24             	add    $0x24,%esp
c0003790:	5b                   	pop    %ebx
c0003791:	5d                   	pop    %ebp
c0003792:	c3                   	ret    

c0003793 <video_scroll_console>:
video_scroll_console():
c0003793:	55                   	push   %ebp
c0003794:	89 e5                	mov    %esp,%ebp
c0003796:	53                   	push   %ebx
c0003797:	83 ec 24             	sub    $0x24,%esp
c000379a:	9c                   	pushf  
c000379b:	5b                   	pop    %ebx
c000379c:	fa                   	cli    
c000379d:	89 5d f0             	mov    %ebx,-0x10(%ebp)
c00037a0:	8b 45 08             	mov    0x8(%ebp),%eax
c00037a3:	0f b6 40 05          	movzbl 0x5(%eax),%eax
c00037a7:	0f b6 d0             	movzbl %al,%edx
c00037aa:	0f b7 05 32 64 00 c0 	movzwl 0xc0006432,%eax
c00037b1:	66 39 c2             	cmp    %ax,%dx
c00037b4:	0f 82 ad 00 00 00    	jb     c0003867 <video_scroll_console+0xd4>
c00037ba:	c7 45 f4 00 00 00 00 	movl   $0x0,-0xc(%ebp)
c00037c1:	eb 2e                	jmp    c00037f1 <video_scroll_console+0x5e>
c00037c3:	8b 45 08             	mov    0x8(%ebp),%eax
c00037c6:	8b 00                	mov    (%eax),%eax
c00037c8:	8b 55 f4             	mov    -0xc(%ebp),%edx
c00037cb:	01 d2                	add    %edx,%edx
c00037cd:	8d 14 10             	lea    (%eax,%edx,1),%edx
c00037d0:	8b 45 08             	mov    0x8(%ebp),%eax
c00037d3:	8b 08                	mov    (%eax),%ecx
c00037d5:	0f b7 05 30 64 00 c0 	movzwl 0xc0006430,%eax
c00037dc:	0f b7 c0             	movzwl %ax,%eax
c00037df:	03 45 f4             	add    -0xc(%ebp),%eax
c00037e2:	01 c0                	add    %eax,%eax
c00037e4:	8d 04 01             	lea    (%ecx,%eax,1),%eax
c00037e7:	0f b7 00             	movzwl (%eax),%eax
c00037ea:	66 89 02             	mov    %ax,(%edx)
c00037ed:	83 45 f4 01          	addl   $0x1,-0xc(%ebp)
c00037f1:	0f b7 05 32 64 00 c0 	movzwl 0xc0006432,%eax
c00037f8:	0f b7 c0             	movzwl %ax,%eax
c00037fb:	8d 50 ff             	lea    -0x1(%eax),%edx
c00037fe:	0f b7 05 30 64 00 c0 	movzwl 0xc0006430,%eax
c0003805:	0f b7 c0             	movzwl %ax,%eax
c0003808:	0f af c2             	imul   %edx,%eax
c000380b:	3b 45 f4             	cmp    -0xc(%ebp),%eax
c000380e:	7f b3                	jg     c00037c3 <video_scroll_console+0x30>
c0003810:	0f b7 05 32 64 00 c0 	movzwl 0xc0006432,%eax
c0003817:	8d 50 ff             	lea    -0x1(%eax),%edx
c000381a:	8b 45 08             	mov    0x8(%ebp),%eax
c000381d:	88 50 05             	mov    %dl,0x5(%eax)
c0003820:	c7 45 f4 00 00 00 00 	movl   $0x0,-0xc(%ebp)
c0003827:	eb 2f                	jmp    c0003858 <video_scroll_console+0xc5>
c0003829:	8b 45 08             	mov    0x8(%ebp),%eax
c000382c:	0f b6 40 05          	movzbl 0x5(%eax),%eax
c0003830:	0f b6 d0             	movzbl %al,%edx
c0003833:	8b 45 f4             	mov    -0xc(%ebp),%eax
c0003836:	0f b6 c0             	movzbl %al,%eax
c0003839:	8b 4d 08             	mov    0x8(%ebp),%ecx
c000383c:	89 4c 24 0c          	mov    %ecx,0xc(%esp)
c0003840:	c7 44 24 08 20 00 00 	movl   $0x20,0x8(%esp)
c0003847:	00 
c0003848:	89 54 24 04          	mov    %edx,0x4(%esp)
c000384c:	89 04 24             	mov    %eax,(%esp)
c000384f:	e8 1d 00 00 00       	call   c0003871 <video_place_char>
c0003854:	83 45 f4 01          	addl   $0x1,-0xc(%ebp)
c0003858:	0f b7 05 30 64 00 c0 	movzwl 0xc0006430,%eax
c000385f:	0f b7 c0             	movzwl %ax,%eax
c0003862:	3b 45 f4             	cmp    -0xc(%ebp),%eax
c0003865:	7f c2                	jg     c0003829 <video_scroll_console+0x96>
c0003867:	ff 75 f0             	pushl  -0x10(%ebp)
c000386a:	9d                   	popf   
c000386b:	83 c4 24             	add    $0x24,%esp
c000386e:	5b                   	pop    %ebx
c000386f:	5d                   	pop    %ebp
c0003870:	c3                   	ret    

c0003871 <video_place_char>:
video_place_char():
c0003871:	55                   	push   %ebp
c0003872:	89 e5                	mov    %esp,%ebp
c0003874:	83 ec 1c             	sub    $0x1c,%esp
c0003877:	8b 4d 08             	mov    0x8(%ebp),%ecx
c000387a:	8b 55 0c             	mov    0xc(%ebp),%edx
c000387d:	8b 45 10             	mov    0x10(%ebp),%eax
c0003880:	88 4d ec             	mov    %cl,-0x14(%ebp)
c0003883:	88 55 e8             	mov    %dl,-0x18(%ebp)
c0003886:	88 45 e4             	mov    %al,-0x1c(%ebp)
c0003889:	0f b6 55 e8          	movzbl -0x18(%ebp),%edx
c000388d:	0f b7 05 30 64 00 c0 	movzwl 0xc0006430,%eax
c0003894:	0f b7 c0             	movzwl %ax,%eax
c0003897:	0f af d0             	imul   %eax,%edx
c000389a:	0f b6 45 ec          	movzbl -0x14(%ebp),%eax
c000389e:	8d 04 02             	lea    (%edx,%eax,1),%eax
c00038a1:	89 45 fc             	mov    %eax,-0x4(%ebp)
c00038a4:	8b 45 14             	mov    0x14(%ebp),%eax
c00038a7:	8b 00                	mov    (%eax),%eax
c00038a9:	8b 55 fc             	mov    -0x4(%ebp),%edx
c00038ac:	01 d2                	add    %edx,%edx
c00038ae:	8d 14 10             	lea    (%eax,%edx,1),%edx
c00038b1:	8b 45 14             	mov    0x14(%ebp),%eax
c00038b4:	0f b6 40 06          	movzbl 0x6(%eax),%eax
c00038b8:	0f b6 c0             	movzbl %al,%eax
c00038bb:	c1 e0 08             	shl    $0x8,%eax
c00038be:	89 c1                	mov    %eax,%ecx
c00038c0:	0f b6 45 e4          	movzbl -0x1c(%ebp),%eax
c00038c4:	09 c8                	or     %ecx,%eax
c00038c6:	66 89 02             	mov    %ax,(%edx)
c00038c9:	c9                   	leave  
c00038ca:	c3                   	ret    

c00038cb <video_put_char>:
video_put_char():
c00038cb:	55                   	push   %ebp
c00038cc:	89 e5                	mov    %esp,%ebp
c00038ce:	53                   	push   %ebx
c00038cf:	83 ec 34             	sub    $0x34,%esp
c00038d2:	8b 45 08             	mov    0x8(%ebp),%eax
c00038d5:	88 45 e4             	mov    %al,-0x1c(%ebp)
c00038d8:	9c                   	pushf  
c00038d9:	5b                   	pop    %ebx
c00038da:	fa                   	cli    
c00038db:	89 5d f4             	mov    %ebx,-0xc(%ebp)
c00038de:	0f b6 45 e4          	movzbl -0x1c(%ebp),%eax
c00038e2:	83 e8 07             	sub    $0x7,%eax
c00038e5:	83 f8 06             	cmp    $0x6,%eax
c00038e8:	0f 87 c7 00 00 00    	ja     c00039b5 <video_put_char+0xea>
c00038ee:	8b 04 85 88 50 00 c0 	mov    -0x3fffaf78(,%eax,4),%eax
c00038f5:	ff e0                	jmp    *%eax
c00038f7:	8b 45 0c             	mov    0xc(%ebp),%eax
c00038fa:	0f b6 40 05          	movzbl 0x5(%eax),%eax
c00038fe:	8d 50 01             	lea    0x1(%eax),%edx
c0003901:	8b 45 0c             	mov    0xc(%ebp),%eax
c0003904:	88 50 05             	mov    %dl,0x5(%eax)
c0003907:	8b 45 0c             	mov    0xc(%ebp),%eax
c000390a:	c6 40 04 00          	movb   $0x0,0x4(%eax)
c000390e:	e9 e2 00 00 00       	jmp    c00039f5 <video_put_char+0x12a>
c0003913:	8b 45 0c             	mov    0xc(%ebp),%eax
c0003916:	c6 40 04 00          	movb   $0x0,0x4(%eax)
c000391a:	e9 d6 00 00 00       	jmp    c00039f5 <video_put_char+0x12a>
c000391f:	8b 45 0c             	mov    0xc(%ebp),%eax
c0003922:	0f b6 40 04          	movzbl 0x4(%eax),%eax
c0003926:	84 c0                	test   %al,%al
c0003928:	75 33                	jne    c000395d <video_put_char+0x92>
c000392a:	8b 45 0c             	mov    0xc(%ebp),%eax
c000392d:	0f b6 40 05          	movzbl 0x5(%eax),%eax
c0003931:	84 c0                	test   %al,%al
c0003933:	0f 84 2e 01 00 00    	je     c0003a67 <video_put_char+0x19c>
c0003939:	8b 45 0c             	mov    0xc(%ebp),%eax
c000393c:	0f b6 40 05          	movzbl 0x5(%eax),%eax
c0003940:	8d 50 ff             	lea    -0x1(%eax),%edx
c0003943:	8b 45 0c             	mov    0xc(%ebp),%eax
c0003946:	88 50 05             	mov    %dl,0x5(%eax)
c0003949:	0f b7 05 30 64 00 c0 	movzwl 0xc0006430,%eax
c0003950:	89 c2                	mov    %eax,%edx
c0003952:	8b 45 0c             	mov    0xc(%ebp),%eax
c0003955:	88 50 04             	mov    %dl,0x4(%eax)
c0003958:	e9 98 00 00 00       	jmp    c00039f5 <video_put_char+0x12a>
c000395d:	8b 45 0c             	mov    0xc(%ebp),%eax
c0003960:	0f b6 40 04          	movzbl 0x4(%eax),%eax
c0003964:	8d 50 01             	lea    0x1(%eax),%edx
c0003967:	8b 45 0c             	mov    0xc(%ebp),%eax
c000396a:	88 50 04             	mov    %dl,0x4(%eax)
c000396d:	8b 45 0c             	mov    0xc(%ebp),%eax
c0003970:	0f b6 40 05          	movzbl 0x5(%eax),%eax
c0003974:	0f b6 d0             	movzbl %al,%edx
c0003977:	8b 45 0c             	mov    0xc(%ebp),%eax
c000397a:	0f b6 40 04          	movzbl 0x4(%eax),%eax
c000397e:	0f b6 c0             	movzbl %al,%eax
c0003981:	8b 4d 0c             	mov    0xc(%ebp),%ecx
c0003984:	89 4c 24 0c          	mov    %ecx,0xc(%esp)
c0003988:	c7 44 24 08 20 00 00 	movl   $0x20,0x8(%esp)
c000398f:	00 
c0003990:	89 54 24 04          	mov    %edx,0x4(%esp)
c0003994:	89 04 24             	mov    %eax,(%esp)
c0003997:	e8 d5 fe ff ff       	call   c0003871 <video_place_char>
c000399c:	eb 57                	jmp    c00039f5 <video_put_char+0x12a>
c000399e:	8b 45 0c             	mov    0xc(%ebp),%eax
c00039a1:	0f b6 40 04          	movzbl 0x4(%eax),%eax
c00039a5:	83 c0 08             	add    $0x8,%eax
c00039a8:	89 c2                	mov    %eax,%edx
c00039aa:	83 e2 f8             	and    $0xfffffff8,%edx
c00039ad:	8b 45 0c             	mov    0xc(%ebp),%eax
c00039b0:	88 50 04             	mov    %dl,0x4(%eax)
c00039b3:	eb 40                	jmp    c00039f5 <video_put_char+0x12a>
c00039b5:	0f b6 4d e4          	movzbl -0x1c(%ebp),%ecx
c00039b9:	8b 45 0c             	mov    0xc(%ebp),%eax
c00039bc:	0f b6 40 05          	movzbl 0x5(%eax),%eax
c00039c0:	0f b6 d0             	movzbl %al,%edx
c00039c3:	8b 45 0c             	mov    0xc(%ebp),%eax
c00039c6:	0f b6 40 04          	movzbl 0x4(%eax),%eax
c00039ca:	0f b6 c0             	movzbl %al,%eax
c00039cd:	8b 5d 0c             	mov    0xc(%ebp),%ebx
c00039d0:	89 5c 24 0c          	mov    %ebx,0xc(%esp)
c00039d4:	89 4c 24 08          	mov    %ecx,0x8(%esp)
c00039d8:	89 54 24 04          	mov    %edx,0x4(%esp)
c00039dc:	89 04 24             	mov    %eax,(%esp)
c00039df:	e8 8d fe ff ff       	call   c0003871 <video_place_char>
c00039e4:	8b 45 0c             	mov    0xc(%ebp),%eax
c00039e7:	0f b6 40 04          	movzbl 0x4(%eax),%eax
c00039eb:	8d 50 01             	lea    0x1(%eax),%edx
c00039ee:	8b 45 0c             	mov    0xc(%ebp),%eax
c00039f1:	88 50 04             	mov    %dl,0x4(%eax)
c00039f4:	90                   	nop
c00039f5:	8b 45 0c             	mov    0xc(%ebp),%eax
c00039f8:	0f b6 40 04          	movzbl 0x4(%eax),%eax
c00039fc:	0f b6 d0             	movzbl %al,%edx
c00039ff:	0f b7 05 30 64 00 c0 	movzwl 0xc0006430,%eax
c0003a06:	66 39 c2             	cmp    %ax,%dx
c0003a09:	72 17                	jb     c0003a22 <video_put_char+0x157>
c0003a0b:	8b 45 0c             	mov    0xc(%ebp),%eax
c0003a0e:	c6 40 04 00          	movb   $0x0,0x4(%eax)
c0003a12:	8b 45 0c             	mov    0xc(%ebp),%eax
c0003a15:	0f b6 40 05          	movzbl 0x5(%eax),%eax
c0003a19:	8d 50 01             	lea    0x1(%eax),%edx
c0003a1c:	8b 45 0c             	mov    0xc(%ebp),%eax
c0003a1f:	88 50 05             	mov    %dl,0x5(%eax)
c0003a22:	8b 45 0c             	mov    0xc(%ebp),%eax
c0003a25:	89 04 24             	mov    %eax,(%esp)
c0003a28:	e8 66 fd ff ff       	call   c0003793 <video_scroll_console>
c0003a2d:	c7 04 24 00 00 00 00 	movl   $0x0,(%esp)
c0003a34:	e8 48 ca ff ff       	call   c0000481 <get_console_addr>
c0003a39:	3b 45 0c             	cmp    0xc(%ebp),%eax
c0003a3c:	75 20                	jne    c0003a5e <video_put_char+0x193>
c0003a3e:	8b 45 0c             	mov    0xc(%ebp),%eax
c0003a41:	0f b6 40 05          	movzbl 0x5(%eax),%eax
c0003a45:	0f b6 d0             	movzbl %al,%edx
c0003a48:	8b 45 0c             	mov    0xc(%ebp),%eax
c0003a4b:	0f b6 40 04          	movzbl 0x4(%eax),%eax
c0003a4f:	0f b6 c0             	movzbl %al,%eax
c0003a52:	89 54 24 04          	mov    %edx,0x4(%esp)
c0003a56:	89 04 24             	mov    %eax,(%esp)
c0003a59:	e8 0c fc ff ff       	call   c000366a <video_move_cursor>
c0003a5e:	ff 75 f4             	pushl  -0xc(%ebp)
c0003a61:	9d                   	popf   
c0003a62:	eb 04                	jmp    c0003a68 <video_put_char+0x19d>
c0003a64:	90                   	nop
c0003a65:	eb 01                	jmp    c0003a68 <video_put_char+0x19d>
c0003a67:	90                   	nop
c0003a68:	83 c4 34             	add    $0x34,%esp
c0003a6b:	5b                   	pop    %ebx
c0003a6c:	5d                   	pop    %ebp
c0003a6d:	c3                   	ret    

c0003a6e <initialize_video>:
initialize_video():
c0003a6e:	55                   	push   %ebp
c0003a6f:	89 e5                	mov    %esp,%ebp
c0003a71:	66 c7 05 30 64 00 c0 	movw   $0x50,0xc0006430
c0003a78:	50 00 
c0003a7a:	66 c7 05 32 64 00 c0 	movw   $0x19,0xc0006432
c0003a81:	19 00 
c0003a83:	5d                   	pop    %ebp
c0003a84:	c3                   	ret    
c0003a85:	00 00                	add    %al,(%eax)
	...

c0003a88 <strlen>:
strlen():
c0003a88:	55                   	push   %ebp
c0003a89:	89 e5                	mov    %esp,%ebp
c0003a8b:	83 ec 10             	sub    $0x10,%esp
c0003a8e:	83 7d 08 00          	cmpl   $0x0,0x8(%ebp)
c0003a92:	75 07                	jne    c0003a9b <strlen+0x13>
c0003a94:	b8 00 00 00 00       	mov    $0x0,%eax
c0003a99:	eb 22                	jmp    c0003abd <strlen+0x35>
c0003a9b:	8b 45 08             	mov    0x8(%ebp),%eax
c0003a9e:	89 45 fc             	mov    %eax,-0x4(%ebp)
c0003aa1:	eb 04                	jmp    c0003aa7 <strlen+0x1f>
c0003aa3:	83 45 fc 01          	addl   $0x1,-0x4(%ebp)
c0003aa7:	8b 45 fc             	mov    -0x4(%ebp),%eax
c0003aaa:	0f b6 00             	movzbl (%eax),%eax
c0003aad:	84 c0                	test   %al,%al
c0003aaf:	75 f2                	jne    c0003aa3 <strlen+0x1b>
c0003ab1:	8b 55 fc             	mov    -0x4(%ebp),%edx
c0003ab4:	8b 45 08             	mov    0x8(%ebp),%eax
c0003ab7:	89 d1                	mov    %edx,%ecx
c0003ab9:	29 c1                	sub    %eax,%ecx
c0003abb:	89 c8                	mov    %ecx,%eax
c0003abd:	c9                   	leave  
c0003abe:	c3                   	ret    

c0003abf <strnlen>:
strnlen():
c0003abf:	55                   	push   %ebp
c0003ac0:	89 e5                	mov    %esp,%ebp
c0003ac2:	83 ec 10             	sub    $0x10,%esp
c0003ac5:	83 7d 08 00          	cmpl   $0x0,0x8(%ebp)
c0003ac9:	75 07                	jne    c0003ad2 <strnlen+0x13>
c0003acb:	b8 00 00 00 00       	mov    $0x0,%eax
c0003ad0:	eb 31                	jmp    c0003b03 <strnlen+0x44>
c0003ad2:	8b 45 08             	mov    0x8(%ebp),%eax
c0003ad5:	89 45 fc             	mov    %eax,-0x4(%ebp)
c0003ad8:	eb 04                	jmp    c0003ade <strnlen+0x1f>
c0003ada:	83 45 fc 01          	addl   $0x1,-0x4(%ebp)
c0003ade:	83 7d 0c 00          	cmpl   $0x0,0xc(%ebp)
c0003ae2:	0f 95 c0             	setne  %al
c0003ae5:	83 6d 0c 01          	subl   $0x1,0xc(%ebp)
c0003ae9:	84 c0                	test   %al,%al
c0003aeb:	74 0a                	je     c0003af7 <strnlen+0x38>
c0003aed:	8b 45 fc             	mov    -0x4(%ebp),%eax
c0003af0:	0f b6 00             	movzbl (%eax),%eax
c0003af3:	84 c0                	test   %al,%al
c0003af5:	75 e3                	jne    c0003ada <strnlen+0x1b>
c0003af7:	8b 55 fc             	mov    -0x4(%ebp),%edx
c0003afa:	8b 45 08             	mov    0x8(%ebp),%eax
c0003afd:	89 d1                	mov    %edx,%ecx
c0003aff:	29 c1                	sub    %eax,%ecx
c0003b01:	89 c8                	mov    %ecx,%eax
c0003b03:	c9                   	leave  
c0003b04:	c3                   	ret    
c0003b05:	00 00                	add    %al,(%eax)
	...

c0003b08 <skip_atoi>:
skip_atoi():
c0003b08:	55                   	push   %ebp
c0003b09:	89 e5                	mov    %esp,%ebp
c0003b0b:	83 ec 10             	sub    $0x10,%esp
c0003b0e:	c7 45 fc 00 00 00 00 	movl   $0x0,-0x4(%ebp)
c0003b15:	eb 2a                	jmp    c0003b41 <skip_atoi+0x39>
c0003b17:	8b 55 fc             	mov    -0x4(%ebp),%edx
c0003b1a:	89 d0                	mov    %edx,%eax
c0003b1c:	c1 e0 02             	shl    $0x2,%eax
c0003b1f:	01 d0                	add    %edx,%eax
c0003b21:	01 c0                	add    %eax,%eax
c0003b23:	89 c1                	mov    %eax,%ecx
c0003b25:	8b 45 08             	mov    0x8(%ebp),%eax
c0003b28:	8b 00                	mov    (%eax),%eax
c0003b2a:	0f b6 10             	movzbl (%eax),%edx
c0003b2d:	0f be d2             	movsbl %dl,%edx
c0003b30:	8d 14 11             	lea    (%ecx,%edx,1),%edx
c0003b33:	83 ea 30             	sub    $0x30,%edx
c0003b36:	89 55 fc             	mov    %edx,-0x4(%ebp)
c0003b39:	8d 50 01             	lea    0x1(%eax),%edx
c0003b3c:	8b 45 08             	mov    0x8(%ebp),%eax
c0003b3f:	89 10                	mov    %edx,(%eax)
c0003b41:	8b 45 08             	mov    0x8(%ebp),%eax
c0003b44:	8b 00                	mov    (%eax),%eax
c0003b46:	0f b6 00             	movzbl (%eax),%eax
c0003b49:	0f b6 c0             	movzbl %al,%eax
c0003b4c:	0f b6 80 40 64 00 c0 	movzbl -0x3fff9bc0(%eax),%eax
c0003b53:	0f b6 c0             	movzbl %al,%eax
c0003b56:	83 e0 04             	and    $0x4,%eax
c0003b59:	85 c0                	test   %eax,%eax
c0003b5b:	75 ba                	jne    c0003b17 <skip_atoi+0xf>
c0003b5d:	8b 45 fc             	mov    -0x4(%ebp),%eax
c0003b60:	c9                   	leave  
c0003b61:	c3                   	ret    

c0003b62 <number>:
number():
c0003b62:	55                   	push   %ebp
c0003b63:	89 e5                	mov    %esp,%ebp
c0003b65:	56                   	push   %esi
c0003b66:	53                   	push   %ebx
c0003b67:	81 ec c0 00 00 00    	sub    $0xc0,%esp
c0003b6d:	8b 45 10             	mov    0x10(%ebp),%eax
c0003b70:	89 85 40 ff ff ff    	mov    %eax,-0xc0(%ebp)
c0003b76:	8b 45 14             	mov    0x14(%ebp),%eax
c0003b79:	89 85 44 ff ff ff    	mov    %eax,-0xbc(%ebp)
c0003b7f:	c7 85 6d ff ff ff 30 	movl   $0x33323130,-0x93(%ebp)
c0003b86:	31 32 33 
c0003b89:	c7 85 71 ff ff ff 34 	movl   $0x37363534,-0x8f(%ebp)
c0003b90:	35 36 37 
c0003b93:	c7 85 75 ff ff ff 38 	movl   $0x62613938,-0x8b(%ebp)
c0003b9a:	39 61 62 
c0003b9d:	c7 85 79 ff ff ff 63 	movl   $0x66656463,-0x87(%ebp)
c0003ba4:	64 65 66 
c0003ba7:	c7 85 7d ff ff ff 67 	movl   $0x6a696867,-0x83(%ebp)
c0003bae:	68 69 6a 
c0003bb1:	c7 45 81 6b 6c 6d 6e 	movl   $0x6e6d6c6b,-0x7f(%ebp)
c0003bb8:	c7 45 85 6f 70 71 72 	movl   $0x7271706f,-0x7b(%ebp)
c0003bbf:	c7 45 89 73 74 75 76 	movl   $0x76757473,-0x77(%ebp)
c0003bc6:	c7 45 8d 77 78 79 7a 	movl   $0x7a797877,-0x73(%ebp)
c0003bcd:	c6 45 91 00          	movb   $0x0,-0x6f(%ebp)
c0003bd1:	c7 85 48 ff ff ff 30 	movl   $0x33323130,-0xb8(%ebp)
c0003bd8:	31 32 33 
c0003bdb:	c7 85 4c ff ff ff 34 	movl   $0x37363534,-0xb4(%ebp)
c0003be2:	35 36 37 
c0003be5:	c7 85 50 ff ff ff 38 	movl   $0x42413938,-0xb0(%ebp)
c0003bec:	39 41 42 
c0003bef:	c7 85 54 ff ff ff 43 	movl   $0x46454443,-0xac(%ebp)
c0003bf6:	44 45 46 
c0003bf9:	c7 85 58 ff ff ff 47 	movl   $0x4a494847,-0xa8(%ebp)
c0003c00:	48 49 4a 
c0003c03:	c7 85 5c ff ff ff 4b 	movl   $0x4e4d4c4b,-0xa4(%ebp)
c0003c0a:	4c 4d 4e 
c0003c0d:	c7 85 60 ff ff ff 4f 	movl   $0x5251504f,-0xa0(%ebp)
c0003c14:	50 51 52 
c0003c17:	c7 85 64 ff ff ff 53 	movl   $0x56555453,-0x9c(%ebp)
c0003c1e:	54 55 56 
c0003c21:	c7 85 68 ff ff ff 57 	movl   $0x5a595857,-0x98(%ebp)
c0003c28:	58 59 5a 
c0003c2b:	c6 85 6c ff ff ff 00 	movb   $0x0,-0x94(%ebp)
c0003c32:	8b 45 24             	mov    0x24(%ebp),%eax
c0003c35:	83 e0 40             	and    $0x40,%eax
c0003c38:	85 c0                	test   %eax,%eax
c0003c3a:	74 08                	je     c0003c44 <number+0xe2>
c0003c3c:	8d 85 48 ff ff ff    	lea    -0xb8(%ebp),%eax
c0003c42:	eb 06                	jmp    c0003c4a <number+0xe8>
c0003c44:	8d 85 6d ff ff ff    	lea    -0x93(%ebp),%eax
c0003c4a:	89 45 e4             	mov    %eax,-0x1c(%ebp)
c0003c4d:	8b 45 24             	mov    0x24(%ebp),%eax
c0003c50:	83 e0 10             	and    $0x10,%eax
c0003c53:	85 c0                	test   %eax,%eax
c0003c55:	74 04                	je     c0003c5b <number+0xf9>
c0003c57:	83 65 24 fe          	andl   $0xfffffffe,0x24(%ebp)
c0003c5b:	83 7d 18 01          	cmpl   $0x1,0x18(%ebp)
c0003c5f:	7e 06                	jle    c0003c67 <number+0x105>
c0003c61:	83 7d 18 24          	cmpl   $0x24,0x18(%ebp)
c0003c65:	7e 0a                	jle    c0003c71 <number+0x10f>
c0003c67:	b8 00 00 00 00       	mov    $0x0,%eax
c0003c6c:	e9 d1 02 00 00       	jmp    c0003f42 <number+0x3e0>
c0003c71:	8b 45 24             	mov    0x24(%ebp),%eax
c0003c74:	83 e0 01             	and    $0x1,%eax
c0003c77:	84 c0                	test   %al,%al
c0003c79:	74 07                	je     c0003c82 <number+0x120>
c0003c7b:	b8 30 00 00 00       	mov    $0x30,%eax
c0003c80:	eb 05                	jmp    c0003c87 <number+0x125>
c0003c82:	b8 20 00 00 00       	mov    $0x20,%eax
c0003c87:	88 45 e3             	mov    %al,-0x1d(%ebp)
c0003c8a:	c6 45 f7 00          	movb   $0x0,-0x9(%ebp)
c0003c8e:	8b 45 24             	mov    0x24(%ebp),%eax
c0003c91:	83 e0 02             	and    $0x2,%eax
c0003c94:	85 c0                	test   %eax,%eax
c0003c96:	74 4c                	je     c0003ce4 <number+0x182>
c0003c98:	83 bd 44 ff ff ff 00 	cmpl   $0x0,-0xbc(%ebp)
c0003c9f:	79 1d                	jns    c0003cbe <number+0x15c>
c0003ca1:	c6 45 f7 2d          	movb   $0x2d,-0x9(%ebp)
c0003ca5:	f7 9d 40 ff ff ff    	negl   -0xc0(%ebp)
c0003cab:	83 95 44 ff ff ff 00 	adcl   $0x0,-0xbc(%ebp)
c0003cb2:	f7 9d 44 ff ff ff    	negl   -0xbc(%ebp)
c0003cb8:	83 6d 1c 01          	subl   $0x1,0x1c(%ebp)
c0003cbc:	eb 26                	jmp    c0003ce4 <number+0x182>
c0003cbe:	8b 45 24             	mov    0x24(%ebp),%eax
c0003cc1:	83 e0 04             	and    $0x4,%eax
c0003cc4:	85 c0                	test   %eax,%eax
c0003cc6:	74 0a                	je     c0003cd2 <number+0x170>
c0003cc8:	c6 45 f7 2b          	movb   $0x2b,-0x9(%ebp)
c0003ccc:	83 6d 1c 01          	subl   $0x1,0x1c(%ebp)
c0003cd0:	eb 12                	jmp    c0003ce4 <number+0x182>
c0003cd2:	8b 45 24             	mov    0x24(%ebp),%eax
c0003cd5:	83 e0 08             	and    $0x8,%eax
c0003cd8:	85 c0                	test   %eax,%eax
c0003cda:	74 08                	je     c0003ce4 <number+0x182>
c0003cdc:	c6 45 f7 20          	movb   $0x20,-0x9(%ebp)
c0003ce0:	83 6d 1c 01          	subl   $0x1,0x1c(%ebp)
c0003ce4:	8b 45 24             	mov    0x24(%ebp),%eax
c0003ce7:	83 e0 20             	and    $0x20,%eax
c0003cea:	85 c0                	test   %eax,%eax
c0003cec:	74 16                	je     c0003d04 <number+0x1a2>
c0003cee:	83 7d 18 10          	cmpl   $0x10,0x18(%ebp)
c0003cf2:	75 06                	jne    c0003cfa <number+0x198>
c0003cf4:	83 6d 1c 02          	subl   $0x2,0x1c(%ebp)
c0003cf8:	eb 0a                	jmp    c0003d04 <number+0x1a2>
c0003cfa:	83 7d 18 08          	cmpl   $0x8,0x18(%ebp)
c0003cfe:	75 04                	jne    c0003d04 <number+0x1a2>
c0003d00:	83 6d 1c 01          	subl   $0x1,0x1c(%ebp)
c0003d04:	c7 45 f0 00 00 00 00 	movl   $0x0,-0x10(%ebp)
c0003d0b:	8b 85 40 ff ff ff    	mov    -0xc0(%ebp),%eax
c0003d11:	8b 95 44 ff ff ff    	mov    -0xbc(%ebp),%edx
c0003d17:	09 d0                	or     %edx,%eax
c0003d19:	85 c0                	test   %eax,%eax
c0003d1b:	0f 85 b0 00 00 00    	jne    c0003dd1 <number+0x26f>
c0003d21:	8d 45 92             	lea    -0x6e(%ebp),%eax
c0003d24:	03 45 f0             	add    -0x10(%ebp),%eax
c0003d27:	c6 00 30             	movb   $0x30,(%eax)
c0003d2a:	83 45 f0 01          	addl   $0x1,-0x10(%ebp)
c0003d2e:	e9 b4 00 00 00       	jmp    c0003de7 <number+0x285>
c0003d33:	8b 45 18             	mov    0x18(%ebp),%eax
c0003d36:	89 45 dc             	mov    %eax,-0x24(%ebp)
c0003d39:	8b 85 40 ff ff ff    	mov    -0xc0(%ebp),%eax
c0003d3f:	8b 95 44 ff ff ff    	mov    -0xbc(%ebp),%edx
c0003d45:	89 85 38 ff ff ff    	mov    %eax,-0xc8(%ebp)
c0003d4b:	89 95 3c ff ff ff    	mov    %edx,-0xc4(%ebp)
c0003d51:	8b 85 38 ff ff ff    	mov    -0xc8(%ebp),%eax
c0003d57:	8b 95 3c ff ff ff    	mov    -0xc4(%ebp),%edx
c0003d5d:	89 d3                	mov    %edx,%ebx
c0003d5f:	89 c6                	mov    %eax,%esi
c0003d61:	89 75 d8             	mov    %esi,-0x28(%ebp)
c0003d64:	89 5d e8             	mov    %ebx,-0x18(%ebp)
c0003d67:	8b 45 e8             	mov    -0x18(%ebp),%eax
c0003d6a:	89 45 ec             	mov    %eax,-0x14(%ebp)
c0003d6d:	83 7d e8 00          	cmpl   $0x0,-0x18(%ebp)
c0003d71:	74 1c                	je     c0003d8f <number+0x22d>
c0003d73:	8b 45 e8             	mov    -0x18(%ebp),%eax
c0003d76:	ba 00 00 00 00       	mov    $0x0,%edx
c0003d7b:	f7 75 dc             	divl   -0x24(%ebp)
c0003d7e:	89 55 ec             	mov    %edx,-0x14(%ebp)
c0003d81:	8b 45 e8             	mov    -0x18(%ebp),%eax
c0003d84:	ba 00 00 00 00       	mov    $0x0,%edx
c0003d89:	f7 75 dc             	divl   -0x24(%ebp)
c0003d8c:	89 45 e8             	mov    %eax,-0x18(%ebp)
c0003d8f:	8b 55 d8             	mov    -0x28(%ebp),%edx
c0003d92:	8b 45 ec             	mov    -0x14(%ebp),%eax
c0003d95:	89 d6                	mov    %edx,%esi
c0003d97:	89 c3                	mov    %eax,%ebx
c0003d99:	89 f0                	mov    %esi,%eax
c0003d9b:	89 da                	mov    %ebx,%edx
c0003d9d:	f7 75 dc             	divl   -0x24(%ebp)
c0003da0:	89 d3                	mov    %edx,%ebx
c0003da2:	89 c6                	mov    %eax,%esi
c0003da4:	89 75 d8             	mov    %esi,-0x28(%ebp)
c0003da7:	89 5d d4             	mov    %ebx,-0x2c(%ebp)
c0003daa:	8b 45 d8             	mov    -0x28(%ebp),%eax
c0003dad:	8b 55 e8             	mov    -0x18(%ebp),%edx
c0003db0:	89 85 40 ff ff ff    	mov    %eax,-0xc0(%ebp)
c0003db6:	89 95 44 ff ff ff    	mov    %edx,-0xbc(%ebp)
c0003dbc:	8b 45 d4             	mov    -0x2c(%ebp),%eax
c0003dbf:	03 45 e4             	add    -0x1c(%ebp),%eax
c0003dc2:	0f b6 10             	movzbl (%eax),%edx
c0003dc5:	8d 45 92             	lea    -0x6e(%ebp),%eax
c0003dc8:	03 45 f0             	add    -0x10(%ebp),%eax
c0003dcb:	88 10                	mov    %dl,(%eax)
c0003dcd:	83 45 f0 01          	addl   $0x1,-0x10(%ebp)
c0003dd1:	8b 85 40 ff ff ff    	mov    -0xc0(%ebp),%eax
c0003dd7:	8b 95 44 ff ff ff    	mov    -0xbc(%ebp),%edx
c0003ddd:	09 d0                	or     %edx,%eax
c0003ddf:	85 c0                	test   %eax,%eax
c0003de1:	0f 85 4c ff ff ff    	jne    c0003d33 <number+0x1d1>
c0003de7:	8b 45 f0             	mov    -0x10(%ebp),%eax
c0003dea:	3b 45 20             	cmp    0x20(%ebp),%eax
c0003ded:	7e 06                	jle    c0003df5 <number+0x293>
c0003def:	8b 45 f0             	mov    -0x10(%ebp),%eax
c0003df2:	89 45 20             	mov    %eax,0x20(%ebp)
c0003df5:	8b 45 20             	mov    0x20(%ebp),%eax
c0003df8:	29 45 1c             	sub    %eax,0x1c(%ebp)
c0003dfb:	8b 45 24             	mov    0x24(%ebp),%eax
c0003dfe:	83 e0 11             	and    $0x11,%eax
c0003e01:	85 c0                	test   %eax,%eax
c0003e03:	75 23                	jne    c0003e28 <number+0x2c6>
c0003e05:	eb 12                	jmp    c0003e19 <number+0x2b7>
c0003e07:	8b 45 08             	mov    0x8(%ebp),%eax
c0003e0a:	3b 45 0c             	cmp    0xc(%ebp),%eax
c0003e0d:	77 06                	ja     c0003e15 <number+0x2b3>
c0003e0f:	8b 45 08             	mov    0x8(%ebp),%eax
c0003e12:	c6 00 20             	movb   $0x20,(%eax)
c0003e15:	83 45 08 01          	addl   $0x1,0x8(%ebp)
c0003e19:	83 7d 1c 00          	cmpl   $0x0,0x1c(%ebp)
c0003e1d:	0f 9f c0             	setg   %al
c0003e20:	83 6d 1c 01          	subl   $0x1,0x1c(%ebp)
c0003e24:	84 c0                	test   %al,%al
c0003e26:	75 df                	jne    c0003e07 <number+0x2a5>
c0003e28:	80 7d f7 00          	cmpb   $0x0,-0x9(%ebp)
c0003e2c:	74 15                	je     c0003e43 <number+0x2e1>
c0003e2e:	8b 45 08             	mov    0x8(%ebp),%eax
c0003e31:	3b 45 0c             	cmp    0xc(%ebp),%eax
c0003e34:	77 09                	ja     c0003e3f <number+0x2dd>
c0003e36:	8b 45 08             	mov    0x8(%ebp),%eax
c0003e39:	0f b6 55 f7          	movzbl -0x9(%ebp),%edx
c0003e3d:	88 10                	mov    %dl,(%eax)
c0003e3f:	83 45 08 01          	addl   $0x1,0x8(%ebp)
c0003e43:	8b 45 24             	mov    0x24(%ebp),%eax
c0003e46:	83 e0 20             	and    $0x20,%eax
c0003e49:	85 c0                	test   %eax,%eax
c0003e4b:	74 4c                	je     c0003e99 <number+0x337>
c0003e4d:	83 7d 18 08          	cmpl   $0x8,0x18(%ebp)
c0003e51:	75 14                	jne    c0003e67 <number+0x305>
c0003e53:	8b 45 08             	mov    0x8(%ebp),%eax
c0003e56:	3b 45 0c             	cmp    0xc(%ebp),%eax
c0003e59:	77 06                	ja     c0003e61 <number+0x2ff>
c0003e5b:	8b 45 08             	mov    0x8(%ebp),%eax
c0003e5e:	c6 00 30             	movb   $0x30,(%eax)
c0003e61:	83 45 08 01          	addl   $0x1,0x8(%ebp)
c0003e65:	eb 32                	jmp    c0003e99 <number+0x337>
c0003e67:	83 7d 18 10          	cmpl   $0x10,0x18(%ebp)
c0003e6b:	75 2c                	jne    c0003e99 <number+0x337>
c0003e6d:	8b 45 08             	mov    0x8(%ebp),%eax
c0003e70:	3b 45 0c             	cmp    0xc(%ebp),%eax
c0003e73:	77 06                	ja     c0003e7b <number+0x319>
c0003e75:	8b 45 08             	mov    0x8(%ebp),%eax
c0003e78:	c6 00 30             	movb   $0x30,(%eax)
c0003e7b:	83 45 08 01          	addl   $0x1,0x8(%ebp)
c0003e7f:	8b 45 08             	mov    0x8(%ebp),%eax
c0003e82:	3b 45 0c             	cmp    0xc(%ebp),%eax
c0003e85:	77 0e                	ja     c0003e95 <number+0x333>
c0003e87:	8b 45 e4             	mov    -0x1c(%ebp),%eax
c0003e8a:	83 c0 21             	add    $0x21,%eax
c0003e8d:	0f b6 10             	movzbl (%eax),%edx
c0003e90:	8b 45 08             	mov    0x8(%ebp),%eax
c0003e93:	88 10                	mov    %dl,(%eax)
c0003e95:	83 45 08 01          	addl   $0x1,0x8(%ebp)
c0003e99:	8b 45 24             	mov    0x24(%ebp),%eax
c0003e9c:	83 e0 10             	and    $0x10,%eax
c0003e9f:	85 c0                	test   %eax,%eax
c0003ea1:	75 3c                	jne    c0003edf <number+0x37d>
c0003ea3:	eb 15                	jmp    c0003eba <number+0x358>
c0003ea5:	8b 45 08             	mov    0x8(%ebp),%eax
c0003ea8:	3b 45 0c             	cmp    0xc(%ebp),%eax
c0003eab:	77 09                	ja     c0003eb6 <number+0x354>
c0003ead:	8b 45 08             	mov    0x8(%ebp),%eax
c0003eb0:	0f b6 55 e3          	movzbl -0x1d(%ebp),%edx
c0003eb4:	88 10                	mov    %dl,(%eax)
c0003eb6:	83 45 08 01          	addl   $0x1,0x8(%ebp)
c0003eba:	83 7d 1c 00          	cmpl   $0x0,0x1c(%ebp)
c0003ebe:	0f 9f c0             	setg   %al
c0003ec1:	83 6d 1c 01          	subl   $0x1,0x1c(%ebp)
c0003ec5:	84 c0                	test   %al,%al
c0003ec7:	75 dc                	jne    c0003ea5 <number+0x343>
c0003ec9:	eb 15                	jmp    c0003ee0 <number+0x37e>
c0003ecb:	8b 45 08             	mov    0x8(%ebp),%eax
c0003ece:	3b 45 0c             	cmp    0xc(%ebp),%eax
c0003ed1:	77 06                	ja     c0003ed9 <number+0x377>
c0003ed3:	8b 45 08             	mov    0x8(%ebp),%eax
c0003ed6:	c6 00 30             	movb   $0x30,(%eax)
c0003ed9:	83 45 08 01          	addl   $0x1,0x8(%ebp)
c0003edd:	eb 01                	jmp    c0003ee0 <number+0x37e>
c0003edf:	90                   	nop
c0003ee0:	8b 45 20             	mov    0x20(%ebp),%eax
c0003ee3:	3b 45 f0             	cmp    -0x10(%ebp),%eax
c0003ee6:	0f 9f c0             	setg   %al
c0003ee9:	83 6d 20 01          	subl   $0x1,0x20(%ebp)
c0003eed:	84 c0                	test   %al,%al
c0003eef:	75 da                	jne    c0003ecb <number+0x369>
c0003ef1:	eb 1a                	jmp    c0003f0d <number+0x3ab>
c0003ef3:	8b 45 08             	mov    0x8(%ebp),%eax
c0003ef6:	3b 45 0c             	cmp    0xc(%ebp),%eax
c0003ef9:	77 0e                	ja     c0003f09 <number+0x3a7>
c0003efb:	8d 45 92             	lea    -0x6e(%ebp),%eax
c0003efe:	03 45 f0             	add    -0x10(%ebp),%eax
c0003f01:	0f b6 10             	movzbl (%eax),%edx
c0003f04:	8b 45 08             	mov    0x8(%ebp),%eax
c0003f07:	88 10                	mov    %dl,(%eax)
c0003f09:	83 45 08 01          	addl   $0x1,0x8(%ebp)
c0003f0d:	83 7d f0 00          	cmpl   $0x0,-0x10(%ebp)
c0003f11:	0f 9f c0             	setg   %al
c0003f14:	83 6d f0 01          	subl   $0x1,-0x10(%ebp)
c0003f18:	84 c0                	test   %al,%al
c0003f1a:	75 d7                	jne    c0003ef3 <number+0x391>
c0003f1c:	eb 12                	jmp    c0003f30 <number+0x3ce>
c0003f1e:	8b 45 08             	mov    0x8(%ebp),%eax
c0003f21:	3b 45 0c             	cmp    0xc(%ebp),%eax
c0003f24:	77 06                	ja     c0003f2c <number+0x3ca>
c0003f26:	8b 45 08             	mov    0x8(%ebp),%eax
c0003f29:	c6 00 20             	movb   $0x20,(%eax)
c0003f2c:	83 45 08 01          	addl   $0x1,0x8(%ebp)
c0003f30:	83 7d 1c 00          	cmpl   $0x0,0x1c(%ebp)
c0003f34:	0f 9f c0             	setg   %al
c0003f37:	83 6d 1c 01          	subl   $0x1,0x1c(%ebp)
c0003f3b:	84 c0                	test   %al,%al
c0003f3d:	75 df                	jne    c0003f1e <number+0x3bc>
c0003f3f:	8b 45 08             	mov    0x8(%ebp),%eax
c0003f42:	81 c4 c0 00 00 00    	add    $0xc0,%esp
c0003f48:	5b                   	pop    %ebx
c0003f49:	5e                   	pop    %esi
c0003f4a:	5d                   	pop    %ebp
c0003f4b:	c3                   	ret    

c0003f4c <vsnprintf>:
vsnprintf():
c0003f4c:	55                   	push   %ebp
c0003f4d:	89 e5                	mov    %esp,%ebp
c0003f4f:	83 ec 68             	sub    $0x68,%esp
c0003f52:	8b 45 08             	mov    0x8(%ebp),%eax
c0003f55:	89 45 e4             	mov    %eax,-0x1c(%ebp)
c0003f58:	8b 45 0c             	mov    0xc(%ebp),%eax
c0003f5b:	83 e8 01             	sub    $0x1,%eax
c0003f5e:	03 45 08             	add    0x8(%ebp),%eax
c0003f61:	89 45 e0             	mov    %eax,-0x20(%ebp)
c0003f64:	8b 45 08             	mov    0x8(%ebp),%eax
c0003f67:	83 e8 01             	sub    $0x1,%eax
c0003f6a:	3b 45 e0             	cmp    -0x20(%ebp),%eax
c0003f6d:	0f 86 9b 05 00 00    	jbe    c000450e <vsnprintf+0x5c2>
c0003f73:	c7 45 e0 ff ff ff ff 	movl   $0xffffffff,-0x20(%ebp)
c0003f7a:	8b 55 e0             	mov    -0x20(%ebp),%edx
c0003f7d:	8b 45 08             	mov    0x8(%ebp),%eax
c0003f80:	89 d1                	mov    %edx,%ecx
c0003f82:	29 c1                	sub    %eax,%ecx
c0003f84:	89 c8                	mov    %ecx,%eax
c0003f86:	83 c0 01             	add    $0x1,%eax
c0003f89:	89 45 0c             	mov    %eax,0xc(%ebp)
c0003f8c:	e9 7e 05 00 00       	jmp    c000450f <vsnprintf+0x5c3>
c0003f91:	8b 45 10             	mov    0x10(%ebp),%eax
c0003f94:	0f b6 00             	movzbl (%eax),%eax
c0003f97:	3c 25                	cmp    $0x25,%al
c0003f99:	74 1c                	je     c0003fb7 <vsnprintf+0x6b>
c0003f9b:	8b 45 e4             	mov    -0x1c(%ebp),%eax
c0003f9e:	3b 45 e0             	cmp    -0x20(%ebp),%eax
c0003fa1:	77 0b                	ja     c0003fae <vsnprintf+0x62>
c0003fa3:	8b 45 10             	mov    0x10(%ebp),%eax
c0003fa6:	0f b6 10             	movzbl (%eax),%edx
c0003fa9:	8b 45 e4             	mov    -0x1c(%ebp),%eax
c0003fac:	88 10                	mov    %dl,(%eax)
c0003fae:	83 45 e4 01          	addl   $0x1,-0x1c(%ebp)
c0003fb2:	e9 4c 05 00 00       	jmp    c0004503 <vsnprintf+0x5b7>
c0003fb7:	c7 45 d8 00 00 00 00 	movl   $0x0,-0x28(%ebp)
c0003fbe:	8b 45 10             	mov    0x10(%ebp),%eax
c0003fc1:	83 c0 01             	add    $0x1,%eax
c0003fc4:	89 45 10             	mov    %eax,0x10(%ebp)
c0003fc7:	8b 45 10             	mov    0x10(%ebp),%eax
c0003fca:	0f b6 00             	movzbl (%eax),%eax
c0003fcd:	0f be c0             	movsbl %al,%eax
c0003fd0:	83 e8 20             	sub    $0x20,%eax
c0003fd3:	83 f8 10             	cmp    $0x10,%eax
c0003fd6:	77 27                	ja     c0003fff <vsnprintf+0xb3>
c0003fd8:	8b 04 85 ac 50 00 c0 	mov    -0x3fffaf54(,%eax,4),%eax
c0003fdf:	ff e0                	jmp    *%eax
c0003fe1:	83 4d d8 10          	orl    $0x10,-0x28(%ebp)
c0003fe5:	eb d7                	jmp    c0003fbe <vsnprintf+0x72>
c0003fe7:	83 4d d8 04          	orl    $0x4,-0x28(%ebp)
c0003feb:	eb d1                	jmp    c0003fbe <vsnprintf+0x72>
c0003fed:	83 4d d8 08          	orl    $0x8,-0x28(%ebp)
c0003ff1:	eb cb                	jmp    c0003fbe <vsnprintf+0x72>
c0003ff3:	83 4d d8 20          	orl    $0x20,-0x28(%ebp)
c0003ff7:	eb c5                	jmp    c0003fbe <vsnprintf+0x72>
c0003ff9:	83 4d d8 01          	orl    $0x1,-0x28(%ebp)
c0003ffd:	eb bf                	jmp    c0003fbe <vsnprintf+0x72>
c0003fff:	c7 45 d4 ff ff ff ff 	movl   $0xffffffff,-0x2c(%ebp)
c0004006:	8b 45 10             	mov    0x10(%ebp),%eax
c0004009:	0f b6 00             	movzbl (%eax),%eax
c000400c:	0f b6 c0             	movzbl %al,%eax
c000400f:	0f b6 80 40 64 00 c0 	movzbl -0x3fff9bc0(%eax),%eax
c0004016:	0f b6 c0             	movzbl %al,%eax
c0004019:	83 e0 04             	and    $0x4,%eax
c000401c:	85 c0                	test   %eax,%eax
c000401e:	74 10                	je     c0004030 <vsnprintf+0xe4>
c0004020:	8d 45 10             	lea    0x10(%ebp),%eax
c0004023:	89 04 24             	mov    %eax,(%esp)
c0004026:	e8 dd fa ff ff       	call   c0003b08 <skip_atoi>
c000402b:	89 45 d4             	mov    %eax,-0x2c(%ebp)
c000402e:	eb 2f                	jmp    c000405f <vsnprintf+0x113>
c0004030:	8b 45 10             	mov    0x10(%ebp),%eax
c0004033:	0f b6 00             	movzbl (%eax),%eax
c0004036:	3c 2a                	cmp    $0x2a,%al
c0004038:	75 25                	jne    c000405f <vsnprintf+0x113>
c000403a:	8b 45 10             	mov    0x10(%ebp),%eax
c000403d:	83 c0 01             	add    $0x1,%eax
c0004040:	89 45 10             	mov    %eax,0x10(%ebp)
c0004043:	83 45 14 04          	addl   $0x4,0x14(%ebp)
c0004047:	8b 45 14             	mov    0x14(%ebp),%eax
c000404a:	83 e8 04             	sub    $0x4,%eax
c000404d:	8b 00                	mov    (%eax),%eax
c000404f:	89 45 d4             	mov    %eax,-0x2c(%ebp)
c0004052:	83 7d d4 00          	cmpl   $0x0,-0x2c(%ebp)
c0004056:	79 07                	jns    c000405f <vsnprintf+0x113>
c0004058:	f7 5d d4             	negl   -0x2c(%ebp)
c000405b:	83 4d d8 10          	orl    $0x10,-0x28(%ebp)
c000405f:	c7 45 d0 ff ff ff ff 	movl   $0xffffffff,-0x30(%ebp)
c0004066:	8b 45 10             	mov    0x10(%ebp),%eax
c0004069:	0f b6 00             	movzbl (%eax),%eax
c000406c:	3c 2e                	cmp    $0x2e,%al
c000406e:	75 62                	jne    c00040d2 <vsnprintf+0x186>
c0004070:	8b 45 10             	mov    0x10(%ebp),%eax
c0004073:	83 c0 01             	add    $0x1,%eax
c0004076:	89 45 10             	mov    %eax,0x10(%ebp)
c0004079:	8b 45 10             	mov    0x10(%ebp),%eax
c000407c:	0f b6 00             	movzbl (%eax),%eax
c000407f:	0f b6 c0             	movzbl %al,%eax
c0004082:	0f b6 80 40 64 00 c0 	movzbl -0x3fff9bc0(%eax),%eax
c0004089:	0f b6 c0             	movzbl %al,%eax
c000408c:	83 e0 04             	and    $0x4,%eax
c000408f:	85 c0                	test   %eax,%eax
c0004091:	74 10                	je     c00040a3 <vsnprintf+0x157>
c0004093:	8d 45 10             	lea    0x10(%ebp),%eax
c0004096:	89 04 24             	mov    %eax,(%esp)
c0004099:	e8 6a fa ff ff       	call   c0003b08 <skip_atoi>
c000409e:	89 45 d0             	mov    %eax,-0x30(%ebp)
c00040a1:	eb 22                	jmp    c00040c5 <vsnprintf+0x179>
c00040a3:	8b 45 10             	mov    0x10(%ebp),%eax
c00040a6:	0f b6 00             	movzbl (%eax),%eax
c00040a9:	3c 2a                	cmp    $0x2a,%al
c00040ab:	75 18                	jne    c00040c5 <vsnprintf+0x179>
c00040ad:	8b 45 10             	mov    0x10(%ebp),%eax
c00040b0:	83 c0 01             	add    $0x1,%eax
c00040b3:	89 45 10             	mov    %eax,0x10(%ebp)
c00040b6:	83 45 14 04          	addl   $0x4,0x14(%ebp)
c00040ba:	8b 45 14             	mov    0x14(%ebp),%eax
c00040bd:	83 e8 04             	sub    $0x4,%eax
c00040c0:	8b 00                	mov    (%eax),%eax
c00040c2:	89 45 d0             	mov    %eax,-0x30(%ebp)
c00040c5:	83 7d d0 00          	cmpl   $0x0,-0x30(%ebp)
c00040c9:	79 07                	jns    c00040d2 <vsnprintf+0x186>
c00040cb:	c7 45 d0 00 00 00 00 	movl   $0x0,-0x30(%ebp)
c00040d2:	c7 45 cc ff ff ff ff 	movl   $0xffffffff,-0x34(%ebp)
c00040d9:	8b 45 10             	mov    0x10(%ebp),%eax
c00040dc:	0f b6 00             	movzbl (%eax),%eax
c00040df:	3c 68                	cmp    $0x68,%al
c00040e1:	74 1e                	je     c0004101 <vsnprintf+0x1b5>
c00040e3:	8b 45 10             	mov    0x10(%ebp),%eax
c00040e6:	0f b6 00             	movzbl (%eax),%eax
c00040e9:	3c 6c                	cmp    $0x6c,%al
c00040eb:	74 14                	je     c0004101 <vsnprintf+0x1b5>
c00040ed:	8b 45 10             	mov    0x10(%ebp),%eax
c00040f0:	0f b6 00             	movzbl (%eax),%eax
c00040f3:	3c 4c                	cmp    $0x4c,%al
c00040f5:	74 0a                	je     c0004101 <vsnprintf+0x1b5>
c00040f7:	8b 45 10             	mov    0x10(%ebp),%eax
c00040fa:	0f b6 00             	movzbl (%eax),%eax
c00040fd:	3c 5a                	cmp    $0x5a,%al
c00040ff:	75 35                	jne    c0004136 <vsnprintf+0x1ea>
c0004101:	8b 45 10             	mov    0x10(%ebp),%eax
c0004104:	0f b6 00             	movzbl (%eax),%eax
c0004107:	0f be c0             	movsbl %al,%eax
c000410a:	89 45 cc             	mov    %eax,-0x34(%ebp)
c000410d:	8b 45 10             	mov    0x10(%ebp),%eax
c0004110:	83 c0 01             	add    $0x1,%eax
c0004113:	89 45 10             	mov    %eax,0x10(%ebp)
c0004116:	83 7d cc 6c          	cmpl   $0x6c,-0x34(%ebp)
c000411a:	75 1a                	jne    c0004136 <vsnprintf+0x1ea>
c000411c:	8b 45 10             	mov    0x10(%ebp),%eax
c000411f:	0f b6 00             	movzbl (%eax),%eax
c0004122:	3c 6c                	cmp    $0x6c,%al
c0004124:	75 10                	jne    c0004136 <vsnprintf+0x1ea>
c0004126:	c7 45 cc 4c 00 00 00 	movl   $0x4c,-0x34(%ebp)
c000412d:	8b 45 10             	mov    0x10(%ebp),%eax
c0004130:	83 c0 01             	add    $0x1,%eax
c0004133:	89 45 10             	mov    %eax,0x10(%ebp)
c0004136:	c7 45 e8 0a 00 00 00 	movl   $0xa,-0x18(%ebp)
c000413d:	8b 45 10             	mov    0x10(%ebp),%eax
c0004140:	0f b6 00             	movzbl (%eax),%eax
c0004143:	0f be c0             	movsbl %al,%eax
c0004146:	83 e8 25             	sub    $0x25,%eax
c0004149:	83 f8 53             	cmp    $0x53,%eax
c000414c:	0f 87 44 02 00 00    	ja     c0004396 <vsnprintf+0x44a>
c0004152:	8b 04 85 f0 50 00 c0 	mov    -0x3fffaf10(,%eax,4),%eax
c0004159:	ff e0                	jmp    *%eax
c000415b:	8b 45 d8             	mov    -0x28(%ebp),%eax
c000415e:	83 e0 10             	and    $0x10,%eax
c0004161:	85 c0                	test   %eax,%eax
c0004163:	75 1e                	jne    c0004183 <vsnprintf+0x237>
c0004165:	eb 12                	jmp    c0004179 <vsnprintf+0x22d>
c0004167:	8b 45 e4             	mov    -0x1c(%ebp),%eax
c000416a:	3b 45 e0             	cmp    -0x20(%ebp),%eax
c000416d:	77 06                	ja     c0004175 <vsnprintf+0x229>
c000416f:	8b 45 e4             	mov    -0x1c(%ebp),%eax
c0004172:	c6 00 20             	movb   $0x20,(%eax)
c0004175:	83 45 e4 01          	addl   $0x1,-0x1c(%ebp)
c0004179:	83 6d d4 01          	subl   $0x1,-0x2c(%ebp)
c000417d:	83 7d d4 00          	cmpl   $0x0,-0x2c(%ebp)
c0004181:	7f e4                	jg     c0004167 <vsnprintf+0x21b>
c0004183:	83 45 14 04          	addl   $0x4,0x14(%ebp)
c0004187:	8b 45 14             	mov    0x14(%ebp),%eax
c000418a:	83 e8 04             	sub    $0x4,%eax
c000418d:	8b 00                	mov    (%eax),%eax
c000418f:	88 45 cb             	mov    %al,-0x35(%ebp)
c0004192:	8b 45 e4             	mov    -0x1c(%ebp),%eax
c0004195:	3b 45 e0             	cmp    -0x20(%ebp),%eax
c0004198:	77 09                	ja     c00041a3 <vsnprintf+0x257>
c000419a:	8b 45 e4             	mov    -0x1c(%ebp),%eax
c000419d:	0f b6 55 cb          	movzbl -0x35(%ebp),%edx
c00041a1:	88 10                	mov    %dl,(%eax)
c00041a3:	83 45 e4 01          	addl   $0x1,-0x1c(%ebp)
c00041a7:	eb 12                	jmp    c00041bb <vsnprintf+0x26f>
c00041a9:	8b 45 e4             	mov    -0x1c(%ebp),%eax
c00041ac:	3b 45 e0             	cmp    -0x20(%ebp),%eax
c00041af:	77 06                	ja     c00041b7 <vsnprintf+0x26b>
c00041b1:	8b 45 e4             	mov    -0x1c(%ebp),%eax
c00041b4:	c6 00 20             	movb   $0x20,(%eax)
c00041b7:	83 45 e4 01          	addl   $0x1,-0x1c(%ebp)
c00041bb:	83 6d d4 01          	subl   $0x1,-0x2c(%ebp)
c00041bf:	83 7d d4 00          	cmpl   $0x0,-0x2c(%ebp)
c00041c3:	7f e4                	jg     c00041a9 <vsnprintf+0x25d>
c00041c5:	e9 39 03 00 00       	jmp    c0004503 <vsnprintf+0x5b7>
c00041ca:	83 45 14 04          	addl   $0x4,0x14(%ebp)
c00041ce:	8b 45 14             	mov    0x14(%ebp),%eax
c00041d1:	83 e8 04             	sub    $0x4,%eax
c00041d4:	8b 00                	mov    (%eax),%eax
c00041d6:	89 45 dc             	mov    %eax,-0x24(%ebp)
c00041d9:	83 7d dc 00          	cmpl   $0x0,-0x24(%ebp)
c00041dd:	75 07                	jne    c00041e6 <vsnprintf+0x29a>
c00041df:	c7 45 dc a4 50 00 c0 	movl   $0xc00050a4,-0x24(%ebp)
c00041e6:	8b 45 d0             	mov    -0x30(%ebp),%eax
c00041e9:	89 44 24 04          	mov    %eax,0x4(%esp)
c00041ed:	8b 45 dc             	mov    -0x24(%ebp),%eax
c00041f0:	89 04 24             	mov    %eax,(%esp)
c00041f3:	e8 c7 f8 ff ff       	call   c0003abf <strnlen>
c00041f8:	89 45 c4             	mov    %eax,-0x3c(%ebp)
c00041fb:	8b 45 d8             	mov    -0x28(%ebp),%eax
c00041fe:	83 e0 10             	and    $0x10,%eax
c0004201:	85 c0                	test   %eax,%eax
c0004203:	75 25                	jne    c000422a <vsnprintf+0x2de>
c0004205:	eb 12                	jmp    c0004219 <vsnprintf+0x2cd>
c0004207:	8b 45 e4             	mov    -0x1c(%ebp),%eax
c000420a:	3b 45 e0             	cmp    -0x20(%ebp),%eax
c000420d:	77 06                	ja     c0004215 <vsnprintf+0x2c9>
c000420f:	8b 45 e4             	mov    -0x1c(%ebp),%eax
c0004212:	c6 00 20             	movb   $0x20,(%eax)
c0004215:	83 45 e4 01          	addl   $0x1,-0x1c(%ebp)
c0004219:	8b 45 d4             	mov    -0x2c(%ebp),%eax
c000421c:	3b 45 c4             	cmp    -0x3c(%ebp),%eax
c000421f:	0f 9f c0             	setg   %al
c0004222:	83 6d d4 01          	subl   $0x1,-0x2c(%ebp)
c0004226:	84 c0                	test   %al,%al
c0004228:	75 dd                	jne    c0004207 <vsnprintf+0x2bb>
c000422a:	c7 45 ec 00 00 00 00 	movl   $0x0,-0x14(%ebp)
c0004231:	eb 1f                	jmp    c0004252 <vsnprintf+0x306>
c0004233:	8b 45 e4             	mov    -0x1c(%ebp),%eax
c0004236:	3b 45 e0             	cmp    -0x20(%ebp),%eax
c0004239:	77 0b                	ja     c0004246 <vsnprintf+0x2fa>
c000423b:	8b 45 dc             	mov    -0x24(%ebp),%eax
c000423e:	0f b6 10             	movzbl (%eax),%edx
c0004241:	8b 45 e4             	mov    -0x1c(%ebp),%eax
c0004244:	88 10                	mov    %dl,(%eax)
c0004246:	83 45 e4 01          	addl   $0x1,-0x1c(%ebp)
c000424a:	83 45 dc 01          	addl   $0x1,-0x24(%ebp)
c000424e:	83 45 ec 01          	addl   $0x1,-0x14(%ebp)
c0004252:	8b 45 ec             	mov    -0x14(%ebp),%eax
c0004255:	3b 45 c4             	cmp    -0x3c(%ebp),%eax
c0004258:	7c d9                	jl     c0004233 <vsnprintf+0x2e7>
c000425a:	eb 12                	jmp    c000426e <vsnprintf+0x322>
c000425c:	8b 45 e4             	mov    -0x1c(%ebp),%eax
c000425f:	3b 45 e0             	cmp    -0x20(%ebp),%eax
c0004262:	77 06                	ja     c000426a <vsnprintf+0x31e>
c0004264:	8b 45 e4             	mov    -0x1c(%ebp),%eax
c0004267:	c6 00 20             	movb   $0x20,(%eax)
c000426a:	83 45 e4 01          	addl   $0x1,-0x1c(%ebp)
c000426e:	8b 45 d4             	mov    -0x2c(%ebp),%eax
c0004271:	3b 45 c4             	cmp    -0x3c(%ebp),%eax
c0004274:	0f 9f c0             	setg   %al
c0004277:	83 6d d4 01          	subl   $0x1,-0x2c(%ebp)
c000427b:	84 c0                	test   %al,%al
c000427d:	75 dd                	jne    c000425c <vsnprintf+0x310>
c000427f:	e9 7f 02 00 00       	jmp    c0004503 <vsnprintf+0x5b7>
c0004284:	83 7d d4 ff          	cmpl   $0xffffffff,-0x2c(%ebp)
c0004288:	75 0b                	jne    c0004295 <vsnprintf+0x349>
c000428a:	c7 45 d4 08 00 00 00 	movl   $0x8,-0x2c(%ebp)
c0004291:	83 4d d8 01          	orl    $0x1,-0x28(%ebp)
c0004295:	83 45 14 04          	addl   $0x4,0x14(%ebp)
c0004299:	8b 45 14             	mov    0x14(%ebp),%eax
c000429c:	83 e8 04             	sub    $0x4,%eax
c000429f:	8b 00                	mov    (%eax),%eax
c00042a1:	ba 00 00 00 00       	mov    $0x0,%edx
c00042a6:	8b 4d d8             	mov    -0x28(%ebp),%ecx
c00042a9:	89 4c 24 1c          	mov    %ecx,0x1c(%esp)
c00042ad:	8b 4d d0             	mov    -0x30(%ebp),%ecx
c00042b0:	89 4c 24 18          	mov    %ecx,0x18(%esp)
c00042b4:	8b 4d d4             	mov    -0x2c(%ebp),%ecx
c00042b7:	89 4c 24 14          	mov    %ecx,0x14(%esp)
c00042bb:	c7 44 24 10 10 00 00 	movl   $0x10,0x10(%esp)
c00042c2:	00 
c00042c3:	89 44 24 08          	mov    %eax,0x8(%esp)
c00042c7:	89 54 24 0c          	mov    %edx,0xc(%esp)
c00042cb:	8b 45 e0             	mov    -0x20(%ebp),%eax
c00042ce:	89 44 24 04          	mov    %eax,0x4(%esp)
c00042d2:	8b 45 e4             	mov    -0x1c(%ebp),%eax
c00042d5:	89 04 24             	mov    %eax,(%esp)
c00042d8:	e8 85 f8 ff ff       	call   c0003b62 <number>
c00042dd:	89 45 e4             	mov    %eax,-0x1c(%ebp)
c00042e0:	e9 1e 02 00 00       	jmp    c0004503 <vsnprintf+0x5b7>
c00042e5:	83 7d cc 6c          	cmpl   $0x6c,-0x34(%ebp)
c00042e9:	75 21                	jne    c000430c <vsnprintf+0x3c0>
c00042eb:	83 45 14 04          	addl   $0x4,0x14(%ebp)
c00042ef:	8b 45 14             	mov    0x14(%ebp),%eax
c00042f2:	83 e8 04             	sub    $0x4,%eax
c00042f5:	8b 00                	mov    (%eax),%eax
c00042f7:	89 45 c0             	mov    %eax,-0x40(%ebp)
c00042fa:	8b 55 e4             	mov    -0x1c(%ebp),%edx
c00042fd:	8b 45 08             	mov    0x8(%ebp),%eax
c0004300:	29 c2                	sub    %eax,%edx
c0004302:	8b 45 c0             	mov    -0x40(%ebp),%eax
c0004305:	89 10                	mov    %edx,(%eax)
c0004307:	e9 f7 01 00 00       	jmp    c0004503 <vsnprintf+0x5b7>
c000430c:	83 7d cc 5a          	cmpl   $0x5a,-0x34(%ebp)
c0004310:	75 27                	jne    c0004339 <vsnprintf+0x3ed>
c0004312:	83 45 14 04          	addl   $0x4,0x14(%ebp)
c0004316:	8b 45 14             	mov    0x14(%ebp),%eax
c0004319:	83 e8 04             	sub    $0x4,%eax
c000431c:	8b 00                	mov    (%eax),%eax
c000431e:	89 45 bc             	mov    %eax,-0x44(%ebp)
c0004321:	8b 55 e4             	mov    -0x1c(%ebp),%edx
c0004324:	8b 45 08             	mov    0x8(%ebp),%eax
c0004327:	89 d1                	mov    %edx,%ecx
c0004329:	29 c1                	sub    %eax,%ecx
c000432b:	89 c8                	mov    %ecx,%eax
c000432d:	89 c2                	mov    %eax,%edx
c000432f:	8b 45 bc             	mov    -0x44(%ebp),%eax
c0004332:	89 10                	mov    %edx,(%eax)
c0004334:	e9 ca 01 00 00       	jmp    c0004503 <vsnprintf+0x5b7>
c0004339:	83 45 14 04          	addl   $0x4,0x14(%ebp)
c000433d:	8b 45 14             	mov    0x14(%ebp),%eax
c0004340:	83 e8 04             	sub    $0x4,%eax
c0004343:	8b 00                	mov    (%eax),%eax
c0004345:	89 45 b8             	mov    %eax,-0x48(%ebp)
c0004348:	8b 55 e4             	mov    -0x1c(%ebp),%edx
c000434b:	8b 45 08             	mov    0x8(%ebp),%eax
c000434e:	29 c2                	sub    %eax,%edx
c0004350:	8b 45 b8             	mov    -0x48(%ebp),%eax
c0004353:	89 10                	mov    %edx,(%eax)
c0004355:	e9 a9 01 00 00       	jmp    c0004503 <vsnprintf+0x5b7>
c000435a:	8b 45 e4             	mov    -0x1c(%ebp),%eax
c000435d:	3b 45 e0             	cmp    -0x20(%ebp),%eax
c0004360:	77 06                	ja     c0004368 <vsnprintf+0x41c>
c0004362:	8b 45 e4             	mov    -0x1c(%ebp),%eax
c0004365:	c6 00 25             	movb   $0x25,(%eax)
c0004368:	83 45 e4 01          	addl   $0x1,-0x1c(%ebp)
c000436c:	e9 92 01 00 00       	jmp    c0004503 <vsnprintf+0x5b7>
c0004371:	c7 45 e8 08 00 00 00 	movl   $0x8,-0x18(%ebp)
c0004378:	eb 63                	jmp    c00043dd <vsnprintf+0x491>
c000437a:	83 4d d8 40          	orl    $0x40,-0x28(%ebp)
c000437e:	c7 45 e8 10 00 00 00 	movl   $0x10,-0x18(%ebp)
c0004385:	eb 56                	jmp    c00043dd <vsnprintf+0x491>
c0004387:	c7 45 e8 10 00 00 00 	movl   $0x10,-0x18(%ebp)
c000438e:	eb 4d                	jmp    c00043dd <vsnprintf+0x491>
c0004390:	83 4d d8 02          	orl    $0x2,-0x28(%ebp)
c0004394:	eb 47                	jmp    c00043dd <vsnprintf+0x491>
c0004396:	8b 45 e4             	mov    -0x1c(%ebp),%eax
c0004399:	3b 45 e0             	cmp    -0x20(%ebp),%eax
c000439c:	77 06                	ja     c00043a4 <vsnprintf+0x458>
c000439e:	8b 45 e4             	mov    -0x1c(%ebp),%eax
c00043a1:	c6 00 25             	movb   $0x25,(%eax)
c00043a4:	83 45 e4 01          	addl   $0x1,-0x1c(%ebp)
c00043a8:	8b 45 10             	mov    0x10(%ebp),%eax
c00043ab:	0f b6 00             	movzbl (%eax),%eax
c00043ae:	84 c0                	test   %al,%al
c00043b0:	74 1c                	je     c00043ce <vsnprintf+0x482>
c00043b2:	8b 45 e4             	mov    -0x1c(%ebp),%eax
c00043b5:	3b 45 e0             	cmp    -0x20(%ebp),%eax
c00043b8:	77 0b                	ja     c00043c5 <vsnprintf+0x479>
c00043ba:	8b 45 10             	mov    0x10(%ebp),%eax
c00043bd:	0f b6 10             	movzbl (%eax),%edx
c00043c0:	8b 45 e4             	mov    -0x1c(%ebp),%eax
c00043c3:	88 10                	mov    %dl,(%eax)
c00043c5:	83 45 e4 01          	addl   $0x1,-0x1c(%ebp)
c00043c9:	e9 35 01 00 00       	jmp    c0004503 <vsnprintf+0x5b7>
c00043ce:	8b 45 10             	mov    0x10(%ebp),%eax
c00043d1:	83 e8 01             	sub    $0x1,%eax
c00043d4:	89 45 10             	mov    %eax,0x10(%ebp)
c00043d7:	e9 27 01 00 00       	jmp    c0004503 <vsnprintf+0x5b7>
c00043dc:	90                   	nop
c00043dd:	83 7d cc 4c          	cmpl   $0x4c,-0x34(%ebp)
c00043e1:	75 1a                	jne    c00043fd <vsnprintf+0x4b1>
c00043e3:	83 45 14 08          	addl   $0x8,0x14(%ebp)
c00043e7:	8b 45 14             	mov    0x14(%ebp),%eax
c00043ea:	83 e8 08             	sub    $0x8,%eax
c00043ed:	8b 50 04             	mov    0x4(%eax),%edx
c00043f0:	8b 00                	mov    (%eax),%eax
c00043f2:	89 45 f0             	mov    %eax,-0x10(%ebp)
c00043f5:	89 55 f4             	mov    %edx,-0xc(%ebp)
c00043f8:	e9 c7 00 00 00       	jmp    c00044c4 <vsnprintf+0x578>
c00043fd:	83 7d cc 6c          	cmpl   $0x6c,-0x34(%ebp)
c0004401:	75 38                	jne    c000443b <vsnprintf+0x4ef>
c0004403:	83 45 14 04          	addl   $0x4,0x14(%ebp)
c0004407:	8b 45 14             	mov    0x14(%ebp),%eax
c000440a:	83 e8 04             	sub    $0x4,%eax
c000440d:	8b 00                	mov    (%eax),%eax
c000440f:	ba 00 00 00 00       	mov    $0x0,%edx
c0004414:	89 45 f0             	mov    %eax,-0x10(%ebp)
c0004417:	89 55 f4             	mov    %edx,-0xc(%ebp)
c000441a:	8b 45 d8             	mov    -0x28(%ebp),%eax
c000441d:	83 e0 02             	and    $0x2,%eax
c0004420:	85 c0                	test   %eax,%eax
c0004422:	0f 84 9c 00 00 00    	je     c00044c4 <vsnprintf+0x578>
c0004428:	8b 45 f0             	mov    -0x10(%ebp),%eax
c000442b:	89 c2                	mov    %eax,%edx
c000442d:	c1 fa 1f             	sar    $0x1f,%edx
c0004430:	89 45 f0             	mov    %eax,-0x10(%ebp)
c0004433:	89 55 f4             	mov    %edx,-0xc(%ebp)
c0004436:	e9 89 00 00 00       	jmp    c00044c4 <vsnprintf+0x578>
c000443b:	83 7d cc 5a          	cmpl   $0x5a,-0x34(%ebp)
c000443f:	75 19                	jne    c000445a <vsnprintf+0x50e>
c0004441:	83 45 14 04          	addl   $0x4,0x14(%ebp)
c0004445:	8b 45 14             	mov    0x14(%ebp),%eax
c0004448:	83 e8 04             	sub    $0x4,%eax
c000444b:	8b 00                	mov    (%eax),%eax
c000444d:	ba 00 00 00 00       	mov    $0x0,%edx
c0004452:	89 45 f0             	mov    %eax,-0x10(%ebp)
c0004455:	89 55 f4             	mov    %edx,-0xc(%ebp)
c0004458:	eb 6a                	jmp    c00044c4 <vsnprintf+0x578>
c000445a:	83 7d cc 68          	cmpl   $0x68,-0x34(%ebp)
c000445e:	75 35                	jne    c0004495 <vsnprintf+0x549>
c0004460:	83 45 14 04          	addl   $0x4,0x14(%ebp)
c0004464:	8b 45 14             	mov    0x14(%ebp),%eax
c0004467:	83 e8 04             	sub    $0x4,%eax
c000446a:	8b 00                	mov    (%eax),%eax
c000446c:	0f b7 c0             	movzwl %ax,%eax
c000446f:	ba 00 00 00 00       	mov    $0x0,%edx
c0004474:	89 45 f0             	mov    %eax,-0x10(%ebp)
c0004477:	89 55 f4             	mov    %edx,-0xc(%ebp)
c000447a:	8b 45 d8             	mov    -0x28(%ebp),%eax
c000447d:	83 e0 02             	and    $0x2,%eax
c0004480:	85 c0                	test   %eax,%eax
c0004482:	74 40                	je     c00044c4 <vsnprintf+0x578>
c0004484:	8b 45 f0             	mov    -0x10(%ebp),%eax
c0004487:	98                   	cwtl   
c0004488:	89 c2                	mov    %eax,%edx
c000448a:	c1 fa 1f             	sar    $0x1f,%edx
c000448d:	89 45 f0             	mov    %eax,-0x10(%ebp)
c0004490:	89 55 f4             	mov    %edx,-0xc(%ebp)
c0004493:	eb 2f                	jmp    c00044c4 <vsnprintf+0x578>
c0004495:	83 45 14 04          	addl   $0x4,0x14(%ebp)
c0004499:	8b 45 14             	mov    0x14(%ebp),%eax
c000449c:	83 e8 04             	sub    $0x4,%eax
c000449f:	8b 00                	mov    (%eax),%eax
c00044a1:	ba 00 00 00 00       	mov    $0x0,%edx
c00044a6:	89 45 f0             	mov    %eax,-0x10(%ebp)
c00044a9:	89 55 f4             	mov    %edx,-0xc(%ebp)
c00044ac:	8b 45 d8             	mov    -0x28(%ebp),%eax
c00044af:	83 e0 02             	and    $0x2,%eax
c00044b2:	85 c0                	test   %eax,%eax
c00044b4:	74 0e                	je     c00044c4 <vsnprintf+0x578>
c00044b6:	8b 45 f0             	mov    -0x10(%ebp),%eax
c00044b9:	89 c2                	mov    %eax,%edx
c00044bb:	c1 fa 1f             	sar    $0x1f,%edx
c00044be:	89 45 f0             	mov    %eax,-0x10(%ebp)
c00044c1:	89 55 f4             	mov    %edx,-0xc(%ebp)
c00044c4:	8b 45 f0             	mov    -0x10(%ebp),%eax
c00044c7:	8b 55 f4             	mov    -0xc(%ebp),%edx
c00044ca:	8b 4d d8             	mov    -0x28(%ebp),%ecx
c00044cd:	89 4c 24 1c          	mov    %ecx,0x1c(%esp)
c00044d1:	8b 4d d0             	mov    -0x30(%ebp),%ecx
c00044d4:	89 4c 24 18          	mov    %ecx,0x18(%esp)
c00044d8:	8b 4d d4             	mov    -0x2c(%ebp),%ecx
c00044db:	89 4c 24 14          	mov    %ecx,0x14(%esp)
c00044df:	8b 4d e8             	mov    -0x18(%ebp),%ecx
c00044e2:	89 4c 24 10          	mov    %ecx,0x10(%esp)
c00044e6:	89 44 24 08          	mov    %eax,0x8(%esp)
c00044ea:	89 54 24 0c          	mov    %edx,0xc(%esp)
c00044ee:	8b 45 e0             	mov    -0x20(%ebp),%eax
c00044f1:	89 44 24 04          	mov    %eax,0x4(%esp)
c00044f5:	8b 45 e4             	mov    -0x1c(%ebp),%eax
c00044f8:	89 04 24             	mov    %eax,(%esp)
c00044fb:	e8 62 f6 ff ff       	call   c0003b62 <number>
c0004500:	89 45 e4             	mov    %eax,-0x1c(%ebp)
c0004503:	8b 45 10             	mov    0x10(%ebp),%eax
c0004506:	83 c0 01             	add    $0x1,%eax
c0004509:	89 45 10             	mov    %eax,0x10(%ebp)
c000450c:	eb 01                	jmp    c000450f <vsnprintf+0x5c3>
c000450e:	90                   	nop
c000450f:	8b 45 10             	mov    0x10(%ebp),%eax
c0004512:	0f b6 00             	movzbl (%eax),%eax
c0004515:	84 c0                	test   %al,%al
c0004517:	0f 85 74 fa ff ff    	jne    c0003f91 <vsnprintf+0x45>
c000451d:	8b 45 e4             	mov    -0x1c(%ebp),%eax
c0004520:	3b 45 e0             	cmp    -0x20(%ebp),%eax
c0004523:	77 08                	ja     c000452d <vsnprintf+0x5e1>
c0004525:	8b 45 e4             	mov    -0x1c(%ebp),%eax
c0004528:	c6 00 00             	movb   $0x0,(%eax)
c000452b:	eb 0c                	jmp    c0004539 <vsnprintf+0x5ed>
c000452d:	83 7d 0c 00          	cmpl   $0x0,0xc(%ebp)
c0004531:	74 06                	je     c0004539 <vsnprintf+0x5ed>
c0004533:	8b 45 e0             	mov    -0x20(%ebp),%eax
c0004536:	c6 00 00             	movb   $0x0,(%eax)
c0004539:	8b 55 e4             	mov    -0x1c(%ebp),%edx
c000453c:	8b 45 08             	mov    0x8(%ebp),%eax
c000453f:	89 d1                	mov    %edx,%ecx
c0004541:	29 c1                	sub    %eax,%ecx
c0004543:	89 c8                	mov    %ecx,%eax
c0004545:	c9                   	leave  
c0004546:	c3                   	ret    
c0004547:	00 73 74             	add    %dh,0x74(%ebx)
c000454a:	61                   	popa   
c000454b:	63 6b 64             	arpl   %bp,0x64(%ebx)
c000454e:	75 6d                	jne    c00045bd <vsnprintf+0x671>
c0004550:	70 20                	jo     c0004572 <vsnprintf+0x626>
c0004552:	6e                   	outsb  %ds:(%esi),(%dx)
c0004553:	6f                   	outsl  %ds:(%esi),(%dx)
c0004554:	74 20                	je     c0004576 <vsnprintf+0x62a>
c0004556:	79 65                	jns    c00045bd <vsnprintf+0x671>
c0004558:	74 20                	je     c000457a <vsnprintf+0x62e>
c000455a:	69 6d 70 6c 65 6d 65 	imul   $0x656d656c,0x70(%ebp),%ebp
c0004561:	6e                   	outsb  %ds:(%esi),(%dx)
c0004562:	74 65                	je     c00045c9 <vsnprintf+0x67d>
c0004564:	64 00 2e             	add    %ch,%fs:(%esi)
c0004567:	2f                   	das    
c0004568:	69 6e 63 6c 75 64 65 	imul   $0x6564756c,0x63(%esi),%ebp
c000456f:	2f                   	das    
c0004570:	65                   	gs
c0004571:	78 63                	js     c00045d6 <vsnprintf+0x68a>
c0004573:	65                   	gs
c0004574:	70 74                	jo     c00045ea <vsnprintf+0x69e>
c0004576:	69 6f 6e 5f 68 61 6e 	imul   $0x6e61685f,0x6e(%edi),%ebp
c000457d:	64                   	fs
c000457e:	6c                   	insb   (%dx),%es:(%edi)
c000457f:	65                   	gs
c0004580:	72 2e                	jb     c00045b0 <vsnprintf+0x664>
c0004582:	68 00 0a 20 61       	push   $0x61200a00
c0004587:	74 20                	je     c00045a9 <vsnprintf+0x65d>
c0004589:	6c                   	insb   (%dx),%es:(%edi)
c000458a:	69 6e 65 20 25 64 20 	imul   $0x20642520,0x65(%esi),%ebp
c0004591:	69 6e 20 25 73 20 22 	imul   $0x22207325,0x20(%esi),%ebp
c0004598:	73 74                	jae    c000460e <vsnprintf+0x6c2>
c000459a:	61                   	popa   
c000459b:	63 6b 64             	arpl   %bp,0x64(%ebx)
c000459e:	75 6d                	jne    c000460d <vsnprintf+0x6c1>
c00045a0:	70 20                	jo     c00045c2 <vsnprintf+0x676>
c00045a2:	6e                   	outsb  %ds:(%esi),(%dx)
c00045a3:	6f                   	outsl  %ds:(%esi),(%dx)
c00045a4:	74 20                	je     c00045c6 <vsnprintf+0x67a>
c00045a6:	79 65                	jns    c000460d <vsnprintf+0x6c1>
c00045a8:	74 20                	je     c00045ca <vsnprintf+0x67e>
c00045aa:	69 6d 70 6c 65 6d 65 	imul   $0x656d656c,0x70(%ebp),%ebp
c00045b1:	6e                   	outsb  %ds:(%esi),(%dx)
c00045b2:	74 65                	je     c0004619 <vsnprintf+0x6cd>
c00045b4:	64 22 20             	and    %fs:(%eax),%ah
c00045b7:	69 73 20 2d 3e 20 30 	imul   $0x30203e2d,0x20(%ebx),%esi
c00045be:	78 25                	js     c00045e5 <vsnprintf+0x699>
c00045c0:	78 0a                	js     c00045cc <vsnprintf+0x680>
c00045c2:	00 00                	add    %al,(%eax)
c00045c4:	0a 65 61             	or     0x61(%ebp),%ah
c00045c7:	78 20                	js     c00045e9 <vsnprintf+0x69d>
c00045c9:	3d 20 25 23 30       	cmp    $0x30232520,%eax
c00045ce:	31 30                	xor    %esi,(%eax)
c00045d0:	78 20                	js     c00045f2 <vsnprintf+0x6a6>
c00045d2:	20 64 73 20          	and    %ah,0x20(%ebx,%esi,2)
c00045d6:	3d 20 25 23 30       	cmp    $0x30232520,%eax
c00045db:	31 30                	xor    %esi,(%eax)
c00045dd:	78 20                	js     c00045ff <vsnprintf+0x6b3>
c00045df:	20 63 72             	and    %ah,0x72(%ebx)
c00045e2:	30 20                	xor    %ah,(%eax)
c00045e4:	3d 20 25 23 30       	cmp    $0x30232520,%eax
c00045e9:	31 30                	xor    %esi,(%eax)
c00045eb:	78 20                	js     c000460d <vsnprintf+0x6c1>
c00045ed:	20 65 73             	and    %ah,0x73(%ebp)
c00045f0:	70 20                	jo     c0004612 <vsnprintf+0x6c6>
c00045f2:	20 20                	and    %ah,(%eax)
c00045f4:	20 3d 20 25 23 30    	and    %bh,0x30232520
c00045fa:	31 30                	xor    %esi,(%eax)
c00045fc:	78 00                	js     c00045fe <vsnprintf+0x6b2>
c00045fe:	00 00                	add    %al,(%eax)
c0004600:	0a 65 62             	or     0x62(%ebp),%ah
c0004603:	78 20                	js     c0004625 <vsnprintf+0x6d9>
c0004605:	3d 20 25 23 30       	cmp    $0x30232520,%eax
c000460a:	31 30                	xor    %esi,(%eax)
c000460c:	78 20                	js     c000462e <vsnprintf+0x6e2>
c000460e:	20 65 73             	and    %ah,0x73(%ebp)
c0004611:	20 3d 20 25 23 30    	and    %bh,0x30232520
c0004617:	31 30                	xor    %esi,(%eax)
c0004619:	78 20                	js     c000463b <vsnprintf+0x6ef>
c000461b:	20 63 72             	and    %ah,0x72(%ebx)
c000461e:	32 20                	xor    (%eax),%ah
c0004620:	3d 20 25 23 30       	cmp    $0x30232520,%eax
c0004625:	31 30                	xor    %esi,(%eax)
c0004627:	78 20                	js     c0004649 <vsnprintf+0x6fd>
c0004629:	20 65 62             	and    %ah,0x62(%ebp)
c000462c:	70 20                	jo     c000464e <vsnprintf+0x702>
c000462e:	20 20                	and    %ah,(%eax)
c0004630:	20 3d 20 25 23 30    	and    %bh,0x30232520
c0004636:	31 30                	xor    %esi,(%eax)
c0004638:	78 00                	js     c000463a <vsnprintf+0x6ee>
c000463a:	00 00                	add    %al,(%eax)
c000463c:	0a 65 63             	or     0x63(%ebp),%ah
c000463f:	78 20                	js     c0004661 <vsnprintf+0x715>
c0004641:	3d 20 25 23 30       	cmp    $0x30232520,%eax
c0004646:	31 30                	xor    %esi,(%eax)
c0004648:	78 20                	js     c000466a <vsnprintf+0x71e>
c000464a:	20 66 73             	and    %ah,0x73(%esi)
c000464d:	20 3d 20 25 23 30    	and    %bh,0x30232520
c0004653:	31 30                	xor    %esi,(%eax)
c0004655:	78 20                	js     c0004677 <vsnprintf+0x72b>
c0004657:	20 63 72             	and    %ah,0x72(%ebx)
c000465a:	33 20                	xor    (%eax),%esp
c000465c:	3d 20 25 23 30       	cmp    $0x30232520,%eax
c0004661:	31 30                	xor    %esi,(%eax)
c0004663:	78 20                	js     c0004685 <vsnprintf+0x739>
c0004665:	20 65 69             	and    %ah,0x69(%ebp)
c0004668:	70 20                	jo     c000468a <vsnprintf+0x73e>
c000466a:	20 20                	and    %ah,(%eax)
c000466c:	20 3d 20 25 23 30    	and    %bh,0x30232520
c0004672:	31 30                	xor    %esi,(%eax)
c0004674:	78 00                	js     c0004676 <vsnprintf+0x72a>
c0004676:	00 00                	add    %al,(%eax)
c0004678:	0a 65 64             	or     0x64(%ebp),%ah
c000467b:	78 20                	js     c000469d <vsnprintf+0x751>
c000467d:	3d 20 25 23 30       	cmp    $0x30232520,%eax
c0004682:	31 30                	xor    %esi,(%eax)
c0004684:	78 20                	js     c00046a6 <vsnprintf+0x75a>
c0004686:	20 67 73             	and    %ah,0x73(%edi)
c0004689:	20 3d 20 25 23 30    	and    %bh,0x30232520
c000468f:	31 30                	xor    %esi,(%eax)
c0004691:	78 20                	js     c00046b3 <vsnprintf+0x767>
c0004693:	20 63 72             	and    %ah,0x72(%ebx)
c0004696:	34 20                	xor    $0x20,%al
c0004698:	3d 20 25 23 30       	cmp    $0x30232520,%eax
c000469d:	31 30                	xor    %esi,(%eax)
c000469f:	78 20                	js     c00046c1 <vsnprintf+0x775>
c00046a1:	20 65 66             	and    %ah,0x66(%ebp)
c00046a4:	6c                   	insb   (%dx),%es:(%edi)
c00046a5:	61                   	popa   
c00046a6:	67 73 20             	addr16 jae c00046c9 <vsnprintf+0x77d>
c00046a9:	3d 20 25 23 30       	cmp    $0x30232520,%eax
c00046ae:	31 30                	xor    %esi,(%eax)
c00046b0:	78 00                	js     c00046b2 <vsnprintf+0x766>
c00046b2:	00 00                	add    %al,(%eax)
c00046b4:	0a 65 73             	or     0x73(%ebp),%ah
c00046b7:	69 20 3d 20 25 23    	imul   $0x2325203d,(%eax),%esp
c00046bd:	30 31                	xor    %dh,(%ecx)
c00046bf:	30 78 20             	xor    %bh,0x20(%eax)
c00046c2:	20 73 73             	and    %dh,0x73(%ebx)
c00046c5:	20 3d 20 25 23 30    	and    %bh,0x30232520
c00046cb:	31 30                	xor    %esi,(%eax)
c00046cd:	78 20                	js     c00046ef <vsnprintf+0x7a3>
c00046cf:	20 65 78             	and    %ah,0x78(%ebp)
c00046d2:	63 20                	arpl   %sp,(%eax)
c00046d4:	3d 20 25 23 30       	cmp    $0x30232520,%eax
c00046d9:	31 30                	xor    %esi,(%eax)
c00046db:	78 00                	js     c00046dd <vsnprintf+0x791>
c00046dd:	00 00                	add    %al,(%eax)
c00046df:	00 0a                	add    %cl,(%edx)
c00046e1:	65 64 69 20 3d 20 25 	gs imul $0x2325203d,%fs:%gs:(%eax),%esp
c00046e8:	23 
c00046e9:	30 31                	xor    %dh,(%ecx)
c00046eb:	30 78 20             	xor    %bh,0x20(%eax)
c00046ee:	20 63 73             	and    %ah,0x73(%ebx)
c00046f1:	20 3d 20 25 23 30    	and    %bh,0x30232520
c00046f7:	31 30                	xor    %esi,(%eax)
c00046f9:	78 20                	js     c000471b <vsnprintf+0x7cf>
c00046fb:	20 65 72             	and    %ah,0x72(%ebp)
c00046fe:	72 20                	jb     c0004720 <vsnprintf+0x7d4>
c0004700:	3d 20 25 23 30       	cmp    $0x30232520,%eax
c0004705:	31 30                	xor    %esi,(%eax)
c0004707:	78 00                	js     c0004709 <vsnprintf+0x7bd>
c0004709:	00 00                	add    %al,(%eax)
c000470b:	00 0a                	add    %cl,(%edx)
c000470d:	45                   	inc    %ebp
c000470e:	78 63                	js     c0004773 <vsnprintf+0x827>
c0004710:	65                   	gs
c0004711:	70 74                	jo     c0004787 <vsnprintf+0x83b>
c0004713:	69 6f 6e 20 30 30 3a 	imul   $0x3a303020,0x6e(%edi),%ebp
c000471a:	20 44 49 56          	and    %al,0x56(%ecx,%ecx,2)
c000471e:	49                   	dec    %ecx
c000471f:	53                   	push   %ebx
c0004720:	49                   	dec    %ecx
c0004721:	4f                   	dec    %edi
c0004722:	4e                   	dec    %esi
c0004723:	20 42 59             	and    %al,0x59(%edx)
c0004726:	20 5a 45             	and    %bl,0x45(%edx)
c0004729:	52                   	push   %edx
c000472a:	4f                   	dec    %edi
c000472b:	0a 00                	or     (%eax),%al
c000472d:	00 00                	add    %al,(%eax)
c000472f:	00 0a                	add    %cl,(%edx)
c0004731:	45                   	inc    %ebp
c0004732:	78 63                	js     c0004797 <vsnprintf+0x84b>
c0004734:	65                   	gs
c0004735:	70 74                	jo     c00047ab <vsnprintf+0x85f>
c0004737:	69 6f 6e 20 30 31 3a 	imul   $0x3a313020,0x6e(%edi),%ebp
c000473e:	20 44 45 42          	and    %al,0x42(%ebp,%eax,2)
c0004742:	55                   	push   %ebp
c0004743:	47                   	inc    %edi
c0004744:	20 45 58             	and    %al,0x58(%ebp)
c0004747:	43                   	inc    %ebx
c0004748:	45                   	inc    %ebp
c0004749:	50                   	push   %eax
c000474a:	54                   	push   %esp
c000474b:	49                   	dec    %ecx
c000474c:	4f                   	dec    %edi
c000474d:	4e                   	dec    %esi
c000474e:	20 44 45 54          	and    %al,0x54(%ebp,%eax,2)
c0004752:	45                   	inc    %ebp
c0004753:	43                   	inc    %ebx
c0004754:	54                   	push   %esp
c0004755:	45                   	inc    %ebp
c0004756:	44                   	inc    %esp
c0004757:	0a 00                	or     (%eax),%al
c0004759:	00 00                	add    %al,(%eax)
c000475b:	00 0a                	add    %cl,(%edx)
c000475d:	45                   	inc    %ebp
c000475e:	78 63                	js     c00047c3 <vsnprintf+0x877>
c0004760:	65                   	gs
c0004761:	70 74                	jo     c00047d7 <vsnprintf+0x88b>
c0004763:	69 6f 6e 20 30 32 3a 	imul   $0x3a323020,0x6e(%edi),%ebp
c000476a:	20 4e 4f             	and    %cl,0x4f(%esi)
c000476d:	4e                   	dec    %esi
c000476e:	20 4d 41             	and    %cl,0x41(%ebp)
c0004771:	53                   	push   %ebx
c0004772:	4b                   	dec    %ebx
c0004773:	41                   	inc    %ecx
c0004774:	42                   	inc    %edx
c0004775:	4c                   	dec    %esp
c0004776:	45                   	inc    %ebp
c0004777:	20 49 4e             	and    %cl,0x4e(%ecx)
c000477a:	54                   	push   %esp
c000477b:	45                   	inc    %ebp
c000477c:	52                   	push   %edx
c000477d:	52                   	push   %edx
c000477e:	55                   	push   %ebp
c000477f:	50                   	push   %eax
c0004780:	54                   	push   %esp
c0004781:	0a 00                	or     (%eax),%al
c0004783:	00 0a                	add    %cl,(%edx)
c0004785:	45                   	inc    %ebp
c0004786:	78 63                	js     c00047eb <vsnprintf+0x89f>
c0004788:	65                   	gs
c0004789:	70 74                	jo     c00047ff <vsnprintf+0x8b3>
c000478b:	69 6f 6e 20 30 33 3a 	imul   $0x3a333020,0x6e(%edi),%ebp
c0004792:	20 42 52             	and    %al,0x52(%edx)
c0004795:	45                   	inc    %ebp
c0004796:	41                   	inc    %ecx
c0004797:	4b                   	dec    %ebx
c0004798:	50                   	push   %eax
c0004799:	4f                   	dec    %edi
c000479a:	49                   	dec    %ecx
c000479b:	4e                   	dec    %esi
c000479c:	54                   	push   %esp
c000479d:	20 49 4e             	and    %cl,0x4e(%ecx)
c00047a0:	53                   	push   %ebx
c00047a1:	54                   	push   %esp
c00047a2:	52                   	push   %edx
c00047a3:	55                   	push   %ebp
c00047a4:	43                   	inc    %ebx
c00047a5:	54                   	push   %esp
c00047a6:	49                   	dec    %ecx
c00047a7:	4f                   	dec    %edi
c00047a8:	4e                   	dec    %esi
c00047a9:	20 44 45 54          	and    %al,0x54(%ebp,%eax,2)
c00047ad:	45                   	inc    %ebp
c00047ae:	43                   	inc    %ebx
c00047af:	54                   	push   %esp
c00047b0:	45                   	inc    %ebp
c00047b1:	44                   	inc    %esp
c00047b2:	0a 00                	or     (%eax),%al
c00047b4:	6b 65 72 6e          	imul   $0x6e,0x72(%ebp),%esp
c00047b8:	65                   	gs
c00047b9:	6c                   	insb   (%dx),%es:(%edi)
c00047ba:	2f                   	das    
c00047bb:	65                   	gs
c00047bc:	78 63                	js     c0004821 <vsnprintf+0x8d5>
c00047be:	65                   	gs
c00047bf:	70 74                	jo     c0004835 <vsnprintf+0x8e9>
c00047c1:	69 6f 6e 5f 68 61 6e 	imul   $0x6e61685f,0x6e(%edi),%ebp
c00047c8:	64                   	fs
c00047c9:	6c                   	insb   (%dx),%es:(%edi)
c00047ca:	65                   	gs
c00047cb:	72 2e                	jb     c00047fb <vsnprintf+0x8af>
c00047cd:	63 00                	arpl   %ax,(%eax)
c00047cf:	00 42 72             	add    %al,0x72(%edx)
c00047d2:	65                   	gs
c00047d3:	61                   	popa   
c00047d4:	6b 70 6f 69          	imul   $0x69,0x6f(%eax),%esi
c00047d8:	6e                   	outsb  %ds:(%esi),(%dx)
c00047d9:	74 20                	je     c00047fb <vsnprintf+0x8af>
c00047db:	6e                   	outsb  %ds:(%esi),(%dx)
c00047dc:	6f                   	outsl  %ds:(%esi),(%dx)
c00047dd:	74 20                	je     c00047ff <vsnprintf+0x8b3>
c00047df:	79 65                	jns    c0004846 <vsnprintf+0x8fa>
c00047e1:	74 20                	je     c0004803 <vsnprintf+0x8b7>
c00047e3:	69 6d 70 6c 65 6d 65 	imul   $0x656d656c,0x70(%ebp),%ebp
c00047ea:	6e                   	outsb  %ds:(%esi),(%dx)
c00047eb:	74 65                	je     c0004852 <vsnprintf+0x906>
c00047ed:	64 00 00             	add    %al,%fs:(%eax)
c00047f0:	0a 4b 45             	or     0x45(%ebx),%cl
c00047f3:	52                   	push   %edx
c00047f4:	4e                   	dec    %esi
c00047f5:	45                   	inc    %ebp
c00047f6:	4c                   	dec    %esp
c00047f7:	20 50 41             	and    %dl,0x41(%eax)
c00047fa:	4e                   	dec    %esi
c00047fb:	49                   	dec    %ecx
c00047fc:	43                   	inc    %ebx
c00047fd:	20 28                	and    %ch,(%eax)
c00047ff:	25 73 29 20 0a       	and    $0xa202973,%eax
c0004804:	09 69 6e             	or     %ebp,0x6e(%ecx)
c0004807:	20 25 73 20 61 74    	and    %ah,0x74612073
c000480d:	20 6c 69 6e          	and    %ch,0x6e(%ecx,%ebp,2)
c0004811:	65 20 25 64 00 00 00 	and    %ah,%gs:0x64
c0004818:	0a 45 78             	or     0x78(%ebp),%al
c000481b:	63 65 70             	arpl   %sp,0x70(%ebp)
c000481e:	74 69                	je     c0004889 <vsnprintf+0x93d>
c0004820:	6f                   	outsl  %ds:(%esi),(%dx)
c0004821:	6e                   	outsb  %ds:(%esi),(%dx)
c0004822:	20 30                	and    %dh,(%eax)
c0004824:	34 3a                	xor    $0x3a,%al
c0004826:	20 49 4e             	and    %cl,0x4e(%ecx)
c0004829:	54                   	push   %esp
c000482a:	4f                   	dec    %edi
c000482b:	20 44 45 54          	and    %al,0x54(%ebp,%eax,2)
c000482f:	45                   	inc    %ebp
c0004830:	43                   	inc    %ebx
c0004831:	54                   	push   %esp
c0004832:	45                   	inc    %ebp
c0004833:	44                   	inc    %esp
c0004834:	20 4f 56             	and    %cl,0x56(%edi)
c0004837:	45                   	inc    %ebp
c0004838:	52                   	push   %edx
c0004839:	46                   	inc    %esi
c000483a:	4c                   	dec    %esp
c000483b:	4f                   	dec    %edi
c000483c:	57                   	push   %edi
c000483d:	0a 00                	or     (%eax),%al
c000483f:	00 0a                	add    %cl,(%edx)
c0004841:	45                   	inc    %ebp
c0004842:	78 63                	js     c00048a7 <vsnprintf+0x95b>
c0004844:	65                   	gs
c0004845:	70 74                	jo     c00048bb <vsnprintf+0x96f>
c0004847:	69 6f 6e 20 30 35 3a 	imul   $0x3a353020,0x6e(%edi),%ebp
c000484e:	20 42 4f             	and    %al,0x4f(%edx)
c0004851:	55                   	push   %ebp
c0004852:	4e                   	dec    %esi
c0004853:	44                   	inc    %esp
c0004854:	20 52 41             	and    %dl,0x41(%edx)
c0004857:	4e                   	dec    %esi
c0004858:	47                   	inc    %edi
c0004859:	45                   	inc    %ebp
c000485a:	20 45 58             	and    %al,0x58(%ebp)
c000485d:	43                   	inc    %ebx
c000485e:	45                   	inc    %ebp
c000485f:	45                   	inc    %ebp
c0004860:	44                   	inc    %esp
c0004861:	45                   	inc    %ebp
c0004862:	44                   	inc    %esp
c0004863:	0a 00                	or     (%eax),%al
c0004865:	00 00                	add    %al,(%eax)
c0004867:	00 0a                	add    %cl,(%edx)
c0004869:	45                   	inc    %ebp
c000486a:	78 63                	js     c00048cf <vsnprintf+0x983>
c000486c:	65                   	gs
c000486d:	70 74                	jo     c00048e3 <vsnprintf+0x997>
c000486f:	69 6f 6e 20 30 36 3a 	imul   $0x3a363020,0x6e(%edi),%ebp
c0004876:	20 49 4e             	and    %cl,0x4e(%ecx)
c0004879:	56                   	push   %esi
c000487a:	41                   	inc    %ecx
c000487b:	4c                   	dec    %esp
c000487c:	49                   	dec    %ecx
c000487d:	44                   	inc    %esp
c000487e:	20 4f 50             	and    %cl,0x50(%edi)
c0004881:	43                   	inc    %ebx
c0004882:	4f                   	dec    %edi
c0004883:	44                   	inc    %esp
c0004884:	45                   	inc    %ebp
c0004885:	0a 00                	or     (%eax),%al
c0004887:	00 0a                	add    %cl,(%edx)
c0004889:	45                   	inc    %ebp
c000488a:	78 63                	js     c00048ef <vsnprintf+0x9a3>
c000488c:	65                   	gs
c000488d:	70 74                	jo     c0004903 <vsnprintf+0x9b7>
c000488f:	69 6f 6e 20 30 37 3a 	imul   $0x3a373020,0x6e(%edi),%ebp
c0004896:	20 50 52             	and    %dl,0x52(%eax)
c0004899:	4f                   	dec    %edi
c000489a:	43                   	inc    %ebx
c000489b:	45                   	inc    %ebp
c000489c:	53                   	push   %ebx
c000489d:	53                   	push   %ebx
c000489e:	4f                   	dec    %edi
c000489f:	52                   	push   %edx
c00048a0:	20 45 58             	and    %al,0x58(%ebp)
c00048a3:	54                   	push   %esp
c00048a4:	45                   	inc    %ebp
c00048a5:	4e                   	dec    %esi
c00048a6:	53                   	push   %ebx
c00048a7:	49                   	dec    %ecx
c00048a8:	4f                   	dec    %edi
c00048a9:	4e                   	dec    %esi
c00048aa:	20 4e 4f             	and    %cl,0x4f(%esi)
c00048ad:	54                   	push   %esp
c00048ae:	20 41 56             	and    %al,0x56(%ecx)
c00048b1:	41                   	inc    %ecx
c00048b2:	49                   	dec    %ecx
c00048b3:	4c                   	dec    %esp
c00048b4:	41                   	inc    %ecx
c00048b5:	42                   	inc    %edx
c00048b6:	4c                   	dec    %esp
c00048b7:	45                   	inc    %ebp
c00048b8:	0a 00                	or     (%eax),%al
c00048ba:	00 00                	add    %al,(%eax)
c00048bc:	0a 45 78             	or     0x78(%ebp),%al
c00048bf:	63 65 70             	arpl   %sp,0x70(%ebp)
c00048c2:	74 69                	je     c000492d <vsnprintf+0x9e1>
c00048c4:	6f                   	outsl  %ds:(%esi),(%dx)
c00048c5:	6e                   	outsb  %ds:(%esi),(%dx)
c00048c6:	20 30                	and    %dh,(%eax)
c00048c8:	38 3a                	cmp    %bh,(%edx)
c00048ca:	20 44 4f 55          	and    %al,0x55(%edi,%ecx,2)
c00048ce:	42                   	inc    %edx
c00048cf:	4c                   	dec    %esp
c00048d0:	45                   	inc    %ebp
c00048d1:	20 46 41             	and    %al,0x41(%esi)
c00048d4:	55                   	push   %ebp
c00048d5:	4c                   	dec    %esp
c00048d6:	54                   	push   %esp
c00048d7:	20 44 45 54          	and    %al,0x54(%ebp,%eax,2)
c00048db:	45                   	inc    %ebp
c00048dc:	43                   	inc    %ebx
c00048dd:	54                   	push   %esp
c00048de:	45                   	inc    %ebp
c00048df:	44                   	inc    %esp
c00048e0:	0a 00                	or     (%eax),%al
c00048e2:	00 00                	add    %al,(%eax)
c00048e4:	0a 45 78             	or     0x78(%ebp),%al
c00048e7:	63 65 70             	arpl   %sp,0x70(%ebp)
c00048ea:	74 69                	je     c0004955 <vsnprintf+0xa09>
c00048ec:	6f                   	outsl  %ds:(%esi),(%dx)
c00048ed:	6e                   	outsb  %ds:(%esi),(%dx)
c00048ee:	20 30                	and    %dh,(%eax)
c00048f0:	39 3a                	cmp    %edi,(%edx)
c00048f2:	20 50 52             	and    %dl,0x52(%eax)
c00048f5:	4f                   	dec    %edi
c00048f6:	43                   	inc    %ebx
c00048f7:	45                   	inc    %ebp
c00048f8:	53                   	push   %ebx
c00048f9:	53                   	push   %ebx
c00048fa:	4f                   	dec    %edi
c00048fb:	52                   	push   %edx
c00048fc:	20 45 58             	and    %al,0x58(%ebp)
c00048ff:	54                   	push   %esp
c0004900:	45                   	inc    %ebp
c0004901:	4e                   	dec    %esi
c0004902:	53                   	push   %ebx
c0004903:	49                   	dec    %ecx
c0004904:	4f                   	dec    %edi
c0004905:	4e                   	dec    %esi
c0004906:	20 50 52             	and    %dl,0x52(%eax)
c0004909:	4f                   	dec    %edi
c000490a:	54                   	push   %esp
c000490b:	45                   	inc    %ebp
c000490c:	43                   	inc    %ebx
c000490d:	54                   	push   %esp
c000490e:	49                   	dec    %ecx
c000490f:	4f                   	dec    %edi
c0004910:	4e                   	dec    %esi
c0004911:	20 46 41             	and    %al,0x41(%esi)
c0004914:	55                   	push   %ebp
c0004915:	4c                   	dec    %esp
c0004916:	54                   	push   %esp
c0004917:	0a 00                	or     (%eax),%al
c0004919:	00 00                	add    %al,(%eax)
c000491b:	00 0a                	add    %cl,(%edx)
c000491d:	45                   	inc    %ebp
c000491e:	78 63                	js     c0004983 <vsnprintf+0xa37>
c0004920:	65                   	gs
c0004921:	70 74                	jo     c0004997 <vsnprintf+0xa4b>
c0004923:	69 6f 6e 20 30 41 3a 	imul   $0x3a413020,0x6e(%edi),%ebp
c000492a:	20 49 4e             	and    %cl,0x4e(%ecx)
c000492d:	56                   	push   %esi
c000492e:	41                   	inc    %ecx
c000492f:	4c                   	dec    %esp
c0004930:	49                   	dec    %ecx
c0004931:	44                   	inc    %esp
c0004932:	20 54 41 53          	and    %dl,0x53(%ecx,%eax,2)
c0004936:	4b                   	dec    %ebx
c0004937:	20 53 54             	and    %dl,0x54(%ebx)
c000493a:	41                   	inc    %ecx
c000493b:	54                   	push   %esp
c000493c:	45                   	inc    %ebp
c000493d:	20 53 45             	and    %dl,0x45(%ebx)
c0004940:	47                   	inc    %edi
c0004941:	4d                   	dec    %ebp
c0004942:	45                   	inc    %ebp
c0004943:	4e                   	dec    %esi
c0004944:	54                   	push   %esp
c0004945:	0a 00                	or     (%eax),%al
c0004947:	00 0a                	add    %cl,(%edx)
c0004949:	45                   	inc    %ebp
c000494a:	78 63                	js     c00049af <vsnprintf+0xa63>
c000494c:	65                   	gs
c000494d:	70 74                	jo     c00049c3 <vsnprintf+0xa77>
c000494f:	69 6f 6e 20 30 42 3a 	imul   $0x3a423020,0x6e(%edi),%ebp
c0004956:	20 53 45             	and    %dl,0x45(%ebx)
c0004959:	47                   	inc    %edi
c000495a:	4d                   	dec    %ebp
c000495b:	45                   	inc    %ebp
c000495c:	4e                   	dec    %esi
c000495d:	54                   	push   %esp
c000495e:	20 4e 4f             	and    %cl,0x4f(%esi)
c0004961:	54                   	push   %esp
c0004962:	20 50 52             	and    %dl,0x52(%eax)
c0004965:	45                   	inc    %ebp
c0004966:	53                   	push   %ebx
c0004967:	45                   	inc    %ebp
c0004968:	4e                   	dec    %esi
c0004969:	54                   	push   %esp
c000496a:	0a 00                	or     (%eax),%al
c000496c:	0a 45 78             	or     0x78(%ebp),%al
c000496f:	63 65 70             	arpl   %sp,0x70(%ebp)
c0004972:	74 69                	je     c00049dd <vsnprintf+0xa91>
c0004974:	6f                   	outsl  %ds:(%esi),(%dx)
c0004975:	6e                   	outsb  %ds:(%esi),(%dx)
c0004976:	20 30                	and    %dh,(%eax)
c0004978:	43                   	inc    %ebx
c0004979:	3a 20                	cmp    (%eax),%ah
c000497b:	53                   	push   %ebx
c000497c:	54                   	push   %esp
c000497d:	41                   	inc    %ecx
c000497e:	43                   	inc    %ebx
c000497f:	4b                   	dec    %ebx
c0004980:	20 46 41             	and    %al,0x41(%esi)
c0004983:	55                   	push   %ebp
c0004984:	4c                   	dec    %esp
c0004985:	54                   	push   %esp
c0004986:	0a 00                	or     (%eax),%al
c0004988:	76 38                	jbe    c00049c2 <vsnprintf+0xa76>
c000498a:	36                   	ss
c000498b:	5f                   	pop    %edi
c000498c:	6d                   	insl   (%dx),%es:(%edi)
c000498d:	6f                   	outsl  %ds:(%esi),(%dx)
c000498e:	6e                   	outsb  %ds:(%esi),(%dx)
c000498f:	69 74 6f 72 20 6e 6f 	imul   $0x746f6e20,0x72(%edi,%ebp,2),%esi
c0004996:	74 
c0004997:	20 79 65             	and    %bh,0x65(%ecx)
c000499a:	74 20                	je     c00049bc <vsnprintf+0xa70>
c000499c:	69 6d 70 6c 65 6d 65 	imul   $0x656d656c,0x70(%ebp),%ebp
c00049a3:	6e                   	outsb  %ds:(%esi),(%dx)
c00049a4:	74 65                	je     c0004a0b <vsnprintf+0xabf>
c00049a6:	64 00 0a             	add    %cl,%fs:(%edx)
c00049a9:	45                   	inc    %ebp
c00049aa:	78 63                	js     c0004a0f <vsnprintf+0xac3>
c00049ac:	65                   	gs
c00049ad:	70 74                	jo     c0004a23 <vsnprintf+0xad7>
c00049af:	69 6f 6e 20 30 44 3a 	imul   $0x3a443020,0x6e(%edi),%ebp
c00049b6:	20 47 45             	and    %al,0x45(%edi)
c00049b9:	4e                   	dec    %esi
c00049ba:	45                   	inc    %ebp
c00049bb:	52                   	push   %edx
c00049bc:	41                   	inc    %ecx
c00049bd:	4c                   	dec    %esp
c00049be:	20 50 52             	and    %dl,0x52(%eax)
c00049c1:	4f                   	dec    %edi
c00049c2:	54                   	push   %esp
c00049c3:	45                   	inc    %ebp
c00049c4:	43                   	inc    %ebx
c00049c5:	54                   	push   %esp
c00049c6:	49                   	dec    %ecx
c00049c7:	4f                   	dec    %edi
c00049c8:	4e                   	dec    %esi
c00049c9:	20 46 41             	and    %al,0x41(%esi)
c00049cc:	55                   	push   %ebp
c00049cd:	4c                   	dec    %esp
c00049ce:	54                   	push   %esp
c00049cf:	0a 00                	or     (%eax),%al
c00049d1:	00 00                	add    %al,(%eax)
c00049d3:	00 0a                	add    %cl,(%edx)
c00049d5:	45                   	inc    %ebp
c00049d6:	78 63                	js     c0004a3b <vsnprintf+0xaef>
c00049d8:	65                   	gs
c00049d9:	70 74                	jo     c0004a4f <vsnprintf+0xb03>
c00049db:	69 6f 6e 20 30 45 3a 	imul   $0x3a453020,0x6e(%edi),%ebp
c00049e2:	20 50 41             	and    %dl,0x41(%eax)
c00049e5:	47                   	inc    %edi
c00049e6:	45                   	inc    %ebp
c00049e7:	20 46 41             	and    %al,0x41(%esi)
c00049ea:	55                   	push   %ebp
c00049eb:	4c                   	dec    %esp
c00049ec:	54                   	push   %esp
c00049ed:	20 28                	and    %ch,(%eax)
c00049ef:	4f                   	dec    %edi
c00049f0:	75 74                	jne    c0004a66 <vsnprintf+0xb1a>
c00049f2:	20 6f 66             	and    %ch,0x66(%edi)
c00049f5:	20 6d 65             	and    %ch,0x65(%ebp)
c00049f8:	6d                   	insl   (%dx),%es:(%edi)
c00049f9:	6f                   	outsl  %ds:(%esi),(%dx)
c00049fa:	72 79                	jb     c0004a75 <vsnprintf+0xb29>
c00049fc:	29 21                	sub    %esp,(%ecx)
c00049fe:	0a 00                	or     (%eax),%al
c0004a00:	0a 45 78             	or     0x78(%ebp),%al
c0004a03:	63 65 70             	arpl   %sp,0x70(%ebp)
c0004a06:	74 69                	je     c0004a71 <vsnprintf+0xb25>
c0004a08:	6f                   	outsl  %ds:(%esi),(%dx)
c0004a09:	6e                   	outsb  %ds:(%esi),(%dx)
c0004a0a:	20 30                	and    %dh,(%eax)
c0004a0c:	45                   	inc    %ebp
c0004a0d:	3a 20                	cmp    (%eax),%ah
c0004a0f:	50                   	push   %eax
c0004a10:	41                   	inc    %ecx
c0004a11:	47                   	inc    %edi
c0004a12:	45                   	inc    %ebp
c0004a13:	20 46 41             	and    %al,0x41(%esi)
c0004a16:	55                   	push   %ebp
c0004a17:	4c                   	dec    %esp
c0004a18:	54                   	push   %esp
c0004a19:	20 20                	and    %ah,(%eax)
c0004a1b:	28 70 61             	sub    %dh,0x61(%eax)
c0004a1e:	67 65 20 6c 65       	and    %ch,%gs:0x65(%si)
c0004a23:	76 65                	jbe    c0004a8a <vsnprintf+0xb3e>
c0004a25:	6c                   	insb   (%dx),%es:(%edi)
c0004a26:	20 70 72             	and    %dh,0x72(%eax)
c0004a29:	6f                   	outsl  %ds:(%esi),(%dx)
c0004a2a:	74 65                	je     c0004a91 <vsnprintf+0xb45>
c0004a2c:	63 74 69 6f          	arpl   %si,0x6f(%ecx,%ebp,2)
c0004a30:	6e                   	outsb  %ds:(%esi),(%dx)
c0004a31:	20 76 69             	and    %dh,0x69(%esi)
c0004a34:	6f                   	outsl  %ds:(%esi),(%dx)
c0004a35:	6c                   	insb   (%dx),%es:(%edi)
c0004a36:	61                   	popa   
c0004a37:	74 69                	je     c0004aa2 <vsnprintf+0xb56>
c0004a39:	6f                   	outsl  %ds:(%esi),(%dx)
c0004a3a:	6e                   	outsb  %ds:(%esi),(%dx)
c0004a3b:	29 21                	sub    %esp,(%ecx)
c0004a3d:	0a 00                	or     (%eax),%al
c0004a3f:	00 0a                	add    %cl,(%edx)
c0004a41:	45                   	inc    %ebp
c0004a42:	78 63                	js     c0004aa7 <vsnprintf+0xb5b>
c0004a44:	65                   	gs
c0004a45:	70 74                	jo     c0004abb <vsnprintf+0xb6f>
c0004a47:	69 6f 6e 20 30 46 3a 	imul   $0x3a463020,0x6e(%edi),%ebp
c0004a4e:	20 55 4e             	and    %dl,0x4e(%ebp)
c0004a51:	4b                   	dec    %ebx
c0004a52:	4e                   	dec    %esi
c0004a53:	4f                   	dec    %edi
c0004a54:	57                   	push   %edi
c0004a55:	4e                   	dec    %esi
c0004a56:	20 45 58             	and    %al,0x58(%ebp)
c0004a59:	43                   	inc    %ebx
c0004a5a:	45                   	inc    %ebp
c0004a5b:	50                   	push   %eax
c0004a5c:	54                   	push   %esp
c0004a5d:	49                   	dec    %ecx
c0004a5e:	4f                   	dec    %edi
c0004a5f:	4e                   	dec    %esi
c0004a60:	0a 00                	or     (%eax),%al
c0004a62:	00 00                	add    %al,(%eax)
c0004a64:	0a 45 78             	or     0x78(%ebp),%al
c0004a67:	63 65 70             	arpl   %sp,0x70(%ebp)
c0004a6a:	74 69                	je     c0004ad5 <vsnprintf+0xb89>
c0004a6c:	6f                   	outsl  %ds:(%esi),(%dx)
c0004a6d:	6e                   	outsb  %ds:(%esi),(%dx)
c0004a6e:	20 23                	and    %ah,(%ebx)
c0004a70:	25 58 3a 20 55       	and    $0x55203a58,%eax
c0004a75:	4e                   	dec    %esi
c0004a76:	45                   	inc    %ebp
c0004a77:	58                   	pop    %eax
c0004a78:	50                   	push   %eax
c0004a79:	45                   	inc    %ebp
c0004a7a:	43                   	inc    %ebx
c0004a7b:	54                   	push   %esp
c0004a7c:	45                   	inc    %ebp
c0004a7d:	44                   	inc    %esp
c0004a7e:	20 45 58             	and    %al,0x58(%ebp)
c0004a81:	43                   	inc    %ebx
c0004a82:	45                   	inc    %ebp
c0004a83:	50                   	push   %eax
c0004a84:	54                   	push   %esp
c0004a85:	49                   	dec    %ecx
c0004a86:	4f                   	dec    %edi
c0004a87:	4e                   	dec    %esi
c0004a88:	20 21                	and    %ah,(%ecx)
c0004a8a:	21 21                	and    %esp,(%ecx)
c0004a8c:	0a 00                	or     (%eax),%al
c0004a8e:	00 00                	add    %al,(%eax)
c0004a90:	45                   	inc    %ebp
c0004a91:	6e                   	outsb  %ds:(%esi),(%dx)
c0004a92:	64 20 6f 66          	and    %ch,%fs:0x66(%edi)
c0004a96:	20 64 65 66          	and    %ah,0x66(%ebp,%eiz,2)
c0004a9a:	61                   	popa   
c0004a9b:	75 6c                	jne    c0004b09 <vsnprintf+0xbbd>
c0004a9d:	74 5f                	je     c0004afe <vsnprintf+0xbb2>
c0004a9f:	65                   	gs
c0004aa0:	78 63                	js     c0004b05 <vsnprintf+0xbb9>
c0004aa2:	65                   	gs
c0004aa3:	70 74                	jo     c0004b19 <vsnprintf+0xbcd>
c0004aa5:	69 6f 6e 28 29 20 72 	imul   $0x72202928,0x6e(%edi),%ebp
c0004aac:	65                   	gs
c0004aad:	61                   	popa   
c0004aae:	63 68 65             	arpl   %bp,0x65(%eax)
c0004ab1:	64                   	fs
c0004ab2:	2c 20                	sub    $0x20,%al
c0004ab4:	74 68                	je     c0004b1e <vsnprintf+0xbd2>
c0004ab6:	69 73 20 69 73 20 6e 	imul   $0x6e207369,0x20(%ebx),%esi
c0004abd:	6f                   	outsl  %ds:(%esi),(%dx)
c0004abe:	74 20                	je     c0004ae0 <vsnprintf+0xb94>
c0004ac0:	64 6f                	outsl  %fs:(%esi),(%dx)
c0004ac2:	6e                   	outsb  %ds:(%esi),(%dx)
c0004ac3:	65 20 69 6e          	and    %ch,%gs:0x6e(%ecx)
c0004ac7:	20 74 68 69          	and    %dh,0x69(%eax,%ebp,2)
c0004acb:	73 20                	jae    c0004aed <vsnprintf+0xba1>
c0004acd:	6e                   	outsb  %ds:(%esi),(%dx)
c0004ace:	61                   	popa   
c0004acf:	74 69                	je     c0004b3a <vsnprintf+0xbee>
c0004ad1:	6f                   	outsl  %ds:(%esi),(%dx)
c0004ad2:	6e                   	outsb  %ds:(%esi),(%dx)
c0004ad3:	2e 00 00             	add    %al,%cs:(%eax)
c0004ad6:	00 00                	add    %al,(%eax)
c0004ad8:	4a                   	dec    %edx
c0004ad9:	06                   	push   %es
c0004ada:	00 c0                	add    %al,%al
c0004adc:	5b                   	pop    %ebx
c0004add:	06                   	push   %es
c0004ade:	00 c0                	add    %al,%al
c0004ae0:	6c                   	insb   (%dx),%es:(%edi)
c0004ae1:	06                   	push   %es
c0004ae2:	00 c0                	add    %al,%al
c0004ae4:	7d 06                	jge    c0004aec <vsnprintf+0xba0>
c0004ae6:	00 c0                	add    %al,%al
c0004ae8:	bb 06 00 c0 cc       	mov    $0xccc00006,%ebx
c0004aed:	06                   	push   %es
c0004aee:	00 c0                	add    %al,%al
c0004af0:	dd 06                	fldl   (%esi)
c0004af2:	00 c0                	add    %al,%al
c0004af4:	ee                   	out    %al,(%dx)
c0004af5:	06                   	push   %es
c0004af6:	00 c0                	add    %al,%al
c0004af8:	ff 06                	incl   (%esi)
c0004afa:	00 c0                	add    %al,%al
c0004afc:	10 07                	adc    %al,(%edi)
c0004afe:	00 c0                	add    %al,%al
c0004b00:	21 07                	and    %eax,(%edi)
c0004b02:	00 c0                	add    %al,%al
c0004b04:	32 07                	xor    (%edi),%al
c0004b06:	00 c0                	add    %al,%al
c0004b08:	43                   	inc    %ebx
c0004b09:	07                   	pop    %es
c0004b0a:	00 c0                	add    %al,%al
c0004b0c:	54                   	push   %esp
c0004b0d:	07                   	pop    %es
c0004b0e:	00 c0                	add    %al,%al
c0004b10:	98                   	cwtl   
c0004b11:	07                   	pop    %es
c0004b12:	00 c0                	add    %al,%al
c0004b14:	e0 07                	loopne c0004b1d <vsnprintf+0xbd1>
c0004b16:	00 c0                	add    %al,%al
c0004b18:	0a 53 70             	or     0x70(%ebx),%dl
c0004b1b:	75 72                	jne    c0004b8f <vsnprintf+0xc43>
c0004b1d:	69 6f 75 73 20 69 6e 	imul   $0x6e692073,0x75(%edi),%ebp
c0004b24:	74 65                	je     c0004b8b <vsnprintf+0xc3f>
c0004b26:	72 72                	jb     c0004b9a <vsnprintf+0xc4e>
c0004b28:	75 70                	jne    c0004b9a <vsnprintf+0xc4e>
c0004b2a:	74 3a                	je     c0004b66 <vsnprintf+0xc1a>
c0004b2c:	20 2d 3e 25 78 0a    	and    %ch,0xa78253e
c0004b32:	00 00                	add    %al,(%eax)
c0004b34:	55                   	push   %ebp
c0004b35:	6e                   	outsb  %ds:(%esi),(%dx)
c0004b36:	2d 68 61 6e 64       	sub    $0x646e6168,%eax
c0004b3b:	6c                   	insb   (%dx),%es:(%edi)
c0004b3c:	65 64 20 69 6e       	gs and %ch,%fs:%gs:0x6e(%ecx)
c0004b41:	74 65                	je     c0004ba8 <vsnprintf+0xc5c>
c0004b43:	72 72                	jb     c0004bb7 <vsnprintf+0xc6b>
c0004b45:	75 70                	jne    c0004bb7 <vsnprintf+0xc6b>
c0004b47:	74 3a                	je     c0004b83 <vsnprintf+0xc37>
c0004b49:	20 2d 3e 25 78 0a    	and    %ch,0xa78253e
c0004b4f:	00 6b 65             	add    %ch,0x65(%ebx)
c0004b52:	72 6e                	jb     c0004bc2 <vsnprintf+0xc76>
c0004b54:	65                   	gs
c0004b55:	6c                   	insb   (%dx),%es:(%edi)
c0004b56:	2f                   	das    
c0004b57:	69 6e 74 65 72 72 75 	imul   $0x75727265,0x74(%esi),%ebp
c0004b5e:	70 74                	jo     c0004bd4 <vsnprintf+0xc88>
c0004b60:	5f                   	pop    %edi
c0004b61:	68 61 6e 64 6c       	push   $0x6c646e61
c0004b66:	65                   	gs
c0004b67:	72 2e                	jb     c0004b97 <vsnprintf+0xc4b>
c0004b69:	63 00                	arpl   %ax,(%eax)
c0004b6b:	55                   	push   %ebp
c0004b6c:	6e                   	outsb  %ds:(%esi),(%dx)
c0004b6d:	2d 68 61 6e 64       	sub    $0x646e6168,%eax
c0004b72:	6c                   	insb   (%dx),%es:(%edi)
c0004b73:	65 64 20 69 6e       	gs and %ch,%fs:%gs:0x6e(%ecx)
c0004b78:	74 65                	je     c0004bdf <vsnprintf+0xc93>
c0004b7a:	72 72                	jb     c0004bee <vsnprintf+0xca2>
c0004b7c:	75 70                	jne    c0004bee <vsnprintf+0xca2>
c0004b7e:	74 00                	je     c0004b80 <vsnprintf+0xc34>
c0004b80:	0a 4b 45             	or     0x45(%ebx),%cl
c0004b83:	52                   	push   %edx
c0004b84:	4e                   	dec    %esi
c0004b85:	45                   	inc    %ebp
c0004b86:	4c                   	dec    %esp
c0004b87:	20 50 41             	and    %dl,0x41(%eax)
c0004b8a:	4e                   	dec    %esi
c0004b8b:	49                   	dec    %ecx
c0004b8c:	43                   	inc    %ebx
c0004b8d:	20 28                	and    %ch,(%eax)
c0004b8f:	25 73 29 20 0a       	and    $0xa202973,%eax
c0004b94:	09 69 6e             	or     %ebp,0x6e(%ecx)
c0004b97:	20 25 73 20 61 74    	and    %ah,0x74612073
c0004b9d:	20 6c 69 6e          	and    %ch,0x6e(%ecx,%ebp,2)
c0004ba1:	65 20 25 64 00 00 00 	and    %ah,%gs:0x64
c0004ba8:	4d                   	dec    %ebp
c0004ba9:	75 6c                	jne    c0004c17 <vsnprintf+0xccb>
c0004bab:	74 69                	je     c0004c16 <vsnprintf+0xcca>
c0004bad:	70 6c                	jo     c0004c1b <vsnprintf+0xccf>
c0004baf:	65 20 49 52          	and    %cl,%gs:0x52(%ecx)
c0004bb3:	51                   	push   %ecx
c0004bb4:	27                   	daa    
c0004bb5:	73 20                	jae    c0004bd7 <vsnprintf+0xc8b>
c0004bb7:	6f                   	outsl  %ds:(%esi),(%dx)
c0004bb8:	6e                   	outsb  %ds:(%esi),(%dx)
c0004bb9:	20 74 68 65          	and    %dh,0x65(%eax,%ebp,2)
c0004bbd:	20 73 61             	and    %dh,0x61(%ebx)
c0004bc0:	6d                   	insl   (%dx),%es:(%edi)
c0004bc1:	65 20 6c 69 6e       	and    %ch,%gs:0x6e(%ecx,%ebp,2)
c0004bc6:	65 20 6e 6f          	and    %ch,%gs:0x6f(%esi)
c0004bca:	74 20                	je     c0004bec <vsnprintf+0xca0>
c0004bcc:	79 65                	jns    c0004c33 <vsnprintf+0xce7>
c0004bce:	74 20                	je     c0004bf0 <vsnprintf+0xca4>
c0004bd0:	69 6d 70 6c 65 6d 65 	imul   $0x656d656c,0x70(%ebp),%ebp
c0004bd7:	6e                   	outsb  %ds:(%esi),(%dx)
c0004bd8:	74 65                	je     c0004c3f <vsnprintf+0xcf3>
c0004bda:	64 2e 00 0a          	fs add %cl,%cs:%fs:(%edx)
c0004bde:	0d 45 52 52 4f       	or     $0x4f525245,%eax
c0004be3:	52                   	push   %edx
c0004be4:	3a 20                	cmp    (%eax),%ah
c0004be6:	25 73 00 0a 0d       	and    $0xd0a0073,%eax
c0004beb:	54                   	push   %esp
c0004bec:	61                   	popa   
c0004bed:	73 6b                	jae    c0004c5a <vsnprintf+0xd0e>
c0004bef:	20 5b 25             	and    %bl,0x25(%ebx)
c0004bf2:	73 5d                	jae    c0004c51 <vsnprintf+0xd05>
c0004bf4:	20 28                	and    %ch,(%eax)
c0004bf6:	25 69 29 20 6b       	and    $0x6b202969,%eax
c0004bfb:	69 6c 6c 65 64 21 00 	imul   $0xa002164,0x65(%esp,%ebp,2),%ebp
c0004c02:	0a 
c0004c03:	0d 00 52 65 73       	or     $0x73655200,%eax
c0004c08:	65                   	gs
c0004c09:	74 20                	je     c0004c2b <vsnprintf+0xcdf>
c0004c0b:	73 79                	jae    c0004c86 <vsnprintf+0xd3a>
c0004c0d:	73 74                	jae    c0004c83 <vsnprintf+0xd37>
c0004c0f:	65                   	gs
c0004c10:	6d                   	insl   (%dx),%es:(%edi)
c0004c11:	20 63 6c             	and    %ah,0x6c(%ebx)
c0004c14:	6f                   	outsl  %ds:(%esi),(%dx)
c0004c15:	63 6b 2e             	arpl   %bp,0x2e(%ebx)
c0004c18:	2e 2e 00 0a          	cs add %cl,%cs:(%edx)
c0004c1c:	09 09                	or     %ecx,(%ecx)
c0004c1e:	09 09                	or     %ecx,(%ecx)
c0004c20:	09 5b 20             	or     %ebx,0x20(%ebx)
c0004c23:	4f                   	dec    %edi
c0004c24:	4b                   	dec    %ebx
c0004c25:	20 5d 0a             	and    %bl,0xa(%ebp)
c0004c28:	0d 00 0a 0d 52       	or     $0x520d0a00,%eax
c0004c2d:	65 62 6f 6f          	bound  %ebp,%gs:0x6f(%edi)
c0004c31:	74 69                	je     c0004c9c <vsnprintf+0xd50>
c0004c33:	6e                   	outsb  %ds:(%esi),(%dx)
c0004c34:	67 20 73 79          	and    %dh,0x79(%bp,%di)
c0004c38:	73 74                	jae    c0004cae <vsnprintf+0xd62>
c0004c3a:	65                   	gs
c0004c3b:	6d                   	insl   (%dx),%es:(%edi)
c0004c3c:	2e 2e 2e 00 0a       	cs cs add %cl,%cs:(%edx)
c0004c41:	70 20                	jo     c0004c63 <vsnprintf+0xd17>
c0004c43:	20 20                	and    %ah,(%eax)
c0004c45:	20 20                	and    %ah,(%eax)
c0004c47:	20 20                	and    %ah,(%eax)
c0004c49:	20 3d 20 25 23 30    	and    %bh,0x30232520
c0004c4f:	31 30                	xor    %esi,(%eax)
c0004c51:	78 20                	js     c0004c73 <vsnprintf+0xd27>
c0004c53:	0a 70 2d             	or     0x2d(%eax),%dh
c0004c56:	3e                   	ds
c0004c57:	6d                   	insl   (%dx),%es:(%edi)
c0004c58:	61                   	popa   
c0004c59:	67 69 63 20 3d 20 25 	imul   $0x2325203d,0x20(%bp,%di),%esp
c0004c60:	23 
c0004c61:	30 31                	xor    %dh,(%ecx)
c0004c63:	30 58 0a             	xor    %bl,0xa(%eax)
c0004c66:	70 2d                	jo     c0004c95 <vsnprintf+0xd49>
c0004c68:	3e                   	ds
c0004c69:	66                   	data16
c0004c6a:	6c                   	insb   (%dx),%es:(%edi)
c0004c6b:	61                   	popa   
c0004c6c:	67 73 20             	addr16 jae c0004c8f <vsnprintf+0xd43>
c0004c6f:	3d 20 25 23 30       	cmp    $0x30232520,%eax
c0004c74:	31 30                	xor    %esi,(%eax)
c0004c76:	78 0a                	js     c0004c82 <vsnprintf+0xd36>
c0004c78:	70 2d                	jo     c0004ca7 <vsnprintf+0xd5b>
c0004c7a:	3e 73 69             	jae,pt c0004ce6 <vsnprintf+0xd9a>
c0004c7d:	7a 65                	jp     c0004ce4 <vsnprintf+0xd98>
c0004c7f:	20 20                	and    %ah,(%eax)
c0004c81:	3d 20 25 75 20       	cmp    $0x20752520,%eax
c0004c86:	0a 70 2d             	or     0x2d(%eax),%dh
c0004c89:	3e 6f                	outsl  %ds:(%esi),(%dx)
c0004c8b:	77 6e                	ja     c0004cfb <vsnprintf+0xdaf>
c0004c8d:	65                   	gs
c0004c8e:	72 20                	jb     c0004cb0 <vsnprintf+0xd64>
c0004c90:	3d 20 25 69 0a       	cmp    $0xa692520,%eax
c0004c95:	00 00                	add    %al,(%eax)
c0004c97:	00 50 61             	add    %dl,0x61(%eax)
c0004c9a:	67 69 6e 67 20 61 6e 	imul   $0x646e6120,0x67(%bp),%ebp
c0004ca1:	64 
c0004ca2:	20 56 69             	and    %dl,0x69(%esi)
c0004ca5:	64 65 6f             	fs outsl %fs:%gs:(%esi),(%dx)
c0004ca8:	20 69 6e             	and    %ch,0x6e(%ecx)
c0004cab:	69 74 69 61 6c 69 7a 	imul   $0x657a696c,0x61(%ecx,%ebp,2),%esi
c0004cb2:	65 
c0004cb3:	64 20 73 75          	and    %dh,%fs:0x75(%ebx)
c0004cb7:	63 63 65             	arpl   %sp,0x65(%ebx)
c0004cba:	73 73                	jae    c0004d2f <vsnprintf+0xde3>
c0004cbc:	66                   	data16
c0004cbd:	75 6c                	jne    c0004d2b <vsnprintf+0xddf>
c0004cbf:	6c                   	insb   (%dx),%es:(%edi)
c0004cc0:	79 2e                	jns    c0004cf0 <vsnprintf+0xda4>
c0004cc2:	2e 2e 0a 00          	cs or  %cs:(%eax),%al
c0004cc6:	57                   	push   %edi
c0004cc7:	65                   	gs
c0004cc8:	6c                   	insb   (%dx),%es:(%edi)
c0004cc9:	63 6f 6d             	arpl   %bp,0x6d(%edi)
c0004ccc:	65 20 54 6f 20       	and    %dl,%gs:0x20(%edi,%ebp,2)
c0004cd1:	00 42 6c             	add    %al,0x6c(%edx)
c0004cd4:	75 65                	jne    c0004d3b <vsnprintf+0xdef>
c0004cd6:	20 46 69             	and    %al,0x69(%esi)
c0004cd9:	72 65                	jb     c0004d40 <vsnprintf+0xdf4>
c0004cdb:	20 4f 53             	and    %cl,0x53(%edi)
c0004cde:	20 00                	and    %al,(%eax)
c0004ce0:	30 30                	xor    %dh,(%eax)
c0004ce2:	2e 30 30             	xor    %dh,%cs:(%eax)
c0004ce5:	2e 30 38             	xor    %bh,%cs:(%eax)
c0004ce8:	00 42 4c             	add    %al,0x4c(%edx)
c0004ceb:	55                   	push   %ebp
c0004cec:	45                   	inc    %ebp
c0004ced:	20 46 49             	and    %al,0x49(%esi)
c0004cf0:	52                   	push   %edx
c0004cf1:	45                   	inc    %ebp
c0004cf2:	20 28                	and    %ch,(%eax)
c0004cf4:	49                   	dec    %ecx
c0004cf5:	41                   	inc    %ecx
c0004cf6:	2d 33 32 29 00       	sub    $0x293233,%eax
c0004cfb:	28 25 73 29 20 76    	sub    %ah,0x76202973
c0004d01:	65                   	gs
c0004d02:	72 73                	jb     c0004d77 <vsnprintf+0xe2b>
c0004d04:	69 6f 6e 20 25 73 2e 	imul   $0x2e732520,0x6e(%edi),%ebp
c0004d0b:	0a 00                	or     (%eax),%al
c0004d0d:	00 00                	add    %al,(%eax)
c0004d0f:	00 4b 65             	add    %cl,0x65(%ebx)
c0004d12:	72 6e                	jb     c0004d82 <vsnprintf+0xe36>
c0004d14:	65                   	gs
c0004d15:	6c                   	insb   (%dx),%es:(%edi)
c0004d16:	20 69 73             	and    %ch,0x73(%ecx)
c0004d19:	20 72 75             	and    %dh,0x75(%edx)
c0004d1c:	6e                   	outsb  %ds:(%esi),(%dx)
c0004d1d:	6e                   	outsb  %ds:(%esi),(%dx)
c0004d1e:	69 6e 67 20 61 74 20 	imul   $0x20746120,0x67(%esi),%ebp
c0004d25:	76 69                	jbe    c0004d90 <vsnprintf+0xe44>
c0004d27:	72 74                	jb     c0004d9d <vsnprintf+0xe51>
c0004d29:	75 61                	jne    c0004d8c <vsnprintf+0xe40>
c0004d2b:	6c                   	insb   (%dx),%es:(%edi)
c0004d2c:	20 61 64             	and    %ah,0x64(%ecx)
c0004d2f:	64                   	fs
c0004d30:	72 65                	jb     c0004d97 <vsnprintf+0xe4b>
c0004d32:	73 73                	jae    c0004da7 <vsnprintf+0xe5b>
c0004d34:	3a 20                	cmp    (%eax),%ah
c0004d36:	25 23 30 31 30       	and    $0x30313023,%eax
c0004d3b:	78 0a                	js     c0004d47 <vsnprintf+0xdfb>
c0004d3d:	00 00                	add    %al,(%eax)
c0004d3f:	00 54 6f 74          	add    %dl,0x74(%edi,%ebp,2)
c0004d43:	61                   	popa   
c0004d44:	6c                   	insb   (%dx),%es:(%edi)
c0004d45:	20 53 79             	and    %dl,0x79(%ebx)
c0004d48:	73 74                	jae    c0004dbe <vsnprintf+0xe72>
c0004d4a:	65                   	gs
c0004d4b:	6d                   	insl   (%dx),%es:(%edi)
c0004d4c:	20 6d 65             	and    %ch,0x65(%ebp)
c0004d4f:	6d                   	insl   (%dx),%es:(%edi)
c0004d50:	6f                   	outsl  %ds:(%esi),(%dx)
c0004d51:	72 79                	jb     c0004dcc <vsnprintf+0xe80>
c0004d53:	20 69 73             	and    %ch,0x73(%ecx)
c0004d56:	3a 20                	cmp    (%eax),%ah
c0004d58:	25 64 20 4d 42       	and    $0x424d2064,%eax
c0004d5d:	0a 0a                	or     (%edx),%cl
c0004d5f:	00 52 65             	add    %dl,0x65(%edx)
c0004d62:	70 72                	jo     c0004dd6 <vsnprintf+0xe8a>
c0004d64:	6f                   	outsl  %ds:(%esi),(%dx)
c0004d65:	67 72 61             	addr16 jb c0004dc9 <vsnprintf+0xe7d>
c0004d68:	6d                   	insl   (%dx),%es:(%edi)
c0004d69:	6d                   	insl   (%dx),%es:(%edi)
c0004d6a:	69 6e 67 20 50 49 43 	imul   $0x43495020,0x67(%esi),%ebp
c0004d71:	20 38                	and    %bh,(%eax)
c0004d73:	32 35 39 2e 2e 2e    	xor    0x2e2e2e39,%dh
c0004d79:	00 49 6e             	add    %cl,0x6e(%ecx)
c0004d7c:	73 74                	jae    c0004df2 <vsnprintf+0xea6>
c0004d7e:	61                   	popa   
c0004d7f:	6c                   	insb   (%dx),%es:(%edi)
c0004d80:	6c                   	insb   (%dx),%es:(%edi)
c0004d81:	69 6e 67 20 6b 65 72 	imul   $0x72656b20,0x67(%esi),%ebp
c0004d88:	6e                   	outsb  %ds:(%esi),(%dx)
c0004d89:	65                   	gs
c0004d8a:	6c                   	insb   (%dx),%es:(%edi)
c0004d8b:	20 47 44             	and    %al,0x44(%edi)
c0004d8e:	54                   	push   %esp
c0004d8f:	2e 2e 2e 00 49 6e    	cs cs add %cl,%cs:0x6e(%ecx)
c0004d95:	73 74                	jae    c0004e0b <vsnprintf+0xebf>
c0004d97:	61                   	popa   
c0004d98:	6c                   	insb   (%dx),%es:(%edi)
c0004d99:	6c                   	insb   (%dx),%es:(%edi)
c0004d9a:	69 6e 67 20 6b 65 72 	imul   $0x72656b20,0x67(%esi),%ebp
c0004da1:	6e                   	outsb  %ds:(%esi),(%dx)
c0004da2:	65                   	gs
c0004da3:	6c                   	insb   (%dx),%es:(%edi)
c0004da4:	20 49 44             	and    %cl,0x44(%ecx)
c0004da7:	54                   	push   %esp
c0004da8:	2e 2e 2e 00 49 6e    	cs cs add %cl,%cs:0x6e(%ecx)
c0004dae:	69 74 69 61 6c 69 7a 	imul   $0x697a696c,0x61(%ecx,%ebp,2),%esi
c0004db5:	69 
c0004db6:	6e                   	outsb  %ds:(%esi),(%dx)
c0004db7:	67 20 6d 65          	and    %ch,0x65(%di)
c0004dbb:	6d                   	insl   (%dx),%es:(%edi)
c0004dbc:	6f                   	outsl  %ds:(%esi),(%dx)
c0004dbd:	72 79                	jb     c0004e38 <vsnprintf+0xeec>
c0004dbf:	20 6d 61             	and    %ch,0x61(%ebp)
c0004dc2:	6e                   	outsb  %ds:(%esi),(%dx)
c0004dc3:	61                   	popa   
c0004dc4:	67                   	addr16
c0004dc5:	65                   	gs
c0004dc6:	72 2e                	jb     c0004df6 <vsnprintf+0xeaa>
c0004dc8:	2e 2e 00 00          	cs add %al,%cs:(%eax)
c0004dcc:	49                   	dec    %ecx
c0004dcd:	6e                   	outsb  %ds:(%esi),(%dx)
c0004dce:	69 74 69 61 6c 69 7a 	imul   $0x697a696c,0x61(%ecx,%ebp,2),%esi
c0004dd5:	69 
c0004dd6:	6e                   	outsb  %ds:(%esi),(%dx)
c0004dd7:	67 20 44 69          	and    %al,0x69(%si)
c0004ddb:	72 65                	jb     c0004e42 <vsnprintf+0xef6>
c0004ddd:	63 74 20 4d          	arpl   %si,0x4d(%eax,%eiz,1)
c0004de1:	65                   	gs
c0004de2:	6d                   	insl   (%dx),%es:(%edi)
c0004de3:	6f                   	outsl  %ds:(%esi),(%dx)
c0004de4:	72 79                	jb     c0004e5f <vsnprintf+0xf13>
c0004de6:	20 41 63             	and    %al,0x63(%ecx)
c0004de9:	63 65 73             	arpl   %sp,0x73(%ebp)
c0004dec:	73 2e                	jae    c0004e1c <vsnprintf+0xed0>
c0004dee:	2e 2e 00 49 6e       	cs add %cl,%cs:0x6e(%ecx)
c0004df3:	69 74 69 61 6c 69 7a 	imul   $0x697a696c,0x61(%ecx,%ebp,2),%esi
c0004dfa:	69 
c0004dfb:	6e                   	outsb  %ds:(%esi),(%dx)
c0004dfc:	67 20 6d 75          	and    %ch,0x75(%di)
c0004e00:	6c                   	insb   (%dx),%es:(%edi)
c0004e01:	74 69                	je     c0004e6c <vsnprintf+0xf20>
c0004e03:	74 61                	je     c0004e66 <vsnprintf+0xf1a>
c0004e05:	73 6b                	jae    c0004e72 <vsnprintf+0xf26>
c0004e07:	69 6e 67 2e 2e 2e 00 	imul   $0x2e2e2e,0x67(%esi),%ebp
c0004e0e:	49                   	dec    %ecx
c0004e0f:	6e                   	outsb  %ds:(%esi),(%dx)
c0004e10:	69 74 69 61 6c 69 7a 	imul   $0x697a696c,0x61(%ecx,%ebp,2),%esi
c0004e17:	69 
c0004e18:	6e                   	outsb  %ds:(%esi),(%dx)
c0004e19:	67 20 73 79          	and    %dh,0x79(%bp,%di)
c0004e1d:	73 74                	jae    c0004e93 <vsnprintf+0xf47>
c0004e1f:	65                   	gs
c0004e20:	6d                   	insl   (%dx),%es:(%edi)
c0004e21:	20 63 6c             	and    %ah,0x6c(%ebx)
c0004e24:	6f                   	outsl  %ds:(%esi),(%dx)
c0004e25:	63 6b 2e             	arpl   %bp,0x2e(%ebx)
c0004e28:	2e 2e 00 49 6e       	cs add %cl,%cs:0x6e(%ecx)
c0004e2d:	69 74 69 61 6c 69 7a 	imul   $0x697a696c,0x61(%ecx,%ebp,2),%esi
c0004e34:	69 
c0004e35:	6e                   	outsb  %ds:(%esi),(%dx)
c0004e36:	67 20 6b 65          	and    %ch,0x65(%bp,%di)
c0004e3a:	79 62                	jns    c0004e9e <vsnprintf+0xf52>
c0004e3c:	6f                   	outsl  %ds:(%esi),(%dx)
c0004e3d:	61                   	popa   
c0004e3e:	72 64                	jb     c0004ea4 <vsnprintf+0xf58>
c0004e40:	2e 2e 00 25 63 00 0d 	cs add %ah,%cs:0x90d0063
c0004e47:	09 
c0004e48:	09 09                	or     %ecx,(%ecx)
c0004e4a:	09 09                	or     %ecx,(%ecx)
c0004e4c:	09 5b 20             	or     %ebx,0x20(%ebx)
c0004e4f:	00 4f 4b             	add    %cl,0x4b(%edi)
c0004e52:	00 20                	add    %ah,(%eax)
c0004e54:	5d                   	pop    %ebp
c0004e55:	0a 00                	or     (%eax),%al
c0004e57:	46                   	inc    %esi
c0004e58:	61                   	popa   
c0004e59:	69 6c 65 64 00 00 00 	imul   $0xa000000,0x64(%ebp,%eiz,2),%ebp
c0004e60:	0a 
c0004e61:	57                   	push   %edi
c0004e62:	65                   	gs
c0004e63:	6c                   	insb   (%dx),%es:(%edi)
c0004e64:	63 6f 6d             	arpl   %bp,0x6d(%edi)
c0004e67:	65 20 66 72          	and    %ah,%gs:0x72(%esi)
c0004e6b:	6f                   	outsl  %ds:(%esi),(%dx)
c0004e6c:	6d                   	insl   (%dx),%es:(%edi)
c0004e6d:	20 74 61 73          	and    %dh,0x73(%ecx,%eiz,2)
c0004e71:	6b 20 25             	imul   $0x25,(%eax),%esp
c0004e74:	75 21                	jne    c0004e97 <vsnprintf+0xf4b>
c0004e76:	21 21                	and    %esp,(%ecx)
c0004e78:	4d                   	dec    %ebp
c0004e79:	79 20                	jns    c0004e9b <vsnprintf+0xf4f>
c0004e7b:	6b 6d 61 6c          	imul   $0x6c,0x61(%ebp),%ebp
c0004e7f:	6c                   	insb   (%dx),%es:(%edi)
c0004e80:	6f                   	outsl  %ds:(%esi),(%dx)
c0004e81:	63 20                	arpl   %sp,(%eax)
c0004e83:	77 61                	ja     c0004ee6 <vsnprintf+0xf9a>
c0004e85:	73 20                	jae    c0004ea7 <vsnprintf+0xf5b>
c0004e87:	25 58 2e 20 48       	and    $0x48202e58,%eax
c0004e8c:	65                   	gs
c0004e8d:	72 65                	jb     c0004ef4 <vsnprintf+0xfa8>
c0004e8f:	20 69 73             	and    %ch,0x73(%ecx)
c0004e92:	20 6d 79             	and    %ch,0x79(%ebp)
c0004e95:	20 50 44             	and    %dl,0x44(%eax)
c0004e98:	42                   	inc    %edx
c0004e99:	52                   	push   %edx
c0004e9a:	20 25 58 00 00 00    	and    %ah,0x58
c0004ea0:	0a 43 72             	or     0x72(%ebx),%al
c0004ea3:	65                   	gs
c0004ea4:	61                   	popa   
c0004ea5:	74 69                	je     c0004f10 <vsnprintf+0xfc4>
c0004ea7:	6e                   	outsb  %ds:(%esi),(%dx)
c0004ea8:	67 20 25             	and    %ah,(%di)
c0004eab:	75 20                	jne    c0004ecd <vsnprintf+0xf81>
c0004ead:	74 61                	je     c0004f10 <vsnprintf+0xfc4>
c0004eaf:	73 6b                	jae    c0004f1c <vsnprintf+0xfd0>
c0004eb1:	73 2e                	jae    c0004ee1 <vsnprintf+0xf95>
c0004eb3:	20 50 6c             	and    %dl,0x6c(%eax)
c0004eb6:	65                   	gs
c0004eb7:	61                   	popa   
c0004eb8:	73 65                	jae    c0004f1f <vsnprintf+0xfd3>
c0004eba:	20 77 61             	and    %dh,0x61(%edi)
c0004ebd:	69 74 2e 2e 2e 20 00 	imul   $0x7300202e,0x2e(%esi,%ebp,1),%esi
c0004ec4:	73 
c0004ec5:	68 5f 74 61 73       	push   $0x7361745f
c0004eca:	6b 5f 74 65          	imul   $0x65,0x74(%edi),%ebx
c0004ece:	73 74                	jae    c0004f44 <vsnprintf+0xff8>
c0004ed0:	00 00                	add    %al,(%eax)
c0004ed2:	00 00                	add    %al,(%eax)
c0004ed4:	6b 65 72 6e          	imul   $0x6e,0x72(%ebp),%esp
c0004ed8:	65                   	gs
c0004ed9:	6c                   	insb   (%dx),%es:(%edi)
c0004eda:	2f                   	das    
c0004edb:	6d                   	insl   (%dx),%es:(%edi)
c0004edc:	65                   	gs
c0004edd:	6d                   	insl   (%dx),%es:(%edi)
c0004ede:	2e 63 00             	arpl   %ax,%cs:(%eax)
c0004ee1:	4f                   	dec    %edi
c0004ee2:	75 74                	jne    c0004f58 <vsnprintf+0x100c>
c0004ee4:	20 6f 66             	and    %ch,0x66(%edi)
c0004ee7:	20 47 44             	and    %al,0x44(%edi)
c0004eea:	54                   	push   %esp
c0004eeb:	20 65 6e             	and    %ah,0x6e(%ebp)
c0004eee:	74 72                	je     c0004f62 <vsnprintf+0x1016>
c0004ef0:	69 65 73 21 21 21 00 	imul   $0x212121,0x73(%ebp),%esp
c0004ef7:	00 0a                	add    %cl,(%edx)
c0004ef9:	4b                   	dec    %ebx
c0004efa:	45                   	inc    %ebp
c0004efb:	52                   	push   %edx
c0004efc:	4e                   	dec    %esi
c0004efd:	45                   	inc    %ebp
c0004efe:	4c                   	dec    %esp
c0004eff:	20 50 41             	and    %dl,0x41(%eax)
c0004f02:	4e                   	dec    %esi
c0004f03:	49                   	dec    %ecx
c0004f04:	43                   	inc    %ebx
c0004f05:	20 28                	and    %ch,(%eax)
c0004f07:	25 73 29 20 0a       	and    $0xa202973,%eax
c0004f0c:	09 69 6e             	or     %ebp,0x6e(%ecx)
c0004f0f:	20 25 73 20 61 74    	and    %ah,0x74612073
c0004f15:	20 6c 69 6e          	and    %ch,0x6e(%ecx,%ebp,2)
c0004f19:	65 20 25 64 00 00 00 	and    %ah,%gs:0x64
c0004f20:	0a 0d 50 61 67 65    	or     0x65676150,%cl
c0004f26:	20 66 61             	and    %ah,0x61(%esi)
c0004f29:	75 6c                	jne    c0004f97 <vsnprintf+0x104b>
c0004f2b:	74 20                	je     c0004f4d <vsnprintf+0x1001>
c0004f2d:	68 61 6e 64 6c       	push   $0x6c646e61
c0004f32:	65                   	gs
c0004f33:	72 20                	jb     c0004f55 <vsnprintf+0x1009>
c0004f35:	70 61                	jo     c0004f98 <vsnprintf+0x104c>
c0004f37:	6e                   	outsb  %ds:(%esi),(%dx)
c0004f38:	69 63 3a 20 4f 75 74 	imul   $0x74754f20,0x3a(%ebx),%esp
c0004f3f:	20 6f 66             	and    %ch,0x66(%edi)
c0004f42:	20 6d 65             	and    %ch,0x65(%ebp)
c0004f45:	6d                   	insl   (%dx),%es:(%edi)
c0004f46:	6f                   	outsl  %ds:(%esi),(%dx)
c0004f47:	72 79                	jb     c0004fc2 <vsnprintf+0x1076>
c0004f49:	21 21                	and    %esp,(%ecx)
c0004f4b:	21 00                	and    %eax,(%eax)
c0004f4d:	0a 44 69 72          	or     0x72(%ecx,%ebp,2),%al
c0004f51:	74 79                	je     c0004fcc <vsnprintf+0x1080>
c0004f53:	20 70 61             	and    %dh,0x61(%eax)
c0004f56:	67                   	addr16
c0004f57:	65                   	gs
c0004f58:	73 3a                	jae    c0004f94 <vsnprintf+0x1048>
c0004f5a:	0a 00                	or     (%eax),%al
c0004f5c:	0a 76 69             	or     0x69(%esi),%dh
c0004f5f:	72 5f                	jb     c0004fc0 <vsnprintf+0x1074>
c0004f61:	61                   	popa   
c0004f62:	64                   	fs
c0004f63:	64                   	fs
c0004f64:	72 20                	jb     c0004f86 <vsnprintf+0x103a>
c0004f66:	3d 20 25 58 09       	cmp    $0x9582520,%eax
c0004f6b:	70 61                	jo     c0004fce <vsnprintf+0x1082>
c0004f6d:	67                   	addr16
c0004f6e:	65                   	gs
c0004f6f:	5f                   	pop    %edi
c0004f70:	65 6e                	outsb  %gs:(%esi),(%dx)
c0004f72:	74 72                	je     c0004fe6 <vsnprintf+0x109a>
c0004f74:	79 20                	jns    c0004f96 <vsnprintf+0x104a>
c0004f76:	3d 20 25 58 00       	cmp    $0x582520,%eax
c0004f7b:	0a 00                	or     (%eax),%al
c0004f7d:	00 00                	add    %al,(%eax)
c0004f7f:	00 0a                	add    %cl,(%edx)
c0004f81:	46                   	inc    %esi
c0004f82:	72 65                	jb     c0004fe9 <vsnprintf+0x109d>
c0004f84:	65 20 66 72          	and    %ah,%gs:0x72(%esi)
c0004f88:	61                   	popa   
c0004f89:	6d                   	insl   (%dx),%es:(%edi)
c0004f8a:	65                   	gs
c0004f8b:	73 20                	jae    c0004fad <vsnprintf+0x1061>
c0004f8d:	6c                   	insb   (%dx),%es:(%edi)
c0004f8e:	69 73 74 3a 20 28 4b 	imul   $0x4b28203a,0x74(%ebx),%esi
c0004f95:	45                   	inc    %ebp
c0004f96:	52                   	push   %edx
c0004f97:	4e                   	dec    %esi
c0004f98:	45                   	inc    %ebp
c0004f99:	4c                   	dec    %esp
c0004f9a:	5f                   	pop    %edi
c0004f9b:	54                   	push   %esp
c0004f9c:	4f                   	dec    %edi
c0004f9d:	50                   	push   %eax
c0004f9e:	3d 25 58 29 0a       	cmp    $0xa295825,%eax
c0004fa3:	00 0a                	add    %cl,(%edx)
c0004fa5:	66                   	data16
c0004fa6:	72 61                	jb     c0005009 <vsnprintf+0x10bd>
c0004fa8:	6d                   	insl   (%dx),%es:(%edi)
c0004fa9:	65 20 23             	and    %ah,%gs:(%ebx)
c0004fac:	25 58 20 26 66       	and    $0x66262058,%eax
c0004fb1:	72 61                	jb     c0005014 <vsnprintf+0x10c8>
c0004fb3:	6d                   	insl   (%dx),%es:(%edi)
c0004fb4:	65                   	gs
c0004fb5:	3d 25 58 00 4f       	cmp    $0x4f005825,%eax
c0004fba:	75 74                	jne    c0005030 <vsnprintf+0x10e4>
c0004fbc:	20 6f 66             	and    %ch,0x66(%edi)
c0004fbf:	20 76 69             	and    %dh,0x69(%esi)
c0004fc2:	72 74                	jb     c0005038 <vsnprintf+0x10ec>
c0004fc4:	75 61                	jne    c0005027 <vsnprintf+0x10db>
c0004fc6:	6c                   	insb   (%dx),%es:(%edi)
c0004fc7:	20 6d 65             	and    %ch,0x65(%ebp)
c0004fca:	6d                   	insl   (%dx),%es:(%edi)
c0004fcb:	6f                   	outsl  %ds:(%esi),(%dx)
c0004fcc:	72 79                	jb     c0005047 <vsnprintf+0x10fb>
c0004fce:	21 21                	and    %esp,(%ecx)
c0004fd0:	21 00                	and    %eax,(%eax)
c0004fd2:	00 00                	add    %al,(%eax)
c0004fd4:	0a 0d 4f 75 74 20    	or     0x2074754f,%cl
c0004fda:	6f                   	outsl  %ds:(%esi),(%dx)
c0004fdb:	66                   	data16
c0004fdc:	20 76 69             	and    %dh,0x69(%esi)
c0004fdf:	72 74                	jb     c0005055 <vsnprintf+0x1109>
c0004fe1:	75 61                	jne    c0005044 <vsnprintf+0x10f8>
c0004fe3:	6c                   	insb   (%dx),%es:(%edi)
c0004fe4:	20 6d 65             	and    %ch,0x65(%ebp)
c0004fe7:	6d                   	insl   (%dx),%es:(%edi)
c0004fe8:	6f                   	outsl  %ds:(%esi),(%dx)
c0004fe9:	72 79                	jb     c0005064 <vsnprintf+0x1118>
c0004feb:	21 21                	and    %esp,(%ecx)
c0004fed:	21 20                	and    %esp,(%eax)
c0004fef:	43                   	inc    %ebx
c0004ff0:	61                   	popa   
c0004ff1:	6e                   	outsb  %ds:(%esi),(%dx)
c0004ff2:	6e                   	outsb  %ds:(%esi),(%dx)
c0004ff3:	6f                   	outsl  %ds:(%esi),(%dx)
c0004ff4:	74 20                	je     c0005016 <vsnprintf+0x10ca>
c0004ff6:	63 72 65             	arpl   %si,0x65(%edx)
c0004ff9:	61                   	popa   
c0004ffa:	74 65                	je     c0005061 <vsnprintf+0x1115>
c0004ffc:	20 74 61 73          	and    %dh,0x73(%ecx,%eiz,2)
c0005000:	6b 20 5b             	imul   $0x5b,(%eax),%esp
c0005003:	25 73 5d 2e 00       	and    $0x2e5d73,%eax
c0005008:	0a 0d 4f 75 74 20    	or     0x2074754f,%cl
c000500e:	6f                   	outsl  %ds:(%esi),(%dx)
c000500f:	66                   	data16
c0005010:	20 70 68             	and    %dh,0x68(%eax)
c0005013:	79 73                	jns    c0005088 <vsnprintf+0x113c>
c0005015:	69 63 61 6c 20 6d 65 	imul   $0x656d206c,0x61(%ebx),%esp
c000501c:	6d                   	insl   (%dx),%es:(%edi)
c000501d:	6f                   	outsl  %ds:(%esi),(%dx)
c000501e:	72 79                	jb     c0005099 <vsnprintf+0x114d>
c0005020:	21 21                	and    %esp,(%ecx)
c0005022:	21 20                	and    %esp,(%eax)
c0005024:	43                   	inc    %ebx
c0005025:	61                   	popa   
c0005026:	6e                   	outsb  %ds:(%esi),(%dx)
c0005027:	6e                   	outsb  %ds:(%esi),(%dx)
c0005028:	6f                   	outsl  %ds:(%esi),(%dx)
c0005029:	74 20                	je     c000504b <vsnprintf+0x10ff>
c000502b:	63 72 65             	arpl   %si,0x65(%edx)
c000502e:	61                   	popa   
c000502f:	74 65                	je     c0005096 <vsnprintf+0x114a>
c0005031:	20 74 61 73          	and    %dh,0x73(%ecx,%eiz,2)
c0005035:	6b 20 5b             	imul   $0x5b,(%eax),%esp
c0005038:	25 73 5d 2e 00       	and    $0x2e5d73,%eax
c000503d:	69 6e 69 74 00 69 64 	imul   $0x64690074,0x69(%esi),%ebp
c0005044:	6c                   	insb   (%dx),%es:(%edi)
c0005045:	65 00 6b 70          	add    %ch,%gs:0x70(%ebx)
c0005049:	61                   	popa   
c000504a:	67                   	addr16
c000504b:	65                   	gs
c000504c:	72 00                	jb     c000504e <vsnprintf+0x1102>
c000504e:	50                   	push   %eax
c000504f:	49                   	dec    %ecx
c0005050:	44                   	inc    %esp
c0005051:	09 53 54             	or     %edx,0x54(%ebx)
c0005054:	41                   	inc    %ecx
c0005055:	54                   	push   %esp
c0005056:	45                   	inc    %ebp
c0005057:	09 43 4f             	or     %eax,0x4f(%ebx)
c000505a:	4d                   	dec    %ebp
c000505b:	4d                   	dec    %ebp
c000505c:	41                   	inc    %ecx
c000505d:	4e                   	dec    %esi
c000505e:	44                   	inc    %esp
c000505f:	0a 00                	or     (%eax),%al
c0005061:	25 64 09 52 65       	and    $0x65520964,%eax
c0005066:	61                   	popa   
c0005067:	64                   	fs
c0005068:	79 09                	jns    c0005073 <vsnprintf+0x1127>
c000506a:	25 73 0a 00 25       	and    $0x25000a73,%eax
c000506f:	64 09 57 61          	or     %edx,%fs:0x61(%edi)
c0005073:	69 74 09 25 73 0a 00 	imul   $0x25000a73,0x25(%ecx,%ecx,1),%esi
c000507a:	25 
c000507b:	64 09 5a 6f          	or     %ebx,%fs:0x6f(%edx)
c000507f:	6d                   	insl   (%dx),%es:(%edi)
c0005080:	62 69 65             	bound  %ebp,0x65(%ecx)
c0005083:	09 25 73 0a 00 64    	or     %esp,0x64000a73
c0005089:	3a 00                	cmp    (%eax),%al
c000508b:	c0 1f 39             	rcrb   $0x39,(%edi)
c000508e:	00 c0                	add    %al,%al
c0005090:	9e                   	sahf   
c0005091:	39 00                	cmp    %eax,(%eax)
c0005093:	c0                   	(bad)  
c0005094:	f7 38                	idivl  (%eax)
c0005096:	00 c0                	add    %al,%al
c0005098:	b5 39                	mov    $0x39,%ch
c000509a:	00 c0                	add    %al,%al
c000509c:	b5 39                	mov    $0x39,%ch
c000509e:	00 c0                	add    %al,%al
c00050a0:	13 39                	adc    (%ecx),%edi
c00050a2:	00 c0                	add    %al,%al
c00050a4:	3c 4e                	cmp    $0x4e,%al
c00050a6:	55                   	push   %ebp
c00050a7:	4c                   	dec    %esp
c00050a8:	4c                   	dec    %esp
c00050a9:	3e 00 00             	add    %al,%ds:(%eax)
c00050ac:	ed                   	in     (%dx),%eax
c00050ad:	3f                   	aas    
c00050ae:	00 c0                	add    %al,%al
c00050b0:	ff                   	(bad)  
c00050b1:	3f                   	aas    
c00050b2:	00 c0                	add    %al,%al
c00050b4:	ff                   	(bad)  
c00050b5:	3f                   	aas    
c00050b6:	00 c0                	add    %al,%al
c00050b8:	f3 3f                	repz aas 
c00050ba:	00 c0                	add    %al,%al
c00050bc:	ff                   	(bad)  
c00050bd:	3f                   	aas    
c00050be:	00 c0                	add    %al,%al
c00050c0:	ff                   	(bad)  
c00050c1:	3f                   	aas    
c00050c2:	00 c0                	add    %al,%al
c00050c4:	ff                   	(bad)  
c00050c5:	3f                   	aas    
c00050c6:	00 c0                	add    %al,%al
c00050c8:	ff                   	(bad)  
c00050c9:	3f                   	aas    
c00050ca:	00 c0                	add    %al,%al
c00050cc:	ff                   	(bad)  
c00050cd:	3f                   	aas    
c00050ce:	00 c0                	add    %al,%al
c00050d0:	ff                   	(bad)  
c00050d1:	3f                   	aas    
c00050d2:	00 c0                	add    %al,%al
c00050d4:	ff                   	(bad)  
c00050d5:	3f                   	aas    
c00050d6:	00 c0                	add    %al,%al
c00050d8:	e7 3f                	out    %eax,$0x3f
c00050da:	00 c0                	add    %al,%al
c00050dc:	ff                   	(bad)  
c00050dd:	3f                   	aas    
c00050de:	00 c0                	add    %al,%al
c00050e0:	e1 3f                	loope  c0005121 <vsnprintf+0x11d5>
c00050e2:	00 c0                	add    %al,%al
c00050e4:	ff                   	(bad)  
c00050e5:	3f                   	aas    
c00050e6:	00 c0                	add    %al,%al
c00050e8:	ff                   	(bad)  
c00050e9:	3f                   	aas    
c00050ea:	00 c0                	add    %al,%al
c00050ec:	f9                   	stc    
c00050ed:	3f                   	aas    
c00050ee:	00 c0                	add    %al,%al
c00050f0:	5a                   	pop    %edx
c00050f1:	43                   	inc    %ebx
c00050f2:	00 c0                	add    %al,%al
c00050f4:	96                   	xchg   %eax,%esi
c00050f5:	43                   	inc    %ebx
c00050f6:	00 c0                	add    %al,%al
c00050f8:	96                   	xchg   %eax,%esi
c00050f9:	43                   	inc    %ebx
c00050fa:	00 c0                	add    %al,%al
c00050fc:	96                   	xchg   %eax,%esi
c00050fd:	43                   	inc    %ebx
c00050fe:	00 c0                	add    %al,%al
c0005100:	96                   	xchg   %eax,%esi
c0005101:	43                   	inc    %ebx
c0005102:	00 c0                	add    %al,%al
c0005104:	96                   	xchg   %eax,%esi
c0005105:	43                   	inc    %ebx
c0005106:	00 c0                	add    %al,%al
c0005108:	96                   	xchg   %eax,%esi
c0005109:	43                   	inc    %ebx
c000510a:	00 c0                	add    %al,%al
c000510c:	96                   	xchg   %eax,%esi
c000510d:	43                   	inc    %ebx
c000510e:	00 c0                	add    %al,%al
c0005110:	96                   	xchg   %eax,%esi
c0005111:	43                   	inc    %ebx
c0005112:	00 c0                	add    %al,%al
c0005114:	96                   	xchg   %eax,%esi
c0005115:	43                   	inc    %ebx
c0005116:	00 c0                	add    %al,%al
c0005118:	96                   	xchg   %eax,%esi
c0005119:	43                   	inc    %ebx
c000511a:	00 c0                	add    %al,%al
c000511c:	96                   	xchg   %eax,%esi
c000511d:	43                   	inc    %ebx
c000511e:	00 c0                	add    %al,%al
c0005120:	96                   	xchg   %eax,%esi
c0005121:	43                   	inc    %ebx
c0005122:	00 c0                	add    %al,%al
c0005124:	96                   	xchg   %eax,%esi
c0005125:	43                   	inc    %ebx
c0005126:	00 c0                	add    %al,%al
c0005128:	96                   	xchg   %eax,%esi
c0005129:	43                   	inc    %ebx
c000512a:	00 c0                	add    %al,%al
c000512c:	96                   	xchg   %eax,%esi
c000512d:	43                   	inc    %ebx
c000512e:	00 c0                	add    %al,%al
c0005130:	96                   	xchg   %eax,%esi
c0005131:	43                   	inc    %ebx
c0005132:	00 c0                	add    %al,%al
c0005134:	96                   	xchg   %eax,%esi
c0005135:	43                   	inc    %ebx
c0005136:	00 c0                	add    %al,%al
c0005138:	96                   	xchg   %eax,%esi
c0005139:	43                   	inc    %ebx
c000513a:	00 c0                	add    %al,%al
c000513c:	96                   	xchg   %eax,%esi
c000513d:	43                   	inc    %ebx
c000513e:	00 c0                	add    %al,%al
c0005140:	96                   	xchg   %eax,%esi
c0005141:	43                   	inc    %ebx
c0005142:	00 c0                	add    %al,%al
c0005144:	96                   	xchg   %eax,%esi
c0005145:	43                   	inc    %ebx
c0005146:	00 c0                	add    %al,%al
c0005148:	96                   	xchg   %eax,%esi
c0005149:	43                   	inc    %ebx
c000514a:	00 c0                	add    %al,%al
c000514c:	96                   	xchg   %eax,%esi
c000514d:	43                   	inc    %ebx
c000514e:	00 c0                	add    %al,%al
c0005150:	96                   	xchg   %eax,%esi
c0005151:	43                   	inc    %ebx
c0005152:	00 c0                	add    %al,%al
c0005154:	96                   	xchg   %eax,%esi
c0005155:	43                   	inc    %ebx
c0005156:	00 c0                	add    %al,%al
c0005158:	96                   	xchg   %eax,%esi
c0005159:	43                   	inc    %ebx
c000515a:	00 c0                	add    %al,%al
c000515c:	96                   	xchg   %eax,%esi
c000515d:	43                   	inc    %ebx
c000515e:	00 c0                	add    %al,%al
c0005160:	96                   	xchg   %eax,%esi
c0005161:	43                   	inc    %ebx
c0005162:	00 c0                	add    %al,%al
c0005164:	96                   	xchg   %eax,%esi
c0005165:	43                   	inc    %ebx
c0005166:	00 c0                	add    %al,%al
c0005168:	96                   	xchg   %eax,%esi
c0005169:	43                   	inc    %ebx
c000516a:	00 c0                	add    %al,%al
c000516c:	96                   	xchg   %eax,%esi
c000516d:	43                   	inc    %ebx
c000516e:	00 c0                	add    %al,%al
c0005170:	96                   	xchg   %eax,%esi
c0005171:	43                   	inc    %ebx
c0005172:	00 c0                	add    %al,%al
c0005174:	96                   	xchg   %eax,%esi
c0005175:	43                   	inc    %ebx
c0005176:	00 c0                	add    %al,%al
c0005178:	96                   	xchg   %eax,%esi
c0005179:	43                   	inc    %ebx
c000517a:	00 c0                	add    %al,%al
c000517c:	96                   	xchg   %eax,%esi
c000517d:	43                   	inc    %ebx
c000517e:	00 c0                	add    %al,%al
c0005180:	96                   	xchg   %eax,%esi
c0005181:	43                   	inc    %ebx
c0005182:	00 c0                	add    %al,%al
c0005184:	96                   	xchg   %eax,%esi
c0005185:	43                   	inc    %ebx
c0005186:	00 c0                	add    %al,%al
c0005188:	96                   	xchg   %eax,%esi
c0005189:	43                   	inc    %ebx
c000518a:	00 c0                	add    %al,%al
c000518c:	96                   	xchg   %eax,%esi
c000518d:	43                   	inc    %ebx
c000518e:	00 c0                	add    %al,%al
c0005190:	96                   	xchg   %eax,%esi
c0005191:	43                   	inc    %ebx
c0005192:	00 c0                	add    %al,%al
c0005194:	96                   	xchg   %eax,%esi
c0005195:	43                   	inc    %ebx
c0005196:	00 c0                	add    %al,%al
c0005198:	96                   	xchg   %eax,%esi
c0005199:	43                   	inc    %ebx
c000519a:	00 c0                	add    %al,%al
c000519c:	96                   	xchg   %eax,%esi
c000519d:	43                   	inc    %ebx
c000519e:	00 c0                	add    %al,%al
c00051a0:	96                   	xchg   %eax,%esi
c00051a1:	43                   	inc    %ebx
c00051a2:	00 c0                	add    %al,%al
c00051a4:	96                   	xchg   %eax,%esi
c00051a5:	43                   	inc    %ebx
c00051a6:	00 c0                	add    %al,%al
c00051a8:	96                   	xchg   %eax,%esi
c00051a9:	43                   	inc    %ebx
c00051aa:	00 c0                	add    %al,%al
c00051ac:	96                   	xchg   %eax,%esi
c00051ad:	43                   	inc    %ebx
c00051ae:	00 c0                	add    %al,%al
c00051b0:	96                   	xchg   %eax,%esi
c00051b1:	43                   	inc    %ebx
c00051b2:	00 c0                	add    %al,%al
c00051b4:	96                   	xchg   %eax,%esi
c00051b5:	43                   	inc    %ebx
c00051b6:	00 c0                	add    %al,%al
c00051b8:	96                   	xchg   %eax,%esi
c00051b9:	43                   	inc    %ebx
c00051ba:	00 c0                	add    %al,%al
c00051bc:	7a 43                	jp     c0005201 <vsnprintf+0x12b5>
c00051be:	00 c0                	add    %al,%al
c00051c0:	96                   	xchg   %eax,%esi
c00051c1:	43                   	inc    %ebx
c00051c2:	00 c0                	add    %al,%al
c00051c4:	96                   	xchg   %eax,%esi
c00051c5:	43                   	inc    %ebx
c00051c6:	00 c0                	add    %al,%al
c00051c8:	96                   	xchg   %eax,%esi
c00051c9:	43                   	inc    %ebx
c00051ca:	00 c0                	add    %al,%al
c00051cc:	96                   	xchg   %eax,%esi
c00051cd:	43                   	inc    %ebx
c00051ce:	00 c0                	add    %al,%al
c00051d0:	96                   	xchg   %eax,%esi
c00051d1:	43                   	inc    %ebx
c00051d2:	00 c0                	add    %al,%al
c00051d4:	96                   	xchg   %eax,%esi
c00051d5:	43                   	inc    %ebx
c00051d6:	00 c0                	add    %al,%al
c00051d8:	96                   	xchg   %eax,%esi
c00051d9:	43                   	inc    %ebx
c00051da:	00 c0                	add    %al,%al
c00051dc:	96                   	xchg   %eax,%esi
c00051dd:	43                   	inc    %ebx
c00051de:	00 c0                	add    %al,%al
c00051e0:	96                   	xchg   %eax,%esi
c00051e1:	43                   	inc    %ebx
c00051e2:	00 c0                	add    %al,%al
c00051e4:	96                   	xchg   %eax,%esi
c00051e5:	43                   	inc    %ebx
c00051e6:	00 c0                	add    %al,%al
c00051e8:	5b                   	pop    %ebx
c00051e9:	41                   	inc    %ecx
c00051ea:	00 c0                	add    %al,%al
c00051ec:	90                   	nop
c00051ed:	43                   	inc    %ebx
c00051ee:	00 c0                	add    %al,%al
c00051f0:	96                   	xchg   %eax,%esi
c00051f1:	43                   	inc    %ebx
c00051f2:	00 c0                	add    %al,%al
c00051f4:	96                   	xchg   %eax,%esi
c00051f5:	43                   	inc    %ebx
c00051f6:	00 c0                	add    %al,%al
c00051f8:	96                   	xchg   %eax,%esi
c00051f9:	43                   	inc    %ebx
c00051fa:	00 c0                	add    %al,%al
c00051fc:	96                   	xchg   %eax,%esi
c00051fd:	43                   	inc    %ebx
c00051fe:	00 c0                	add    %al,%al
c0005200:	90                   	nop
c0005201:	43                   	inc    %ebx
c0005202:	00 c0                	add    %al,%al
c0005204:	96                   	xchg   %eax,%esi
c0005205:	43                   	inc    %ebx
c0005206:	00 c0                	add    %al,%al
c0005208:	96                   	xchg   %eax,%esi
c0005209:	43                   	inc    %ebx
c000520a:	00 c0                	add    %al,%al
c000520c:	96                   	xchg   %eax,%esi
c000520d:	43                   	inc    %ebx
c000520e:	00 c0                	add    %al,%al
c0005210:	96                   	xchg   %eax,%esi
c0005211:	43                   	inc    %ebx
c0005212:	00 c0                	add    %al,%al
c0005214:	e5 42                	in     $0x42,%eax
c0005216:	00 c0                	add    %al,%al
c0005218:	71 43                	jno    c000525d <vsnprintf+0x1311>
c000521a:	00 c0                	add    %al,%al
c000521c:	84 42 00             	test   %al,0x0(%edx)
c000521f:	c0 96 43 00 c0 96 43 	rclb   $0x43,-0x693fffbd(%esi)
c0005226:	00 c0                	add    %al,%al
c0005228:	ca 41 00             	lret   $0x41
c000522b:	c0 96 43 00 c0 dc 43 	rclb   $0x43,-0x233fffbd(%esi)
c0005232:	00 c0                	add    %al,%al
c0005234:	96                   	xchg   %eax,%esi
c0005235:	43                   	inc    %ebx
c0005236:	00 c0                	add    %al,%al
c0005238:	96                   	xchg   %eax,%esi
c0005239:	43                   	inc    %ebx
c000523a:	00 c0                	add    %al,%al
c000523c:	87 43 00             	xchg   %eax,0x0(%ebx)
c000523f:	c0 00 00             	rolb   $0x0,(%eax)
	...

Disassembly of section .data:

c0006000 <KERNEL_DATA>:
KERNEL_DATA():
c0006000:	00 b0 02 c0 00 00    	add    %dh,0xc002(%eax)
	...

c0006020 <regular_keymap>:
c0006020:	00 00                	add    %al,(%eax)
c0006022:	1b 01                	sbb    (%ecx),%eax
c0006024:	31 02                	xor    %eax,(%edx)
c0006026:	32 03                	xor    (%ebx),%al
c0006028:	33 04 34             	xor    (%esp,%esi,1),%eax
c000602b:	05 35 06 36 07       	add    $0x7360635,%eax
c0006030:	37                   	aaa    
c0006031:	08 38                	or     %bh,(%eax)
c0006033:	09 39                	or     %edi,(%ecx)
c0006035:	0a 30                	or     (%eax),%dh
c0006037:	0b 2d 0c 3d 0d 08    	or     0x80d3d0c,%ebp
c000603d:	0e                   	push   %cs
c000603e:	09 0f                	or     %ecx,(%edi)
c0006040:	71 10                	jno    c0006052 <regular_keymap+0x32>
c0006042:	77 11                	ja     c0006055 <regular_keymap+0x35>
c0006044:	65 12 72 13          	adc    %gs:0x13(%edx),%dh
c0006048:	74 14                	je     c000605e <regular_keymap+0x3e>
c000604a:	79 15                	jns    c0006061 <regular_keymap+0x41>
c000604c:	75 16                	jne    c0006064 <regular_keymap+0x44>
c000604e:	69 17 6f 18 70 19    	imul   $0x1970186f,(%edi),%edx
c0006054:	5b                   	pop    %ebx
c0006055:	1a 5d 1b             	sbb    0x1b(%ebp),%bl
c0006058:	0d 00 00 1d 61       	or     $0x611d0000,%eax
c000605d:	1e                   	push   %ds
c000605e:	73 1f                	jae    c000607f <regular_keymap+0x5f>
c0006060:	64 20 66 21          	and    %ah,%fs:0x21(%esi)
c0006064:	67 22 68 23          	and    0x23(%bx,%si),%ch
c0006068:	6a 24                	push   $0x24
c000606a:	6b 25 6c 26 3b 27 27 	imul   $0x27,0x273b266c,%esp
c0006071:	28 60 29             	sub    %ah,0x29(%eax)
c0006074:	00 2a                	add    %ch,(%edx)
c0006076:	5c                   	pop    %esp
c0006077:	2b 7a 2c             	sub    0x2c(%edx),%edi
c000607a:	78 2d                	js     c00060a9 <regular_keymap+0x89>
c000607c:	63 2e                	arpl   %bp,(%esi)
c000607e:	76 2f                	jbe    c00060af <regular_keymap+0x8f>
c0006080:	62 30                	bound  %esi,(%eax)
c0006082:	6e                   	outsb  %ds:(%esi),(%dx)
c0006083:	31 6d 32             	xor    %ebp,0x32(%ebp)
c0006086:	2c 33                	sub    $0x33,%al
c0006088:	2e                   	cs
c0006089:	34 2f                	xor    $0x2f,%al
c000608b:	35 00 36 2a 37       	xor    $0x372a3600,%eax
c0006090:	00 38                	add    %bh,(%eax)
c0006092:	20 39                	and    %bh,(%ecx)
c0006094:	00 3a                	add    %bh,(%edx)
c0006096:	00 3b                	add    %bh,(%ebx)
c0006098:	00 3c 00             	add    %bh,(%eax,%eax,1)
c000609b:	3d 00 3e 00 3f       	cmp    $0x3f003e00,%eax
c00060a0:	00 40 00             	add    %al,0x0(%eax)
c00060a3:	41                   	inc    %ecx
c00060a4:	00 42 00             	add    %al,0x0(%edx)
c00060a7:	43                   	inc    %ebx
c00060a8:	00 44 00 45          	add    %al,0x45(%eax,%eax,1)
c00060ac:	00 46 00             	add    %al,0x0(%esi)
c00060af:	47                   	inc    %edi
c00060b0:	00 48 00             	add    %cl,0x0(%eax)
c00060b3:	49                   	dec    %ecx
c00060b4:	2d 4a 00 4b 00       	sub    $0x4b004a,%eax
c00060b9:	4c                   	dec    %esp
c00060ba:	00 4d 2b             	add    %cl,0x2b(%ebp)
c00060bd:	4e                   	dec    %esi
c00060be:	00 4f 00             	add    %cl,0x0(%edi)
c00060c1:	50                   	push   %eax
c00060c2:	00 51 00             	add    %dl,0x0(%ecx)
c00060c5:	52                   	push   %edx
c00060c6:	00 53 00             	add    %dl,0x0(%ebx)
c00060c9:	54                   	push   %esp
c00060ca:	00 55 00             	add    %dl,0x0(%ebp)
c00060cd:	56                   	push   %esi
c00060ce:	00 85 00 86 00 00    	add    %al,0x8600(%ebp)
c00060d4:	00 00                	add    %al,(%eax)
c00060d6:	00 5b 00             	add    %bl,0x0(%ebx)
c00060d9:	5c                   	pop    %esp
c00060da:	00 5d 00             	add    %bl,0x0(%ebp)
	...

c0006120 <with_shift_keymap>:
c0006120:	00 00                	add    %al,(%eax)
c0006122:	1b 01                	sbb    (%ecx),%eax
c0006124:	21 02                	and    %eax,(%edx)
c0006126:	40                   	inc    %eax
c0006127:	03 23                	add    (%ebx),%esp
c0006129:	04 24                	add    $0x24,%al
c000612b:	05 25 06 5e 07       	add    $0x75e0625,%eax
c0006130:	26 08 2a             	or     %ch,%es:(%edx)
c0006133:	09 28                	or     %ebp,(%eax)
c0006135:	0a 29                	or     (%ecx),%ch
c0006137:	0b 5f 0c             	or     0xc(%edi),%ebx
c000613a:	2b 0d 08 0e 00 0f    	sub    0xf000e08,%ecx
c0006140:	51                   	push   %ecx
c0006141:	10 57 11             	adc    %dl,0x11(%edi)
c0006144:	45                   	inc    %ebp
c0006145:	12 52 13             	adc    0x13(%edx),%dl
c0006148:	54                   	push   %esp
c0006149:	14 59                	adc    $0x59,%al
c000614b:	15 55 16 49 17       	adc    $0x17491655,%eax
c0006150:	4f                   	dec    %edi
c0006151:	18 50 19             	sbb    %dl,0x19(%eax)
c0006154:	7b 1a                	jnp    c0006170 <with_shift_keymap+0x50>
c0006156:	7d 1b                	jge    c0006173 <with_shift_keymap+0x53>
c0006158:	0d 00 00 1d 41       	or     $0x411d0000,%eax
c000615d:	1e                   	push   %ds
c000615e:	53                   	push   %ebx
c000615f:	1f                   	pop    %ds
c0006160:	44                   	inc    %esp
c0006161:	20 46 21             	and    %al,0x21(%esi)
c0006164:	47                   	inc    %edi
c0006165:	22 48 23             	and    0x23(%eax),%cl
c0006168:	4a                   	dec    %edx
c0006169:	24 4b                	and    $0x4b,%al
c000616b:	25 4c 26 3a 27       	and    $0x273a264c,%eax
c0006170:	22 28                	and    (%eax),%ch
c0006172:	7e 29                	jle    c000619d <with_shift_keymap+0x7d>
c0006174:	00 2a                	add    %ch,(%edx)
c0006176:	7c 2b                	jl     c00061a3 <with_shift_keymap+0x83>
c0006178:	5a                   	pop    %edx
c0006179:	2c 58                	sub    $0x58,%al
c000617b:	2d 43 2e 56 2f       	sub    $0x2f562e43,%eax
c0006180:	42                   	inc    %edx
c0006181:	30 4e 31             	xor    %cl,0x31(%esi)
c0006184:	4d                   	dec    %ebp
c0006185:	32 3c 33             	xor    (%ebx,%esi,1),%bh
c0006188:	3e                   	ds
c0006189:	34 3f                	xor    $0x3f,%al
c000618b:	35 00 36 2a 37       	xor    $0x372a3600,%eax
c0006190:	00 38                	add    %bh,(%eax)
c0006192:	20 39                	and    %bh,(%ecx)
c0006194:	00 3a                	add    %bh,(%edx)
c0006196:	00 54 00 55          	add    %dl,0x55(%eax,%eax,1)
c000619a:	00 56 00             	add    %dl,0x0(%esi)
c000619d:	57                   	push   %edi
c000619e:	00 58 00             	add    %bl,0x0(%eax)
c00061a1:	59                   	pop    %ecx
c00061a2:	00 5a 00             	add    %bl,0x0(%edx)
c00061a5:	5b                   	pop    %ebx
c00061a6:	00 5c 00 5d          	add    %bl,0x5d(%eax,%eax,1)
c00061aa:	00 45 00             	add    %al,0x0(%ebp)
c00061ad:	46                   	inc    %esi
c00061ae:	00 47 00             	add    %al,0x0(%edi)
c00061b1:	48                   	dec    %eax
c00061b2:	00 49 2d             	add    %cl,0x2d(%ecx)
c00061b5:	4a                   	dec    %edx
c00061b6:	00 4b 00             	add    %cl,0x0(%ebx)
c00061b9:	4c                   	dec    %esp
c00061ba:	00 4d 2b             	add    %cl,0x2b(%ebp)
c00061bd:	4e                   	dec    %esi
c00061be:	00 4f 00             	add    %cl,0x0(%edi)
c00061c1:	50                   	push   %eax
c00061c2:	00 51 00             	add    %dl,0x0(%ecx)
c00061c5:	52                   	push   %edx
c00061c6:	00 53 00             	add    %dl,0x0(%ebx)
c00061c9:	54                   	push   %esp
c00061ca:	00 55 00             	add    %dl,0x0(%ebp)
c00061cd:	56                   	push   %esi
c00061ce:	00 87 00 88 00 00    	add    %al,0x8800(%edi)
c00061d4:	00 00                	add    %al,(%eax)
c00061d6:	00 5b 00             	add    %bl,0x0(%ebx)
c00061d9:	5c                   	pop    %esp
c00061da:	00 5d 00             	add    %bl,0x0(%ebp)
	...

c0006220 <with_alt_keymap>:
c0006220:	00 00                	add    %al,(%eax)
c0006222:	00 01                	add    %al,(%ecx)
c0006224:	00 78 00             	add    %bh,0x0(%eax)
c0006227:	79 00                	jns    c0006229 <with_alt_keymap+0x9>
c0006229:	7a 00                	jp     c000622b <with_alt_keymap+0xb>
c000622b:	7b 00                	jnp    c000622d <with_alt_keymap+0xd>
c000622d:	7c 00                	jl     c000622f <with_alt_keymap+0xf>
c000622f:	7d 00                	jge    c0006231 <with_alt_keymap+0x11>
c0006231:	7e 00                	jle    c0006233 <with_alt_keymap+0x13>
c0006233:	7f 00                	jg     c0006235 <with_alt_keymap+0x15>
c0006235:	80 00 81             	addb   $0x81,(%eax)
c0006238:	00 82 00 83 00 0e    	add    %al,0xe008300(%edx)
c000623e:	00 a5 00 10 00 11    	add    %ah,0x11001000(%ebp)
c0006244:	00 12                	add    %dl,(%edx)
c0006246:	00 13                	add    %dl,(%ebx)
c0006248:	00 14 00             	add    %dl,(%eax,%eax,1)
c000624b:	15 00 16 00 17       	adc    $0x17001600,%eax
c0006250:	00 18                	add    %bl,(%eax)
c0006252:	00 19                	add    %bl,(%ecx)
c0006254:	00 1a                	add    %bl,(%edx)
c0006256:	00 1b                	add    %bl,(%ebx)
c0006258:	00 1c 00             	add    %bl,(%eax,%eax,1)
c000625b:	1d 00 1e 00 1f       	sbb    $0x1f001e00,%eax
c0006260:	00 20                	add    %ah,(%eax)
c0006262:	00 21                	add    %ah,(%ecx)
c0006264:	00 22                	add    %ah,(%edx)
c0006266:	00 23                	add    %ah,(%ebx)
c0006268:	00 24 00             	add    %ah,(%eax,%eax,1)
c000626b:	25 00 26 00 27       	and    $0x27002600,%eax
c0006270:	00 28                	add    %ch,(%eax)
c0006272:	00 29                	add    %ch,(%ecx)
c0006274:	00 2a                	add    %ch,(%edx)
c0006276:	00 2b                	add    %ch,(%ebx)
c0006278:	00 2c 00             	add    %ch,(%eax,%eax,1)
c000627b:	2d 00 2e 00 2f       	sub    $0x2f002e00,%eax
c0006280:	00 30                	add    %dh,(%eax)
c0006282:	00 31                	add    %dh,(%ecx)
c0006284:	00 32                	add    %dh,(%edx)
c0006286:	00 33                	add    %dh,(%ebx)
c0006288:	00 34 00             	add    %dh,(%eax,%eax,1)
c000628b:	35 00 36 00 37       	xor    $0x37003600,%eax
c0006290:	00 38                	add    %bh,(%eax)
c0006292:	00 39                	add    %bh,(%ecx)
c0006294:	00 3a                	add    %bh,(%edx)
c0006296:	00 68 00             	add    %ch,0x0(%eax)
c0006299:	69 00 6a 00 6b 00    	imul   $0x6b006a,(%eax),%eax
c000629f:	6c                   	insb   (%dx),%es:(%edi)
c00062a0:	00 6d 00             	add    %ch,0x0(%ebp)
c00062a3:	6e                   	outsb  %ds:(%esi),(%dx)
c00062a4:	00 6f 00             	add    %ch,0x0(%edi)
c00062a7:	70 00                	jo     c00062a9 <with_alt_keymap+0x89>
c00062a9:	71 00                	jno    c00062ab <with_alt_keymap+0x8b>
c00062ab:	45                   	inc    %ebp
c00062ac:	00 46 00             	add    %al,0x0(%esi)
c00062af:	97                   	xchg   %eax,%edi
c00062b0:	00 98 00 99 00 4a    	add    %bl,0x4a009900(%eax)
c00062b6:	00 9b 00 9c 00 9d    	add    %bl,-0x62ff6400(%ebx)
c00062bc:	00 4e 00             	add    %cl,0x0(%esi)
c00062bf:	9f                   	lahf   
c00062c0:	00 a0 00 a1 00 a2    	add    %ah,-0x5dff5f00(%eax)
c00062c6:	00 a3 00 54 00 55    	add    %ah,0x55005400(%ebx)
c00062cc:	00 56 00             	add    %dl,0x0(%esi)
c00062cf:	8b 00                	mov    (%eax),%eax
c00062d1:	8c 00                	mov    %es,(%eax)
	...

c0006320 <with_control_keymap>:
	...
c000633c:	00 00                	add    %al,(%eax)
c000633e:	00 94 11 10 17 11 05 	add    %dl,0x5111710(%ecx,%edx,1)
c0006345:	12 12                	adc    (%edx),%dl
c0006347:	13 14 14             	adc    (%esp,%edx,1),%edx
c000634a:	19 15 15 16 09 17    	sbb    %edx,0x17091615
c0006350:	0f 18 10             	prefetcht1 (%eax)
c0006353:	19 00                	sbb    %eax,(%eax)
c0006355:	00 00                	add    %al,(%eax)
c0006357:	00 0a                	add    %cl,(%edx)
c0006359:	1c 00                	sbb    $0x0,%al
c000635b:	1d 01 1e 13 1f       	sbb    $0x1f131e01,%eax
c0006360:	04 20                	add    $0x20,%al
c0006362:	06                   	push   %es
c0006363:	21 07                	and    %eax,(%edi)
c0006365:	22 08                	and    (%eax),%cl
c0006367:	23 0a                	and    (%edx),%ecx
c0006369:	24 0b                	and    $0xb,%al
c000636b:	25 0c 26 00 00       	and    $0x260c,%eax
c0006370:	00 00                	add    %al,(%eax)
c0006372:	00 00                	add    %al,(%eax)
c0006374:	00 2a                	add    %ch,(%edx)
c0006376:	00 00                	add    %al,(%eax)
c0006378:	1a 2c 18             	sbb    (%eax,%ebx,1),%ch
c000637b:	2d 03 2e 16 2f       	sub    $0x2f162e03,%eax
c0006380:	02 30                	add    (%eax),%dh
c0006382:	0e                   	push   %cs
c0006383:	31 0d 32 00 00 00    	xor    %ecx,0x32
c0006389:	00 00                	add    %al,(%eax)
c000638b:	95                   	xchg   %eax,%ebp
c000638c:	00 36                	add    %dh,(%esi)
c000638e:	00 96 00 38 20 39    	add    %dl,0x39203800(%esi)
c0006394:	00 3a                	add    %bh,(%edx)
c0006396:	00 5e 00             	add    %bl,0x0(%esi)
c0006399:	5f                   	pop    %edi
c000639a:	00 60 00             	add    %ah,0x0(%eax)
c000639d:	61                   	popa   
c000639e:	00 62 00             	add    %ah,0x0(%edx)
c00063a1:	63 00                	arpl   %ax,(%eax)
c00063a3:	64 00 65 00          	add    %ah,%fs:0x0(%ebp)
c00063a7:	66                   	data16
c00063a8:	00 67 00             	add    %ah,0x0(%edi)
c00063ab:	45                   	inc    %ebp
c00063ac:	00 46 00             	add    %al,0x0(%esi)
c00063af:	77 00                	ja     c00063b1 <with_control_keymap+0x91>
c00063b1:	8d 00                	lea    (%eax),%eax
c00063b3:	84 00                	test   %al,(%eax)
c00063b5:	8e 00                	mov    (%eax),%es
c00063b7:	73 00                	jae    c00063b9 <with_control_keymap+0x99>
c00063b9:	8f 00                	popl   (%eax)
c00063bb:	74 00                	je     c00063bd <with_control_keymap+0x9d>
c00063bd:	90                   	nop
c00063be:	00 75 00             	add    %dh,0x0(%ebp)
c00063c1:	91                   	xchg   %eax,%ecx
c00063c2:	00 76 00             	add    %dh,0x0(%esi)
c00063c5:	92                   	xchg   %eax,%edx
c00063c6:	00 93 00 54 00 55    	add    %dl,0x55005400(%ebx)
c00063cc:	00 56 00             	add    %dl,0x0(%esi)
c00063cf:	89 00                	mov    %eax,(%eax)
c00063d1:	8a 00                	mov    (%eax),%al
	...

c0006420 <keypad_char>:
c0006420:	37                   	aaa    
c0006421:	38 39                	cmp    %bh,(%ecx)
c0006423:	2d 34 35 36 2b       	sub    $0x2b363534,%eax
c0006428:	31 32                	xor    %esi,(%edx)
c000642a:	33 30                	xor    (%eax),%esi
c000642c:	2e 00 00             	add    %al,%cs:(%eax)
	...

c0006430 <crt_width>:
c0006430:	50                   	push   %eax
	...

c0006432 <crt_height>:
c0006432:	19 00                	sbb    %eax,(%eax)
	...

c0006440 <_ctype>:
c0006440:	08 08                	or     %cl,(%eax)
c0006442:	08 08                	or     %cl,(%eax)
c0006444:	08 08                	or     %cl,(%eax)
c0006446:	08 08                	or     %cl,(%eax)
c0006448:	08 28                	or     %ch,(%eax)
c000644a:	28 28                	sub    %ch,(%eax)
c000644c:	28 28                	sub    %ch,(%eax)
c000644e:	08 08                	or     %cl,(%eax)
c0006450:	08 08                	or     %cl,(%eax)
c0006452:	08 08                	or     %cl,(%eax)
c0006454:	08 08                	or     %cl,(%eax)
c0006456:	08 08                	or     %cl,(%eax)
c0006458:	08 08                	or     %cl,(%eax)
c000645a:	08 08                	or     %cl,(%eax)
c000645c:	08 08                	or     %cl,(%eax)
c000645e:	08 08                	or     %cl,(%eax)
c0006460:	a0 10 10 10 10       	mov    0x10101010,%al
c0006465:	10 10                	adc    %dl,(%eax)
c0006467:	10 10                	adc    %dl,(%eax)
c0006469:	10 10                	adc    %dl,(%eax)
c000646b:	10 10                	adc    %dl,(%eax)
c000646d:	10 10                	adc    %dl,(%eax)
c000646f:	10 04 04             	adc    %al,(%esp,%eax,1)
c0006472:	04 04                	add    $0x4,%al
c0006474:	04 04                	add    $0x4,%al
c0006476:	04 04                	add    $0x4,%al
c0006478:	04 04                	add    $0x4,%al
c000647a:	10 10                	adc    %dl,(%eax)
c000647c:	10 10                	adc    %dl,(%eax)
c000647e:	10 10                	adc    %dl,(%eax)
c0006480:	10 41 41             	adc    %al,0x41(%ecx)
c0006483:	41                   	inc    %ecx
c0006484:	41                   	inc    %ecx
c0006485:	41                   	inc    %ecx
c0006486:	41                   	inc    %ecx
c0006487:	01 01                	add    %eax,(%ecx)
c0006489:	01 01                	add    %eax,(%ecx)
c000648b:	01 01                	add    %eax,(%ecx)
c000648d:	01 01                	add    %eax,(%ecx)
c000648f:	01 01                	add    %eax,(%ecx)
c0006491:	01 01                	add    %eax,(%ecx)
c0006493:	01 01                	add    %eax,(%ecx)
c0006495:	01 01                	add    %eax,(%ecx)
c0006497:	01 01                	add    %eax,(%ecx)
c0006499:	01 01                	add    %eax,(%ecx)
c000649b:	10 10                	adc    %dl,(%eax)
c000649d:	10 10                	adc    %dl,(%eax)
c000649f:	10 10                	adc    %dl,(%eax)
c00064a1:	42                   	inc    %edx
c00064a2:	42                   	inc    %edx
c00064a3:	42                   	inc    %edx
c00064a4:	42                   	inc    %edx
c00064a5:	42                   	inc    %edx
c00064a6:	42                   	inc    %edx
c00064a7:	02 02                	add    (%edx),%al
c00064a9:	02 02                	add    (%edx),%al
c00064ab:	02 02                	add    (%edx),%al
c00064ad:	02 02                	add    (%edx),%al
c00064af:	02 02                	add    (%edx),%al
c00064b1:	02 02                	add    (%edx),%al
c00064b3:	02 02                	add    (%edx),%al
c00064b5:	02 02                	add    (%edx),%al
c00064b7:	02 02                	add    (%edx),%al
c00064b9:	02 02                	add    (%edx),%al
c00064bb:	10 10                	adc    %dl,(%eax)
c00064bd:	10 10                	adc    %dl,(%eax)
c00064bf:	08 00                	or     %al,(%eax)
	...
c00064dd:	00 00                	add    %al,(%eax)
c00064df:	00 a0 10 10 10 10    	add    %ah,0x10101010(%eax)
c00064e5:	10 10                	adc    %dl,(%eax)
c00064e7:	10 10                	adc    %dl,(%eax)
c00064e9:	10 10                	adc    %dl,(%eax)
c00064eb:	10 10                	adc    %dl,(%eax)
c00064ed:	10 10                	adc    %dl,(%eax)
c00064ef:	10 10                	adc    %dl,(%eax)
c00064f1:	10 10                	adc    %dl,(%eax)
c00064f3:	10 10                	adc    %dl,(%eax)
c00064f5:	10 10                	adc    %dl,(%eax)
c00064f7:	10 10                	adc    %dl,(%eax)
c00064f9:	10 10                	adc    %dl,(%eax)
c00064fb:	10 10                	adc    %dl,(%eax)
c00064fd:	10 10                	adc    %dl,(%eax)
c00064ff:	10 01                	adc    %al,(%ecx)
c0006501:	01 01                	add    %eax,(%ecx)
c0006503:	01 01                	add    %eax,(%ecx)
c0006505:	01 01                	add    %eax,(%ecx)
c0006507:	01 01                	add    %eax,(%ecx)
c0006509:	01 01                	add    %eax,(%ecx)
c000650b:	01 01                	add    %eax,(%ecx)
c000650d:	01 01                	add    %eax,(%ecx)
c000650f:	01 01                	add    %eax,(%ecx)
c0006511:	01 01                	add    %eax,(%ecx)
c0006513:	01 01                	add    %eax,(%ecx)
c0006515:	01 01                	add    %eax,(%ecx)
c0006517:	01 01                	add    %eax,(%ecx)
c0006519:	01 01                	add    %eax,(%ecx)
c000651b:	01 01                	add    %eax,(%ecx)
c000651d:	01 01                	add    %eax,(%ecx)
c000651f:	02 02                	add    (%edx),%al
c0006521:	02 02                	add    (%edx),%al
c0006523:	02 02                	add    (%edx),%al
c0006525:	02 02                	add    (%edx),%al
c0006527:	02 02                	add    (%edx),%al
c0006529:	02 02                	add    (%edx),%al
c000652b:	02 02                	add    (%edx),%al
c000652d:	02 02                	add    (%edx),%al
c000652f:	02 02                	add    (%edx),%al
c0006531:	02 02                	add    (%edx),%al
c0006533:	02 02                	add    (%edx),%al
c0006535:	02 02                	add    (%edx),%al
c0006537:	10 02                	adc    %al,(%edx)
c0006539:	02 02                	add    (%edx),%al
c000653b:	02 02                	add    (%edx),%al
c000653d:	02 02                	add    (%edx),%al
c000653f:	02 00                	add    (%eax),%al
	...

Disassembly of section .bss:

c0007000 <_stack>:
	...

c0017000 <KERNEL_BSS>:
	...

c0017020 <vir_cons>:
	...

c0017110 <current_console_id>:
KERNEL_BSS():
c0017110:	00 00                	add    %al,(%eax)
	...

c0017114 <spurious_interrupt_show>:
	...

c0017120 <interrupt_handlers>:
	...

c0017520 <mask.1145>:
	...

c0017521 <mask.1141>:
c0017521:	00 00                	add    %al,(%eax)
	...

c0017524 <curr_task>:
c0017524:	00 00                	add    %al,(%eax)
	...

c0017528 <idle_task>:
c0017528:	00 00                	add    %al,(%eax)
	...

c001752c <ready_queue>:
c001752c:	00 00                	add    %al,(%eax)
	...

c0017530 <wait_queue>:
c0017530:	00 00                	add    %al,(%eax)
	...

c0017534 <zombie_queue>:
c0017534:	00 00                	add    %al,(%eax)
	...

c0017538 <tss_link.1077>:
	...

c0017540 <shift_flag>:
	...

c0017541 <control_flag>:
	...

c0017542 <alt_flag>:
	...

c0017544 <code.1153>:
c0017544:	00 00                	add    %al,(%eax)
	...

c0017548 <val.1154>:
c0017548:	00 00                	add    %al,(%eax)
	...

c001754c <pf_panic>:
	...

c0017560 <idt_ptr>:
	...

c0017580 <idt>:
	...

c0017d80 <gdt>:
	...

c0027d80 <gdt_busy_entry>:
	...

c0029d80 <gdt_ptr>:
	...

c0029da0 <K_VIR_END>:
	...

c0029dc0 <K_PDBR>:
	...

c002adc0 <last_pid>:
c002adc0:	00 00                	add    %al,(%eax)
	...

c002adc4 <sched_enabled>:
c002adc4:	00 00                	add    %al,(%eax)
	...

c002adc8 <dma_free_frames>:
c002adc8:	00 00                	add    %al,(%eax)
	...

c002adcc <dma_pointer>:
	...

Disassembly of section .comment:

00000000 <.comment>:
   0:	47                   	inc    %edi
   1:	43                   	inc    %ebx
   2:	43                   	inc    %ebx
   3:	3a 20                	cmp    (%eax),%ah
   5:	28 47 4e             	sub    %al,0x4e(%edi)
   8:	55                   	push   %ebp
   9:	29 20                	sub    %esp,(%eax)
   b:	34 2e                	xor    $0x2e,%al
   d:	35 2e 31 20 32       	xor    $0x3220312e,%eax
  12:	30 31                	xor    %dh,(%ecx)
  14:	30 30                	xor    %dh,(%eax)
  16:	39 32                	cmp    %esi,(%edx)
  18:	34 20                	xor    $0x20,%al
  1a:	28 52 65             	sub    %dl,0x65(%edx)
  1d:	64 20 48 61          	and    %cl,%fs:0x61(%eax)
  21:	74 20                	je     43 <PAGE_SIZE-0xfbd>
  23:	34 2e                	xor    $0x2e,%al
  25:	35 2e 31 2d 34       	xor    $0x342d312e,%eax
  2a:	29 00                	sub    %eax,(%eax)
