
../build/blue_fire_kernel32.elf:     file format elf32-i386
../build/blue_fire_kernel32.elf
architecture: i386, flags 0x00000112:
EXEC_P, HAS_SYMS, D_PAGED
start address 0xc0000000

Program Header:
    LOAD off    0x00001000 vaddr 0xc0000000 paddr 0x00100000 align 2**12
         filesz 0x0000b000 memsz 0x0000b000 flags rwx
    LOAD off    0x0000c000 vaddr 0xc000b000 paddr 0x0011b000 align 2**12
         filesz 0x00000000 memsz 0x00023000 flags rw-
   STACK off    0x00000000 vaddr 0x00000000 paddr 0x00000000 align 2**4
         filesz 0x00000000 memsz 0x00000000 flags rwx

Sections:
Idx Name          Size      VMA       LMA       File off  Algn
  0 .text         00009000  c0000000  00100000  00001000  2**12
                  CONTENTS, ALLOC, LOAD, READONLY, CODE
  1 .eh_frame     00001568  c0009000  00109000  0000a000  2**2
                  CONTENTS, ALLOC, LOAD, READONLY, DATA
  2 .data         00000a80  c000a580  0010a580  0000b580  2**5
                  CONTENTS, ALLOC, LOAD, DATA
  3 .bss          00023000  c000b000  0011b000  0000c000  2**5
                  ALLOC
  4 .comment      00000029  00000000  00000000  0000c000  2**0
                  CONTENTS, READONLY
SYMBOL TABLE:
c0000000 l    d  .text	00000000 .text
c0009000 l    d  .eh_frame	00000000 .eh_frame
c000a580 l    d  .data	00000000 .data
c000b000 l    d  .bss	00000000 .bss
00000000 l    d  .comment	00000000 .comment
00000000 l    df *ABS*	00000000 assembly/start.asm
c0000002 l       .text	00000000 not_used_space
c000000c l       .text	00000000 entry
c0000013 l       .text	00000000 setup_and_enable_paging
c0000035 l       .text	00000000 Map_I_PAGE_TAB
c0000056 l       .text	00000000 Map_K_PAGE_TAB
c000008c l       .text	00000000 paging_enabled
00000000 l    df *ABS*	00000000 assembly/exception_top.asm
c000011d l       .text	00000000 COMMON_EXC
00000000 l    df *ABS*	00000000 assembly/exit.asm
c0001006 l       .text	00000000 syscall
00000000 l    df *ABS*	00000000 assembly/interrupt_top.asm
c0001057 l       .text	00000000 COMMON_ISR
00000000 l    df *ABS*	00000000 clock.c
c000107e l     F .text	0000001e outport08
00000000 l    df *ABS*	00000000 console.c
c001b020 l     O .bss	000000f0 vir_cons
c001b110 l     O .bss	00000004 current_console_id
00000000 l    df *ABS*	00000000 exception_handler.c
c000135f l     F .text	0000016e dump_registers
00000000 l    df *ABS*	00000000 interrupt_controller.c
c00016dc l     F .text	0000001e outport08
00000000 l    df *ABS*	00000000 interrupt_handler.c
c0001dc7 l     F .text	0000001d inport08
c0001de4 l     F .text	0000001e outport08
c001b520 l     O .bss	00000001 mask.1482
c001b521 l     O .bss	00000001 mask.1486
00000000 l    df *ABS*	00000000 kernel.c
c00020c7 l     F .text	0000001e outport08
00000000 l    df *ABS*	00000000 kmalloc.c
c0002446 l     F .text	00000073 deallocate
00000000 l    df *ABS*	00000000 main.c
c00026ab l     F .text	0000000b prefetch_cpu_cache
c00026b6 l     F .text	0000005b __queue_del_entry
c0002711 l     F .text	00000052 count_queue
c0002763 l     F .text	00000076 rem_queue
00000000 l    df *ABS*	00000000 mem.c
c0002a73 l     F .text	00000021 k_update_segment_regs
c0002a7d l       .text	00000000 update_sel
00000000 l    df *ABS*	00000000 paging.c
c0002d10 l     F .text	00000022 memset08
c0002d32 l     F .text	00000009 invlpg
c0002d3b l     F .text	0000000b reload_CR3
c0002d46 l     F .text	00000053 virtual_to_physical_address
00000000 l    df *ABS*	00000000 sched.c
c0003630 l     F .text	0000000b prefetch_cpu_cache
c000363b l     F .text	0000003f jmp_to_tss
c001b53c l     O .bss	00000006 tss_link.1022
c000367a l     F .text	00000019 memcpy08
c0003693 l     F .text	000000bf queue_move_entry
c0003752 l     F .text	00000017 queue_get_entry
c0003769 l     F .text	00000052 count_queue
c00037d0 l     F .text	000001dd do_refresh_queues
c00039ad l     F .text	0000008e switch_to
00000000 l    df *ABS*	00000000 task.c
c0003b54 l     F .text	0000000b prefetch_cpu_cache
c0003b5f l     F .text	00000022 memset08
c0003b81 l     F .text	00000015 memset32
c0003b96 l     F .text	00000019 memcpy08
c0003baf l     F .text	00000053 virtual_to_physical_address
c0003c02 l     F .text	0000000b switch_mmu
c0003c0d l     F .text	0000005b __queue_del_entry
c0003c68 l     F .text	00000052 count_queue
c0003cba l     F .text	00000093 add_queue
c0003d4d l     F .text	00000076 rem_queue
c0003dc3 l     F .text	00000032 pick_queue
c0003df5 l     F .text	000000a6 task_switch_mmu
c0003e9b l     F .text	00000030 strcpy08
c0003ecb l     F .text	0000005f strncpy08
c0003f8f l     F .text	00000123 new_vspace
c00088ba l     O .text	0000000b __FUNCTION__.1490
c00040b2 l     F .text	00000116 task_setup_stack
c00088c5 l     O .text	0000000f __FUNCTION__.1519
c00088d4 l     O .text	0000000e __FUNCTION__.1529
00000000 l    df *ABS*	00000000 umalloc.c
c0004eac l     F .text	00000019 memcpy08
c0004ec5 l     F .text	00000053 virtual_to_physical_address
c0004f18 l     F .text	0000000b switch_mmu
c0004f23 l     F .text	00000022 initialize_MUTEX
c0004f45 l     F .text	000000a6 task_switch_mmu
c0004feb l     F .text	0000003d get_thread_father
c0005028 l     F .text	0000002d lock_heap_region
c0005055 l     F .text	0000002d unlock_heap_region
c0008987 l     O .text	0000000d __FUNCTION__.1495
c000531a l     F .text	00000073 deallocate
00000000 l    df *ABS*	00000000 dma.c
c00055cb l     F .text	0000001e outport08
c000a590 l     O .data	0000000c dmainfo
00000000 l    df *ABS*	00000000 keyboard.c
c00058b1 l     F .text	0000001d inport08
c00058ce l     F .text	0000001e outport08
c000a5a0 l     O .data	00000100 regular_keymap
c000a6a0 l     O .data	00000100 with_shift_keymap
c000a7a0 l     O .data	00000100 with_alt_keymap
c000a8a0 l     O .data	00000100 with_control_keymap
c000a9a0 l     O .data	0000000d keypad_char
c001b548 l     O .bss	00000001 shift_flag
c001b549 l     O .bss	00000001 control_flag
c001b54a l     O .bss	00000001 alt_flag
c001b54c l     O .bss	00000004 code.1494
c001b550 l     O .bss	00000004 val.1495
00000000 l    df *ABS*	00000000 video.c
c0005e19 l     F .text	0000001e outport08
c0005e37 l     F .text	00000024 memset16
00000000 l    df *ABS*	00000000 ctype.c
00000000 l    df *ABS*	00000000 scanf.c
00000000 l    df *ABS*	00000000 string.c
c0006516 l     F .text	0000002b __toupper
00000000 l    df *ABS*	00000000 vsnprintf.c
c0006692 l     F .text	0000005e skip_atoi
c00066f0 l     F .text	000003a6 number
00000000 l    df *ABS*	00000000 floppy.c
c0007065 l     F .text	0000001d inport08
c0007082 l     F .text	0000001e outport08
c00070a0 l     F .text	00000019 memcpy08
c000aae0 l     O .data	00000030 floppy_type
00000000 l    df *ABS*	00000000 blueshell.c
c000788f l     F .text	00000022 memset08
c000ab20 l     O .data	00000108 commands
00000000 l    df *ABS*	00000000 
c0001e02 g     F .text	000000a6 interrupt_handler_middle
c0002e6b g     F .text	00000127 map_page
c000717b g     F .text	00000045 fdc_motor_on
c0001014 g       .text	00000000 irq_01
c00071c0 g     F .text	00000022 fdc_motor_off
c000102c g       .text	00000000 irq_07
c000201c g     F .text	00000070 register_interrupt_handler
c001b114 g     O .bss	00000004 spurious_interrupt_show
c002dda8 g     O .bss	00000004 VIRTUAL_KERNEL_END
c0005e5b g     F .text	00000086 video_move_cursor
c000605c g     F .text	00000058 video_place_char
c00065f7 g     F .text	00000036 strtoupper
c001b580 g     O .bss	00000006 idt_ptr
c00000c0 g       .text	00000000 exc_00
c00000fe g       .text	00000000 exc_0B
c00071e2 g     F .text	000000c5 fdc_wait
c0004cf1 g     F .text	0000000f sched_leave_critical_region
c000a584 g     O .data	00000004 mem_temp_lock
c0000004 g       .text	00000000 var_system_memory_amount
c0007379 g     F .text	00000099 fdc_reset
c00011c0 g     F .text	00000033 initialize_boot_console
c001b554 g     O .bss	00000004 fdc_motor
c0001044 g       .text	00000000 irq_0D
c0001862 g     F .text	00000565 initialize_IDT
c0001355 g     F .text	0000000a get_curr_console
c000574f g     F .text	0000004e dma_pop_frame
c0001172 g     F .text	0000004e stop_clock
c0004d61 g     F .text	0000014b ps
c00060b4 g     F .text	000001a1 video_put_char
c0002343 g     F .text	00000103 kmemalign
c0005d63 g     F .text	00000095 kgetchar
c0000000 g       .text	00000000 KERNEL_TEXT
c00000d2 g       .text	00000000 exc_03
c000a580 g     O .data	00000004 free_frames
c00078b1 g     F .text	000003af shell
c00024b9 g     F .text	0000010f kfree
c002e000 g       .bss	00000000 KERNEL_END_CODE
c0002c11 g     F .text	000000ff initialize_GDT
c0004c6f g     F .text	0000001f get_pname
c00017ca g     F .text	00000071 set_IDT_gate
c00010e5 g     F .text	0000002b clock_handler
c001bda0 g     O .bss	00010000 gdt
c0006a96 g     F .text	000005cf vsnprintf
c0007750 g     F .text	00000051 fdc_read
c0001110 g     F .text	00000062 initialize_clock
c00000ea g       .text	00000000 exc_07
c00000d8 g       .text	00000000 exc_04
c0007815 g     F .text	00000066 floppy_thread
c0001020 g       .text	00000000 irq_04
c001b528 g     O .bss	00000004 wait_queue
c00016fa g     F .text	000000d0 reprogram_PIC_8259
c00035ad g     F .text	00000083 dump_free_frames
c0001000 g       .text	00000000 __task_exit_point
c001b544 g     O .bss	00000004 last_pid
c0004cdb g     F .text	00000007 do_idle
c0003a3b g     F .text	00000119 schedule
c0004c8e g     F .text	0000004d auto_kill
c0002f92 g     F .text	00000174 delete_page
c0002e1f g     F .text	0000004c init_free_frames
c0001010 g       .text	00000000 irq_00
c0005a0f g     F .text	00000354 keyboard_handler
c0006576 g     F .text	00000042 strnlen
c0001028 g       .text	00000000 irq_06
c000a9b0 g     O .data	00000002 crt_height
c000559e g     F .text	0000002d ufree
00010000 g       *ABS*	00000000 KERNEL_STACK_SIZE
c000103c g       .text	00000000 irq_0B
c000183b g     F .text	00000027 spurious_interrupt
c000591d g     F .text	00000080 update_leds
c000579d g     F .text	00000114 initialize_DMA
c0005ef9 g     F .text	00000085 video_clrscr
c0001050 g       .text	00000000 irq_unhandled
c001b560 g     O .bss	00000004 fdc_done
c002bda0 g     O .bss	00002000 gdt_busy_entry
c001b55c g     O .bss	00000004 fdc_motor_countdown
c00072a7 g     F .text	00000036 fdc_recalibrate
c0002158 g     F .text	00000080 reboot
c001b524 g     O .bss	00000004 ready_queue
c0001ea8 g     F .text	000000b8 disable_IRQ
c001b568 g     O .bss	00000007 fdc_status
c0005082 g     F .text	0000008e umalloc_init
c00000fa g       .text	00000000 exc_0A
c0001030 g       .text	00000000 irq_08
c0007412 g     F .text	000000e2 lba2chs
c00037bb g     F .text	00000015 sched_is_disabled
c0000000 g       .text	00000000 _start
c001b538 g     O .bss	00000004 refresh_queues_flag
c00027d9 g     F .text	000001fa k_main
c002ddb4 g     O .bss	00000004 fdc_buffer
c000101c g       .text	00000000 irq_03
c000662d g     F .text	00000065 strncmp
c00070b9 g     F .text	00000064 fdc_sendbyte
c00034ce g     F .text	000000df dump_dirty_pages
c000aac0 g     O .data	00000001 fdc_track
c0001234 g     F .text	00000049 kplacechar
c00011f3 g     F .text	00000014 kclrscr
c000787b g     F .text	00000014 initialize_floppy
c001b534 g     O .bss	00000004 idle_task
c001b570 g     O .bss	00000001 fdc_geometry
c00000f4 g       .text	00000000 exc_09
c0000106 g       .text	00000000 exc_0D
c001b530 g     O .bss	00000004 current_task
c001b564 g     O .bss	00000004 fdc_change
c000a9c0 g     O .data	00000100 _ctype
c00077a1 g     F .text	00000051 fdc_write
c000132b g     F .text	0000002a get_console_addr
c002ddac g     O .bss	00000004 dma_free_frames
c000323d g     F .text	0000010b page_fault_handler
00001000 g       *ABS*	00000000 PAGE_SIZE
c0000008 g       .text	00000000 stage2_return_address
c0001024 g       .text	00000000 irq_05
c0002de6 g     F .text	00000039 push_frame
c001b574 g     O .bss	00000004 pf_panic
c002e000 g       .bss	00000000 KERNEL_END_BSS
c0004775 g     F .text	000004fa create_thread
c0005571 g     F .text	0000002d umalloc
c001b000 g       .bss	00000000 _stack_end
c002dda0 g     O .bss	00000006 gdt_ptr
c000127d g     F .text	00000022 kset_color
c000a9ae g     O .data	00000002 crt_width
c00029d3 g     F .text	00000050 print_ok
c00065b8 g     F .text	0000003f strcmp
c0005ee1 g     F .text	00000018 video_set_color
c001b5a0 g     O .bss	00000800 idt
c00041c8 g     F .text	000005ad create_process
c0002b70 g     F .text	000000a1 remove_GDT_entry
c000109c g     F .text	00000049 delay
c000a580 g       .data	00000000 KERNEL_DATA
c0002a23 g     F .text	00000050 print_failed
c00000c6 g       .text	00000000 exc_01
c0006289 g     F .text	0000028d scanf
c0000102 g       .text	00000000 exc_0C
c00020e5 g     F .text	00000073 error
c001b000 g     O .bss	00000004 ticks
c001b120 g     O .bss	00000400 interrupt_handlers
c0001f60 g     F .text	000000bc enable_IRQ
c0004d00 g     F .text	00000061 initialize_multitasking
c0001040 g       .text	00000000 irq_0C
c002ddb0 g     O .bss	00000004 dma_pointer
c0001038 g       .text	00000000 irq_0A
c001b000 g       .bss	00000000 KERNEL_END_STACK
c0001048 g       .text	00000000 irq_0E
c000010e g       .text	00000000 exc_0F
00100000 g       *ABS*	00000000 PHYSICAL_KERNEL_START
c00077f2 g     F .text	00000023 floppy_handler
c00031e7 g     F .text	00000056 free_temp_page
c00000cc g       .text	00000000 exc_02
c0006255 g     F .text	00000017 initialize_video
c00055e9 g     F .text	00000166 dma_xfer
c000129f g     F .text	0000008c kprintf
c00014cd g     F .text	0000020f exception_handler_middle
c0003348 g     F .text	00000186 initialize_paging
c0009000 g       .text	00000000 KERNEL_END_TEXT
c0000114 g       .text	00000000 exc_unhandled
c00021d8 g     F .text	00000007 halt
c0001207 g     F .text	0000002d kputchar
c000208c g     F .text	0000003b unregister_interrupt_handler
c00072dd g     F .text	0000009c fdc_seek
c0001034 g       .text	00000000 irq_09
c00074f4 g     F .text	0000025c fdc_rw
c0001018 g       .text	00000000 irq_02
c00058ec g     F .text	00000031 keyboard_wait_controller
c0002226 g     F .text	0000011d kmalloc
c00025c8 g     F .text	00000036 kmalloc_initialize
c00025fe g     F .text	000000ad dump_memory_map
c00000e4 g       .text	00000000 exc_06
c001b52c g     O .bss	00000004 zombie_queue
c0002a94 g     F .text	000000dc setup_GDT_entry
c000104c g       .text	00000000 irq_0F
c0006541 g     F .text	00000035 strlen
c0003106 g     F .text	000000e1 get_temp_page
c00000f0 g       .text	00000000 exc_08
c00000de g       .text	00000000 exc_05
c001b558 g     O .bss	00000004 fdc_timeout
c000b000 g       .bss	00000000 _stack
c000599d g     F .text	00000072 scan_key
c000538d g     F .text	000001e4 do_ufree
c0000000 g       *ABS*	00000000 VIRTUAL_KERNEL_START
c0004ce2 g     F .text	0000000f sched_enter_critical_region
c0002d99 g     F .text	0000004d pop_frame
c000711d g     F .text	0000005e fdc_getbyte
c001b56f g     O .bss	00000001 status_register_0
c0005f7e g     F .text	000000de video_scroll_console
c0003f2a g     F .text	00000045 new_pid
c000010a g       .text	00000000 exc_0E
c000a588 g     O .data	00000004 sched_enabled
c00021df g     F .text	00000047 mem_sizeof
c0003f6f g     F .text	00000020 get_pid
c001b000 g       .bss	00000000 KERNEL_BSS
c000b000 g       .data	00000000 KERNEL_END_DATA
c0005df8 g     F .text	00000021 initialize_keyboard
c000626c g     F .text	0000001d k_getchar
c0005110 g     F .text	0000020a do_umalloc
c000a58c g     O .data	00000004 pid_lock



Disassembly of section .text:

c0000000 <KERNEL_TEXT>:
KERNEL_TEXT():
c0000000:	eb 0a                	jmp    c000000c <entry>

c0000002 <not_used_space>:
	...

c0000004 <var_system_memory_amount>:
var_system_memory_amount():
c0000004:	00 00                	add    %al,(%eax)
	...

c0000008 <stage2_return_address>:
stage2_return_address():
c0000008:	00 00                	add    %al,(%eax)
	...

c000000c <entry>:
entry():
c000000c:	66 ba f2 03          	mov    $0x3f2,%dx
c0000010:	b0 0c                	mov    $0xc,%al
c0000012:	ee                   	out    %al,(%dx)

c0000013 <setup_and_enable_paging>:
setup_and_enable_paging():
c0000013:	bf 00 10 00 00       	mov    $0x1000,%edi
c0000018:	b8 00 00 00 00       	mov    $0x0,%eax
c000001d:	b9 00 10 00 00       	mov    $0x1000,%ecx
c0000022:	fc                   	cld    
c0000023:	f3 aa                	rep stos %al,%es:(%edi)
c0000025:	b8 03 00 00 00       	mov    $0x3,%eax
c000002a:	b9 00 04 00 00       	mov    $0x400,%ecx
c000002f:	bf 00 30 00 00       	mov    $0x3000,%edi
c0000034:	fc                   	cld    

c0000035 <Map_I_PAGE_TAB>:
Map_I_PAGE_TAB():
c0000035:	ab                   	stos   %eax,%es:(%edi)
c0000036:	05 00 10 00 00       	add    $0x1000,%eax
c000003b:	e2 f8                	loop   c0000035 <Map_I_PAGE_TAB>
c000003d:	c7 05 00 10 00 00 07 	movl   $0x3007,0x1000
c0000044:	30 00 00 
c0000047:	b8 03 00 10 00       	mov    $0x100003,%eax
c000004c:	b9 00 04 00 00       	mov    $0x400,%ecx
c0000051:	bf 00 20 00 00       	mov    $0x2000,%edi

c0000056 <Map_K_PAGE_TAB>:
Map_K_PAGE_TAB():
c0000056:	ab                   	stos   %eax,%es:(%edi)
c0000057:	05 00 10 00 00       	add    $0x1000,%eax
c000005c:	e2 f8                	loop   c0000056 <Map_K_PAGE_TAB>
c000005e:	c7 05 00 1c 00 00 07 	movl   $0x2007,0x1c00
c0000065:	20 00 00 
c0000068:	c7 05 fc 1f 00 00 07 	movl   $0x1007,0x1ffc
c000006f:	10 00 00 
c0000072:	b8 00 10 00 00       	mov    $0x1000,%eax
c0000077:	0f 22 d8             	mov    %eax,%cr3
c000007a:	0f 20 c0             	mov    %cr0,%eax
c000007d:	0d 00 00 01 80       	or     $0x80010000,%eax
c0000082:	0f 22 c0             	mov    %eax,%cr0
c0000085:	ea 8c 00 00 c0 08 00 	ljmp   $0x8,$0xc000008c

c000008c <paging_enabled>:
paging_enabled():
c000008c:	b8 10 00 00 00       	mov    $0x10,%eax
c0000091:	8e d8                	mov    %eax,%ds
c0000093:	8e c0                	mov    %eax,%es
c0000095:	8e d0                	mov    %eax,%ss
c0000097:	90                   	nop
c0000098:	8e e0                	mov    %eax,%fs
c000009a:	8e e8                	mov    %eax,%gs
c000009c:	8f 05 08 00 00 c0    	popl   0xc0000008
c00000a2:	8f 05 04 00 00 c0    	popl   0xc0000004
c00000a8:	bc 00 b0 01 c0       	mov    $0xc001b000,%esp
c00000ad:	e9 27 27 00 00       	jmp    c00027d9 <k_main>
c00000b2:	66 90                	xchg   %ax,%ax
c00000b4:	66 90                	xchg   %ax,%ax
c00000b6:	66 90                	xchg   %ax,%ax
c00000b8:	66 90                	xchg   %ax,%ax
c00000ba:	66 90                	xchg   %ax,%ax
c00000bc:	66 90                	xchg   %ax,%ax
c00000be:	66 90                	xchg   %ax,%ax

c00000c0 <exc_00>:
exc_00():
c00000c0:	6a 00                	push   $0x0
c00000c2:	6a 00                	push   $0x0
c00000c4:	eb 57                	jmp    c000011d <COMMON_EXC>

c00000c6 <exc_01>:
exc_01():
c00000c6:	6a 00                	push   $0x0
c00000c8:	6a 01                	push   $0x1
c00000ca:	eb 51                	jmp    c000011d <COMMON_EXC>

c00000cc <exc_02>:
exc_02():
c00000cc:	6a 00                	push   $0x0
c00000ce:	6a 02                	push   $0x2
c00000d0:	eb 4b                	jmp    c000011d <COMMON_EXC>

c00000d2 <exc_03>:
exc_03():
c00000d2:	6a 00                	push   $0x0
c00000d4:	6a 03                	push   $0x3
c00000d6:	eb 45                	jmp    c000011d <COMMON_EXC>

c00000d8 <exc_04>:
exc_04():
c00000d8:	6a 00                	push   $0x0
c00000da:	6a 04                	push   $0x4
c00000dc:	eb 3f                	jmp    c000011d <COMMON_EXC>

c00000de <exc_05>:
exc_05():
c00000de:	6a 00                	push   $0x0
c00000e0:	6a 05                	push   $0x5
c00000e2:	eb 39                	jmp    c000011d <COMMON_EXC>

c00000e4 <exc_06>:
exc_06():
c00000e4:	6a 00                	push   $0x0
c00000e6:	6a 06                	push   $0x6
c00000e8:	eb 33                	jmp    c000011d <COMMON_EXC>

c00000ea <exc_07>:
exc_07():
c00000ea:	6a 00                	push   $0x0
c00000ec:	6a 07                	push   $0x7
c00000ee:	eb 2d                	jmp    c000011d <COMMON_EXC>

c00000f0 <exc_08>:
exc_08():
c00000f0:	6a 08                	push   $0x8
c00000f2:	eb 29                	jmp    c000011d <COMMON_EXC>

c00000f4 <exc_09>:
exc_09():
c00000f4:	6a 00                	push   $0x0
c00000f6:	6a 09                	push   $0x9
c00000f8:	eb 23                	jmp    c000011d <COMMON_EXC>

c00000fa <exc_0A>:
exc_0A():
c00000fa:	6a 0a                	push   $0xa
c00000fc:	eb 1f                	jmp    c000011d <COMMON_EXC>

c00000fe <exc_0B>:
exc_0B():
c00000fe:	6a 0b                	push   $0xb
c0000100:	eb 1b                	jmp    c000011d <COMMON_EXC>

c0000102 <exc_0C>:
exc_0C():
c0000102:	6a 0c                	push   $0xc
c0000104:	eb 17                	jmp    c000011d <COMMON_EXC>

c0000106 <exc_0D>:
exc_0D():
c0000106:	6a 0d                	push   $0xd
c0000108:	eb 13                	jmp    c000011d <COMMON_EXC>

c000010a <exc_0E>:
exc_0E():
c000010a:	6a 0e                	push   $0xe
c000010c:	eb 0f                	jmp    c000011d <COMMON_EXC>

c000010e <exc_0F>:
exc_0F():
c000010e:	6a 00                	push   $0x0
c0000110:	6a 0f                	push   $0xf
c0000112:	eb 09                	jmp    c000011d <COMMON_EXC>

c0000114 <exc_unhandled>:
exc_unhandled():
c0000114:	6a 00                	push   $0x0
c0000116:	68 ff 00 00 00       	push   $0xff
c000011b:	eb 00                	jmp    c000011d <COMMON_EXC>

c000011d <COMMON_EXC>:
COMMON_EXC():
c000011d:	0f a8                	push   %gs
c000011f:	0f a0                	push   %fs
c0000121:	1e                   	push   %ds
c0000122:	06                   	push   %es
c0000123:	60                   	pusha  
c0000124:	b8 10 00 00 00       	mov    $0x10,%eax
c0000129:	8e d8                	mov    %eax,%ds
c000012b:	8e c0                	mov    %eax,%es
c000012d:	8e e0                	mov    %eax,%fs
c000012f:	8e e8                	mov    %eax,%gs
c0000131:	54                   	push   %esp
c0000132:	e8 96 13 00 00       	call   c00014cd <exception_handler_middle>
c0000137:	5c                   	pop    %esp
c0000138:	61                   	popa   
c0000139:	07                   	pop    %es
c000013a:	1f                   	pop    %ds
c000013b:	0f a1                	pop    %fs
c000013d:	0f a9                	pop    %gs
c000013f:	83 c4 08             	add    $0x8,%esp
c0000142:	cf                   	iret   
c0000143:	66 90                	xchg   %ax,%ax
c0000145:	66 90                	xchg   %ax,%ax
c0000147:	66 90                	xchg   %ax,%ax
c0000149:	66 90                	xchg   %ax,%ax
c000014b:	66 90                	xchg   %ax,%ax
c000014d:	66 90                	xchg   %ax,%ax
c000014f:	66 90                	xchg   %ax,%ax
c0000151:	66 90                	xchg   %ax,%ax
c0000153:	66 90                	xchg   %ax,%ax
c0000155:	66 90                	xchg   %ax,%ax
c0000157:	66 90                	xchg   %ax,%ax
c0000159:	66 90                	xchg   %ax,%ax
c000015b:	66 90                	xchg   %ax,%ax
c000015d:	66 90                	xchg   %ax,%ax
c000015f:	66 90                	xchg   %ax,%ax
c0000161:	66 90                	xchg   %ax,%ax
c0000163:	66 90                	xchg   %ax,%ax
c0000165:	66 90                	xchg   %ax,%ax
c0000167:	66 90                	xchg   %ax,%ax
c0000169:	66 90                	xchg   %ax,%ax
c000016b:	66 90                	xchg   %ax,%ax
c000016d:	66 90                	xchg   %ax,%ax
c000016f:	66 90                	xchg   %ax,%ax
c0000171:	66 90                	xchg   %ax,%ax
c0000173:	66 90                	xchg   %ax,%ax
c0000175:	66 90                	xchg   %ax,%ax
c0000177:	66 90                	xchg   %ax,%ax
c0000179:	66 90                	xchg   %ax,%ax
c000017b:	66 90                	xchg   %ax,%ax
c000017d:	66 90                	xchg   %ax,%ax
c000017f:	66 90                	xchg   %ax,%ax
c0000181:	66 90                	xchg   %ax,%ax
c0000183:	66 90                	xchg   %ax,%ax
c0000185:	66 90                	xchg   %ax,%ax
c0000187:	66 90                	xchg   %ax,%ax
c0000189:	66 90                	xchg   %ax,%ax
c000018b:	66 90                	xchg   %ax,%ax
c000018d:	66 90                	xchg   %ax,%ax
c000018f:	66 90                	xchg   %ax,%ax
c0000191:	66 90                	xchg   %ax,%ax
c0000193:	66 90                	xchg   %ax,%ax
c0000195:	66 90                	xchg   %ax,%ax
c0000197:	66 90                	xchg   %ax,%ax
c0000199:	66 90                	xchg   %ax,%ax
c000019b:	66 90                	xchg   %ax,%ax
c000019d:	66 90                	xchg   %ax,%ax
c000019f:	66 90                	xchg   %ax,%ax
c00001a1:	66 90                	xchg   %ax,%ax
c00001a3:	66 90                	xchg   %ax,%ax
c00001a5:	66 90                	xchg   %ax,%ax
c00001a7:	66 90                	xchg   %ax,%ax
c00001a9:	66 90                	xchg   %ax,%ax
c00001ab:	66 90                	xchg   %ax,%ax
c00001ad:	66 90                	xchg   %ax,%ax
c00001af:	66 90                	xchg   %ax,%ax
c00001b1:	66 90                	xchg   %ax,%ax
c00001b3:	66 90                	xchg   %ax,%ax
c00001b5:	66 90                	xchg   %ax,%ax
c00001b7:	66 90                	xchg   %ax,%ax
c00001b9:	66 90                	xchg   %ax,%ax
c00001bb:	66 90                	xchg   %ax,%ax
c00001bd:	66 90                	xchg   %ax,%ax
c00001bf:	66 90                	xchg   %ax,%ax
c00001c1:	66 90                	xchg   %ax,%ax
c00001c3:	66 90                	xchg   %ax,%ax
c00001c5:	66 90                	xchg   %ax,%ax
c00001c7:	66 90                	xchg   %ax,%ax
c00001c9:	66 90                	xchg   %ax,%ax
c00001cb:	66 90                	xchg   %ax,%ax
c00001cd:	66 90                	xchg   %ax,%ax
c00001cf:	66 90                	xchg   %ax,%ax
c00001d1:	66 90                	xchg   %ax,%ax
c00001d3:	66 90                	xchg   %ax,%ax
c00001d5:	66 90                	xchg   %ax,%ax
c00001d7:	66 90                	xchg   %ax,%ax
c00001d9:	66 90                	xchg   %ax,%ax
c00001db:	66 90                	xchg   %ax,%ax
c00001dd:	66 90                	xchg   %ax,%ax
c00001df:	66 90                	xchg   %ax,%ax
c00001e1:	66 90                	xchg   %ax,%ax
c00001e3:	66 90                	xchg   %ax,%ax
c00001e5:	66 90                	xchg   %ax,%ax
c00001e7:	66 90                	xchg   %ax,%ax
c00001e9:	66 90                	xchg   %ax,%ax
c00001eb:	66 90                	xchg   %ax,%ax
c00001ed:	66 90                	xchg   %ax,%ax
c00001ef:	66 90                	xchg   %ax,%ax
c00001f1:	66 90                	xchg   %ax,%ax
c00001f3:	66 90                	xchg   %ax,%ax
c00001f5:	66 90                	xchg   %ax,%ax
c00001f7:	66 90                	xchg   %ax,%ax
c00001f9:	66 90                	xchg   %ax,%ax
c00001fb:	66 90                	xchg   %ax,%ax
c00001fd:	66 90                	xchg   %ax,%ax
c00001ff:	66 90                	xchg   %ax,%ax
c0000201:	66 90                	xchg   %ax,%ax
c0000203:	66 90                	xchg   %ax,%ax
c0000205:	66 90                	xchg   %ax,%ax
c0000207:	66 90                	xchg   %ax,%ax
c0000209:	66 90                	xchg   %ax,%ax
c000020b:	66 90                	xchg   %ax,%ax
c000020d:	66 90                	xchg   %ax,%ax
c000020f:	66 90                	xchg   %ax,%ax
c0000211:	66 90                	xchg   %ax,%ax
c0000213:	66 90                	xchg   %ax,%ax
c0000215:	66 90                	xchg   %ax,%ax
c0000217:	66 90                	xchg   %ax,%ax
c0000219:	66 90                	xchg   %ax,%ax
c000021b:	66 90                	xchg   %ax,%ax
c000021d:	66 90                	xchg   %ax,%ax
c000021f:	66 90                	xchg   %ax,%ax
c0000221:	66 90                	xchg   %ax,%ax
c0000223:	66 90                	xchg   %ax,%ax
c0000225:	66 90                	xchg   %ax,%ax
c0000227:	66 90                	xchg   %ax,%ax
c0000229:	66 90                	xchg   %ax,%ax
c000022b:	66 90                	xchg   %ax,%ax
c000022d:	66 90                	xchg   %ax,%ax
c000022f:	66 90                	xchg   %ax,%ax
c0000231:	66 90                	xchg   %ax,%ax
c0000233:	66 90                	xchg   %ax,%ax
c0000235:	66 90                	xchg   %ax,%ax
c0000237:	66 90                	xchg   %ax,%ax
c0000239:	66 90                	xchg   %ax,%ax
c000023b:	66 90                	xchg   %ax,%ax
c000023d:	66 90                	xchg   %ax,%ax
c000023f:	66 90                	xchg   %ax,%ax
c0000241:	66 90                	xchg   %ax,%ax
c0000243:	66 90                	xchg   %ax,%ax
c0000245:	66 90                	xchg   %ax,%ax
c0000247:	66 90                	xchg   %ax,%ax
c0000249:	66 90                	xchg   %ax,%ax
c000024b:	66 90                	xchg   %ax,%ax
c000024d:	66 90                	xchg   %ax,%ax
c000024f:	66 90                	xchg   %ax,%ax
c0000251:	66 90                	xchg   %ax,%ax
c0000253:	66 90                	xchg   %ax,%ax
c0000255:	66 90                	xchg   %ax,%ax
c0000257:	66 90                	xchg   %ax,%ax
c0000259:	66 90                	xchg   %ax,%ax
c000025b:	66 90                	xchg   %ax,%ax
c000025d:	66 90                	xchg   %ax,%ax
c000025f:	66 90                	xchg   %ax,%ax
c0000261:	66 90                	xchg   %ax,%ax
c0000263:	66 90                	xchg   %ax,%ax
c0000265:	66 90                	xchg   %ax,%ax
c0000267:	66 90                	xchg   %ax,%ax
c0000269:	66 90                	xchg   %ax,%ax
c000026b:	66 90                	xchg   %ax,%ax
c000026d:	66 90                	xchg   %ax,%ax
c000026f:	66 90                	xchg   %ax,%ax
c0000271:	66 90                	xchg   %ax,%ax
c0000273:	66 90                	xchg   %ax,%ax
c0000275:	66 90                	xchg   %ax,%ax
c0000277:	66 90                	xchg   %ax,%ax
c0000279:	66 90                	xchg   %ax,%ax
c000027b:	66 90                	xchg   %ax,%ax
c000027d:	66 90                	xchg   %ax,%ax
c000027f:	66 90                	xchg   %ax,%ax
c0000281:	66 90                	xchg   %ax,%ax
c0000283:	66 90                	xchg   %ax,%ax
c0000285:	66 90                	xchg   %ax,%ax
c0000287:	66 90                	xchg   %ax,%ax
c0000289:	66 90                	xchg   %ax,%ax
c000028b:	66 90                	xchg   %ax,%ax
c000028d:	66 90                	xchg   %ax,%ax
c000028f:	66 90                	xchg   %ax,%ax
c0000291:	66 90                	xchg   %ax,%ax
c0000293:	66 90                	xchg   %ax,%ax
c0000295:	66 90                	xchg   %ax,%ax
c0000297:	66 90                	xchg   %ax,%ax
c0000299:	66 90                	xchg   %ax,%ax
c000029b:	66 90                	xchg   %ax,%ax
c000029d:	66 90                	xchg   %ax,%ax
c000029f:	66 90                	xchg   %ax,%ax
c00002a1:	66 90                	xchg   %ax,%ax
c00002a3:	66 90                	xchg   %ax,%ax
c00002a5:	66 90                	xchg   %ax,%ax
c00002a7:	66 90                	xchg   %ax,%ax
c00002a9:	66 90                	xchg   %ax,%ax
c00002ab:	66 90                	xchg   %ax,%ax
c00002ad:	66 90                	xchg   %ax,%ax
c00002af:	66 90                	xchg   %ax,%ax
c00002b1:	66 90                	xchg   %ax,%ax
c00002b3:	66 90                	xchg   %ax,%ax
c00002b5:	66 90                	xchg   %ax,%ax
c00002b7:	66 90                	xchg   %ax,%ax
c00002b9:	66 90                	xchg   %ax,%ax
c00002bb:	66 90                	xchg   %ax,%ax
c00002bd:	66 90                	xchg   %ax,%ax
c00002bf:	66 90                	xchg   %ax,%ax
c00002c1:	66 90                	xchg   %ax,%ax
c00002c3:	66 90                	xchg   %ax,%ax
c00002c5:	66 90                	xchg   %ax,%ax
c00002c7:	66 90                	xchg   %ax,%ax
c00002c9:	66 90                	xchg   %ax,%ax
c00002cb:	66 90                	xchg   %ax,%ax
c00002cd:	66 90                	xchg   %ax,%ax
c00002cf:	66 90                	xchg   %ax,%ax
c00002d1:	66 90                	xchg   %ax,%ax
c00002d3:	66 90                	xchg   %ax,%ax
c00002d5:	66 90                	xchg   %ax,%ax
c00002d7:	66 90                	xchg   %ax,%ax
c00002d9:	66 90                	xchg   %ax,%ax
c00002db:	66 90                	xchg   %ax,%ax
c00002dd:	66 90                	xchg   %ax,%ax
c00002df:	66 90                	xchg   %ax,%ax
c00002e1:	66 90                	xchg   %ax,%ax
c00002e3:	66 90                	xchg   %ax,%ax
c00002e5:	66 90                	xchg   %ax,%ax
c00002e7:	66 90                	xchg   %ax,%ax
c00002e9:	66 90                	xchg   %ax,%ax
c00002eb:	66 90                	xchg   %ax,%ax
c00002ed:	66 90                	xchg   %ax,%ax
c00002ef:	66 90                	xchg   %ax,%ax
c00002f1:	66 90                	xchg   %ax,%ax
c00002f3:	66 90                	xchg   %ax,%ax
c00002f5:	66 90                	xchg   %ax,%ax
c00002f7:	66 90                	xchg   %ax,%ax
c00002f9:	66 90                	xchg   %ax,%ax
c00002fb:	66 90                	xchg   %ax,%ax
c00002fd:	66 90                	xchg   %ax,%ax
c00002ff:	66 90                	xchg   %ax,%ax
c0000301:	66 90                	xchg   %ax,%ax
c0000303:	66 90                	xchg   %ax,%ax
c0000305:	66 90                	xchg   %ax,%ax
c0000307:	66 90                	xchg   %ax,%ax
c0000309:	66 90                	xchg   %ax,%ax
c000030b:	66 90                	xchg   %ax,%ax
c000030d:	66 90                	xchg   %ax,%ax
c000030f:	66 90                	xchg   %ax,%ax
c0000311:	66 90                	xchg   %ax,%ax
c0000313:	66 90                	xchg   %ax,%ax
c0000315:	66 90                	xchg   %ax,%ax
c0000317:	66 90                	xchg   %ax,%ax
c0000319:	66 90                	xchg   %ax,%ax
c000031b:	66 90                	xchg   %ax,%ax
c000031d:	66 90                	xchg   %ax,%ax
c000031f:	66 90                	xchg   %ax,%ax
c0000321:	66 90                	xchg   %ax,%ax
c0000323:	66 90                	xchg   %ax,%ax
c0000325:	66 90                	xchg   %ax,%ax
c0000327:	66 90                	xchg   %ax,%ax
c0000329:	66 90                	xchg   %ax,%ax
c000032b:	66 90                	xchg   %ax,%ax
c000032d:	66 90                	xchg   %ax,%ax
c000032f:	66 90                	xchg   %ax,%ax
c0000331:	66 90                	xchg   %ax,%ax
c0000333:	66 90                	xchg   %ax,%ax
c0000335:	66 90                	xchg   %ax,%ax
c0000337:	66 90                	xchg   %ax,%ax
c0000339:	66 90                	xchg   %ax,%ax
c000033b:	66 90                	xchg   %ax,%ax
c000033d:	66 90                	xchg   %ax,%ax
c000033f:	66 90                	xchg   %ax,%ax
c0000341:	66 90                	xchg   %ax,%ax
c0000343:	66 90                	xchg   %ax,%ax
c0000345:	66 90                	xchg   %ax,%ax
c0000347:	66 90                	xchg   %ax,%ax
c0000349:	66 90                	xchg   %ax,%ax
c000034b:	66 90                	xchg   %ax,%ax
c000034d:	66 90                	xchg   %ax,%ax
c000034f:	66 90                	xchg   %ax,%ax
c0000351:	66 90                	xchg   %ax,%ax
c0000353:	66 90                	xchg   %ax,%ax
c0000355:	66 90                	xchg   %ax,%ax
c0000357:	66 90                	xchg   %ax,%ax
c0000359:	66 90                	xchg   %ax,%ax
c000035b:	66 90                	xchg   %ax,%ax
c000035d:	66 90                	xchg   %ax,%ax
c000035f:	66 90                	xchg   %ax,%ax
c0000361:	66 90                	xchg   %ax,%ax
c0000363:	66 90                	xchg   %ax,%ax
c0000365:	66 90                	xchg   %ax,%ax
c0000367:	66 90                	xchg   %ax,%ax
c0000369:	66 90                	xchg   %ax,%ax
c000036b:	66 90                	xchg   %ax,%ax
c000036d:	66 90                	xchg   %ax,%ax
c000036f:	66 90                	xchg   %ax,%ax
c0000371:	66 90                	xchg   %ax,%ax
c0000373:	66 90                	xchg   %ax,%ax
c0000375:	66 90                	xchg   %ax,%ax
c0000377:	66 90                	xchg   %ax,%ax
c0000379:	66 90                	xchg   %ax,%ax
c000037b:	66 90                	xchg   %ax,%ax
c000037d:	66 90                	xchg   %ax,%ax
c000037f:	66 90                	xchg   %ax,%ax
c0000381:	66 90                	xchg   %ax,%ax
c0000383:	66 90                	xchg   %ax,%ax
c0000385:	66 90                	xchg   %ax,%ax
c0000387:	66 90                	xchg   %ax,%ax
c0000389:	66 90                	xchg   %ax,%ax
c000038b:	66 90                	xchg   %ax,%ax
c000038d:	66 90                	xchg   %ax,%ax
c000038f:	66 90                	xchg   %ax,%ax
c0000391:	66 90                	xchg   %ax,%ax
c0000393:	66 90                	xchg   %ax,%ax
c0000395:	66 90                	xchg   %ax,%ax
c0000397:	66 90                	xchg   %ax,%ax
c0000399:	66 90                	xchg   %ax,%ax
c000039b:	66 90                	xchg   %ax,%ax
c000039d:	66 90                	xchg   %ax,%ax
c000039f:	66 90                	xchg   %ax,%ax
c00003a1:	66 90                	xchg   %ax,%ax
c00003a3:	66 90                	xchg   %ax,%ax
c00003a5:	66 90                	xchg   %ax,%ax
c00003a7:	66 90                	xchg   %ax,%ax
c00003a9:	66 90                	xchg   %ax,%ax
c00003ab:	66 90                	xchg   %ax,%ax
c00003ad:	66 90                	xchg   %ax,%ax
c00003af:	66 90                	xchg   %ax,%ax
c00003b1:	66 90                	xchg   %ax,%ax
c00003b3:	66 90                	xchg   %ax,%ax
c00003b5:	66 90                	xchg   %ax,%ax
c00003b7:	66 90                	xchg   %ax,%ax
c00003b9:	66 90                	xchg   %ax,%ax
c00003bb:	66 90                	xchg   %ax,%ax
c00003bd:	66 90                	xchg   %ax,%ax
c00003bf:	66 90                	xchg   %ax,%ax
c00003c1:	66 90                	xchg   %ax,%ax
c00003c3:	66 90                	xchg   %ax,%ax
c00003c5:	66 90                	xchg   %ax,%ax
c00003c7:	66 90                	xchg   %ax,%ax
c00003c9:	66 90                	xchg   %ax,%ax
c00003cb:	66 90                	xchg   %ax,%ax
c00003cd:	66 90                	xchg   %ax,%ax
c00003cf:	66 90                	xchg   %ax,%ax
c00003d1:	66 90                	xchg   %ax,%ax
c00003d3:	66 90                	xchg   %ax,%ax
c00003d5:	66 90                	xchg   %ax,%ax
c00003d7:	66 90                	xchg   %ax,%ax
c00003d9:	66 90                	xchg   %ax,%ax
c00003db:	66 90                	xchg   %ax,%ax
c00003dd:	66 90                	xchg   %ax,%ax
c00003df:	66 90                	xchg   %ax,%ax
c00003e1:	66 90                	xchg   %ax,%ax
c00003e3:	66 90                	xchg   %ax,%ax
c00003e5:	66 90                	xchg   %ax,%ax
c00003e7:	66 90                	xchg   %ax,%ax
c00003e9:	66 90                	xchg   %ax,%ax
c00003eb:	66 90                	xchg   %ax,%ax
c00003ed:	66 90                	xchg   %ax,%ax
c00003ef:	66 90                	xchg   %ax,%ax
c00003f1:	66 90                	xchg   %ax,%ax
c00003f3:	66 90                	xchg   %ax,%ax
c00003f5:	66 90                	xchg   %ax,%ax
c00003f7:	66 90                	xchg   %ax,%ax
c00003f9:	66 90                	xchg   %ax,%ax
c00003fb:	66 90                	xchg   %ax,%ax
c00003fd:	66 90                	xchg   %ax,%ax
c00003ff:	66 90                	xchg   %ax,%ax
c0000401:	66 90                	xchg   %ax,%ax
c0000403:	66 90                	xchg   %ax,%ax
c0000405:	66 90                	xchg   %ax,%ax
c0000407:	66 90                	xchg   %ax,%ax
c0000409:	66 90                	xchg   %ax,%ax
c000040b:	66 90                	xchg   %ax,%ax
c000040d:	66 90                	xchg   %ax,%ax
c000040f:	66 90                	xchg   %ax,%ax
c0000411:	66 90                	xchg   %ax,%ax
c0000413:	66 90                	xchg   %ax,%ax
c0000415:	66 90                	xchg   %ax,%ax
c0000417:	66 90                	xchg   %ax,%ax
c0000419:	66 90                	xchg   %ax,%ax
c000041b:	66 90                	xchg   %ax,%ax
c000041d:	66 90                	xchg   %ax,%ax
c000041f:	66 90                	xchg   %ax,%ax
c0000421:	66 90                	xchg   %ax,%ax
c0000423:	66 90                	xchg   %ax,%ax
c0000425:	66 90                	xchg   %ax,%ax
c0000427:	66 90                	xchg   %ax,%ax
c0000429:	66 90                	xchg   %ax,%ax
c000042b:	66 90                	xchg   %ax,%ax
c000042d:	66 90                	xchg   %ax,%ax
c000042f:	66 90                	xchg   %ax,%ax
c0000431:	66 90                	xchg   %ax,%ax
c0000433:	66 90                	xchg   %ax,%ax
c0000435:	66 90                	xchg   %ax,%ax
c0000437:	66 90                	xchg   %ax,%ax
c0000439:	66 90                	xchg   %ax,%ax
c000043b:	66 90                	xchg   %ax,%ax
c000043d:	66 90                	xchg   %ax,%ax
c000043f:	66 90                	xchg   %ax,%ax
c0000441:	66 90                	xchg   %ax,%ax
c0000443:	66 90                	xchg   %ax,%ax
c0000445:	66 90                	xchg   %ax,%ax
c0000447:	66 90                	xchg   %ax,%ax
c0000449:	66 90                	xchg   %ax,%ax
c000044b:	66 90                	xchg   %ax,%ax
c000044d:	66 90                	xchg   %ax,%ax
c000044f:	66 90                	xchg   %ax,%ax
c0000451:	66 90                	xchg   %ax,%ax
c0000453:	66 90                	xchg   %ax,%ax
c0000455:	66 90                	xchg   %ax,%ax
c0000457:	66 90                	xchg   %ax,%ax
c0000459:	66 90                	xchg   %ax,%ax
c000045b:	66 90                	xchg   %ax,%ax
c000045d:	66 90                	xchg   %ax,%ax
c000045f:	66 90                	xchg   %ax,%ax
c0000461:	66 90                	xchg   %ax,%ax
c0000463:	66 90                	xchg   %ax,%ax
c0000465:	66 90                	xchg   %ax,%ax
c0000467:	66 90                	xchg   %ax,%ax
c0000469:	66 90                	xchg   %ax,%ax
c000046b:	66 90                	xchg   %ax,%ax
c000046d:	66 90                	xchg   %ax,%ax
c000046f:	66 90                	xchg   %ax,%ax
c0000471:	66 90                	xchg   %ax,%ax
c0000473:	66 90                	xchg   %ax,%ax
c0000475:	66 90                	xchg   %ax,%ax
c0000477:	66 90                	xchg   %ax,%ax
c0000479:	66 90                	xchg   %ax,%ax
c000047b:	66 90                	xchg   %ax,%ax
c000047d:	66 90                	xchg   %ax,%ax
c000047f:	66 90                	xchg   %ax,%ax
c0000481:	66 90                	xchg   %ax,%ax
c0000483:	66 90                	xchg   %ax,%ax
c0000485:	66 90                	xchg   %ax,%ax
c0000487:	66 90                	xchg   %ax,%ax
c0000489:	66 90                	xchg   %ax,%ax
c000048b:	66 90                	xchg   %ax,%ax
c000048d:	66 90                	xchg   %ax,%ax
c000048f:	66 90                	xchg   %ax,%ax
c0000491:	66 90                	xchg   %ax,%ax
c0000493:	66 90                	xchg   %ax,%ax
c0000495:	66 90                	xchg   %ax,%ax
c0000497:	66 90                	xchg   %ax,%ax
c0000499:	66 90                	xchg   %ax,%ax
c000049b:	66 90                	xchg   %ax,%ax
c000049d:	66 90                	xchg   %ax,%ax
c000049f:	66 90                	xchg   %ax,%ax
c00004a1:	66 90                	xchg   %ax,%ax
c00004a3:	66 90                	xchg   %ax,%ax
c00004a5:	66 90                	xchg   %ax,%ax
c00004a7:	66 90                	xchg   %ax,%ax
c00004a9:	66 90                	xchg   %ax,%ax
c00004ab:	66 90                	xchg   %ax,%ax
c00004ad:	66 90                	xchg   %ax,%ax
c00004af:	66 90                	xchg   %ax,%ax
c00004b1:	66 90                	xchg   %ax,%ax
c00004b3:	66 90                	xchg   %ax,%ax
c00004b5:	66 90                	xchg   %ax,%ax
c00004b7:	66 90                	xchg   %ax,%ax
c00004b9:	66 90                	xchg   %ax,%ax
c00004bb:	66 90                	xchg   %ax,%ax
c00004bd:	66 90                	xchg   %ax,%ax
c00004bf:	66 90                	xchg   %ax,%ax
c00004c1:	66 90                	xchg   %ax,%ax
c00004c3:	66 90                	xchg   %ax,%ax
c00004c5:	66 90                	xchg   %ax,%ax
c00004c7:	66 90                	xchg   %ax,%ax
c00004c9:	66 90                	xchg   %ax,%ax
c00004cb:	66 90                	xchg   %ax,%ax
c00004cd:	66 90                	xchg   %ax,%ax
c00004cf:	66 90                	xchg   %ax,%ax
c00004d1:	66 90                	xchg   %ax,%ax
c00004d3:	66 90                	xchg   %ax,%ax
c00004d5:	66 90                	xchg   %ax,%ax
c00004d7:	66 90                	xchg   %ax,%ax
c00004d9:	66 90                	xchg   %ax,%ax
c00004db:	66 90                	xchg   %ax,%ax
c00004dd:	66 90                	xchg   %ax,%ax
c00004df:	66 90                	xchg   %ax,%ax
c00004e1:	66 90                	xchg   %ax,%ax
c00004e3:	66 90                	xchg   %ax,%ax
c00004e5:	66 90                	xchg   %ax,%ax
c00004e7:	66 90                	xchg   %ax,%ax
c00004e9:	66 90                	xchg   %ax,%ax
c00004eb:	66 90                	xchg   %ax,%ax
c00004ed:	66 90                	xchg   %ax,%ax
c00004ef:	66 90                	xchg   %ax,%ax
c00004f1:	66 90                	xchg   %ax,%ax
c00004f3:	66 90                	xchg   %ax,%ax
c00004f5:	66 90                	xchg   %ax,%ax
c00004f7:	66 90                	xchg   %ax,%ax
c00004f9:	66 90                	xchg   %ax,%ax
c00004fb:	66 90                	xchg   %ax,%ax
c00004fd:	66 90                	xchg   %ax,%ax
c00004ff:	66 90                	xchg   %ax,%ax
c0000501:	66 90                	xchg   %ax,%ax
c0000503:	66 90                	xchg   %ax,%ax
c0000505:	66 90                	xchg   %ax,%ax
c0000507:	66 90                	xchg   %ax,%ax
c0000509:	66 90                	xchg   %ax,%ax
c000050b:	66 90                	xchg   %ax,%ax
c000050d:	66 90                	xchg   %ax,%ax
c000050f:	66 90                	xchg   %ax,%ax
c0000511:	66 90                	xchg   %ax,%ax
c0000513:	66 90                	xchg   %ax,%ax
c0000515:	66 90                	xchg   %ax,%ax
c0000517:	66 90                	xchg   %ax,%ax
c0000519:	66 90                	xchg   %ax,%ax
c000051b:	66 90                	xchg   %ax,%ax
c000051d:	66 90                	xchg   %ax,%ax
c000051f:	66 90                	xchg   %ax,%ax
c0000521:	66 90                	xchg   %ax,%ax
c0000523:	66 90                	xchg   %ax,%ax
c0000525:	66 90                	xchg   %ax,%ax
c0000527:	66 90                	xchg   %ax,%ax
c0000529:	66 90                	xchg   %ax,%ax
c000052b:	66 90                	xchg   %ax,%ax
c000052d:	66 90                	xchg   %ax,%ax
c000052f:	66 90                	xchg   %ax,%ax
c0000531:	66 90                	xchg   %ax,%ax
c0000533:	66 90                	xchg   %ax,%ax
c0000535:	66 90                	xchg   %ax,%ax
c0000537:	66 90                	xchg   %ax,%ax
c0000539:	66 90                	xchg   %ax,%ax
c000053b:	66 90                	xchg   %ax,%ax
c000053d:	66 90                	xchg   %ax,%ax
c000053f:	66 90                	xchg   %ax,%ax
c0000541:	66 90                	xchg   %ax,%ax
c0000543:	66 90                	xchg   %ax,%ax
c0000545:	66 90                	xchg   %ax,%ax
c0000547:	66 90                	xchg   %ax,%ax
c0000549:	66 90                	xchg   %ax,%ax
c000054b:	66 90                	xchg   %ax,%ax
c000054d:	66 90                	xchg   %ax,%ax
c000054f:	66 90                	xchg   %ax,%ax
c0000551:	66 90                	xchg   %ax,%ax
c0000553:	66 90                	xchg   %ax,%ax
c0000555:	66 90                	xchg   %ax,%ax
c0000557:	66 90                	xchg   %ax,%ax
c0000559:	66 90                	xchg   %ax,%ax
c000055b:	66 90                	xchg   %ax,%ax
c000055d:	66 90                	xchg   %ax,%ax
c000055f:	66 90                	xchg   %ax,%ax
c0000561:	66 90                	xchg   %ax,%ax
c0000563:	66 90                	xchg   %ax,%ax
c0000565:	66 90                	xchg   %ax,%ax
c0000567:	66 90                	xchg   %ax,%ax
c0000569:	66 90                	xchg   %ax,%ax
c000056b:	66 90                	xchg   %ax,%ax
c000056d:	66 90                	xchg   %ax,%ax
c000056f:	66 90                	xchg   %ax,%ax
c0000571:	66 90                	xchg   %ax,%ax
c0000573:	66 90                	xchg   %ax,%ax
c0000575:	66 90                	xchg   %ax,%ax
c0000577:	66 90                	xchg   %ax,%ax
c0000579:	66 90                	xchg   %ax,%ax
c000057b:	66 90                	xchg   %ax,%ax
c000057d:	66 90                	xchg   %ax,%ax
c000057f:	66 90                	xchg   %ax,%ax
c0000581:	66 90                	xchg   %ax,%ax
c0000583:	66 90                	xchg   %ax,%ax
c0000585:	66 90                	xchg   %ax,%ax
c0000587:	66 90                	xchg   %ax,%ax
c0000589:	66 90                	xchg   %ax,%ax
c000058b:	66 90                	xchg   %ax,%ax
c000058d:	66 90                	xchg   %ax,%ax
c000058f:	66 90                	xchg   %ax,%ax
c0000591:	66 90                	xchg   %ax,%ax
c0000593:	66 90                	xchg   %ax,%ax
c0000595:	66 90                	xchg   %ax,%ax
c0000597:	66 90                	xchg   %ax,%ax
c0000599:	66 90                	xchg   %ax,%ax
c000059b:	66 90                	xchg   %ax,%ax
c000059d:	66 90                	xchg   %ax,%ax
c000059f:	66 90                	xchg   %ax,%ax
c00005a1:	66 90                	xchg   %ax,%ax
c00005a3:	66 90                	xchg   %ax,%ax
c00005a5:	66 90                	xchg   %ax,%ax
c00005a7:	66 90                	xchg   %ax,%ax
c00005a9:	66 90                	xchg   %ax,%ax
c00005ab:	66 90                	xchg   %ax,%ax
c00005ad:	66 90                	xchg   %ax,%ax
c00005af:	66 90                	xchg   %ax,%ax
c00005b1:	66 90                	xchg   %ax,%ax
c00005b3:	66 90                	xchg   %ax,%ax
c00005b5:	66 90                	xchg   %ax,%ax
c00005b7:	66 90                	xchg   %ax,%ax
c00005b9:	66 90                	xchg   %ax,%ax
c00005bb:	66 90                	xchg   %ax,%ax
c00005bd:	66 90                	xchg   %ax,%ax
c00005bf:	66 90                	xchg   %ax,%ax
c00005c1:	66 90                	xchg   %ax,%ax
c00005c3:	66 90                	xchg   %ax,%ax
c00005c5:	66 90                	xchg   %ax,%ax
c00005c7:	66 90                	xchg   %ax,%ax
c00005c9:	66 90                	xchg   %ax,%ax
c00005cb:	66 90                	xchg   %ax,%ax
c00005cd:	66 90                	xchg   %ax,%ax
c00005cf:	66 90                	xchg   %ax,%ax
c00005d1:	66 90                	xchg   %ax,%ax
c00005d3:	66 90                	xchg   %ax,%ax
c00005d5:	66 90                	xchg   %ax,%ax
c00005d7:	66 90                	xchg   %ax,%ax
c00005d9:	66 90                	xchg   %ax,%ax
c00005db:	66 90                	xchg   %ax,%ax
c00005dd:	66 90                	xchg   %ax,%ax
c00005df:	66 90                	xchg   %ax,%ax
c00005e1:	66 90                	xchg   %ax,%ax
c00005e3:	66 90                	xchg   %ax,%ax
c00005e5:	66 90                	xchg   %ax,%ax
c00005e7:	66 90                	xchg   %ax,%ax
c00005e9:	66 90                	xchg   %ax,%ax
c00005eb:	66 90                	xchg   %ax,%ax
c00005ed:	66 90                	xchg   %ax,%ax
c00005ef:	66 90                	xchg   %ax,%ax
c00005f1:	66 90                	xchg   %ax,%ax
c00005f3:	66 90                	xchg   %ax,%ax
c00005f5:	66 90                	xchg   %ax,%ax
c00005f7:	66 90                	xchg   %ax,%ax
c00005f9:	66 90                	xchg   %ax,%ax
c00005fb:	66 90                	xchg   %ax,%ax
c00005fd:	66 90                	xchg   %ax,%ax
c00005ff:	66 90                	xchg   %ax,%ax
c0000601:	66 90                	xchg   %ax,%ax
c0000603:	66 90                	xchg   %ax,%ax
c0000605:	66 90                	xchg   %ax,%ax
c0000607:	66 90                	xchg   %ax,%ax
c0000609:	66 90                	xchg   %ax,%ax
c000060b:	66 90                	xchg   %ax,%ax
c000060d:	66 90                	xchg   %ax,%ax
c000060f:	66 90                	xchg   %ax,%ax
c0000611:	66 90                	xchg   %ax,%ax
c0000613:	66 90                	xchg   %ax,%ax
c0000615:	66 90                	xchg   %ax,%ax
c0000617:	66 90                	xchg   %ax,%ax
c0000619:	66 90                	xchg   %ax,%ax
c000061b:	66 90                	xchg   %ax,%ax
c000061d:	66 90                	xchg   %ax,%ax
c000061f:	66 90                	xchg   %ax,%ax
c0000621:	66 90                	xchg   %ax,%ax
c0000623:	66 90                	xchg   %ax,%ax
c0000625:	66 90                	xchg   %ax,%ax
c0000627:	66 90                	xchg   %ax,%ax
c0000629:	66 90                	xchg   %ax,%ax
c000062b:	66 90                	xchg   %ax,%ax
c000062d:	66 90                	xchg   %ax,%ax
c000062f:	66 90                	xchg   %ax,%ax
c0000631:	66 90                	xchg   %ax,%ax
c0000633:	66 90                	xchg   %ax,%ax
c0000635:	66 90                	xchg   %ax,%ax
c0000637:	66 90                	xchg   %ax,%ax
c0000639:	66 90                	xchg   %ax,%ax
c000063b:	66 90                	xchg   %ax,%ax
c000063d:	66 90                	xchg   %ax,%ax
c000063f:	66 90                	xchg   %ax,%ax
c0000641:	66 90                	xchg   %ax,%ax
c0000643:	66 90                	xchg   %ax,%ax
c0000645:	66 90                	xchg   %ax,%ax
c0000647:	66 90                	xchg   %ax,%ax
c0000649:	66 90                	xchg   %ax,%ax
c000064b:	66 90                	xchg   %ax,%ax
c000064d:	66 90                	xchg   %ax,%ax
c000064f:	66 90                	xchg   %ax,%ax
c0000651:	66 90                	xchg   %ax,%ax
c0000653:	66 90                	xchg   %ax,%ax
c0000655:	66 90                	xchg   %ax,%ax
c0000657:	66 90                	xchg   %ax,%ax
c0000659:	66 90                	xchg   %ax,%ax
c000065b:	66 90                	xchg   %ax,%ax
c000065d:	66 90                	xchg   %ax,%ax
c000065f:	66 90                	xchg   %ax,%ax
c0000661:	66 90                	xchg   %ax,%ax
c0000663:	66 90                	xchg   %ax,%ax
c0000665:	66 90                	xchg   %ax,%ax
c0000667:	66 90                	xchg   %ax,%ax
c0000669:	66 90                	xchg   %ax,%ax
c000066b:	66 90                	xchg   %ax,%ax
c000066d:	66 90                	xchg   %ax,%ax
c000066f:	66 90                	xchg   %ax,%ax
c0000671:	66 90                	xchg   %ax,%ax
c0000673:	66 90                	xchg   %ax,%ax
c0000675:	66 90                	xchg   %ax,%ax
c0000677:	66 90                	xchg   %ax,%ax
c0000679:	66 90                	xchg   %ax,%ax
c000067b:	66 90                	xchg   %ax,%ax
c000067d:	66 90                	xchg   %ax,%ax
c000067f:	66 90                	xchg   %ax,%ax
c0000681:	66 90                	xchg   %ax,%ax
c0000683:	66 90                	xchg   %ax,%ax
c0000685:	66 90                	xchg   %ax,%ax
c0000687:	66 90                	xchg   %ax,%ax
c0000689:	66 90                	xchg   %ax,%ax
c000068b:	66 90                	xchg   %ax,%ax
c000068d:	66 90                	xchg   %ax,%ax
c000068f:	66 90                	xchg   %ax,%ax
c0000691:	66 90                	xchg   %ax,%ax
c0000693:	66 90                	xchg   %ax,%ax
c0000695:	66 90                	xchg   %ax,%ax
c0000697:	66 90                	xchg   %ax,%ax
c0000699:	66 90                	xchg   %ax,%ax
c000069b:	66 90                	xchg   %ax,%ax
c000069d:	66 90                	xchg   %ax,%ax
c000069f:	66 90                	xchg   %ax,%ax
c00006a1:	66 90                	xchg   %ax,%ax
c00006a3:	66 90                	xchg   %ax,%ax
c00006a5:	66 90                	xchg   %ax,%ax
c00006a7:	66 90                	xchg   %ax,%ax
c00006a9:	66 90                	xchg   %ax,%ax
c00006ab:	66 90                	xchg   %ax,%ax
c00006ad:	66 90                	xchg   %ax,%ax
c00006af:	66 90                	xchg   %ax,%ax
c00006b1:	66 90                	xchg   %ax,%ax
c00006b3:	66 90                	xchg   %ax,%ax
c00006b5:	66 90                	xchg   %ax,%ax
c00006b7:	66 90                	xchg   %ax,%ax
c00006b9:	66 90                	xchg   %ax,%ax
c00006bb:	66 90                	xchg   %ax,%ax
c00006bd:	66 90                	xchg   %ax,%ax
c00006bf:	66 90                	xchg   %ax,%ax
c00006c1:	66 90                	xchg   %ax,%ax
c00006c3:	66 90                	xchg   %ax,%ax
c00006c5:	66 90                	xchg   %ax,%ax
c00006c7:	66 90                	xchg   %ax,%ax
c00006c9:	66 90                	xchg   %ax,%ax
c00006cb:	66 90                	xchg   %ax,%ax
c00006cd:	66 90                	xchg   %ax,%ax
c00006cf:	66 90                	xchg   %ax,%ax
c00006d1:	66 90                	xchg   %ax,%ax
c00006d3:	66 90                	xchg   %ax,%ax
c00006d5:	66 90                	xchg   %ax,%ax
c00006d7:	66 90                	xchg   %ax,%ax
c00006d9:	66 90                	xchg   %ax,%ax
c00006db:	66 90                	xchg   %ax,%ax
c00006dd:	66 90                	xchg   %ax,%ax
c00006df:	66 90                	xchg   %ax,%ax
c00006e1:	66 90                	xchg   %ax,%ax
c00006e3:	66 90                	xchg   %ax,%ax
c00006e5:	66 90                	xchg   %ax,%ax
c00006e7:	66 90                	xchg   %ax,%ax
c00006e9:	66 90                	xchg   %ax,%ax
c00006eb:	66 90                	xchg   %ax,%ax
c00006ed:	66 90                	xchg   %ax,%ax
c00006ef:	66 90                	xchg   %ax,%ax
c00006f1:	66 90                	xchg   %ax,%ax
c00006f3:	66 90                	xchg   %ax,%ax
c00006f5:	66 90                	xchg   %ax,%ax
c00006f7:	66 90                	xchg   %ax,%ax
c00006f9:	66 90                	xchg   %ax,%ax
c00006fb:	66 90                	xchg   %ax,%ax
c00006fd:	66 90                	xchg   %ax,%ax
c00006ff:	66 90                	xchg   %ax,%ax
c0000701:	66 90                	xchg   %ax,%ax
c0000703:	66 90                	xchg   %ax,%ax
c0000705:	66 90                	xchg   %ax,%ax
c0000707:	66 90                	xchg   %ax,%ax
c0000709:	66 90                	xchg   %ax,%ax
c000070b:	66 90                	xchg   %ax,%ax
c000070d:	66 90                	xchg   %ax,%ax
c000070f:	66 90                	xchg   %ax,%ax
c0000711:	66 90                	xchg   %ax,%ax
c0000713:	66 90                	xchg   %ax,%ax
c0000715:	66 90                	xchg   %ax,%ax
c0000717:	66 90                	xchg   %ax,%ax
c0000719:	66 90                	xchg   %ax,%ax
c000071b:	66 90                	xchg   %ax,%ax
c000071d:	66 90                	xchg   %ax,%ax
c000071f:	66 90                	xchg   %ax,%ax
c0000721:	66 90                	xchg   %ax,%ax
c0000723:	66 90                	xchg   %ax,%ax
c0000725:	66 90                	xchg   %ax,%ax
c0000727:	66 90                	xchg   %ax,%ax
c0000729:	66 90                	xchg   %ax,%ax
c000072b:	66 90                	xchg   %ax,%ax
c000072d:	66 90                	xchg   %ax,%ax
c000072f:	66 90                	xchg   %ax,%ax
c0000731:	66 90                	xchg   %ax,%ax
c0000733:	66 90                	xchg   %ax,%ax
c0000735:	66 90                	xchg   %ax,%ax
c0000737:	66 90                	xchg   %ax,%ax
c0000739:	66 90                	xchg   %ax,%ax
c000073b:	66 90                	xchg   %ax,%ax
c000073d:	66 90                	xchg   %ax,%ax
c000073f:	66 90                	xchg   %ax,%ax
c0000741:	66 90                	xchg   %ax,%ax
c0000743:	66 90                	xchg   %ax,%ax
c0000745:	66 90                	xchg   %ax,%ax
c0000747:	66 90                	xchg   %ax,%ax
c0000749:	66 90                	xchg   %ax,%ax
c000074b:	66 90                	xchg   %ax,%ax
c000074d:	66 90                	xchg   %ax,%ax
c000074f:	66 90                	xchg   %ax,%ax
c0000751:	66 90                	xchg   %ax,%ax
c0000753:	66 90                	xchg   %ax,%ax
c0000755:	66 90                	xchg   %ax,%ax
c0000757:	66 90                	xchg   %ax,%ax
c0000759:	66 90                	xchg   %ax,%ax
c000075b:	66 90                	xchg   %ax,%ax
c000075d:	66 90                	xchg   %ax,%ax
c000075f:	66 90                	xchg   %ax,%ax
c0000761:	66 90                	xchg   %ax,%ax
c0000763:	66 90                	xchg   %ax,%ax
c0000765:	66 90                	xchg   %ax,%ax
c0000767:	66 90                	xchg   %ax,%ax
c0000769:	66 90                	xchg   %ax,%ax
c000076b:	66 90                	xchg   %ax,%ax
c000076d:	66 90                	xchg   %ax,%ax
c000076f:	66 90                	xchg   %ax,%ax
c0000771:	66 90                	xchg   %ax,%ax
c0000773:	66 90                	xchg   %ax,%ax
c0000775:	66 90                	xchg   %ax,%ax
c0000777:	66 90                	xchg   %ax,%ax
c0000779:	66 90                	xchg   %ax,%ax
c000077b:	66 90                	xchg   %ax,%ax
c000077d:	66 90                	xchg   %ax,%ax
c000077f:	66 90                	xchg   %ax,%ax
c0000781:	66 90                	xchg   %ax,%ax
c0000783:	66 90                	xchg   %ax,%ax
c0000785:	66 90                	xchg   %ax,%ax
c0000787:	66 90                	xchg   %ax,%ax
c0000789:	66 90                	xchg   %ax,%ax
c000078b:	66 90                	xchg   %ax,%ax
c000078d:	66 90                	xchg   %ax,%ax
c000078f:	66 90                	xchg   %ax,%ax
c0000791:	66 90                	xchg   %ax,%ax
c0000793:	66 90                	xchg   %ax,%ax
c0000795:	66 90                	xchg   %ax,%ax
c0000797:	66 90                	xchg   %ax,%ax
c0000799:	66 90                	xchg   %ax,%ax
c000079b:	66 90                	xchg   %ax,%ax
c000079d:	66 90                	xchg   %ax,%ax
c000079f:	66 90                	xchg   %ax,%ax
c00007a1:	66 90                	xchg   %ax,%ax
c00007a3:	66 90                	xchg   %ax,%ax
c00007a5:	66 90                	xchg   %ax,%ax
c00007a7:	66 90                	xchg   %ax,%ax
c00007a9:	66 90                	xchg   %ax,%ax
c00007ab:	66 90                	xchg   %ax,%ax
c00007ad:	66 90                	xchg   %ax,%ax
c00007af:	66 90                	xchg   %ax,%ax
c00007b1:	66 90                	xchg   %ax,%ax
c00007b3:	66 90                	xchg   %ax,%ax
c00007b5:	66 90                	xchg   %ax,%ax
c00007b7:	66 90                	xchg   %ax,%ax
c00007b9:	66 90                	xchg   %ax,%ax
c00007bb:	66 90                	xchg   %ax,%ax
c00007bd:	66 90                	xchg   %ax,%ax
c00007bf:	66 90                	xchg   %ax,%ax
c00007c1:	66 90                	xchg   %ax,%ax
c00007c3:	66 90                	xchg   %ax,%ax
c00007c5:	66 90                	xchg   %ax,%ax
c00007c7:	66 90                	xchg   %ax,%ax
c00007c9:	66 90                	xchg   %ax,%ax
c00007cb:	66 90                	xchg   %ax,%ax
c00007cd:	66 90                	xchg   %ax,%ax
c00007cf:	66 90                	xchg   %ax,%ax
c00007d1:	66 90                	xchg   %ax,%ax
c00007d3:	66 90                	xchg   %ax,%ax
c00007d5:	66 90                	xchg   %ax,%ax
c00007d7:	66 90                	xchg   %ax,%ax
c00007d9:	66 90                	xchg   %ax,%ax
c00007db:	66 90                	xchg   %ax,%ax
c00007dd:	66 90                	xchg   %ax,%ax
c00007df:	66 90                	xchg   %ax,%ax
c00007e1:	66 90                	xchg   %ax,%ax
c00007e3:	66 90                	xchg   %ax,%ax
c00007e5:	66 90                	xchg   %ax,%ax
c00007e7:	66 90                	xchg   %ax,%ax
c00007e9:	66 90                	xchg   %ax,%ax
c00007eb:	66 90                	xchg   %ax,%ax
c00007ed:	66 90                	xchg   %ax,%ax
c00007ef:	66 90                	xchg   %ax,%ax
c00007f1:	66 90                	xchg   %ax,%ax
c00007f3:	66 90                	xchg   %ax,%ax
c00007f5:	66 90                	xchg   %ax,%ax
c00007f7:	66 90                	xchg   %ax,%ax
c00007f9:	66 90                	xchg   %ax,%ax
c00007fb:	66 90                	xchg   %ax,%ax
c00007fd:	66 90                	xchg   %ax,%ax
c00007ff:	66 90                	xchg   %ax,%ax
c0000801:	66 90                	xchg   %ax,%ax
c0000803:	66 90                	xchg   %ax,%ax
c0000805:	66 90                	xchg   %ax,%ax
c0000807:	66 90                	xchg   %ax,%ax
c0000809:	66 90                	xchg   %ax,%ax
c000080b:	66 90                	xchg   %ax,%ax
c000080d:	66 90                	xchg   %ax,%ax
c000080f:	66 90                	xchg   %ax,%ax
c0000811:	66 90                	xchg   %ax,%ax
c0000813:	66 90                	xchg   %ax,%ax
c0000815:	66 90                	xchg   %ax,%ax
c0000817:	66 90                	xchg   %ax,%ax
c0000819:	66 90                	xchg   %ax,%ax
c000081b:	66 90                	xchg   %ax,%ax
c000081d:	66 90                	xchg   %ax,%ax
c000081f:	66 90                	xchg   %ax,%ax
c0000821:	66 90                	xchg   %ax,%ax
c0000823:	66 90                	xchg   %ax,%ax
c0000825:	66 90                	xchg   %ax,%ax
c0000827:	66 90                	xchg   %ax,%ax
c0000829:	66 90                	xchg   %ax,%ax
c000082b:	66 90                	xchg   %ax,%ax
c000082d:	66 90                	xchg   %ax,%ax
c000082f:	66 90                	xchg   %ax,%ax
c0000831:	66 90                	xchg   %ax,%ax
c0000833:	66 90                	xchg   %ax,%ax
c0000835:	66 90                	xchg   %ax,%ax
c0000837:	66 90                	xchg   %ax,%ax
c0000839:	66 90                	xchg   %ax,%ax
c000083b:	66 90                	xchg   %ax,%ax
c000083d:	66 90                	xchg   %ax,%ax
c000083f:	66 90                	xchg   %ax,%ax
c0000841:	66 90                	xchg   %ax,%ax
c0000843:	66 90                	xchg   %ax,%ax
c0000845:	66 90                	xchg   %ax,%ax
c0000847:	66 90                	xchg   %ax,%ax
c0000849:	66 90                	xchg   %ax,%ax
c000084b:	66 90                	xchg   %ax,%ax
c000084d:	66 90                	xchg   %ax,%ax
c000084f:	66 90                	xchg   %ax,%ax
c0000851:	66 90                	xchg   %ax,%ax
c0000853:	66 90                	xchg   %ax,%ax
c0000855:	66 90                	xchg   %ax,%ax
c0000857:	66 90                	xchg   %ax,%ax
c0000859:	66 90                	xchg   %ax,%ax
c000085b:	66 90                	xchg   %ax,%ax
c000085d:	66 90                	xchg   %ax,%ax
c000085f:	66 90                	xchg   %ax,%ax
c0000861:	66 90                	xchg   %ax,%ax
c0000863:	66 90                	xchg   %ax,%ax
c0000865:	66 90                	xchg   %ax,%ax
c0000867:	66 90                	xchg   %ax,%ax
c0000869:	66 90                	xchg   %ax,%ax
c000086b:	66 90                	xchg   %ax,%ax
c000086d:	66 90                	xchg   %ax,%ax
c000086f:	66 90                	xchg   %ax,%ax
c0000871:	66 90                	xchg   %ax,%ax
c0000873:	66 90                	xchg   %ax,%ax
c0000875:	66 90                	xchg   %ax,%ax
c0000877:	66 90                	xchg   %ax,%ax
c0000879:	66 90                	xchg   %ax,%ax
c000087b:	66 90                	xchg   %ax,%ax
c000087d:	66 90                	xchg   %ax,%ax
c000087f:	66 90                	xchg   %ax,%ax
c0000881:	66 90                	xchg   %ax,%ax
c0000883:	66 90                	xchg   %ax,%ax
c0000885:	66 90                	xchg   %ax,%ax
c0000887:	66 90                	xchg   %ax,%ax
c0000889:	66 90                	xchg   %ax,%ax
c000088b:	66 90                	xchg   %ax,%ax
c000088d:	66 90                	xchg   %ax,%ax
c000088f:	66 90                	xchg   %ax,%ax
c0000891:	66 90                	xchg   %ax,%ax
c0000893:	66 90                	xchg   %ax,%ax
c0000895:	66 90                	xchg   %ax,%ax
c0000897:	66 90                	xchg   %ax,%ax
c0000899:	66 90                	xchg   %ax,%ax
c000089b:	66 90                	xchg   %ax,%ax
c000089d:	66 90                	xchg   %ax,%ax
c000089f:	66 90                	xchg   %ax,%ax
c00008a1:	66 90                	xchg   %ax,%ax
c00008a3:	66 90                	xchg   %ax,%ax
c00008a5:	66 90                	xchg   %ax,%ax
c00008a7:	66 90                	xchg   %ax,%ax
c00008a9:	66 90                	xchg   %ax,%ax
c00008ab:	66 90                	xchg   %ax,%ax
c00008ad:	66 90                	xchg   %ax,%ax
c00008af:	66 90                	xchg   %ax,%ax
c00008b1:	66 90                	xchg   %ax,%ax
c00008b3:	66 90                	xchg   %ax,%ax
c00008b5:	66 90                	xchg   %ax,%ax
c00008b7:	66 90                	xchg   %ax,%ax
c00008b9:	66 90                	xchg   %ax,%ax
c00008bb:	66 90                	xchg   %ax,%ax
c00008bd:	66 90                	xchg   %ax,%ax
c00008bf:	66 90                	xchg   %ax,%ax
c00008c1:	66 90                	xchg   %ax,%ax
c00008c3:	66 90                	xchg   %ax,%ax
c00008c5:	66 90                	xchg   %ax,%ax
c00008c7:	66 90                	xchg   %ax,%ax
c00008c9:	66 90                	xchg   %ax,%ax
c00008cb:	66 90                	xchg   %ax,%ax
c00008cd:	66 90                	xchg   %ax,%ax
c00008cf:	66 90                	xchg   %ax,%ax
c00008d1:	66 90                	xchg   %ax,%ax
c00008d3:	66 90                	xchg   %ax,%ax
c00008d5:	66 90                	xchg   %ax,%ax
c00008d7:	66 90                	xchg   %ax,%ax
c00008d9:	66 90                	xchg   %ax,%ax
c00008db:	66 90                	xchg   %ax,%ax
c00008dd:	66 90                	xchg   %ax,%ax
c00008df:	66 90                	xchg   %ax,%ax
c00008e1:	66 90                	xchg   %ax,%ax
c00008e3:	66 90                	xchg   %ax,%ax
c00008e5:	66 90                	xchg   %ax,%ax
c00008e7:	66 90                	xchg   %ax,%ax
c00008e9:	66 90                	xchg   %ax,%ax
c00008eb:	66 90                	xchg   %ax,%ax
c00008ed:	66 90                	xchg   %ax,%ax
c00008ef:	66 90                	xchg   %ax,%ax
c00008f1:	66 90                	xchg   %ax,%ax
c00008f3:	66 90                	xchg   %ax,%ax
c00008f5:	66 90                	xchg   %ax,%ax
c00008f7:	66 90                	xchg   %ax,%ax
c00008f9:	66 90                	xchg   %ax,%ax
c00008fb:	66 90                	xchg   %ax,%ax
c00008fd:	66 90                	xchg   %ax,%ax
c00008ff:	66 90                	xchg   %ax,%ax
c0000901:	66 90                	xchg   %ax,%ax
c0000903:	66 90                	xchg   %ax,%ax
c0000905:	66 90                	xchg   %ax,%ax
c0000907:	66 90                	xchg   %ax,%ax
c0000909:	66 90                	xchg   %ax,%ax
c000090b:	66 90                	xchg   %ax,%ax
c000090d:	66 90                	xchg   %ax,%ax
c000090f:	66 90                	xchg   %ax,%ax
c0000911:	66 90                	xchg   %ax,%ax
c0000913:	66 90                	xchg   %ax,%ax
c0000915:	66 90                	xchg   %ax,%ax
c0000917:	66 90                	xchg   %ax,%ax
c0000919:	66 90                	xchg   %ax,%ax
c000091b:	66 90                	xchg   %ax,%ax
c000091d:	66 90                	xchg   %ax,%ax
c000091f:	66 90                	xchg   %ax,%ax
c0000921:	66 90                	xchg   %ax,%ax
c0000923:	66 90                	xchg   %ax,%ax
c0000925:	66 90                	xchg   %ax,%ax
c0000927:	66 90                	xchg   %ax,%ax
c0000929:	66 90                	xchg   %ax,%ax
c000092b:	66 90                	xchg   %ax,%ax
c000092d:	66 90                	xchg   %ax,%ax
c000092f:	66 90                	xchg   %ax,%ax
c0000931:	66 90                	xchg   %ax,%ax
c0000933:	66 90                	xchg   %ax,%ax
c0000935:	66 90                	xchg   %ax,%ax
c0000937:	66 90                	xchg   %ax,%ax
c0000939:	66 90                	xchg   %ax,%ax
c000093b:	66 90                	xchg   %ax,%ax
c000093d:	66 90                	xchg   %ax,%ax
c000093f:	66 90                	xchg   %ax,%ax
c0000941:	66 90                	xchg   %ax,%ax
c0000943:	66 90                	xchg   %ax,%ax
c0000945:	66 90                	xchg   %ax,%ax
c0000947:	66 90                	xchg   %ax,%ax
c0000949:	66 90                	xchg   %ax,%ax
c000094b:	66 90                	xchg   %ax,%ax
c000094d:	66 90                	xchg   %ax,%ax
c000094f:	66 90                	xchg   %ax,%ax
c0000951:	66 90                	xchg   %ax,%ax
c0000953:	66 90                	xchg   %ax,%ax
c0000955:	66 90                	xchg   %ax,%ax
c0000957:	66 90                	xchg   %ax,%ax
c0000959:	66 90                	xchg   %ax,%ax
c000095b:	66 90                	xchg   %ax,%ax
c000095d:	66 90                	xchg   %ax,%ax
c000095f:	66 90                	xchg   %ax,%ax
c0000961:	66 90                	xchg   %ax,%ax
c0000963:	66 90                	xchg   %ax,%ax
c0000965:	66 90                	xchg   %ax,%ax
c0000967:	66 90                	xchg   %ax,%ax
c0000969:	66 90                	xchg   %ax,%ax
c000096b:	66 90                	xchg   %ax,%ax
c000096d:	66 90                	xchg   %ax,%ax
c000096f:	66 90                	xchg   %ax,%ax
c0000971:	66 90                	xchg   %ax,%ax
c0000973:	66 90                	xchg   %ax,%ax
c0000975:	66 90                	xchg   %ax,%ax
c0000977:	66 90                	xchg   %ax,%ax
c0000979:	66 90                	xchg   %ax,%ax
c000097b:	66 90                	xchg   %ax,%ax
c000097d:	66 90                	xchg   %ax,%ax
c000097f:	66 90                	xchg   %ax,%ax
c0000981:	66 90                	xchg   %ax,%ax
c0000983:	66 90                	xchg   %ax,%ax
c0000985:	66 90                	xchg   %ax,%ax
c0000987:	66 90                	xchg   %ax,%ax
c0000989:	66 90                	xchg   %ax,%ax
c000098b:	66 90                	xchg   %ax,%ax
c000098d:	66 90                	xchg   %ax,%ax
c000098f:	66 90                	xchg   %ax,%ax
c0000991:	66 90                	xchg   %ax,%ax
c0000993:	66 90                	xchg   %ax,%ax
c0000995:	66 90                	xchg   %ax,%ax
c0000997:	66 90                	xchg   %ax,%ax
c0000999:	66 90                	xchg   %ax,%ax
c000099b:	66 90                	xchg   %ax,%ax
c000099d:	66 90                	xchg   %ax,%ax
c000099f:	66 90                	xchg   %ax,%ax
c00009a1:	66 90                	xchg   %ax,%ax
c00009a3:	66 90                	xchg   %ax,%ax
c00009a5:	66 90                	xchg   %ax,%ax
c00009a7:	66 90                	xchg   %ax,%ax
c00009a9:	66 90                	xchg   %ax,%ax
c00009ab:	66 90                	xchg   %ax,%ax
c00009ad:	66 90                	xchg   %ax,%ax
c00009af:	66 90                	xchg   %ax,%ax
c00009b1:	66 90                	xchg   %ax,%ax
c00009b3:	66 90                	xchg   %ax,%ax
c00009b5:	66 90                	xchg   %ax,%ax
c00009b7:	66 90                	xchg   %ax,%ax
c00009b9:	66 90                	xchg   %ax,%ax
c00009bb:	66 90                	xchg   %ax,%ax
c00009bd:	66 90                	xchg   %ax,%ax
c00009bf:	66 90                	xchg   %ax,%ax
c00009c1:	66 90                	xchg   %ax,%ax
c00009c3:	66 90                	xchg   %ax,%ax
c00009c5:	66 90                	xchg   %ax,%ax
c00009c7:	66 90                	xchg   %ax,%ax
c00009c9:	66 90                	xchg   %ax,%ax
c00009cb:	66 90                	xchg   %ax,%ax
c00009cd:	66 90                	xchg   %ax,%ax
c00009cf:	66 90                	xchg   %ax,%ax
c00009d1:	66 90                	xchg   %ax,%ax
c00009d3:	66 90                	xchg   %ax,%ax
c00009d5:	66 90                	xchg   %ax,%ax
c00009d7:	66 90                	xchg   %ax,%ax
c00009d9:	66 90                	xchg   %ax,%ax
c00009db:	66 90                	xchg   %ax,%ax
c00009dd:	66 90                	xchg   %ax,%ax
c00009df:	66 90                	xchg   %ax,%ax
c00009e1:	66 90                	xchg   %ax,%ax
c00009e3:	66 90                	xchg   %ax,%ax
c00009e5:	66 90                	xchg   %ax,%ax
c00009e7:	66 90                	xchg   %ax,%ax
c00009e9:	66 90                	xchg   %ax,%ax
c00009eb:	66 90                	xchg   %ax,%ax
c00009ed:	66 90                	xchg   %ax,%ax
c00009ef:	66 90                	xchg   %ax,%ax
c00009f1:	66 90                	xchg   %ax,%ax
c00009f3:	66 90                	xchg   %ax,%ax
c00009f5:	66 90                	xchg   %ax,%ax
c00009f7:	66 90                	xchg   %ax,%ax
c00009f9:	66 90                	xchg   %ax,%ax
c00009fb:	66 90                	xchg   %ax,%ax
c00009fd:	66 90                	xchg   %ax,%ax
c00009ff:	66 90                	xchg   %ax,%ax
c0000a01:	66 90                	xchg   %ax,%ax
c0000a03:	66 90                	xchg   %ax,%ax
c0000a05:	66 90                	xchg   %ax,%ax
c0000a07:	66 90                	xchg   %ax,%ax
c0000a09:	66 90                	xchg   %ax,%ax
c0000a0b:	66 90                	xchg   %ax,%ax
c0000a0d:	66 90                	xchg   %ax,%ax
c0000a0f:	66 90                	xchg   %ax,%ax
c0000a11:	66 90                	xchg   %ax,%ax
c0000a13:	66 90                	xchg   %ax,%ax
c0000a15:	66 90                	xchg   %ax,%ax
c0000a17:	66 90                	xchg   %ax,%ax
c0000a19:	66 90                	xchg   %ax,%ax
c0000a1b:	66 90                	xchg   %ax,%ax
c0000a1d:	66 90                	xchg   %ax,%ax
c0000a1f:	66 90                	xchg   %ax,%ax
c0000a21:	66 90                	xchg   %ax,%ax
c0000a23:	66 90                	xchg   %ax,%ax
c0000a25:	66 90                	xchg   %ax,%ax
c0000a27:	66 90                	xchg   %ax,%ax
c0000a29:	66 90                	xchg   %ax,%ax
c0000a2b:	66 90                	xchg   %ax,%ax
c0000a2d:	66 90                	xchg   %ax,%ax
c0000a2f:	66 90                	xchg   %ax,%ax
c0000a31:	66 90                	xchg   %ax,%ax
c0000a33:	66 90                	xchg   %ax,%ax
c0000a35:	66 90                	xchg   %ax,%ax
c0000a37:	66 90                	xchg   %ax,%ax
c0000a39:	66 90                	xchg   %ax,%ax
c0000a3b:	66 90                	xchg   %ax,%ax
c0000a3d:	66 90                	xchg   %ax,%ax
c0000a3f:	66 90                	xchg   %ax,%ax
c0000a41:	66 90                	xchg   %ax,%ax
c0000a43:	66 90                	xchg   %ax,%ax
c0000a45:	66 90                	xchg   %ax,%ax
c0000a47:	66 90                	xchg   %ax,%ax
c0000a49:	66 90                	xchg   %ax,%ax
c0000a4b:	66 90                	xchg   %ax,%ax
c0000a4d:	66 90                	xchg   %ax,%ax
c0000a4f:	66 90                	xchg   %ax,%ax
c0000a51:	66 90                	xchg   %ax,%ax
c0000a53:	66 90                	xchg   %ax,%ax
c0000a55:	66 90                	xchg   %ax,%ax
c0000a57:	66 90                	xchg   %ax,%ax
c0000a59:	66 90                	xchg   %ax,%ax
c0000a5b:	66 90                	xchg   %ax,%ax
c0000a5d:	66 90                	xchg   %ax,%ax
c0000a5f:	66 90                	xchg   %ax,%ax
c0000a61:	66 90                	xchg   %ax,%ax
c0000a63:	66 90                	xchg   %ax,%ax
c0000a65:	66 90                	xchg   %ax,%ax
c0000a67:	66 90                	xchg   %ax,%ax
c0000a69:	66 90                	xchg   %ax,%ax
c0000a6b:	66 90                	xchg   %ax,%ax
c0000a6d:	66 90                	xchg   %ax,%ax
c0000a6f:	66 90                	xchg   %ax,%ax
c0000a71:	66 90                	xchg   %ax,%ax
c0000a73:	66 90                	xchg   %ax,%ax
c0000a75:	66 90                	xchg   %ax,%ax
c0000a77:	66 90                	xchg   %ax,%ax
c0000a79:	66 90                	xchg   %ax,%ax
c0000a7b:	66 90                	xchg   %ax,%ax
c0000a7d:	66 90                	xchg   %ax,%ax
c0000a7f:	66 90                	xchg   %ax,%ax
c0000a81:	66 90                	xchg   %ax,%ax
c0000a83:	66 90                	xchg   %ax,%ax
c0000a85:	66 90                	xchg   %ax,%ax
c0000a87:	66 90                	xchg   %ax,%ax
c0000a89:	66 90                	xchg   %ax,%ax
c0000a8b:	66 90                	xchg   %ax,%ax
c0000a8d:	66 90                	xchg   %ax,%ax
c0000a8f:	66 90                	xchg   %ax,%ax
c0000a91:	66 90                	xchg   %ax,%ax
c0000a93:	66 90                	xchg   %ax,%ax
c0000a95:	66 90                	xchg   %ax,%ax
c0000a97:	66 90                	xchg   %ax,%ax
c0000a99:	66 90                	xchg   %ax,%ax
c0000a9b:	66 90                	xchg   %ax,%ax
c0000a9d:	66 90                	xchg   %ax,%ax
c0000a9f:	66 90                	xchg   %ax,%ax
c0000aa1:	66 90                	xchg   %ax,%ax
c0000aa3:	66 90                	xchg   %ax,%ax
c0000aa5:	66 90                	xchg   %ax,%ax
c0000aa7:	66 90                	xchg   %ax,%ax
c0000aa9:	66 90                	xchg   %ax,%ax
c0000aab:	66 90                	xchg   %ax,%ax
c0000aad:	66 90                	xchg   %ax,%ax
c0000aaf:	66 90                	xchg   %ax,%ax
c0000ab1:	66 90                	xchg   %ax,%ax
c0000ab3:	66 90                	xchg   %ax,%ax
c0000ab5:	66 90                	xchg   %ax,%ax
c0000ab7:	66 90                	xchg   %ax,%ax
c0000ab9:	66 90                	xchg   %ax,%ax
c0000abb:	66 90                	xchg   %ax,%ax
c0000abd:	66 90                	xchg   %ax,%ax
c0000abf:	66 90                	xchg   %ax,%ax
c0000ac1:	66 90                	xchg   %ax,%ax
c0000ac3:	66 90                	xchg   %ax,%ax
c0000ac5:	66 90                	xchg   %ax,%ax
c0000ac7:	66 90                	xchg   %ax,%ax
c0000ac9:	66 90                	xchg   %ax,%ax
c0000acb:	66 90                	xchg   %ax,%ax
c0000acd:	66 90                	xchg   %ax,%ax
c0000acf:	66 90                	xchg   %ax,%ax
c0000ad1:	66 90                	xchg   %ax,%ax
c0000ad3:	66 90                	xchg   %ax,%ax
c0000ad5:	66 90                	xchg   %ax,%ax
c0000ad7:	66 90                	xchg   %ax,%ax
c0000ad9:	66 90                	xchg   %ax,%ax
c0000adb:	66 90                	xchg   %ax,%ax
c0000add:	66 90                	xchg   %ax,%ax
c0000adf:	66 90                	xchg   %ax,%ax
c0000ae1:	66 90                	xchg   %ax,%ax
c0000ae3:	66 90                	xchg   %ax,%ax
c0000ae5:	66 90                	xchg   %ax,%ax
c0000ae7:	66 90                	xchg   %ax,%ax
c0000ae9:	66 90                	xchg   %ax,%ax
c0000aeb:	66 90                	xchg   %ax,%ax
c0000aed:	66 90                	xchg   %ax,%ax
c0000aef:	66 90                	xchg   %ax,%ax
c0000af1:	66 90                	xchg   %ax,%ax
c0000af3:	66 90                	xchg   %ax,%ax
c0000af5:	66 90                	xchg   %ax,%ax
c0000af7:	66 90                	xchg   %ax,%ax
c0000af9:	66 90                	xchg   %ax,%ax
c0000afb:	66 90                	xchg   %ax,%ax
c0000afd:	66 90                	xchg   %ax,%ax
c0000aff:	66 90                	xchg   %ax,%ax
c0000b01:	66 90                	xchg   %ax,%ax
c0000b03:	66 90                	xchg   %ax,%ax
c0000b05:	66 90                	xchg   %ax,%ax
c0000b07:	66 90                	xchg   %ax,%ax
c0000b09:	66 90                	xchg   %ax,%ax
c0000b0b:	66 90                	xchg   %ax,%ax
c0000b0d:	66 90                	xchg   %ax,%ax
c0000b0f:	66 90                	xchg   %ax,%ax
c0000b11:	66 90                	xchg   %ax,%ax
c0000b13:	66 90                	xchg   %ax,%ax
c0000b15:	66 90                	xchg   %ax,%ax
c0000b17:	66 90                	xchg   %ax,%ax
c0000b19:	66 90                	xchg   %ax,%ax
c0000b1b:	66 90                	xchg   %ax,%ax
c0000b1d:	66 90                	xchg   %ax,%ax
c0000b1f:	66 90                	xchg   %ax,%ax
c0000b21:	66 90                	xchg   %ax,%ax
c0000b23:	66 90                	xchg   %ax,%ax
c0000b25:	66 90                	xchg   %ax,%ax
c0000b27:	66 90                	xchg   %ax,%ax
c0000b29:	66 90                	xchg   %ax,%ax
c0000b2b:	66 90                	xchg   %ax,%ax
c0000b2d:	66 90                	xchg   %ax,%ax
c0000b2f:	66 90                	xchg   %ax,%ax
c0000b31:	66 90                	xchg   %ax,%ax
c0000b33:	66 90                	xchg   %ax,%ax
c0000b35:	66 90                	xchg   %ax,%ax
c0000b37:	66 90                	xchg   %ax,%ax
c0000b39:	66 90                	xchg   %ax,%ax
c0000b3b:	66 90                	xchg   %ax,%ax
c0000b3d:	66 90                	xchg   %ax,%ax
c0000b3f:	66 90                	xchg   %ax,%ax
c0000b41:	66 90                	xchg   %ax,%ax
c0000b43:	66 90                	xchg   %ax,%ax
c0000b45:	66 90                	xchg   %ax,%ax
c0000b47:	66 90                	xchg   %ax,%ax
c0000b49:	66 90                	xchg   %ax,%ax
c0000b4b:	66 90                	xchg   %ax,%ax
c0000b4d:	66 90                	xchg   %ax,%ax
c0000b4f:	66 90                	xchg   %ax,%ax
c0000b51:	66 90                	xchg   %ax,%ax
c0000b53:	66 90                	xchg   %ax,%ax
c0000b55:	66 90                	xchg   %ax,%ax
c0000b57:	66 90                	xchg   %ax,%ax
c0000b59:	66 90                	xchg   %ax,%ax
c0000b5b:	66 90                	xchg   %ax,%ax
c0000b5d:	66 90                	xchg   %ax,%ax
c0000b5f:	66 90                	xchg   %ax,%ax
c0000b61:	66 90                	xchg   %ax,%ax
c0000b63:	66 90                	xchg   %ax,%ax
c0000b65:	66 90                	xchg   %ax,%ax
c0000b67:	66 90                	xchg   %ax,%ax
c0000b69:	66 90                	xchg   %ax,%ax
c0000b6b:	66 90                	xchg   %ax,%ax
c0000b6d:	66 90                	xchg   %ax,%ax
c0000b6f:	66 90                	xchg   %ax,%ax
c0000b71:	66 90                	xchg   %ax,%ax
c0000b73:	66 90                	xchg   %ax,%ax
c0000b75:	66 90                	xchg   %ax,%ax
c0000b77:	66 90                	xchg   %ax,%ax
c0000b79:	66 90                	xchg   %ax,%ax
c0000b7b:	66 90                	xchg   %ax,%ax
c0000b7d:	66 90                	xchg   %ax,%ax
c0000b7f:	66 90                	xchg   %ax,%ax
c0000b81:	66 90                	xchg   %ax,%ax
c0000b83:	66 90                	xchg   %ax,%ax
c0000b85:	66 90                	xchg   %ax,%ax
c0000b87:	66 90                	xchg   %ax,%ax
c0000b89:	66 90                	xchg   %ax,%ax
c0000b8b:	66 90                	xchg   %ax,%ax
c0000b8d:	66 90                	xchg   %ax,%ax
c0000b8f:	66 90                	xchg   %ax,%ax
c0000b91:	66 90                	xchg   %ax,%ax
c0000b93:	66 90                	xchg   %ax,%ax
c0000b95:	66 90                	xchg   %ax,%ax
c0000b97:	66 90                	xchg   %ax,%ax
c0000b99:	66 90                	xchg   %ax,%ax
c0000b9b:	66 90                	xchg   %ax,%ax
c0000b9d:	66 90                	xchg   %ax,%ax
c0000b9f:	66 90                	xchg   %ax,%ax
c0000ba1:	66 90                	xchg   %ax,%ax
c0000ba3:	66 90                	xchg   %ax,%ax
c0000ba5:	66 90                	xchg   %ax,%ax
c0000ba7:	66 90                	xchg   %ax,%ax
c0000ba9:	66 90                	xchg   %ax,%ax
c0000bab:	66 90                	xchg   %ax,%ax
c0000bad:	66 90                	xchg   %ax,%ax
c0000baf:	66 90                	xchg   %ax,%ax
c0000bb1:	66 90                	xchg   %ax,%ax
c0000bb3:	66 90                	xchg   %ax,%ax
c0000bb5:	66 90                	xchg   %ax,%ax
c0000bb7:	66 90                	xchg   %ax,%ax
c0000bb9:	66 90                	xchg   %ax,%ax
c0000bbb:	66 90                	xchg   %ax,%ax
c0000bbd:	66 90                	xchg   %ax,%ax
c0000bbf:	66 90                	xchg   %ax,%ax
c0000bc1:	66 90                	xchg   %ax,%ax
c0000bc3:	66 90                	xchg   %ax,%ax
c0000bc5:	66 90                	xchg   %ax,%ax
c0000bc7:	66 90                	xchg   %ax,%ax
c0000bc9:	66 90                	xchg   %ax,%ax
c0000bcb:	66 90                	xchg   %ax,%ax
c0000bcd:	66 90                	xchg   %ax,%ax
c0000bcf:	66 90                	xchg   %ax,%ax
c0000bd1:	66 90                	xchg   %ax,%ax
c0000bd3:	66 90                	xchg   %ax,%ax
c0000bd5:	66 90                	xchg   %ax,%ax
c0000bd7:	66 90                	xchg   %ax,%ax
c0000bd9:	66 90                	xchg   %ax,%ax
c0000bdb:	66 90                	xchg   %ax,%ax
c0000bdd:	66 90                	xchg   %ax,%ax
c0000bdf:	66 90                	xchg   %ax,%ax
c0000be1:	66 90                	xchg   %ax,%ax
c0000be3:	66 90                	xchg   %ax,%ax
c0000be5:	66 90                	xchg   %ax,%ax
c0000be7:	66 90                	xchg   %ax,%ax
c0000be9:	66 90                	xchg   %ax,%ax
c0000beb:	66 90                	xchg   %ax,%ax
c0000bed:	66 90                	xchg   %ax,%ax
c0000bef:	66 90                	xchg   %ax,%ax
c0000bf1:	66 90                	xchg   %ax,%ax
c0000bf3:	66 90                	xchg   %ax,%ax
c0000bf5:	66 90                	xchg   %ax,%ax
c0000bf7:	66 90                	xchg   %ax,%ax
c0000bf9:	66 90                	xchg   %ax,%ax
c0000bfb:	66 90                	xchg   %ax,%ax
c0000bfd:	66 90                	xchg   %ax,%ax
c0000bff:	66 90                	xchg   %ax,%ax
c0000c01:	66 90                	xchg   %ax,%ax
c0000c03:	66 90                	xchg   %ax,%ax
c0000c05:	66 90                	xchg   %ax,%ax
c0000c07:	66 90                	xchg   %ax,%ax
c0000c09:	66 90                	xchg   %ax,%ax
c0000c0b:	66 90                	xchg   %ax,%ax
c0000c0d:	66 90                	xchg   %ax,%ax
c0000c0f:	66 90                	xchg   %ax,%ax
c0000c11:	66 90                	xchg   %ax,%ax
c0000c13:	66 90                	xchg   %ax,%ax
c0000c15:	66 90                	xchg   %ax,%ax
c0000c17:	66 90                	xchg   %ax,%ax
c0000c19:	66 90                	xchg   %ax,%ax
c0000c1b:	66 90                	xchg   %ax,%ax
c0000c1d:	66 90                	xchg   %ax,%ax
c0000c1f:	66 90                	xchg   %ax,%ax
c0000c21:	66 90                	xchg   %ax,%ax
c0000c23:	66 90                	xchg   %ax,%ax
c0000c25:	66 90                	xchg   %ax,%ax
c0000c27:	66 90                	xchg   %ax,%ax
c0000c29:	66 90                	xchg   %ax,%ax
c0000c2b:	66 90                	xchg   %ax,%ax
c0000c2d:	66 90                	xchg   %ax,%ax
c0000c2f:	66 90                	xchg   %ax,%ax
c0000c31:	66 90                	xchg   %ax,%ax
c0000c33:	66 90                	xchg   %ax,%ax
c0000c35:	66 90                	xchg   %ax,%ax
c0000c37:	66 90                	xchg   %ax,%ax
c0000c39:	66 90                	xchg   %ax,%ax
c0000c3b:	66 90                	xchg   %ax,%ax
c0000c3d:	66 90                	xchg   %ax,%ax
c0000c3f:	66 90                	xchg   %ax,%ax
c0000c41:	66 90                	xchg   %ax,%ax
c0000c43:	66 90                	xchg   %ax,%ax
c0000c45:	66 90                	xchg   %ax,%ax
c0000c47:	66 90                	xchg   %ax,%ax
c0000c49:	66 90                	xchg   %ax,%ax
c0000c4b:	66 90                	xchg   %ax,%ax
c0000c4d:	66 90                	xchg   %ax,%ax
c0000c4f:	66 90                	xchg   %ax,%ax
c0000c51:	66 90                	xchg   %ax,%ax
c0000c53:	66 90                	xchg   %ax,%ax
c0000c55:	66 90                	xchg   %ax,%ax
c0000c57:	66 90                	xchg   %ax,%ax
c0000c59:	66 90                	xchg   %ax,%ax
c0000c5b:	66 90                	xchg   %ax,%ax
c0000c5d:	66 90                	xchg   %ax,%ax
c0000c5f:	66 90                	xchg   %ax,%ax
c0000c61:	66 90                	xchg   %ax,%ax
c0000c63:	66 90                	xchg   %ax,%ax
c0000c65:	66 90                	xchg   %ax,%ax
c0000c67:	66 90                	xchg   %ax,%ax
c0000c69:	66 90                	xchg   %ax,%ax
c0000c6b:	66 90                	xchg   %ax,%ax
c0000c6d:	66 90                	xchg   %ax,%ax
c0000c6f:	66 90                	xchg   %ax,%ax
c0000c71:	66 90                	xchg   %ax,%ax
c0000c73:	66 90                	xchg   %ax,%ax
c0000c75:	66 90                	xchg   %ax,%ax
c0000c77:	66 90                	xchg   %ax,%ax
c0000c79:	66 90                	xchg   %ax,%ax
c0000c7b:	66 90                	xchg   %ax,%ax
c0000c7d:	66 90                	xchg   %ax,%ax
c0000c7f:	66 90                	xchg   %ax,%ax
c0000c81:	66 90                	xchg   %ax,%ax
c0000c83:	66 90                	xchg   %ax,%ax
c0000c85:	66 90                	xchg   %ax,%ax
c0000c87:	66 90                	xchg   %ax,%ax
c0000c89:	66 90                	xchg   %ax,%ax
c0000c8b:	66 90                	xchg   %ax,%ax
c0000c8d:	66 90                	xchg   %ax,%ax
c0000c8f:	66 90                	xchg   %ax,%ax
c0000c91:	66 90                	xchg   %ax,%ax
c0000c93:	66 90                	xchg   %ax,%ax
c0000c95:	66 90                	xchg   %ax,%ax
c0000c97:	66 90                	xchg   %ax,%ax
c0000c99:	66 90                	xchg   %ax,%ax
c0000c9b:	66 90                	xchg   %ax,%ax
c0000c9d:	66 90                	xchg   %ax,%ax
c0000c9f:	66 90                	xchg   %ax,%ax
c0000ca1:	66 90                	xchg   %ax,%ax
c0000ca3:	66 90                	xchg   %ax,%ax
c0000ca5:	66 90                	xchg   %ax,%ax
c0000ca7:	66 90                	xchg   %ax,%ax
c0000ca9:	66 90                	xchg   %ax,%ax
c0000cab:	66 90                	xchg   %ax,%ax
c0000cad:	66 90                	xchg   %ax,%ax
c0000caf:	66 90                	xchg   %ax,%ax
c0000cb1:	66 90                	xchg   %ax,%ax
c0000cb3:	66 90                	xchg   %ax,%ax
c0000cb5:	66 90                	xchg   %ax,%ax
c0000cb7:	66 90                	xchg   %ax,%ax
c0000cb9:	66 90                	xchg   %ax,%ax
c0000cbb:	66 90                	xchg   %ax,%ax
c0000cbd:	66 90                	xchg   %ax,%ax
c0000cbf:	66 90                	xchg   %ax,%ax
c0000cc1:	66 90                	xchg   %ax,%ax
c0000cc3:	66 90                	xchg   %ax,%ax
c0000cc5:	66 90                	xchg   %ax,%ax
c0000cc7:	66 90                	xchg   %ax,%ax
c0000cc9:	66 90                	xchg   %ax,%ax
c0000ccb:	66 90                	xchg   %ax,%ax
c0000ccd:	66 90                	xchg   %ax,%ax
c0000ccf:	66 90                	xchg   %ax,%ax
c0000cd1:	66 90                	xchg   %ax,%ax
c0000cd3:	66 90                	xchg   %ax,%ax
c0000cd5:	66 90                	xchg   %ax,%ax
c0000cd7:	66 90                	xchg   %ax,%ax
c0000cd9:	66 90                	xchg   %ax,%ax
c0000cdb:	66 90                	xchg   %ax,%ax
c0000cdd:	66 90                	xchg   %ax,%ax
c0000cdf:	66 90                	xchg   %ax,%ax
c0000ce1:	66 90                	xchg   %ax,%ax
c0000ce3:	66 90                	xchg   %ax,%ax
c0000ce5:	66 90                	xchg   %ax,%ax
c0000ce7:	66 90                	xchg   %ax,%ax
c0000ce9:	66 90                	xchg   %ax,%ax
c0000ceb:	66 90                	xchg   %ax,%ax
c0000ced:	66 90                	xchg   %ax,%ax
c0000cef:	66 90                	xchg   %ax,%ax
c0000cf1:	66 90                	xchg   %ax,%ax
c0000cf3:	66 90                	xchg   %ax,%ax
c0000cf5:	66 90                	xchg   %ax,%ax
c0000cf7:	66 90                	xchg   %ax,%ax
c0000cf9:	66 90                	xchg   %ax,%ax
c0000cfb:	66 90                	xchg   %ax,%ax
c0000cfd:	66 90                	xchg   %ax,%ax
c0000cff:	66 90                	xchg   %ax,%ax
c0000d01:	66 90                	xchg   %ax,%ax
c0000d03:	66 90                	xchg   %ax,%ax
c0000d05:	66 90                	xchg   %ax,%ax
c0000d07:	66 90                	xchg   %ax,%ax
c0000d09:	66 90                	xchg   %ax,%ax
c0000d0b:	66 90                	xchg   %ax,%ax
c0000d0d:	66 90                	xchg   %ax,%ax
c0000d0f:	66 90                	xchg   %ax,%ax
c0000d11:	66 90                	xchg   %ax,%ax
c0000d13:	66 90                	xchg   %ax,%ax
c0000d15:	66 90                	xchg   %ax,%ax
c0000d17:	66 90                	xchg   %ax,%ax
c0000d19:	66 90                	xchg   %ax,%ax
c0000d1b:	66 90                	xchg   %ax,%ax
c0000d1d:	66 90                	xchg   %ax,%ax
c0000d1f:	66 90                	xchg   %ax,%ax
c0000d21:	66 90                	xchg   %ax,%ax
c0000d23:	66 90                	xchg   %ax,%ax
c0000d25:	66 90                	xchg   %ax,%ax
c0000d27:	66 90                	xchg   %ax,%ax
c0000d29:	66 90                	xchg   %ax,%ax
c0000d2b:	66 90                	xchg   %ax,%ax
c0000d2d:	66 90                	xchg   %ax,%ax
c0000d2f:	66 90                	xchg   %ax,%ax
c0000d31:	66 90                	xchg   %ax,%ax
c0000d33:	66 90                	xchg   %ax,%ax
c0000d35:	66 90                	xchg   %ax,%ax
c0000d37:	66 90                	xchg   %ax,%ax
c0000d39:	66 90                	xchg   %ax,%ax
c0000d3b:	66 90                	xchg   %ax,%ax
c0000d3d:	66 90                	xchg   %ax,%ax
c0000d3f:	66 90                	xchg   %ax,%ax
c0000d41:	66 90                	xchg   %ax,%ax
c0000d43:	66 90                	xchg   %ax,%ax
c0000d45:	66 90                	xchg   %ax,%ax
c0000d47:	66 90                	xchg   %ax,%ax
c0000d49:	66 90                	xchg   %ax,%ax
c0000d4b:	66 90                	xchg   %ax,%ax
c0000d4d:	66 90                	xchg   %ax,%ax
c0000d4f:	66 90                	xchg   %ax,%ax
c0000d51:	66 90                	xchg   %ax,%ax
c0000d53:	66 90                	xchg   %ax,%ax
c0000d55:	66 90                	xchg   %ax,%ax
c0000d57:	66 90                	xchg   %ax,%ax
c0000d59:	66 90                	xchg   %ax,%ax
c0000d5b:	66 90                	xchg   %ax,%ax
c0000d5d:	66 90                	xchg   %ax,%ax
c0000d5f:	66 90                	xchg   %ax,%ax
c0000d61:	66 90                	xchg   %ax,%ax
c0000d63:	66 90                	xchg   %ax,%ax
c0000d65:	66 90                	xchg   %ax,%ax
c0000d67:	66 90                	xchg   %ax,%ax
c0000d69:	66 90                	xchg   %ax,%ax
c0000d6b:	66 90                	xchg   %ax,%ax
c0000d6d:	66 90                	xchg   %ax,%ax
c0000d6f:	66 90                	xchg   %ax,%ax
c0000d71:	66 90                	xchg   %ax,%ax
c0000d73:	66 90                	xchg   %ax,%ax
c0000d75:	66 90                	xchg   %ax,%ax
c0000d77:	66 90                	xchg   %ax,%ax
c0000d79:	66 90                	xchg   %ax,%ax
c0000d7b:	66 90                	xchg   %ax,%ax
c0000d7d:	66 90                	xchg   %ax,%ax
c0000d7f:	66 90                	xchg   %ax,%ax
c0000d81:	66 90                	xchg   %ax,%ax
c0000d83:	66 90                	xchg   %ax,%ax
c0000d85:	66 90                	xchg   %ax,%ax
c0000d87:	66 90                	xchg   %ax,%ax
c0000d89:	66 90                	xchg   %ax,%ax
c0000d8b:	66 90                	xchg   %ax,%ax
c0000d8d:	66 90                	xchg   %ax,%ax
c0000d8f:	66 90                	xchg   %ax,%ax
c0000d91:	66 90                	xchg   %ax,%ax
c0000d93:	66 90                	xchg   %ax,%ax
c0000d95:	66 90                	xchg   %ax,%ax
c0000d97:	66 90                	xchg   %ax,%ax
c0000d99:	66 90                	xchg   %ax,%ax
c0000d9b:	66 90                	xchg   %ax,%ax
c0000d9d:	66 90                	xchg   %ax,%ax
c0000d9f:	66 90                	xchg   %ax,%ax
c0000da1:	66 90                	xchg   %ax,%ax
c0000da3:	66 90                	xchg   %ax,%ax
c0000da5:	66 90                	xchg   %ax,%ax
c0000da7:	66 90                	xchg   %ax,%ax
c0000da9:	66 90                	xchg   %ax,%ax
c0000dab:	66 90                	xchg   %ax,%ax
c0000dad:	66 90                	xchg   %ax,%ax
c0000daf:	66 90                	xchg   %ax,%ax
c0000db1:	66 90                	xchg   %ax,%ax
c0000db3:	66 90                	xchg   %ax,%ax
c0000db5:	66 90                	xchg   %ax,%ax
c0000db7:	66 90                	xchg   %ax,%ax
c0000db9:	66 90                	xchg   %ax,%ax
c0000dbb:	66 90                	xchg   %ax,%ax
c0000dbd:	66 90                	xchg   %ax,%ax
c0000dbf:	66 90                	xchg   %ax,%ax
c0000dc1:	66 90                	xchg   %ax,%ax
c0000dc3:	66 90                	xchg   %ax,%ax
c0000dc5:	66 90                	xchg   %ax,%ax
c0000dc7:	66 90                	xchg   %ax,%ax
c0000dc9:	66 90                	xchg   %ax,%ax
c0000dcb:	66 90                	xchg   %ax,%ax
c0000dcd:	66 90                	xchg   %ax,%ax
c0000dcf:	66 90                	xchg   %ax,%ax
c0000dd1:	66 90                	xchg   %ax,%ax
c0000dd3:	66 90                	xchg   %ax,%ax
c0000dd5:	66 90                	xchg   %ax,%ax
c0000dd7:	66 90                	xchg   %ax,%ax
c0000dd9:	66 90                	xchg   %ax,%ax
c0000ddb:	66 90                	xchg   %ax,%ax
c0000ddd:	66 90                	xchg   %ax,%ax
c0000ddf:	66 90                	xchg   %ax,%ax
c0000de1:	66 90                	xchg   %ax,%ax
c0000de3:	66 90                	xchg   %ax,%ax
c0000de5:	66 90                	xchg   %ax,%ax
c0000de7:	66 90                	xchg   %ax,%ax
c0000de9:	66 90                	xchg   %ax,%ax
c0000deb:	66 90                	xchg   %ax,%ax
c0000ded:	66 90                	xchg   %ax,%ax
c0000def:	66 90                	xchg   %ax,%ax
c0000df1:	66 90                	xchg   %ax,%ax
c0000df3:	66 90                	xchg   %ax,%ax
c0000df5:	66 90                	xchg   %ax,%ax
c0000df7:	66 90                	xchg   %ax,%ax
c0000df9:	66 90                	xchg   %ax,%ax
c0000dfb:	66 90                	xchg   %ax,%ax
c0000dfd:	66 90                	xchg   %ax,%ax
c0000dff:	66 90                	xchg   %ax,%ax
c0000e01:	66 90                	xchg   %ax,%ax
c0000e03:	66 90                	xchg   %ax,%ax
c0000e05:	66 90                	xchg   %ax,%ax
c0000e07:	66 90                	xchg   %ax,%ax
c0000e09:	66 90                	xchg   %ax,%ax
c0000e0b:	66 90                	xchg   %ax,%ax
c0000e0d:	66 90                	xchg   %ax,%ax
c0000e0f:	66 90                	xchg   %ax,%ax
c0000e11:	66 90                	xchg   %ax,%ax
c0000e13:	66 90                	xchg   %ax,%ax
c0000e15:	66 90                	xchg   %ax,%ax
c0000e17:	66 90                	xchg   %ax,%ax
c0000e19:	66 90                	xchg   %ax,%ax
c0000e1b:	66 90                	xchg   %ax,%ax
c0000e1d:	66 90                	xchg   %ax,%ax
c0000e1f:	66 90                	xchg   %ax,%ax
c0000e21:	66 90                	xchg   %ax,%ax
c0000e23:	66 90                	xchg   %ax,%ax
c0000e25:	66 90                	xchg   %ax,%ax
c0000e27:	66 90                	xchg   %ax,%ax
c0000e29:	66 90                	xchg   %ax,%ax
c0000e2b:	66 90                	xchg   %ax,%ax
c0000e2d:	66 90                	xchg   %ax,%ax
c0000e2f:	66 90                	xchg   %ax,%ax
c0000e31:	66 90                	xchg   %ax,%ax
c0000e33:	66 90                	xchg   %ax,%ax
c0000e35:	66 90                	xchg   %ax,%ax
c0000e37:	66 90                	xchg   %ax,%ax
c0000e39:	66 90                	xchg   %ax,%ax
c0000e3b:	66 90                	xchg   %ax,%ax
c0000e3d:	66 90                	xchg   %ax,%ax
c0000e3f:	66 90                	xchg   %ax,%ax
c0000e41:	66 90                	xchg   %ax,%ax
c0000e43:	66 90                	xchg   %ax,%ax
c0000e45:	66 90                	xchg   %ax,%ax
c0000e47:	66 90                	xchg   %ax,%ax
c0000e49:	66 90                	xchg   %ax,%ax
c0000e4b:	66 90                	xchg   %ax,%ax
c0000e4d:	66 90                	xchg   %ax,%ax
c0000e4f:	66 90                	xchg   %ax,%ax
c0000e51:	66 90                	xchg   %ax,%ax
c0000e53:	66 90                	xchg   %ax,%ax
c0000e55:	66 90                	xchg   %ax,%ax
c0000e57:	66 90                	xchg   %ax,%ax
c0000e59:	66 90                	xchg   %ax,%ax
c0000e5b:	66 90                	xchg   %ax,%ax
c0000e5d:	66 90                	xchg   %ax,%ax
c0000e5f:	66 90                	xchg   %ax,%ax
c0000e61:	66 90                	xchg   %ax,%ax
c0000e63:	66 90                	xchg   %ax,%ax
c0000e65:	66 90                	xchg   %ax,%ax
c0000e67:	66 90                	xchg   %ax,%ax
c0000e69:	66 90                	xchg   %ax,%ax
c0000e6b:	66 90                	xchg   %ax,%ax
c0000e6d:	66 90                	xchg   %ax,%ax
c0000e6f:	66 90                	xchg   %ax,%ax
c0000e71:	66 90                	xchg   %ax,%ax
c0000e73:	66 90                	xchg   %ax,%ax
c0000e75:	66 90                	xchg   %ax,%ax
c0000e77:	66 90                	xchg   %ax,%ax
c0000e79:	66 90                	xchg   %ax,%ax
c0000e7b:	66 90                	xchg   %ax,%ax
c0000e7d:	66 90                	xchg   %ax,%ax
c0000e7f:	66 90                	xchg   %ax,%ax
c0000e81:	66 90                	xchg   %ax,%ax
c0000e83:	66 90                	xchg   %ax,%ax
c0000e85:	66 90                	xchg   %ax,%ax
c0000e87:	66 90                	xchg   %ax,%ax
c0000e89:	66 90                	xchg   %ax,%ax
c0000e8b:	66 90                	xchg   %ax,%ax
c0000e8d:	66 90                	xchg   %ax,%ax
c0000e8f:	66 90                	xchg   %ax,%ax
c0000e91:	66 90                	xchg   %ax,%ax
c0000e93:	66 90                	xchg   %ax,%ax
c0000e95:	66 90                	xchg   %ax,%ax
c0000e97:	66 90                	xchg   %ax,%ax
c0000e99:	66 90                	xchg   %ax,%ax
c0000e9b:	66 90                	xchg   %ax,%ax
c0000e9d:	66 90                	xchg   %ax,%ax
c0000e9f:	66 90                	xchg   %ax,%ax
c0000ea1:	66 90                	xchg   %ax,%ax
c0000ea3:	66 90                	xchg   %ax,%ax
c0000ea5:	66 90                	xchg   %ax,%ax
c0000ea7:	66 90                	xchg   %ax,%ax
c0000ea9:	66 90                	xchg   %ax,%ax
c0000eab:	66 90                	xchg   %ax,%ax
c0000ead:	66 90                	xchg   %ax,%ax
c0000eaf:	66 90                	xchg   %ax,%ax
c0000eb1:	66 90                	xchg   %ax,%ax
c0000eb3:	66 90                	xchg   %ax,%ax
c0000eb5:	66 90                	xchg   %ax,%ax
c0000eb7:	66 90                	xchg   %ax,%ax
c0000eb9:	66 90                	xchg   %ax,%ax
c0000ebb:	66 90                	xchg   %ax,%ax
c0000ebd:	66 90                	xchg   %ax,%ax
c0000ebf:	66 90                	xchg   %ax,%ax
c0000ec1:	66 90                	xchg   %ax,%ax
c0000ec3:	66 90                	xchg   %ax,%ax
c0000ec5:	66 90                	xchg   %ax,%ax
c0000ec7:	66 90                	xchg   %ax,%ax
c0000ec9:	66 90                	xchg   %ax,%ax
c0000ecb:	66 90                	xchg   %ax,%ax
c0000ecd:	66 90                	xchg   %ax,%ax
c0000ecf:	66 90                	xchg   %ax,%ax
c0000ed1:	66 90                	xchg   %ax,%ax
c0000ed3:	66 90                	xchg   %ax,%ax
c0000ed5:	66 90                	xchg   %ax,%ax
c0000ed7:	66 90                	xchg   %ax,%ax
c0000ed9:	66 90                	xchg   %ax,%ax
c0000edb:	66 90                	xchg   %ax,%ax
c0000edd:	66 90                	xchg   %ax,%ax
c0000edf:	66 90                	xchg   %ax,%ax
c0000ee1:	66 90                	xchg   %ax,%ax
c0000ee3:	66 90                	xchg   %ax,%ax
c0000ee5:	66 90                	xchg   %ax,%ax
c0000ee7:	66 90                	xchg   %ax,%ax
c0000ee9:	66 90                	xchg   %ax,%ax
c0000eeb:	66 90                	xchg   %ax,%ax
c0000eed:	66 90                	xchg   %ax,%ax
c0000eef:	66 90                	xchg   %ax,%ax
c0000ef1:	66 90                	xchg   %ax,%ax
c0000ef3:	66 90                	xchg   %ax,%ax
c0000ef5:	66 90                	xchg   %ax,%ax
c0000ef7:	66 90                	xchg   %ax,%ax
c0000ef9:	66 90                	xchg   %ax,%ax
c0000efb:	66 90                	xchg   %ax,%ax
c0000efd:	66 90                	xchg   %ax,%ax
c0000eff:	66 90                	xchg   %ax,%ax
c0000f01:	66 90                	xchg   %ax,%ax
c0000f03:	66 90                	xchg   %ax,%ax
c0000f05:	66 90                	xchg   %ax,%ax
c0000f07:	66 90                	xchg   %ax,%ax
c0000f09:	66 90                	xchg   %ax,%ax
c0000f0b:	66 90                	xchg   %ax,%ax
c0000f0d:	66 90                	xchg   %ax,%ax
c0000f0f:	66 90                	xchg   %ax,%ax
c0000f11:	66 90                	xchg   %ax,%ax
c0000f13:	66 90                	xchg   %ax,%ax
c0000f15:	66 90                	xchg   %ax,%ax
c0000f17:	66 90                	xchg   %ax,%ax
c0000f19:	66 90                	xchg   %ax,%ax
c0000f1b:	66 90                	xchg   %ax,%ax
c0000f1d:	66 90                	xchg   %ax,%ax
c0000f1f:	66 90                	xchg   %ax,%ax
c0000f21:	66 90                	xchg   %ax,%ax
c0000f23:	66 90                	xchg   %ax,%ax
c0000f25:	66 90                	xchg   %ax,%ax
c0000f27:	66 90                	xchg   %ax,%ax
c0000f29:	66 90                	xchg   %ax,%ax
c0000f2b:	66 90                	xchg   %ax,%ax
c0000f2d:	66 90                	xchg   %ax,%ax
c0000f2f:	66 90                	xchg   %ax,%ax
c0000f31:	66 90                	xchg   %ax,%ax
c0000f33:	66 90                	xchg   %ax,%ax
c0000f35:	66 90                	xchg   %ax,%ax
c0000f37:	66 90                	xchg   %ax,%ax
c0000f39:	66 90                	xchg   %ax,%ax
c0000f3b:	66 90                	xchg   %ax,%ax
c0000f3d:	66 90                	xchg   %ax,%ax
c0000f3f:	66 90                	xchg   %ax,%ax
c0000f41:	66 90                	xchg   %ax,%ax
c0000f43:	66 90                	xchg   %ax,%ax
c0000f45:	66 90                	xchg   %ax,%ax
c0000f47:	66 90                	xchg   %ax,%ax
c0000f49:	66 90                	xchg   %ax,%ax
c0000f4b:	66 90                	xchg   %ax,%ax
c0000f4d:	66 90                	xchg   %ax,%ax
c0000f4f:	66 90                	xchg   %ax,%ax
c0000f51:	66 90                	xchg   %ax,%ax
c0000f53:	66 90                	xchg   %ax,%ax
c0000f55:	66 90                	xchg   %ax,%ax
c0000f57:	66 90                	xchg   %ax,%ax
c0000f59:	66 90                	xchg   %ax,%ax
c0000f5b:	66 90                	xchg   %ax,%ax
c0000f5d:	66 90                	xchg   %ax,%ax
c0000f5f:	66 90                	xchg   %ax,%ax
c0000f61:	66 90                	xchg   %ax,%ax
c0000f63:	66 90                	xchg   %ax,%ax
c0000f65:	66 90                	xchg   %ax,%ax
c0000f67:	66 90                	xchg   %ax,%ax
c0000f69:	66 90                	xchg   %ax,%ax
c0000f6b:	66 90                	xchg   %ax,%ax
c0000f6d:	66 90                	xchg   %ax,%ax
c0000f6f:	66 90                	xchg   %ax,%ax
c0000f71:	66 90                	xchg   %ax,%ax
c0000f73:	66 90                	xchg   %ax,%ax
c0000f75:	66 90                	xchg   %ax,%ax
c0000f77:	66 90                	xchg   %ax,%ax
c0000f79:	66 90                	xchg   %ax,%ax
c0000f7b:	66 90                	xchg   %ax,%ax
c0000f7d:	66 90                	xchg   %ax,%ax
c0000f7f:	66 90                	xchg   %ax,%ax
c0000f81:	66 90                	xchg   %ax,%ax
c0000f83:	66 90                	xchg   %ax,%ax
c0000f85:	66 90                	xchg   %ax,%ax
c0000f87:	66 90                	xchg   %ax,%ax
c0000f89:	66 90                	xchg   %ax,%ax
c0000f8b:	66 90                	xchg   %ax,%ax
c0000f8d:	66 90                	xchg   %ax,%ax
c0000f8f:	66 90                	xchg   %ax,%ax
c0000f91:	66 90                	xchg   %ax,%ax
c0000f93:	66 90                	xchg   %ax,%ax
c0000f95:	66 90                	xchg   %ax,%ax
c0000f97:	66 90                	xchg   %ax,%ax
c0000f99:	66 90                	xchg   %ax,%ax
c0000f9b:	66 90                	xchg   %ax,%ax
c0000f9d:	66 90                	xchg   %ax,%ax
c0000f9f:	66 90                	xchg   %ax,%ax
c0000fa1:	66 90                	xchg   %ax,%ax
c0000fa3:	66 90                	xchg   %ax,%ax
c0000fa5:	66 90                	xchg   %ax,%ax
c0000fa7:	66 90                	xchg   %ax,%ax
c0000fa9:	66 90                	xchg   %ax,%ax
c0000fab:	66 90                	xchg   %ax,%ax
c0000fad:	66 90                	xchg   %ax,%ax
c0000faf:	66 90                	xchg   %ax,%ax
c0000fb1:	66 90                	xchg   %ax,%ax
c0000fb3:	66 90                	xchg   %ax,%ax
c0000fb5:	66 90                	xchg   %ax,%ax
c0000fb7:	66 90                	xchg   %ax,%ax
c0000fb9:	66 90                	xchg   %ax,%ax
c0000fbb:	66 90                	xchg   %ax,%ax
c0000fbd:	66 90                	xchg   %ax,%ax
c0000fbf:	66 90                	xchg   %ax,%ax
c0000fc1:	66 90                	xchg   %ax,%ax
c0000fc3:	66 90                	xchg   %ax,%ax
c0000fc5:	66 90                	xchg   %ax,%ax
c0000fc7:	66 90                	xchg   %ax,%ax
c0000fc9:	66 90                	xchg   %ax,%ax
c0000fcb:	66 90                	xchg   %ax,%ax
c0000fcd:	66 90                	xchg   %ax,%ax
c0000fcf:	66 90                	xchg   %ax,%ax
c0000fd1:	66 90                	xchg   %ax,%ax
c0000fd3:	66 90                	xchg   %ax,%ax
c0000fd5:	66 90                	xchg   %ax,%ax
c0000fd7:	66 90                	xchg   %ax,%ax
c0000fd9:	66 90                	xchg   %ax,%ax
c0000fdb:	66 90                	xchg   %ax,%ax
c0000fdd:	66 90                	xchg   %ax,%ax
c0000fdf:	66 90                	xchg   %ax,%ax
c0000fe1:	66 90                	xchg   %ax,%ax
c0000fe3:	66 90                	xchg   %ax,%ax
c0000fe5:	66 90                	xchg   %ax,%ax
c0000fe7:	66 90                	xchg   %ax,%ax
c0000fe9:	66 90                	xchg   %ax,%ax
c0000feb:	66 90                	xchg   %ax,%ax
c0000fed:	66 90                	xchg   %ax,%ax
c0000fef:	66 90                	xchg   %ax,%ax
c0000ff1:	66 90                	xchg   %ax,%ax
c0000ff3:	66 90                	xchg   %ax,%ax
c0000ff5:	66 90                	xchg   %ax,%ax
c0000ff7:	66 90                	xchg   %ax,%ax
c0000ff9:	66 90                	xchg   %ax,%ax
c0000ffb:	66 90                	xchg   %ax,%ax
c0000ffd:	66 90                	xchg   %ax,%ax
c0000fff:	90                   	nop

c0001000 <__task_exit_point>:
__task_exit_point():
c0001000:	68 00 10 00 c0       	push   $0xc0001000
c0001005:	50                   	push   %eax

c0001006 <syscall>:
syscall():
c0001006:	31 c0                	xor    %eax,%eax
c0001008:	cd 80                	int    $0x80
c000100a:	eb fa                	jmp    c0001006 <syscall>
c000100c:	66 90                	xchg   %ax,%ax
c000100e:	66 90                	xchg   %ax,%ax

c0001010 <irq_00>:
irq_00():
c0001010:	6a 00                	push   $0x0
c0001012:	eb 43                	jmp    c0001057 <COMMON_ISR>

c0001014 <irq_01>:
irq_01():
c0001014:	6a 01                	push   $0x1
c0001016:	eb 3f                	jmp    c0001057 <COMMON_ISR>

c0001018 <irq_02>:
irq_02():
c0001018:	6a 02                	push   $0x2
c000101a:	eb 3b                	jmp    c0001057 <COMMON_ISR>

c000101c <irq_03>:
irq_03():
c000101c:	6a 03                	push   $0x3
c000101e:	eb 37                	jmp    c0001057 <COMMON_ISR>

c0001020 <irq_04>:
irq_04():
c0001020:	6a 04                	push   $0x4
c0001022:	eb 33                	jmp    c0001057 <COMMON_ISR>

c0001024 <irq_05>:
irq_05():
c0001024:	6a 05                	push   $0x5
c0001026:	eb 2f                	jmp    c0001057 <COMMON_ISR>

c0001028 <irq_06>:
irq_06():
c0001028:	6a 06                	push   $0x6
c000102a:	eb 2b                	jmp    c0001057 <COMMON_ISR>

c000102c <irq_07>:
irq_07():
c000102c:	6a 07                	push   $0x7
c000102e:	eb 27                	jmp    c0001057 <COMMON_ISR>

c0001030 <irq_08>:
irq_08():
c0001030:	6a 08                	push   $0x8
c0001032:	eb 23                	jmp    c0001057 <COMMON_ISR>

c0001034 <irq_09>:
irq_09():
c0001034:	6a 09                	push   $0x9
c0001036:	eb 1f                	jmp    c0001057 <COMMON_ISR>

c0001038 <irq_0A>:
irq_0A():
c0001038:	6a 0a                	push   $0xa
c000103a:	eb 1b                	jmp    c0001057 <COMMON_ISR>

c000103c <irq_0B>:
irq_0B():
c000103c:	6a 0b                	push   $0xb
c000103e:	eb 17                	jmp    c0001057 <COMMON_ISR>

c0001040 <irq_0C>:
irq_0C():
c0001040:	6a 0c                	push   $0xc
c0001042:	eb 13                	jmp    c0001057 <COMMON_ISR>

c0001044 <irq_0D>:
irq_0D():
c0001044:	6a 0d                	push   $0xd
c0001046:	eb 0f                	jmp    c0001057 <COMMON_ISR>

c0001048 <irq_0E>:
irq_0E():
c0001048:	6a 0e                	push   $0xe
c000104a:	eb 0b                	jmp    c0001057 <COMMON_ISR>

c000104c <irq_0F>:
irq_0F():
c000104c:	6a 0f                	push   $0xf
c000104e:	eb 07                	jmp    c0001057 <COMMON_ISR>

c0001050 <irq_unhandled>:
irq_unhandled():
c0001050:	68 ff 00 00 00       	push   $0xff
c0001055:	eb 00                	jmp    c0001057 <COMMON_ISR>

c0001057 <COMMON_ISR>:
COMMON_ISR():
c0001057:	0f a8                	push   %gs
c0001059:	0f a0                	push   %fs
c000105b:	06                   	push   %es
c000105c:	1e                   	push   %ds
c000105d:	60                   	pusha  
c000105e:	bb 10 00 00 00       	mov    $0x10,%ebx
c0001063:	8e db                	mov    %ebx,%ds
c0001065:	8e c3                	mov    %ebx,%es
c0001067:	8e e3                	mov    %ebx,%fs
c0001069:	8e eb                	mov    %ebx,%gs
c000106b:	54                   	push   %esp
c000106c:	e8 91 0d 00 00       	call   c0001e02 <interrupt_handler_middle>
c0001071:	5c                   	pop    %esp
c0001072:	61                   	popa   
c0001073:	1f                   	pop    %ds
c0001074:	07                   	pop    %es
c0001075:	0f a1                	pop    %fs
c0001077:	0f a9                	pop    %gs
c0001079:	66 83 c4 04          	add    $0x4,%sp
c000107d:	cf                   	iret   

c000107e <outport08>:
outport08():
c000107e:	55                   	push   %ebp
c000107f:	89 e5                	mov    %esp,%ebp
c0001081:	83 ec 08             	sub    $0x8,%esp
c0001084:	8b 55 08             	mov    0x8(%ebp),%edx
c0001087:	8b 45 0c             	mov    0xc(%ebp),%eax
c000108a:	66 89 55 fc          	mov    %dx,-0x4(%ebp)
c000108e:	88 45 f8             	mov    %al,-0x8(%ebp)
c0001091:	0f b7 55 fc          	movzwl -0x4(%ebp),%edx
c0001095:	0f b6 45 f8          	movzbl -0x8(%ebp),%eax
c0001099:	ee                   	out    %al,(%dx)
c000109a:	c9                   	leave  
c000109b:	c3                   	ret    

c000109c <delay>:
delay():
c000109c:	55                   	push   %ebp
c000109d:	89 e5                	mov    %esp,%ebp
c000109f:	83 ec 10             	sub    $0x10,%esp
c00010a2:	9c                   	pushf  
c00010a3:	58                   	pop    %eax
c00010a4:	89 45 f8             	mov    %eax,-0x8(%ebp)
c00010a7:	c7 45 fc 00 00 00 00 	movl   $0x0,-0x4(%ebp)
c00010ae:	eb 27                	jmp    c00010d7 <delay+0x3b>
c00010b0:	a1 00 b0 01 c0       	mov    0xc001b000,%eax
c00010b5:	89 45 f4             	mov    %eax,-0xc(%ebp)
c00010b8:	fb                   	sti    
c00010b9:	f4                   	hlt    
c00010ba:	a1 00 b0 01 c0       	mov    0xc001b000,%eax
c00010bf:	2b 45 f4             	sub    -0xc(%ebp),%eax
c00010c2:	69 c0 e8 03 00 00    	imul   $0x3e8,%eax,%eax
c00010c8:	ba 1f 85 eb 51       	mov    $0x51eb851f,%edx
c00010cd:	f7 e2                	mul    %edx
c00010cf:	89 d0                	mov    %edx,%eax
c00010d1:	c1 e8 06             	shr    $0x6,%eax
c00010d4:	01 45 fc             	add    %eax,-0x4(%ebp)
c00010d7:	8b 45 fc             	mov    -0x4(%ebp),%eax
c00010da:	3b 45 08             	cmp    0x8(%ebp),%eax
c00010dd:	72 d1                	jb     c00010b0 <delay+0x14>
c00010df:	ff 75 f8             	pushl  -0x8(%ebp)
c00010e2:	9d                   	popf   
c00010e3:	c9                   	leave  
c00010e4:	c3                   	ret    

c00010e5 <clock_handler>:
clock_handler():
c00010e5:	55                   	push   %ebp
c00010e6:	89 e5                	mov    %esp,%ebp
c00010e8:	83 ec 18             	sub    $0x18,%esp
c00010eb:	a1 00 b0 01 c0       	mov    0xc001b000,%eax
c00010f0:	83 c0 01             	add    $0x1,%eax
c00010f3:	a3 00 b0 01 c0       	mov    %eax,0xc001b000
c00010f8:	e8 3e 29 00 00       	call   c0003a3b <schedule>
c00010fd:	8b 45 08             	mov    0x8(%ebp),%eax
c0001100:	8b 40 30             	mov    0x30(%eax),%eax
c0001103:	0f b6 c0             	movzbl %al,%eax
c0001106:	89 04 24             	mov    %eax,(%esp)
c0001109:	e8 52 0e 00 00       	call   c0001f60 <enable_IRQ>
c000110e:	c9                   	leave  
c000110f:	c3                   	ret    

c0001110 <initialize_clock>:
initialize_clock():
c0001110:	55                   	push   %ebp
c0001111:	89 e5                	mov    %esp,%ebp
c0001113:	83 ec 28             	sub    $0x28,%esp
c0001116:	9c                   	pushf  
c0001117:	58                   	pop    %eax
c0001118:	fa                   	cli    
c0001119:	89 45 f4             	mov    %eax,-0xc(%ebp)
c000111c:	c7 44 24 04 36 00 00 	movl   $0x36,0x4(%esp)
c0001123:	00 
c0001124:	c7 04 24 43 00 00 00 	movl   $0x43,(%esp)
c000112b:	e8 4e ff ff ff       	call   c000107e <outport08>
c0001130:	c7 44 24 04 4d 00 00 	movl   $0x4d,0x4(%esp)
c0001137:	00 
c0001138:	c7 04 24 40 00 00 00 	movl   $0x40,(%esp)
c000113f:	e8 3a ff ff ff       	call   c000107e <outport08>
c0001144:	c7 44 24 04 17 00 00 	movl   $0x17,0x4(%esp)
c000114b:	00 
c000114c:	c7 04 24 40 00 00 00 	movl   $0x40,(%esp)
c0001153:	e8 26 ff ff ff       	call   c000107e <outport08>
c0001158:	c7 44 24 04 e5 10 00 	movl   $0xc00010e5,0x4(%esp)
c000115f:	c0 
c0001160:	c7 04 24 00 00 00 00 	movl   $0x0,(%esp)
c0001167:	e8 b0 0e 00 00       	call   c000201c <register_interrupt_handler>
c000116c:	ff 75 f4             	pushl  -0xc(%ebp)
c000116f:	9d                   	popf   
c0001170:	c9                   	leave  
c0001171:	c3                   	ret    

c0001172 <stop_clock>:
stop_clock():
c0001172:	55                   	push   %ebp
c0001173:	89 e5                	mov    %esp,%ebp
c0001175:	83 ec 18             	sub    $0x18,%esp
c0001178:	9c                   	pushf  
c0001179:	58                   	pop    %eax
c000117a:	fa                   	cli    
c000117b:	89 45 fc             	mov    %eax,-0x4(%ebp)
c000117e:	c7 44 24 04 36 00 00 	movl   $0x36,0x4(%esp)
c0001185:	00 
c0001186:	c7 04 24 43 00 00 00 	movl   $0x43,(%esp)
c000118d:	e8 ec fe ff ff       	call   c000107e <outport08>
c0001192:	c7 44 24 04 00 00 00 	movl   $0x0,0x4(%esp)
c0001199:	00 
c000119a:	c7 04 24 40 00 00 00 	movl   $0x40,(%esp)
c00011a1:	e8 d8 fe ff ff       	call   c000107e <outport08>
c00011a6:	c7 44 24 04 00 00 00 	movl   $0x0,0x4(%esp)
c00011ad:	00 
c00011ae:	c7 04 24 40 00 00 00 	movl   $0x40,(%esp)
c00011b5:	e8 c4 fe ff ff       	call   c000107e <outport08>
c00011ba:	ff 75 fc             	pushl  -0x4(%ebp)
c00011bd:	9d                   	popf   
c00011be:	c9                   	leave  
c00011bf:	c3                   	ret    

c00011c0 <initialize_boot_console>:
initialize_boot_console():
c00011c0:	55                   	push   %ebp
c00011c1:	89 e5                	mov    %esp,%ebp
c00011c3:	83 ec 18             	sub    $0x18,%esp
c00011c6:	c7 05 20 b0 01 c0 00 	movl   $0xe00b8000,0xc001b020
c00011cd:	80 0b e0 
c00011d0:	c6 05 24 b0 01 c0 00 	movb   $0x0,0xc001b024
c00011d7:	c6 05 25 b0 01 c0 00 	movb   $0x0,0xc001b025
c00011de:	c6 05 26 b0 01 c0 07 	movb   $0x7,0xc001b026
c00011e5:	c7 04 24 20 b0 01 c0 	movl   $0xc001b020,(%esp)
c00011ec:	e8 08 4d 00 00       	call   c0005ef9 <video_clrscr>
c00011f1:	c9                   	leave  
c00011f2:	c3                   	ret    

c00011f3 <kclrscr>:
kclrscr():
c00011f3:	55                   	push   %ebp
c00011f4:	89 e5                	mov    %esp,%ebp
c00011f6:	83 ec 18             	sub    $0x18,%esp
c00011f9:	c7 04 24 20 b0 01 c0 	movl   $0xc001b020,(%esp)
c0001200:	e8 f4 4c 00 00       	call   c0005ef9 <video_clrscr>
c0001205:	c9                   	leave  
c0001206:	c3                   	ret    

c0001207 <kputchar>:
kputchar():
c0001207:	55                   	push   %ebp
c0001208:	89 e5                	mov    %esp,%ebp
c000120a:	83 ec 28             	sub    $0x28,%esp
c000120d:	9c                   	pushf  
c000120e:	58                   	pop    %eax
c000120f:	fa                   	cli    
c0001210:	89 45 f4             	mov    %eax,-0xc(%ebp)
c0001213:	8b 45 08             	mov    0x8(%ebp),%eax
c0001216:	0f b6 c0             	movzbl %al,%eax
c0001219:	c7 44 24 04 20 b0 01 	movl   $0xc001b020,0x4(%esp)
c0001220:	c0 
c0001221:	89 04 24             	mov    %eax,(%esp)
c0001224:	e8 8b 4e 00 00       	call   c00060b4 <video_put_char>
c0001229:	ff 75 f4             	pushl  -0xc(%ebp)
c000122c:	9d                   	popf   
c000122d:	b8 00 00 00 00       	mov    $0x0,%eax
c0001232:	c9                   	leave  
c0001233:	c3                   	ret    

c0001234 <kplacechar>:
kplacechar():
c0001234:	55                   	push   %ebp
c0001235:	89 e5                	mov    %esp,%ebp
c0001237:	83 ec 38             	sub    $0x38,%esp
c000123a:	8b 55 08             	mov    0x8(%ebp),%edx
c000123d:	8b 45 0c             	mov    0xc(%ebp),%eax
c0001240:	88 55 e4             	mov    %dl,-0x1c(%ebp)
c0001243:	88 45 e0             	mov    %al,-0x20(%ebp)
c0001246:	9c                   	pushf  
c0001247:	58                   	pop    %eax
c0001248:	fa                   	cli    
c0001249:	89 45 f4             	mov    %eax,-0xc(%ebp)
c000124c:	8b 45 10             	mov    0x10(%ebp),%eax
c000124f:	0f b6 c8             	movzbl %al,%ecx
c0001252:	0f b6 55 e0          	movzbl -0x20(%ebp),%edx
c0001256:	0f b6 45 e4          	movzbl -0x1c(%ebp),%eax
c000125a:	c7 44 24 0c 20 b0 01 	movl   $0xc001b020,0xc(%esp)
c0001261:	c0 
c0001262:	89 4c 24 08          	mov    %ecx,0x8(%esp)
c0001266:	89 54 24 04          	mov    %edx,0x4(%esp)
c000126a:	89 04 24             	mov    %eax,(%esp)
c000126d:	e8 ea 4d 00 00       	call   c000605c <video_place_char>
c0001272:	ff 75 f4             	pushl  -0xc(%ebp)
c0001275:	9d                   	popf   
c0001276:	b8 00 00 00 00       	mov    $0x0,%eax
c000127b:	c9                   	leave  
c000127c:	c3                   	ret    

c000127d <kset_color>:
kset_color():
c000127d:	55                   	push   %ebp
c000127e:	89 e5                	mov    %esp,%ebp
c0001280:	83 ec 18             	sub    $0x18,%esp
c0001283:	8b 45 08             	mov    0x8(%ebp),%eax
c0001286:	88 45 f4             	mov    %al,-0xc(%ebp)
c0001289:	0f b6 45 f4          	movzbl -0xc(%ebp),%eax
c000128d:	89 44 24 04          	mov    %eax,0x4(%esp)
c0001291:	c7 04 24 20 b0 01 c0 	movl   $0xc001b020,(%esp)
c0001298:	e8 44 4c 00 00       	call   c0005ee1 <video_set_color>
c000129d:	c9                   	leave  
c000129e:	c3                   	ret    

c000129f <kprintf>:
kprintf():
c000129f:	55                   	push   %ebp
c00012a0:	89 e5                	mov    %esp,%ebp
c00012a2:	81 ec 28 04 00 00    	sub    $0x428,%esp
c00012a8:	8d 45 0c             	lea    0xc(%ebp),%eax
c00012ab:	89 45 f0             	mov    %eax,-0x10(%ebp)
c00012ae:	8b 45 08             	mov    0x8(%ebp),%eax
c00012b1:	8b 55 f0             	mov    -0x10(%ebp),%edx
c00012b4:	89 54 24 0c          	mov    %edx,0xc(%esp)
c00012b8:	89 44 24 08          	mov    %eax,0x8(%esp)
c00012bc:	c7 44 24 04 00 04 00 	movl   $0x400,0x4(%esp)
c00012c3:	00 
c00012c4:	8d 85 ec fb ff ff    	lea    -0x414(%ebp),%eax
c00012ca:	89 04 24             	mov    %eax,(%esp)
c00012cd:	e8 c4 57 00 00       	call   c0006a96 <vsnprintf>
c00012d2:	c7 45 f0 00 00 00 00 	movl   $0x0,-0x10(%ebp)
c00012d9:	9c                   	pushf  
c00012da:	58                   	pop    %eax
c00012db:	fa                   	cli    
c00012dc:	89 45 ec             	mov    %eax,-0x14(%ebp)
c00012df:	c7 45 f4 00 00 00 00 	movl   $0x0,-0xc(%ebp)
c00012e6:	eb 31                	jmp    c0001319 <kprintf+0x7a>
c00012e8:	8d 95 ec fb ff ff    	lea    -0x414(%ebp),%edx
c00012ee:	8b 45 f4             	mov    -0xc(%ebp),%eax
c00012f1:	01 d0                	add    %edx,%eax
c00012f3:	0f b6 00             	movzbl (%eax),%eax
c00012f6:	84 c0                	test   %al,%al
c00012f8:	75 02                	jne    c00012fc <kprintf+0x5d>
c00012fa:	eb 26                	jmp    c0001322 <kprintf+0x83>
c00012fc:	8d 95 ec fb ff ff    	lea    -0x414(%ebp),%edx
c0001302:	8b 45 f4             	mov    -0xc(%ebp),%eax
c0001305:	01 d0                	add    %edx,%eax
c0001307:	0f b6 00             	movzbl (%eax),%eax
c000130a:	0f be c0             	movsbl %al,%eax
c000130d:	89 04 24             	mov    %eax,(%esp)
c0001310:	e8 f2 fe ff ff       	call   c0001207 <kputchar>
c0001315:	83 45 f4 01          	addl   $0x1,-0xc(%ebp)
c0001319:	81 7d f4 ff 03 00 00 	cmpl   $0x3ff,-0xc(%ebp)
c0001320:	76 c6                	jbe    c00012e8 <kprintf+0x49>
c0001322:	ff 75 ec             	pushl  -0x14(%ebp)
c0001325:	9d                   	popf   
c0001326:	8b 45 f4             	mov    -0xc(%ebp),%eax
c0001329:	c9                   	leave  
c000132a:	c3                   	ret    

c000132b <get_console_addr>:
get_console_addr():
c000132b:	55                   	push   %ebp
c000132c:	89 e5                	mov    %esp,%ebp
c000132e:	83 7d 08 00          	cmpl   $0x0,0x8(%ebp)
c0001332:	78 1a                	js     c000134e <get_console_addr+0x23>
c0001334:	83 7d 08 02          	cmpl   $0x2,0x8(%ebp)
c0001338:	7f 14                	jg     c000134e <get_console_addr+0x23>
c000133a:	8b 55 08             	mov    0x8(%ebp),%edx
c000133d:	89 d0                	mov    %edx,%eax
c000133f:	c1 e0 02             	shl    $0x2,%eax
c0001342:	01 d0                	add    %edx,%eax
c0001344:	c1 e0 04             	shl    $0x4,%eax
c0001347:	05 20 b0 01 c0       	add    $0xc001b020,%eax
c000134c:	eb 05                	jmp    c0001353 <get_console_addr+0x28>
c000134e:	b8 00 00 00 00       	mov    $0x0,%eax
c0001353:	5d                   	pop    %ebp
c0001354:	c3                   	ret    

c0001355 <get_curr_console>:
get_curr_console():
c0001355:	55                   	push   %ebp
c0001356:	89 e5                	mov    %esp,%ebp
c0001358:	a1 10 b1 01 c0       	mov    0xc001b110,%eax
c000135d:	5d                   	pop    %ebp
c000135e:	c3                   	ret    

c000135f <dump_registers>:
dump_registers():
c000135f:	55                   	push   %ebp
c0001360:	89 e5                	mov    %esp,%ebp
c0001362:	83 ec 48             	sub    $0x48,%esp
c0001365:	c7 44 24 0c 60 7c 00 	movl   $0xc0007c60,0xc(%esp)
c000136c:	c0 
c000136d:	c7 44 24 08 7e 7c 00 	movl   $0xc0007c7e,0x8(%esp)
c0001374:	c0 
c0001375:	c7 44 24 04 25 00 00 	movl   $0x25,0x4(%esp)
c000137c:	00 
c000137d:	c7 04 24 9c 7c 00 c0 	movl   $0xc0007c9c,(%esp)
c0001384:	e8 16 ff ff ff       	call   c000129f <kprintf>
c0001389:	66 8c d0             	mov    %ss,%ax
c000138c:	66 89 45 f6          	mov    %ax,-0xa(%ebp)
c0001390:	8c 65 e2             	mov    %fs,-0x1e(%ebp)
c0001393:	8c 6d e0             	mov    %gs,-0x20(%ebp)
c0001396:	0f 20 c0             	mov    %cr0,%eax
c0001399:	89 45 f0             	mov    %eax,-0x10(%ebp)
c000139c:	0f 20 d0             	mov    %cr2,%eax
c000139f:	89 45 ec             	mov    %eax,-0x14(%ebp)
c00013a2:	0f 20 d8             	mov    %cr3,%eax
c00013a5:	89 45 e8             	mov    %eax,-0x18(%ebp)
c00013a8:	0f 20 d0             	mov    %cr2,%eax
c00013ab:	89 45 e4             	mov    %eax,-0x1c(%ebp)
c00013ae:	8b 45 08             	mov    0x8(%ebp),%eax
c00013b1:	8b 40 20             	mov    0x20(%eax),%eax
c00013b4:	0f b7 d0             	movzwl %ax,%edx
c00013b7:	8b 45 08             	mov    0x8(%ebp),%eax
c00013ba:	8b 40 1c             	mov    0x1c(%eax),%eax
c00013bd:	8b 4d 08             	mov    0x8(%ebp),%ecx
c00013c0:	89 4c 24 10          	mov    %ecx,0x10(%esp)
c00013c4:	8b 4d f0             	mov    -0x10(%ebp),%ecx
c00013c7:	89 4c 24 0c          	mov    %ecx,0xc(%esp)
c00013cb:	89 54 24 08          	mov    %edx,0x8(%esp)
c00013cf:	89 44 24 04          	mov    %eax,0x4(%esp)
c00013d3:	c7 04 24 dc 7c 00 c0 	movl   $0xc0007cdc,(%esp)
c00013da:	e8 c0 fe ff ff       	call   c000129f <kprintf>
c00013df:	8b 45 08             	mov    0x8(%ebp),%eax
c00013e2:	8b 48 08             	mov    0x8(%eax),%ecx
c00013e5:	8b 45 08             	mov    0x8(%ebp),%eax
c00013e8:	8b 40 24             	mov    0x24(%eax),%eax
c00013eb:	0f b7 d0             	movzwl %ax,%edx
c00013ee:	8b 45 08             	mov    0x8(%ebp),%eax
c00013f1:	8b 40 10             	mov    0x10(%eax),%eax
c00013f4:	89 4c 24 10          	mov    %ecx,0x10(%esp)
c00013f8:	8b 4d ec             	mov    -0x14(%ebp),%ecx
c00013fb:	89 4c 24 0c          	mov    %ecx,0xc(%esp)
c00013ff:	89 54 24 08          	mov    %edx,0x8(%esp)
c0001403:	89 44 24 04          	mov    %eax,0x4(%esp)
c0001407:	c7 04 24 18 7d 00 c0 	movl   $0xc0007d18,(%esp)
c000140e:	e8 8c fe ff ff       	call   c000129f <kprintf>
c0001413:	8b 45 08             	mov    0x8(%ebp),%eax
c0001416:	8b 48 38             	mov    0x38(%eax),%ecx
c0001419:	0f b7 45 e2          	movzwl -0x1e(%ebp),%eax
c000141d:	0f b7 d0             	movzwl %ax,%edx
c0001420:	8b 45 08             	mov    0x8(%ebp),%eax
c0001423:	8b 40 18             	mov    0x18(%eax),%eax
c0001426:	89 4c 24 10          	mov    %ecx,0x10(%esp)
c000142a:	8b 4d e8             	mov    -0x18(%ebp),%ecx
c000142d:	89 4c 24 0c          	mov    %ecx,0xc(%esp)
c0001431:	89 54 24 08          	mov    %edx,0x8(%esp)
c0001435:	89 44 24 04          	mov    %eax,0x4(%esp)
c0001439:	c7 04 24 54 7d 00 c0 	movl   $0xc0007d54,(%esp)
c0001440:	e8 5a fe ff ff       	call   c000129f <kprintf>
c0001445:	8b 45 08             	mov    0x8(%ebp),%eax
c0001448:	8b 48 40             	mov    0x40(%eax),%ecx
c000144b:	0f b7 45 e0          	movzwl -0x20(%ebp),%eax
c000144f:	0f b7 d0             	movzwl %ax,%edx
c0001452:	8b 45 08             	mov    0x8(%ebp),%eax
c0001455:	8b 40 14             	mov    0x14(%eax),%eax
c0001458:	89 4c 24 10          	mov    %ecx,0x10(%esp)
c000145c:	8b 4d e4             	mov    -0x1c(%ebp),%ecx
c000145f:	89 4c 24 0c          	mov    %ecx,0xc(%esp)
c0001463:	89 54 24 08          	mov    %edx,0x8(%esp)
c0001467:	89 44 24 04          	mov    %eax,0x4(%esp)
c000146b:	c7 04 24 90 7d 00 c0 	movl   $0xc0007d90,(%esp)
c0001472:	e8 28 fe ff ff       	call   c000129f <kprintf>
c0001477:	8b 45 08             	mov    0x8(%ebp),%eax
c000147a:	8b 48 30             	mov    0x30(%eax),%ecx
c000147d:	0f b7 55 f6          	movzwl -0xa(%ebp),%edx
c0001481:	8b 45 08             	mov    0x8(%ebp),%eax
c0001484:	8b 40 04             	mov    0x4(%eax),%eax
c0001487:	89 4c 24 0c          	mov    %ecx,0xc(%esp)
c000148b:	89 54 24 08          	mov    %edx,0x8(%esp)
c000148f:	89 44 24 04          	mov    %eax,0x4(%esp)
c0001493:	c7 04 24 cc 7d 00 c0 	movl   $0xc0007dcc,(%esp)
c000149a:	e8 00 fe ff ff       	call   c000129f <kprintf>
c000149f:	8b 45 08             	mov    0x8(%ebp),%eax
c00014a2:	8b 48 34             	mov    0x34(%eax),%ecx
c00014a5:	8b 45 08             	mov    0x8(%ebp),%eax
c00014a8:	8b 40 3c             	mov    0x3c(%eax),%eax
c00014ab:	0f b7 d0             	movzwl %ax,%edx
c00014ae:	8b 45 08             	mov    0x8(%ebp),%eax
c00014b1:	8b 00                	mov    (%eax),%eax
c00014b3:	89 4c 24 0c          	mov    %ecx,0xc(%esp)
c00014b7:	89 54 24 08          	mov    %edx,0x8(%esp)
c00014bb:	89 44 24 04          	mov    %eax,0x4(%esp)
c00014bf:	c7 04 24 f8 7d 00 c0 	movl   $0xc0007df8,(%esp)
c00014c6:	e8 d4 fd ff ff       	call   c000129f <kprintf>
c00014cb:	c9                   	leave  
c00014cc:	c3                   	ret    

c00014cd <exception_handler_middle>:
exception_handler_middle():
c00014cd:	55                   	push   %ebp
c00014ce:	89 e5                	mov    %esp,%ebp
c00014d0:	83 ec 28             	sub    $0x28,%esp
c00014d3:	8b 45 08             	mov    0x8(%ebp),%eax
c00014d6:	8b 40 30             	mov    0x30(%eax),%eax
c00014d9:	83 f8 0f             	cmp    $0xf,%eax
c00014dc:	0f 87 af 01 00 00    	ja     c0001691 <exception_handler_middle+0x1c4>
c00014e2:	8b 04 85 f4 81 00 c0 	mov    -0x3fff7e0c(,%eax,4),%eax
c00014e9:	ff e0                	jmp    *%eax
c00014eb:	c7 04 24 24 7e 00 c0 	movl   $0xc0007e24,(%esp)
c00014f2:	e8 a8 fd ff ff       	call   c000129f <kprintf>
c00014f7:	e9 ac 01 00 00       	jmp    c00016a8 <exception_handler_middle+0x1db>
c00014fc:	c7 04 24 48 7e 00 c0 	movl   $0xc0007e48,(%esp)
c0001503:	e8 97 fd ff ff       	call   c000129f <kprintf>
c0001508:	e9 9b 01 00 00       	jmp    c00016a8 <exception_handler_middle+0x1db>
c000150d:	c7 04 24 74 7e 00 c0 	movl   $0xc0007e74,(%esp)
c0001514:	e8 86 fd ff ff       	call   c000129f <kprintf>
c0001519:	e9 8a 01 00 00       	jmp    c00016a8 <exception_handler_middle+0x1db>
c000151e:	c7 04 24 9c 7e 00 c0 	movl   $0xc0007e9c,(%esp)
c0001525:	e8 75 fd ff ff       	call   c000129f <kprintf>
c000152a:	8b 45 08             	mov    0x8(%ebp),%eax
c000152d:	89 04 24             	mov    %eax,(%esp)
c0001530:	e8 2a fe ff ff       	call   c000135f <dump_registers>
c0001535:	c7 44 24 0c 49 00 00 	movl   $0x49,0xc(%esp)
c000153c:	00 
c000153d:	c7 44 24 08 cc 7e 00 	movl   $0xc0007ecc,0x8(%esp)
c0001544:	c0 
c0001545:	c7 44 24 04 e8 7e 00 	movl   $0xc0007ee8,0x4(%esp)
c000154c:	c0 
c000154d:	c7 04 24 08 7f 00 c0 	movl   $0xc0007f08,(%esp)
c0001554:	e8 46 fd ff ff       	call   c000129f <kprintf>
c0001559:	fa                   	cli    
c000155a:	eb fe                	jmp    c000155a <exception_handler_middle+0x8d>
c000155c:	c7 04 24 30 7f 00 c0 	movl   $0xc0007f30,(%esp)
c0001563:	e8 37 fd ff ff       	call   c000129f <kprintf>
c0001568:	e9 3b 01 00 00       	jmp    c00016a8 <exception_handler_middle+0x1db>
c000156d:	c7 04 24 58 7f 00 c0 	movl   $0xc0007f58,(%esp)
c0001574:	e8 26 fd ff ff       	call   c000129f <kprintf>
c0001579:	e9 2a 01 00 00       	jmp    c00016a8 <exception_handler_middle+0x1db>
c000157e:	c7 04 24 80 7f 00 c0 	movl   $0xc0007f80,(%esp)
c0001585:	e8 15 fd ff ff       	call   c000129f <kprintf>
c000158a:	e9 19 01 00 00       	jmp    c00016a8 <exception_handler_middle+0x1db>
c000158f:	c7 04 24 a0 7f 00 c0 	movl   $0xc0007fa0,(%esp)
c0001596:	e8 04 fd ff ff       	call   c000129f <kprintf>
c000159b:	e9 08 01 00 00       	jmp    c00016a8 <exception_handler_middle+0x1db>
c00015a0:	c7 04 24 d4 7f 00 c0 	movl   $0xc0007fd4,(%esp)
c00015a7:	e8 f3 fc ff ff       	call   c000129f <kprintf>
c00015ac:	e9 f7 00 00 00       	jmp    c00016a8 <exception_handler_middle+0x1db>
c00015b1:	c7 04 24 fc 7f 00 c0 	movl   $0xc0007ffc,(%esp)
c00015b8:	e8 e2 fc ff ff       	call   c000129f <kprintf>
c00015bd:	e9 e6 00 00 00       	jmp    c00016a8 <exception_handler_middle+0x1db>
c00015c2:	c7 04 24 34 80 00 c0 	movl   $0xc0008034,(%esp)
c00015c9:	e8 d1 fc ff ff       	call   c000129f <kprintf>
c00015ce:	e9 d5 00 00 00       	jmp    c00016a8 <exception_handler_middle+0x1db>
c00015d3:	c7 04 24 60 80 00 c0 	movl   $0xc0008060,(%esp)
c00015da:	e8 c0 fc ff ff       	call   c000129f <kprintf>
c00015df:	e9 c4 00 00 00       	jmp    c00016a8 <exception_handler_middle+0x1db>
c00015e4:	c7 04 24 84 80 00 c0 	movl   $0xc0008084,(%esp)
c00015eb:	e8 af fc ff ff       	call   c000129f <kprintf>
c00015f0:	e9 b3 00 00 00       	jmp    c00016a8 <exception_handler_middle+0x1db>
c00015f5:	8b 45 08             	mov    0x8(%ebp),%eax
c00015f8:	8b 40 40             	mov    0x40(%eax),%eax
c00015fb:	25 00 00 02 00       	and    $0x20000,%eax
c0001600:	85 c0                	test   %eax,%eax
c0001602:	74 27                	je     c000162b <exception_handler_middle+0x15e>
c0001604:	c7 44 24 0c 74 00 00 	movl   $0x74,0xc(%esp)
c000160b:	00 
c000160c:	c7 44 24 08 cc 7e 00 	movl   $0xc0007ecc,0x8(%esp)
c0001613:	c0 
c0001614:	c7 44 24 04 a0 80 00 	movl   $0xc00080a0,0x4(%esp)
c000161b:	c0 
c000161c:	c7 04 24 08 7f 00 c0 	movl   $0xc0007f08,(%esp)
c0001623:	e8 77 fc ff ff       	call   c000129f <kprintf>
c0001628:	fa                   	cli    
c0001629:	eb fe                	jmp    c0001629 <exception_handler_middle+0x15c>
c000162b:	c7 04 24 c4 80 00 c0 	movl   $0xc00080c4,(%esp)
c0001632:	e8 68 fc ff ff       	call   c000129f <kprintf>
c0001637:	eb 6f                	jmp    c00016a8 <exception_handler_middle+0x1db>
c0001639:	0f 20 d0             	mov    %cr2,%eax
c000163c:	89 45 f4             	mov    %eax,-0xc(%ebp)
c000163f:	8b 45 08             	mov    0x8(%ebp),%eax
c0001642:	8b 40 34             	mov    0x34(%eax),%eax
c0001645:	83 e0 01             	and    $0x1,%eax
c0001648:	85 c0                	test   %eax,%eax
c000164a:	75 29                	jne    c0001675 <exception_handler_middle+0x1a8>
c000164c:	8b 45 08             	mov    0x8(%ebp),%eax
c000164f:	8b 40 34             	mov    0x34(%eax),%eax
c0001652:	8b 55 f4             	mov    -0xc(%ebp),%edx
c0001655:	89 54 24 04          	mov    %edx,0x4(%esp)
c0001659:	89 04 24             	mov    %eax,(%esp)
c000165c:	e8 dc 1b 00 00       	call   c000323d <page_fault_handler>
c0001661:	85 c0                	test   %eax,%eax
c0001663:	75 02                	jne    c0001667 <exception_handler_middle+0x19a>
c0001665:	eb 73                	jmp    c00016da <exception_handler_middle+0x20d>
c0001667:	c7 04 24 f0 80 00 c0 	movl   $0xc00080f0,(%esp)
c000166e:	e8 2c fc ff ff       	call   c000129f <kprintf>
c0001673:	eb 33                	jmp    c00016a8 <exception_handler_middle+0x1db>
c0001675:	c7 04 24 1c 81 00 c0 	movl   $0xc000811c,(%esp)
c000167c:	e8 1e fc ff ff       	call   c000129f <kprintf>
c0001681:	eb 25                	jmp    c00016a8 <exception_handler_middle+0x1db>
c0001683:	c7 04 24 5c 81 00 c0 	movl   $0xc000815c,(%esp)
c000168a:	e8 10 fc ff ff       	call   c000129f <kprintf>
c000168f:	eb 17                	jmp    c00016a8 <exception_handler_middle+0x1db>
c0001691:	8b 45 08             	mov    0x8(%ebp),%eax
c0001694:	8b 40 30             	mov    0x30(%eax),%eax
c0001697:	89 44 24 04          	mov    %eax,0x4(%esp)
c000169b:	c7 04 24 80 81 00 c0 	movl   $0xc0008180,(%esp)
c00016a2:	e8 f8 fb ff ff       	call   c000129f <kprintf>
c00016a7:	90                   	nop
c00016a8:	8b 45 08             	mov    0x8(%ebp),%eax
c00016ab:	89 04 24             	mov    %eax,(%esp)
c00016ae:	e8 ac fc ff ff       	call   c000135f <dump_registers>
c00016b3:	c7 44 24 0c 94 00 00 	movl   $0x94,0xc(%esp)
c00016ba:	00 
c00016bb:	c7 44 24 08 cc 7e 00 	movl   $0xc0007ecc,0x8(%esp)
c00016c2:	c0 
c00016c3:	c7 44 24 04 ac 81 00 	movl   $0xc00081ac,0x4(%esp)
c00016ca:	c0 
c00016cb:	c7 04 24 08 7f 00 c0 	movl   $0xc0007f08,(%esp)
c00016d2:	e8 c8 fb ff ff       	call   c000129f <kprintf>
c00016d7:	fa                   	cli    
c00016d8:	eb fe                	jmp    c00016d8 <exception_handler_middle+0x20b>
c00016da:	c9                   	leave  
c00016db:	c3                   	ret    

c00016dc <outport08>:
outport08():
c00016dc:	55                   	push   %ebp
c00016dd:	89 e5                	mov    %esp,%ebp
c00016df:	83 ec 08             	sub    $0x8,%esp
c00016e2:	8b 55 08             	mov    0x8(%ebp),%edx
c00016e5:	8b 45 0c             	mov    0xc(%ebp),%eax
c00016e8:	66 89 55 fc          	mov    %dx,-0x4(%ebp)
c00016ec:	88 45 f8             	mov    %al,-0x8(%ebp)
c00016ef:	0f b7 55 fc          	movzwl -0x4(%ebp),%edx
c00016f3:	0f b6 45 f8          	movzbl -0x8(%ebp),%eax
c00016f7:	ee                   	out    %al,(%dx)
c00016f8:	c9                   	leave  
c00016f9:	c3                   	ret    

c00016fa <reprogram_PIC_8259>:
reprogram_PIC_8259():
c00016fa:	55                   	push   %ebp
c00016fb:	89 e5                	mov    %esp,%ebp
c00016fd:	83 ec 08             	sub    $0x8,%esp
c0001700:	c7 44 24 04 11 00 00 	movl   $0x11,0x4(%esp)
c0001707:	00 
c0001708:	c7 04 24 20 00 00 00 	movl   $0x20,(%esp)
c000170f:	e8 c8 ff ff ff       	call   c00016dc <outport08>
c0001714:	c7 44 24 04 11 00 00 	movl   $0x11,0x4(%esp)
c000171b:	00 
c000171c:	c7 04 24 a0 00 00 00 	movl   $0xa0,(%esp)
c0001723:	e8 b4 ff ff ff       	call   c00016dc <outport08>
c0001728:	c7 44 24 04 20 00 00 	movl   $0x20,0x4(%esp)
c000172f:	00 
c0001730:	c7 04 24 21 00 00 00 	movl   $0x21,(%esp)
c0001737:	e8 a0 ff ff ff       	call   c00016dc <outport08>
c000173c:	c7 44 24 04 28 00 00 	movl   $0x28,0x4(%esp)
c0001743:	00 
c0001744:	c7 04 24 a1 00 00 00 	movl   $0xa1,(%esp)
c000174b:	e8 8c ff ff ff       	call   c00016dc <outport08>
c0001750:	c7 44 24 04 04 00 00 	movl   $0x4,0x4(%esp)
c0001757:	00 
c0001758:	c7 04 24 21 00 00 00 	movl   $0x21,(%esp)
c000175f:	e8 78 ff ff ff       	call   c00016dc <outport08>
c0001764:	c7 44 24 04 02 00 00 	movl   $0x2,0x4(%esp)
c000176b:	00 
c000176c:	c7 04 24 a1 00 00 00 	movl   $0xa1,(%esp)
c0001773:	e8 64 ff ff ff       	call   c00016dc <outport08>
c0001778:	c7 44 24 04 01 00 00 	movl   $0x1,0x4(%esp)
c000177f:	00 
c0001780:	c7 04 24 21 00 00 00 	movl   $0x21,(%esp)
c0001787:	e8 50 ff ff ff       	call   c00016dc <outport08>
c000178c:	c7 44 24 04 01 00 00 	movl   $0x1,0x4(%esp)
c0001793:	00 
c0001794:	c7 04 24 a1 00 00 00 	movl   $0xa1,(%esp)
c000179b:	e8 3c ff ff ff       	call   c00016dc <outport08>
c00017a0:	c7 44 24 04 ff 00 00 	movl   $0xff,0x4(%esp)
c00017a7:	00 
c00017a8:	c7 04 24 21 00 00 00 	movl   $0x21,(%esp)
c00017af:	e8 28 ff ff ff       	call   c00016dc <outport08>
c00017b4:	c7 44 24 04 ff 00 00 	movl   $0xff,0x4(%esp)
c00017bb:	00 
c00017bc:	c7 04 24 a1 00 00 00 	movl   $0xa1,(%esp)
c00017c3:	e8 14 ff ff ff       	call   c00016dc <outport08>
c00017c8:	c9                   	leave  
c00017c9:	c3                   	ret    

c00017ca <set_IDT_gate>:
set_IDT_gate():
c00017ca:	55                   	push   %ebp
c00017cb:	89 e5                	mov    %esp,%ebp
c00017cd:	83 ec 1c             	sub    $0x1c,%esp
c00017d0:	8b 4d 08             	mov    0x8(%ebp),%ecx
c00017d3:	8b 55 10             	mov    0x10(%ebp),%edx
c00017d6:	8b 45 14             	mov    0x14(%ebp),%eax
c00017d9:	88 4d ec             	mov    %cl,-0x14(%ebp)
c00017dc:	66 89 55 e8          	mov    %dx,-0x18(%ebp)
c00017e0:	88 45 e4             	mov    %al,-0x1c(%ebp)
c00017e3:	9c                   	pushf  
c00017e4:	58                   	pop    %eax
c00017e5:	fa                   	cli    
c00017e6:	89 45 fc             	mov    %eax,-0x4(%ebp)
c00017e9:	0f b6 45 ec          	movzbl -0x14(%ebp),%eax
c00017ed:	8b 55 0c             	mov    0xc(%ebp),%edx
c00017f0:	66 89 14 c5 a0 b5 01 	mov    %dx,-0x3ffe4a60(,%eax,8)
c00017f7:	c0 
c00017f8:	0f b6 45 ec          	movzbl -0x14(%ebp),%eax
c00017fc:	0f b7 55 e8          	movzwl -0x18(%ebp),%edx
c0001800:	66 89 14 c5 a2 b5 01 	mov    %dx,-0x3ffe4a5e(,%eax,8)
c0001807:	c0 
c0001808:	0f b6 45 ec          	movzbl -0x14(%ebp),%eax
c000180c:	c6 04 c5 a4 b5 01 c0 	movb   $0x0,-0x3ffe4a5c(,%eax,8)
c0001813:	00 
c0001814:	0f b6 45 ec          	movzbl -0x14(%ebp),%eax
c0001818:	0f b6 55 e4          	movzbl -0x1c(%ebp),%edx
c000181c:	88 14 c5 a5 b5 01 c0 	mov    %dl,-0x3ffe4a5b(,%eax,8)
c0001823:	0f b6 45 ec          	movzbl -0x14(%ebp),%eax
c0001827:	8b 55 0c             	mov    0xc(%ebp),%edx
c000182a:	c1 ea 10             	shr    $0x10,%edx
c000182d:	66 89 14 c5 a6 b5 01 	mov    %dx,-0x3ffe4a5a(,%eax,8)
c0001834:	c0 
c0001835:	ff 75 fc             	pushl  -0x4(%ebp)
c0001838:	9d                   	popf   
c0001839:	c9                   	leave  
c000183a:	c3                   	ret    

c000183b <spurious_interrupt>:
spurious_interrupt():
c000183b:	55                   	push   %ebp
c000183c:	89 e5                	mov    %esp,%ebp
c000183e:	83 ec 18             	sub    $0x18,%esp
c0001841:	a1 14 b1 01 c0       	mov    0xc001b114,%eax
c0001846:	85 c0                	test   %eax,%eax
c0001848:	74 16                	je     c0001860 <spurious_interrupt+0x25>
c000184a:	8b 45 08             	mov    0x8(%ebp),%eax
c000184d:	8b 40 30             	mov    0x30(%eax),%eax
c0001850:	89 44 24 04          	mov    %eax,0x4(%esp)
c0001854:	c7 04 24 34 82 00 c0 	movl   $0xc0008234,(%esp)
c000185b:	e8 3f fa ff ff       	call   c000129f <kprintf>
c0001860:	c9                   	leave  
c0001861:	c3                   	ret    

c0001862 <initialize_IDT>:
initialize_IDT():
c0001862:	55                   	push   %ebp
c0001863:	89 e5                	mov    %esp,%ebp
c0001865:	83 ec 28             	sub    $0x28,%esp
c0001868:	c7 45 f4 00 00 00 00 	movl   $0x0,-0xc(%ebp)
c000186f:	eb 2b                	jmp    c000189c <initialize_IDT+0x3a>
c0001871:	ba 14 01 00 c0       	mov    $0xc0000114,%edx
c0001876:	8b 45 f4             	mov    -0xc(%ebp),%eax
c0001879:	0f b6 c0             	movzbl %al,%eax
c000187c:	c7 44 24 0c 8e 00 00 	movl   $0x8e,0xc(%esp)
c0001883:	00 
c0001884:	c7 44 24 08 08 00 00 	movl   $0x8,0x8(%esp)
c000188b:	00 
c000188c:	89 54 24 04          	mov    %edx,0x4(%esp)
c0001890:	89 04 24             	mov    %eax,(%esp)
c0001893:	e8 32 ff ff ff       	call   c00017ca <set_IDT_gate>
c0001898:	83 45 f4 01          	addl   $0x1,-0xc(%ebp)
c000189c:	83 7d f4 1f          	cmpl   $0x1f,-0xc(%ebp)
c00018a0:	76 cf                	jbe    c0001871 <initialize_IDT+0xf>
c00018a2:	b8 c0 00 00 c0       	mov    $0xc00000c0,%eax
c00018a7:	c7 44 24 0c 8f 00 00 	movl   $0x8f,0xc(%esp)
c00018ae:	00 
c00018af:	c7 44 24 08 08 00 00 	movl   $0x8,0x8(%esp)
c00018b6:	00 
c00018b7:	89 44 24 04          	mov    %eax,0x4(%esp)
c00018bb:	c7 04 24 00 00 00 00 	movl   $0x0,(%esp)
c00018c2:	e8 03 ff ff ff       	call   c00017ca <set_IDT_gate>
c00018c7:	b8 c6 00 00 c0       	mov    $0xc00000c6,%eax
c00018cc:	c7 44 24 0c 8f 00 00 	movl   $0x8f,0xc(%esp)
c00018d3:	00 
c00018d4:	c7 44 24 08 08 00 00 	movl   $0x8,0x8(%esp)
c00018db:	00 
c00018dc:	89 44 24 04          	mov    %eax,0x4(%esp)
c00018e0:	c7 04 24 01 00 00 00 	movl   $0x1,(%esp)
c00018e7:	e8 de fe ff ff       	call   c00017ca <set_IDT_gate>
c00018ec:	b8 cc 00 00 c0       	mov    $0xc00000cc,%eax
c00018f1:	c7 44 24 0c 8f 00 00 	movl   $0x8f,0xc(%esp)
c00018f8:	00 
c00018f9:	c7 44 24 08 08 00 00 	movl   $0x8,0x8(%esp)
c0001900:	00 
c0001901:	89 44 24 04          	mov    %eax,0x4(%esp)
c0001905:	c7 04 24 02 00 00 00 	movl   $0x2,(%esp)
c000190c:	e8 b9 fe ff ff       	call   c00017ca <set_IDT_gate>
c0001911:	b8 d2 00 00 c0       	mov    $0xc00000d2,%eax
c0001916:	c7 44 24 0c ef 00 00 	movl   $0xef,0xc(%esp)
c000191d:	00 
c000191e:	c7 44 24 08 08 00 00 	movl   $0x8,0x8(%esp)
c0001925:	00 
c0001926:	89 44 24 04          	mov    %eax,0x4(%esp)
c000192a:	c7 04 24 03 00 00 00 	movl   $0x3,(%esp)
c0001931:	e8 94 fe ff ff       	call   c00017ca <set_IDT_gate>
c0001936:	b8 d8 00 00 c0       	mov    $0xc00000d8,%eax
c000193b:	c7 44 24 0c ef 00 00 	movl   $0xef,0xc(%esp)
c0001942:	00 
c0001943:	c7 44 24 08 08 00 00 	movl   $0x8,0x8(%esp)
c000194a:	00 
c000194b:	89 44 24 04          	mov    %eax,0x4(%esp)
c000194f:	c7 04 24 04 00 00 00 	movl   $0x4,(%esp)
c0001956:	e8 6f fe ff ff       	call   c00017ca <set_IDT_gate>
c000195b:	b8 de 00 00 c0       	mov    $0xc00000de,%eax
c0001960:	c7 44 24 0c ef 00 00 	movl   $0xef,0xc(%esp)
c0001967:	00 
c0001968:	c7 44 24 08 08 00 00 	movl   $0x8,0x8(%esp)
c000196f:	00 
c0001970:	89 44 24 04          	mov    %eax,0x4(%esp)
c0001974:	c7 04 24 05 00 00 00 	movl   $0x5,(%esp)
c000197b:	e8 4a fe ff ff       	call   c00017ca <set_IDT_gate>
c0001980:	b8 e4 00 00 c0       	mov    $0xc00000e4,%eax
c0001985:	c7 44 24 0c 8f 00 00 	movl   $0x8f,0xc(%esp)
c000198c:	00 
c000198d:	c7 44 24 08 08 00 00 	movl   $0x8,0x8(%esp)
c0001994:	00 
c0001995:	89 44 24 04          	mov    %eax,0x4(%esp)
c0001999:	c7 04 24 06 00 00 00 	movl   $0x6,(%esp)
c00019a0:	e8 25 fe ff ff       	call   c00017ca <set_IDT_gate>
c00019a5:	b8 ea 00 00 c0       	mov    $0xc00000ea,%eax
c00019aa:	c7 44 24 0c 8f 00 00 	movl   $0x8f,0xc(%esp)
c00019b1:	00 
c00019b2:	c7 44 24 08 08 00 00 	movl   $0x8,0x8(%esp)
c00019b9:	00 
c00019ba:	89 44 24 04          	mov    %eax,0x4(%esp)
c00019be:	c7 04 24 07 00 00 00 	movl   $0x7,(%esp)
c00019c5:	e8 00 fe ff ff       	call   c00017ca <set_IDT_gate>
c00019ca:	b8 f0 00 00 c0       	mov    $0xc00000f0,%eax
c00019cf:	c7 44 24 0c 8f 00 00 	movl   $0x8f,0xc(%esp)
c00019d6:	00 
c00019d7:	c7 44 24 08 08 00 00 	movl   $0x8,0x8(%esp)
c00019de:	00 
c00019df:	89 44 24 04          	mov    %eax,0x4(%esp)
c00019e3:	c7 04 24 08 00 00 00 	movl   $0x8,(%esp)
c00019ea:	e8 db fd ff ff       	call   c00017ca <set_IDT_gate>
c00019ef:	b8 f4 00 00 c0       	mov    $0xc00000f4,%eax
c00019f4:	c7 44 24 0c 8f 00 00 	movl   $0x8f,0xc(%esp)
c00019fb:	00 
c00019fc:	c7 44 24 08 08 00 00 	movl   $0x8,0x8(%esp)
c0001a03:	00 
c0001a04:	89 44 24 04          	mov    %eax,0x4(%esp)
c0001a08:	c7 04 24 09 00 00 00 	movl   $0x9,(%esp)
c0001a0f:	e8 b6 fd ff ff       	call   c00017ca <set_IDT_gate>
c0001a14:	b8 fa 00 00 c0       	mov    $0xc00000fa,%eax
c0001a19:	c7 44 24 0c 8f 00 00 	movl   $0x8f,0xc(%esp)
c0001a20:	00 
c0001a21:	c7 44 24 08 08 00 00 	movl   $0x8,0x8(%esp)
c0001a28:	00 
c0001a29:	89 44 24 04          	mov    %eax,0x4(%esp)
c0001a2d:	c7 04 24 0a 00 00 00 	movl   $0xa,(%esp)
c0001a34:	e8 91 fd ff ff       	call   c00017ca <set_IDT_gate>
c0001a39:	b8 fe 00 00 c0       	mov    $0xc00000fe,%eax
c0001a3e:	c7 44 24 0c 8f 00 00 	movl   $0x8f,0xc(%esp)
c0001a45:	00 
c0001a46:	c7 44 24 08 08 00 00 	movl   $0x8,0x8(%esp)
c0001a4d:	00 
c0001a4e:	89 44 24 04          	mov    %eax,0x4(%esp)
c0001a52:	c7 04 24 0b 00 00 00 	movl   $0xb,(%esp)
c0001a59:	e8 6c fd ff ff       	call   c00017ca <set_IDT_gate>
c0001a5e:	b8 02 01 00 c0       	mov    $0xc0000102,%eax
c0001a63:	c7 44 24 0c 8f 00 00 	movl   $0x8f,0xc(%esp)
c0001a6a:	00 
c0001a6b:	c7 44 24 08 08 00 00 	movl   $0x8,0x8(%esp)
c0001a72:	00 
c0001a73:	89 44 24 04          	mov    %eax,0x4(%esp)
c0001a77:	c7 04 24 0c 00 00 00 	movl   $0xc,(%esp)
c0001a7e:	e8 47 fd ff ff       	call   c00017ca <set_IDT_gate>
c0001a83:	b8 06 01 00 c0       	mov    $0xc0000106,%eax
c0001a88:	c7 44 24 0c 8f 00 00 	movl   $0x8f,0xc(%esp)
c0001a8f:	00 
c0001a90:	c7 44 24 08 08 00 00 	movl   $0x8,0x8(%esp)
c0001a97:	00 
c0001a98:	89 44 24 04          	mov    %eax,0x4(%esp)
c0001a9c:	c7 04 24 0d 00 00 00 	movl   $0xd,(%esp)
c0001aa3:	e8 22 fd ff ff       	call   c00017ca <set_IDT_gate>
c0001aa8:	b8 0a 01 00 c0       	mov    $0xc000010a,%eax
c0001aad:	c7 44 24 0c 8f 00 00 	movl   $0x8f,0xc(%esp)
c0001ab4:	00 
c0001ab5:	c7 44 24 08 08 00 00 	movl   $0x8,0x8(%esp)
c0001abc:	00 
c0001abd:	89 44 24 04          	mov    %eax,0x4(%esp)
c0001ac1:	c7 04 24 0e 00 00 00 	movl   $0xe,(%esp)
c0001ac8:	e8 fd fc ff ff       	call   c00017ca <set_IDT_gate>
c0001acd:	b8 0e 01 00 c0       	mov    $0xc000010e,%eax
c0001ad2:	c7 44 24 0c 8f 00 00 	movl   $0x8f,0xc(%esp)
c0001ad9:	00 
c0001ada:	c7 44 24 08 08 00 00 	movl   $0x8,0x8(%esp)
c0001ae1:	00 
c0001ae2:	89 44 24 04          	mov    %eax,0x4(%esp)
c0001ae6:	c7 04 24 0f 00 00 00 	movl   $0xf,(%esp)
c0001aed:	e8 d8 fc ff ff       	call   c00017ca <set_IDT_gate>
c0001af2:	c7 45 f4 20 00 00 00 	movl   $0x20,-0xc(%ebp)
c0001af9:	eb 2b                	jmp    c0001b26 <initialize_IDT+0x2c4>
c0001afb:	ba 50 10 00 c0       	mov    $0xc0001050,%edx
c0001b00:	8b 45 f4             	mov    -0xc(%ebp),%eax
c0001b03:	0f b6 c0             	movzbl %al,%eax
c0001b06:	c7 44 24 0c 8e 00 00 	movl   $0x8e,0xc(%esp)
c0001b0d:	00 
c0001b0e:	c7 44 24 08 08 00 00 	movl   $0x8,0x8(%esp)
c0001b15:	00 
c0001b16:	89 54 24 04          	mov    %edx,0x4(%esp)
c0001b1a:	89 04 24             	mov    %eax,(%esp)
c0001b1d:	e8 a8 fc ff ff       	call   c00017ca <set_IDT_gate>
c0001b22:	83 45 f4 01          	addl   $0x1,-0xc(%ebp)
c0001b26:	81 7d f4 ff 00 00 00 	cmpl   $0xff,-0xc(%ebp)
c0001b2d:	76 cc                	jbe    c0001afb <initialize_IDT+0x299>
c0001b2f:	b8 10 10 00 c0       	mov    $0xc0001010,%eax
c0001b34:	c7 44 24 0c 8e 00 00 	movl   $0x8e,0xc(%esp)
c0001b3b:	00 
c0001b3c:	c7 44 24 08 08 00 00 	movl   $0x8,0x8(%esp)
c0001b43:	00 
c0001b44:	89 44 24 04          	mov    %eax,0x4(%esp)
c0001b48:	c7 04 24 20 00 00 00 	movl   $0x20,(%esp)
c0001b4f:	e8 76 fc ff ff       	call   c00017ca <set_IDT_gate>
c0001b54:	b8 14 10 00 c0       	mov    $0xc0001014,%eax
c0001b59:	c7 44 24 0c 8e 00 00 	movl   $0x8e,0xc(%esp)
c0001b60:	00 
c0001b61:	c7 44 24 08 08 00 00 	movl   $0x8,0x8(%esp)
c0001b68:	00 
c0001b69:	89 44 24 04          	mov    %eax,0x4(%esp)
c0001b6d:	c7 04 24 21 00 00 00 	movl   $0x21,(%esp)
c0001b74:	e8 51 fc ff ff       	call   c00017ca <set_IDT_gate>
c0001b79:	b8 18 10 00 c0       	mov    $0xc0001018,%eax
c0001b7e:	c7 44 24 0c 8e 00 00 	movl   $0x8e,0xc(%esp)
c0001b85:	00 
c0001b86:	c7 44 24 08 08 00 00 	movl   $0x8,0x8(%esp)
c0001b8d:	00 
c0001b8e:	89 44 24 04          	mov    %eax,0x4(%esp)
c0001b92:	c7 04 24 22 00 00 00 	movl   $0x22,(%esp)
c0001b99:	e8 2c fc ff ff       	call   c00017ca <set_IDT_gate>
c0001b9e:	b8 1c 10 00 c0       	mov    $0xc000101c,%eax
c0001ba3:	c7 44 24 0c 8e 00 00 	movl   $0x8e,0xc(%esp)
c0001baa:	00 
c0001bab:	c7 44 24 08 08 00 00 	movl   $0x8,0x8(%esp)
c0001bb2:	00 
c0001bb3:	89 44 24 04          	mov    %eax,0x4(%esp)
c0001bb7:	c7 04 24 23 00 00 00 	movl   $0x23,(%esp)
c0001bbe:	e8 07 fc ff ff       	call   c00017ca <set_IDT_gate>
c0001bc3:	b8 20 10 00 c0       	mov    $0xc0001020,%eax
c0001bc8:	c7 44 24 0c 8e 00 00 	movl   $0x8e,0xc(%esp)
c0001bcf:	00 
c0001bd0:	c7 44 24 08 08 00 00 	movl   $0x8,0x8(%esp)
c0001bd7:	00 
c0001bd8:	89 44 24 04          	mov    %eax,0x4(%esp)
c0001bdc:	c7 04 24 24 00 00 00 	movl   $0x24,(%esp)
c0001be3:	e8 e2 fb ff ff       	call   c00017ca <set_IDT_gate>
c0001be8:	b8 24 10 00 c0       	mov    $0xc0001024,%eax
c0001bed:	c7 44 24 0c 8e 00 00 	movl   $0x8e,0xc(%esp)
c0001bf4:	00 
c0001bf5:	c7 44 24 08 08 00 00 	movl   $0x8,0x8(%esp)
c0001bfc:	00 
c0001bfd:	89 44 24 04          	mov    %eax,0x4(%esp)
c0001c01:	c7 04 24 25 00 00 00 	movl   $0x25,(%esp)
c0001c08:	e8 bd fb ff ff       	call   c00017ca <set_IDT_gate>
c0001c0d:	b8 28 10 00 c0       	mov    $0xc0001028,%eax
c0001c12:	c7 44 24 0c 8e 00 00 	movl   $0x8e,0xc(%esp)
c0001c19:	00 
c0001c1a:	c7 44 24 08 08 00 00 	movl   $0x8,0x8(%esp)
c0001c21:	00 
c0001c22:	89 44 24 04          	mov    %eax,0x4(%esp)
c0001c26:	c7 04 24 26 00 00 00 	movl   $0x26,(%esp)
c0001c2d:	e8 98 fb ff ff       	call   c00017ca <set_IDT_gate>
c0001c32:	b8 2c 10 00 c0       	mov    $0xc000102c,%eax
c0001c37:	c7 44 24 0c 8e 00 00 	movl   $0x8e,0xc(%esp)
c0001c3e:	00 
c0001c3f:	c7 44 24 08 08 00 00 	movl   $0x8,0x8(%esp)
c0001c46:	00 
c0001c47:	89 44 24 04          	mov    %eax,0x4(%esp)
c0001c4b:	c7 04 24 27 00 00 00 	movl   $0x27,(%esp)
c0001c52:	e8 73 fb ff ff       	call   c00017ca <set_IDT_gate>
c0001c57:	b8 30 10 00 c0       	mov    $0xc0001030,%eax
c0001c5c:	c7 44 24 0c 8e 00 00 	movl   $0x8e,0xc(%esp)
c0001c63:	00 
c0001c64:	c7 44 24 08 08 00 00 	movl   $0x8,0x8(%esp)
c0001c6b:	00 
c0001c6c:	89 44 24 04          	mov    %eax,0x4(%esp)
c0001c70:	c7 04 24 28 00 00 00 	movl   $0x28,(%esp)
c0001c77:	e8 4e fb ff ff       	call   c00017ca <set_IDT_gate>
c0001c7c:	b8 34 10 00 c0       	mov    $0xc0001034,%eax
c0001c81:	c7 44 24 0c 8e 00 00 	movl   $0x8e,0xc(%esp)
c0001c88:	00 
c0001c89:	c7 44 24 08 08 00 00 	movl   $0x8,0x8(%esp)
c0001c90:	00 
c0001c91:	89 44 24 04          	mov    %eax,0x4(%esp)
c0001c95:	c7 04 24 29 00 00 00 	movl   $0x29,(%esp)
c0001c9c:	e8 29 fb ff ff       	call   c00017ca <set_IDT_gate>
c0001ca1:	b8 38 10 00 c0       	mov    $0xc0001038,%eax
c0001ca6:	c7 44 24 0c 8e 00 00 	movl   $0x8e,0xc(%esp)
c0001cad:	00 
c0001cae:	c7 44 24 08 08 00 00 	movl   $0x8,0x8(%esp)
c0001cb5:	00 
c0001cb6:	89 44 24 04          	mov    %eax,0x4(%esp)
c0001cba:	c7 04 24 2a 00 00 00 	movl   $0x2a,(%esp)
c0001cc1:	e8 04 fb ff ff       	call   c00017ca <set_IDT_gate>
c0001cc6:	b8 3c 10 00 c0       	mov    $0xc000103c,%eax
c0001ccb:	c7 44 24 0c 8e 00 00 	movl   $0x8e,0xc(%esp)
c0001cd2:	00 
c0001cd3:	c7 44 24 08 08 00 00 	movl   $0x8,0x8(%esp)
c0001cda:	00 
c0001cdb:	89 44 24 04          	mov    %eax,0x4(%esp)
c0001cdf:	c7 04 24 2b 00 00 00 	movl   $0x2b,(%esp)
c0001ce6:	e8 df fa ff ff       	call   c00017ca <set_IDT_gate>
c0001ceb:	b8 40 10 00 c0       	mov    $0xc0001040,%eax
c0001cf0:	c7 44 24 0c 8e 00 00 	movl   $0x8e,0xc(%esp)
c0001cf7:	00 
c0001cf8:	c7 44 24 08 08 00 00 	movl   $0x8,0x8(%esp)
c0001cff:	00 
c0001d00:	89 44 24 04          	mov    %eax,0x4(%esp)
c0001d04:	c7 04 24 2c 00 00 00 	movl   $0x2c,(%esp)
c0001d0b:	e8 ba fa ff ff       	call   c00017ca <set_IDT_gate>
c0001d10:	b8 44 10 00 c0       	mov    $0xc0001044,%eax
c0001d15:	c7 44 24 0c 8e 00 00 	movl   $0x8e,0xc(%esp)
c0001d1c:	00 
c0001d1d:	c7 44 24 08 08 00 00 	movl   $0x8,0x8(%esp)
c0001d24:	00 
c0001d25:	89 44 24 04          	mov    %eax,0x4(%esp)
c0001d29:	c7 04 24 2d 00 00 00 	movl   $0x2d,(%esp)
c0001d30:	e8 95 fa ff ff       	call   c00017ca <set_IDT_gate>
c0001d35:	b8 48 10 00 c0       	mov    $0xc0001048,%eax
c0001d3a:	c7 44 24 0c 8e 00 00 	movl   $0x8e,0xc(%esp)
c0001d41:	00 
c0001d42:	c7 44 24 08 08 00 00 	movl   $0x8,0x8(%esp)
c0001d49:	00 
c0001d4a:	89 44 24 04          	mov    %eax,0x4(%esp)
c0001d4e:	c7 04 24 2e 00 00 00 	movl   $0x2e,(%esp)
c0001d55:	e8 70 fa ff ff       	call   c00017ca <set_IDT_gate>
c0001d5a:	b8 4c 10 00 c0       	mov    $0xc000104c,%eax
c0001d5f:	c7 44 24 0c 8e 00 00 	movl   $0x8e,0xc(%esp)
c0001d66:	00 
c0001d67:	c7 44 24 08 08 00 00 	movl   $0x8,0x8(%esp)
c0001d6e:	00 
c0001d6f:	89 44 24 04          	mov    %eax,0x4(%esp)
c0001d73:	c7 04 24 2f 00 00 00 	movl   $0x2f,(%esp)
c0001d7a:	e8 4b fa ff ff       	call   c00017ca <set_IDT_gate>
c0001d7f:	66 c7 05 80 b5 01 c0 	movw   $0x7ff,0xc001b580
c0001d86:	ff 07 
c0001d88:	b8 82 b5 01 c0       	mov    $0xc001b582,%eax
c0001d8d:	ba a0 b5 01 c0       	mov    $0xc001b5a0,%edx
c0001d92:	89 10                	mov    %edx,(%eax)
c0001d94:	b8 80 b5 01 c0       	mov    $0xc001b580,%eax
c0001d99:	0f 01 18             	lidtl  (%eax)
c0001d9c:	c7 44 24 04 3b 18 00 	movl   $0xc000183b,0x4(%esp)
c0001da3:	c0 
c0001da4:	c7 04 24 07 00 00 00 	movl   $0x7,(%esp)
c0001dab:	e8 6c 02 00 00       	call   c000201c <register_interrupt_handler>
c0001db0:	c7 44 24 04 3b 18 00 	movl   $0xc000183b,0x4(%esp)
c0001db7:	c0 
c0001db8:	c7 04 24 0f 00 00 00 	movl   $0xf,(%esp)
c0001dbf:	e8 58 02 00 00       	call   c000201c <register_interrupt_handler>
c0001dc4:	fb                   	sti    
c0001dc5:	c9                   	leave  
c0001dc6:	c3                   	ret    

c0001dc7 <inport08>:
inport08():
c0001dc7:	55                   	push   %ebp
c0001dc8:	89 e5                	mov    %esp,%ebp
c0001dca:	83 ec 14             	sub    $0x14,%esp
c0001dcd:	8b 45 08             	mov    0x8(%ebp),%eax
c0001dd0:	66 89 45 ec          	mov    %ax,-0x14(%ebp)
c0001dd4:	0f b7 45 ec          	movzwl -0x14(%ebp),%eax
c0001dd8:	89 c2                	mov    %eax,%edx
c0001dda:	ec                   	in     (%dx),%al
c0001ddb:	88 45 ff             	mov    %al,-0x1(%ebp)
c0001dde:	0f b6 45 ff          	movzbl -0x1(%ebp),%eax
c0001de2:	c9                   	leave  
c0001de3:	c3                   	ret    

c0001de4 <outport08>:
outport08():
c0001de4:	55                   	push   %ebp
c0001de5:	89 e5                	mov    %esp,%ebp
c0001de7:	83 ec 08             	sub    $0x8,%esp
c0001dea:	8b 55 08             	mov    0x8(%ebp),%edx
c0001ded:	8b 45 0c             	mov    0xc(%ebp),%eax
c0001df0:	66 89 55 fc          	mov    %dx,-0x4(%ebp)
c0001df4:	88 45 f8             	mov    %al,-0x8(%ebp)
c0001df7:	0f b7 55 fc          	movzwl -0x4(%ebp),%edx
c0001dfb:	0f b6 45 f8          	movzbl -0x8(%ebp),%eax
c0001dff:	ee                   	out    %al,(%dx)
c0001e00:	c9                   	leave  
c0001e01:	c3                   	ret    

c0001e02 <interrupt_handler_middle>:
interrupt_handler_middle():
c0001e02:	55                   	push   %ebp
c0001e03:	89 e5                	mov    %esp,%ebp
c0001e05:	83 ec 28             	sub    $0x28,%esp
c0001e08:	8b 45 08             	mov    0x8(%ebp),%eax
c0001e0b:	8b 40 30             	mov    0x30(%eax),%eax
c0001e0e:	83 f8 06             	cmp    $0x6,%eax
c0001e11:	76 14                	jbe    c0001e27 <interrupt_handler_middle+0x25>
c0001e13:	c7 44 24 04 20 00 00 	movl   $0x20,0x4(%esp)
c0001e1a:	00 
c0001e1b:	c7 04 24 a0 00 00 00 	movl   $0xa0,(%esp)
c0001e22:	e8 bd ff ff ff       	call   c0001de4 <outport08>
c0001e27:	c7 44 24 04 20 00 00 	movl   $0x20,0x4(%esp)
c0001e2e:	00 
c0001e2f:	c7 04 24 20 00 00 00 	movl   $0x20,(%esp)
c0001e36:	e8 a9 ff ff ff       	call   c0001de4 <outport08>
c0001e3b:	8b 45 08             	mov    0x8(%ebp),%eax
c0001e3e:	8b 40 30             	mov    0x30(%eax),%eax
c0001e41:	8b 04 85 20 b1 01 c0 	mov    -0x3ffe4ee0(,%eax,4),%eax
c0001e48:	85 c0                	test   %eax,%eax
c0001e4a:	74 1d                	je     c0001e69 <interrupt_handler_middle+0x67>
c0001e4c:	8b 45 08             	mov    0x8(%ebp),%eax
c0001e4f:	8b 40 30             	mov    0x30(%eax),%eax
c0001e52:	8b 04 85 20 b1 01 c0 	mov    -0x3ffe4ee0(,%eax,4),%eax
c0001e59:	89 45 f4             	mov    %eax,-0xc(%ebp)
c0001e5c:	8b 45 08             	mov    0x8(%ebp),%eax
c0001e5f:	89 04 24             	mov    %eax,(%esp)
c0001e62:	8b 45 f4             	mov    -0xc(%ebp),%eax
c0001e65:	ff d0                	call   *%eax
c0001e67:	eb 3d                	jmp    c0001ea6 <interrupt_handler_middle+0xa4>
c0001e69:	8b 45 08             	mov    0x8(%ebp),%eax
c0001e6c:	8b 40 30             	mov    0x30(%eax),%eax
c0001e6f:	89 44 24 04          	mov    %eax,0x4(%esp)
c0001e73:	c7 04 24 50 82 00 c0 	movl   $0xc0008250,(%esp)
c0001e7a:	e8 20 f4 ff ff       	call   c000129f <kprintf>
c0001e7f:	c7 44 24 0c 22 00 00 	movl   $0x22,0xc(%esp)
c0001e86:	00 
c0001e87:	c7 44 24 08 6c 82 00 	movl   $0xc000826c,0x8(%esp)
c0001e8e:	c0 
c0001e8f:	c7 44 24 04 87 82 00 	movl   $0xc0008287,0x4(%esp)
c0001e96:	c0 
c0001e97:	c7 04 24 9c 82 00 c0 	movl   $0xc000829c,(%esp)
c0001e9e:	e8 fc f3 ff ff       	call   c000129f <kprintf>
c0001ea3:	fa                   	cli    
c0001ea4:	eb fe                	jmp    c0001ea4 <interrupt_handler_middle+0xa2>
c0001ea6:	c9                   	leave  
c0001ea7:	c3                   	ret    

c0001ea8 <disable_IRQ>:
disable_IRQ():
c0001ea8:	55                   	push   %ebp
c0001ea9:	89 e5                	mov    %esp,%ebp
c0001eab:	83 ec 0c             	sub    $0xc,%esp
c0001eae:	8b 45 08             	mov    0x8(%ebp),%eax
c0001eb1:	88 45 fc             	mov    %al,-0x4(%ebp)
c0001eb4:	80 7d fc 10          	cmpb   $0x10,-0x4(%ebp)
c0001eb8:	76 05                	jbe    c0001ebf <disable_IRQ+0x17>
c0001eba:	e9 9f 00 00 00       	jmp    c0001f5e <disable_IRQ+0xb6>
c0001ebf:	80 7d fc 07          	cmpb   $0x7,-0x4(%ebp)
c0001ec3:	77 4c                	ja     c0001f11 <disable_IRQ+0x69>
c0001ec5:	c7 04 24 21 00 00 00 	movl   $0x21,(%esp)
c0001ecc:	e8 f6 fe ff ff       	call   c0001dc7 <inport08>
c0001ed1:	a2 20 b5 01 c0       	mov    %al,0xc001b520
c0001ed6:	0f b6 45 fc          	movzbl -0x4(%ebp),%eax
c0001eda:	ba 01 00 00 00       	mov    $0x1,%edx
c0001edf:	89 c1                	mov    %eax,%ecx
c0001ee1:	d3 e2                	shl    %cl,%edx
c0001ee3:	89 d0                	mov    %edx,%eax
c0001ee5:	89 c2                	mov    %eax,%edx
c0001ee7:	0f b6 05 20 b5 01 c0 	movzbl 0xc001b520,%eax
c0001eee:	09 d0                	or     %edx,%eax
c0001ef0:	a2 20 b5 01 c0       	mov    %al,0xc001b520
c0001ef5:	0f b6 05 20 b5 01 c0 	movzbl 0xc001b520,%eax
c0001efc:	0f b6 c0             	movzbl %al,%eax
c0001eff:	89 44 24 04          	mov    %eax,0x4(%esp)
c0001f03:	c7 04 24 21 00 00 00 	movl   $0x21,(%esp)
c0001f0a:	e8 d5 fe ff ff       	call   c0001de4 <outport08>
c0001f0f:	eb 4d                	jmp    c0001f5e <disable_IRQ+0xb6>
c0001f11:	c7 04 24 a1 00 00 00 	movl   $0xa1,(%esp)
c0001f18:	e8 aa fe ff ff       	call   c0001dc7 <inport08>
c0001f1d:	a2 20 b5 01 c0       	mov    %al,0xc001b520
c0001f22:	0f b6 45 fc          	movzbl -0x4(%ebp),%eax
c0001f26:	83 e8 08             	sub    $0x8,%eax
c0001f29:	ba 01 00 00 00       	mov    $0x1,%edx
c0001f2e:	89 c1                	mov    %eax,%ecx
c0001f30:	d3 e2                	shl    %cl,%edx
c0001f32:	89 d0                	mov    %edx,%eax
c0001f34:	89 c2                	mov    %eax,%edx
c0001f36:	0f b6 05 20 b5 01 c0 	movzbl 0xc001b520,%eax
c0001f3d:	09 d0                	or     %edx,%eax
c0001f3f:	a2 20 b5 01 c0       	mov    %al,0xc001b520
c0001f44:	0f b6 05 20 b5 01 c0 	movzbl 0xc001b520,%eax
c0001f4b:	0f b6 c0             	movzbl %al,%eax
c0001f4e:	89 44 24 04          	mov    %eax,0x4(%esp)
c0001f52:	c7 04 24 a1 00 00 00 	movl   $0xa1,(%esp)
c0001f59:	e8 86 fe ff ff       	call   c0001de4 <outport08>
c0001f5e:	c9                   	leave  
c0001f5f:	c3                   	ret    

c0001f60 <enable_IRQ>:
enable_IRQ():
c0001f60:	55                   	push   %ebp
c0001f61:	89 e5                	mov    %esp,%ebp
c0001f63:	83 ec 0c             	sub    $0xc,%esp
c0001f66:	8b 45 08             	mov    0x8(%ebp),%eax
c0001f69:	88 45 fc             	mov    %al,-0x4(%ebp)
c0001f6c:	80 7d fc 10          	cmpb   $0x10,-0x4(%ebp)
c0001f70:	76 05                	jbe    c0001f77 <enable_IRQ+0x17>
c0001f72:	e9 a3 00 00 00       	jmp    c000201a <enable_IRQ+0xba>
c0001f77:	80 7d fc 07          	cmpb   $0x7,-0x4(%ebp)
c0001f7b:	77 4e                	ja     c0001fcb <enable_IRQ+0x6b>
c0001f7d:	c7 04 24 21 00 00 00 	movl   $0x21,(%esp)
c0001f84:	e8 3e fe ff ff       	call   c0001dc7 <inport08>
c0001f89:	a2 21 b5 01 c0       	mov    %al,0xc001b521
c0001f8e:	0f b6 45 fc          	movzbl -0x4(%ebp),%eax
c0001f92:	ba 01 00 00 00       	mov    $0x1,%edx
c0001f97:	89 c1                	mov    %eax,%ecx
c0001f99:	d3 e2                	shl    %cl,%edx
c0001f9b:	89 d0                	mov    %edx,%eax
c0001f9d:	f7 d0                	not    %eax
c0001f9f:	89 c2                	mov    %eax,%edx
c0001fa1:	0f b6 05 21 b5 01 c0 	movzbl 0xc001b521,%eax
c0001fa8:	21 d0                	and    %edx,%eax
c0001faa:	a2 21 b5 01 c0       	mov    %al,0xc001b521
c0001faf:	0f b6 05 21 b5 01 c0 	movzbl 0xc001b521,%eax
c0001fb6:	0f b6 c0             	movzbl %al,%eax
c0001fb9:	89 44 24 04          	mov    %eax,0x4(%esp)
c0001fbd:	c7 04 24 21 00 00 00 	movl   $0x21,(%esp)
c0001fc4:	e8 1b fe ff ff       	call   c0001de4 <outport08>
c0001fc9:	eb 4f                	jmp    c000201a <enable_IRQ+0xba>
c0001fcb:	c7 04 24 a1 00 00 00 	movl   $0xa1,(%esp)
c0001fd2:	e8 f0 fd ff ff       	call   c0001dc7 <inport08>
c0001fd7:	a2 21 b5 01 c0       	mov    %al,0xc001b521
c0001fdc:	0f b6 45 fc          	movzbl -0x4(%ebp),%eax
c0001fe0:	83 e8 08             	sub    $0x8,%eax
c0001fe3:	ba 01 00 00 00       	mov    $0x1,%edx
c0001fe8:	89 c1                	mov    %eax,%ecx
c0001fea:	d3 e2                	shl    %cl,%edx
c0001fec:	89 d0                	mov    %edx,%eax
c0001fee:	f7 d0                	not    %eax
c0001ff0:	89 c2                	mov    %eax,%edx
c0001ff2:	0f b6 05 21 b5 01 c0 	movzbl 0xc001b521,%eax
c0001ff9:	21 d0                	and    %edx,%eax
c0001ffb:	a2 21 b5 01 c0       	mov    %al,0xc001b521
c0002000:	0f b6 05 21 b5 01 c0 	movzbl 0xc001b521,%eax
c0002007:	0f b6 c0             	movzbl %al,%eax
c000200a:	89 44 24 04          	mov    %eax,0x4(%esp)
c000200e:	c7 04 24 a1 00 00 00 	movl   $0xa1,(%esp)
c0002015:	e8 ca fd ff ff       	call   c0001de4 <outport08>
c000201a:	c9                   	leave  
c000201b:	c3                   	ret    

c000201c <register_interrupt_handler>:
register_interrupt_handler():
c000201c:	55                   	push   %ebp
c000201d:	89 e5                	mov    %esp,%ebp
c000201f:	83 ec 38             	sub    $0x38,%esp
c0002022:	8b 45 08             	mov    0x8(%ebp),%eax
c0002025:	88 45 e4             	mov    %al,-0x1c(%ebp)
c0002028:	80 7d e4 10          	cmpb   $0x10,-0x1c(%ebp)
c000202c:	76 02                	jbe    c0002030 <register_interrupt_handler+0x14>
c000202e:	eb 5a                	jmp    c000208a <register_interrupt_handler+0x6e>
c0002030:	0f b6 45 e4          	movzbl -0x1c(%ebp),%eax
c0002034:	8b 04 85 20 b1 01 c0 	mov    -0x3ffe4ee0(,%eax,4),%eax
c000203b:	85 c0                	test   %eax,%eax
c000203d:	74 27                	je     c0002066 <register_interrupt_handler+0x4a>
c000203f:	c7 44 24 0c 5c 00 00 	movl   $0x5c,0xc(%esp)
c0002046:	00 
c0002047:	c7 44 24 08 6c 82 00 	movl   $0xc000826c,0x8(%esp)
c000204e:	c0 
c000204f:	c7 44 24 04 c4 82 00 	movl   $0xc00082c4,0x4(%esp)
c0002056:	c0 
c0002057:	c7 04 24 9c 82 00 c0 	movl   $0xc000829c,(%esp)
c000205e:	e8 3c f2 ff ff       	call   c000129f <kprintf>
c0002063:	fa                   	cli    
c0002064:	eb fe                	jmp    c0002064 <register_interrupt_handler+0x48>
c0002066:	9c                   	pushf  
c0002067:	58                   	pop    %eax
c0002068:	fa                   	cli    
c0002069:	89 45 f4             	mov    %eax,-0xc(%ebp)
c000206c:	0f b6 45 e4          	movzbl -0x1c(%ebp),%eax
c0002070:	8b 55 0c             	mov    0xc(%ebp),%edx
c0002073:	89 14 85 20 b1 01 c0 	mov    %edx,-0x3ffe4ee0(,%eax,4)
c000207a:	0f b6 45 e4          	movzbl -0x1c(%ebp),%eax
c000207e:	89 04 24             	mov    %eax,(%esp)
c0002081:	e8 da fe ff ff       	call   c0001f60 <enable_IRQ>
c0002086:	ff 75 f4             	pushl  -0xc(%ebp)
c0002089:	9d                   	popf   
c000208a:	c9                   	leave  
c000208b:	c3                   	ret    

c000208c <unregister_interrupt_handler>:
unregister_interrupt_handler():
c000208c:	55                   	push   %ebp
c000208d:	89 e5                	mov    %esp,%ebp
c000208f:	83 ec 18             	sub    $0x18,%esp
c0002092:	8b 45 08             	mov    0x8(%ebp),%eax
c0002095:	88 45 ec             	mov    %al,-0x14(%ebp)
c0002098:	80 7d ec 10          	cmpb   $0x10,-0x14(%ebp)
c000209c:	76 02                	jbe    c00020a0 <unregister_interrupt_handler+0x14>
c000209e:	eb 25                	jmp    c00020c5 <unregister_interrupt_handler+0x39>
c00020a0:	9c                   	pushf  
c00020a1:	58                   	pop    %eax
c00020a2:	fa                   	cli    
c00020a3:	89 45 fc             	mov    %eax,-0x4(%ebp)
c00020a6:	0f b6 45 ec          	movzbl -0x14(%ebp),%eax
c00020aa:	c7 04 85 20 b1 01 c0 	movl   $0x0,-0x3ffe4ee0(,%eax,4)
c00020b1:	00 00 00 00 
c00020b5:	0f b6 45 ec          	movzbl -0x14(%ebp),%eax
c00020b9:	89 04 24             	mov    %eax,(%esp)
c00020bc:	e8 e7 fd ff ff       	call   c0001ea8 <disable_IRQ>
c00020c1:	ff 75 fc             	pushl  -0x4(%ebp)
c00020c4:	9d                   	popf   
c00020c5:	c9                   	leave  
c00020c6:	c3                   	ret    

c00020c7 <outport08>:
outport08():
c00020c7:	55                   	push   %ebp
c00020c8:	89 e5                	mov    %esp,%ebp
c00020ca:	83 ec 08             	sub    $0x8,%esp
c00020cd:	8b 55 08             	mov    0x8(%ebp),%edx
c00020d0:	8b 45 0c             	mov    0xc(%ebp),%eax
c00020d3:	66 89 55 fc          	mov    %dx,-0x4(%ebp)
c00020d7:	88 45 f8             	mov    %al,-0x8(%ebp)
c00020da:	0f b7 55 fc          	movzwl -0x4(%ebp),%edx
c00020de:	0f b6 45 f8          	movzbl -0x8(%ebp),%eax
c00020e2:	ee                   	out    %al,(%dx)
c00020e3:	c9                   	leave  
c00020e4:	c3                   	ret    

c00020e5 <error>:
error():
c00020e5:	55                   	push   %ebp
c00020e6:	89 e5                	mov    %esp,%ebp
c00020e8:	53                   	push   %ebx
c00020e9:	83 ec 14             	sub    $0x14,%esp
c00020ec:	fa                   	cli    
c00020ed:	c7 04 24 0c 00 00 00 	movl   $0xc,(%esp)
c00020f4:	e8 84 f1 ff ff       	call   c000127d <kset_color>
c00020f9:	8b 45 08             	mov    0x8(%ebp),%eax
c00020fc:	89 44 24 04          	mov    %eax,0x4(%esp)
c0002100:	c7 04 24 f9 82 00 c0 	movl   $0xc00082f9,(%esp)
c0002107:	e8 93 f1 ff ff       	call   c000129f <kprintf>
c000210c:	c7 04 24 07 00 00 00 	movl   $0x7,(%esp)
c0002113:	e8 65 f1 ff ff       	call   c000127d <kset_color>
c0002118:	e8 52 1e 00 00       	call   c0003f6f <get_pid>
c000211d:	89 c3                	mov    %eax,%ebx
c000211f:	e8 4b 2b 00 00       	call   c0004c6f <get_pname>
c0002124:	89 5c 24 08          	mov    %ebx,0x8(%esp)
c0002128:	89 44 24 04          	mov    %eax,0x4(%esp)
c000212c:	c7 04 24 05 83 00 c0 	movl   $0xc0008305,(%esp)
c0002133:	e8 67 f1 ff ff       	call   c000129f <kprintf>
c0002138:	e8 b4 2b 00 00       	call   c0004cf1 <sched_leave_critical_region>
c000213d:	e8 2d 1e 00 00       	call   c0003f6f <get_pid>
c0002142:	85 c0                	test   %eax,%eax
c0002144:	74 07                	je     c000214d <error+0x68>
c0002146:	e8 43 2b 00 00       	call   c0004c8e <auto_kill>
c000214b:	eb 05                	jmp    c0002152 <error+0x6d>
c000214d:	e8 86 00 00 00       	call   c00021d8 <halt>
c0002152:	83 c4 14             	add    $0x14,%esp
c0002155:	5b                   	pop    %ebx
c0002156:	5d                   	pop    %ebp
c0002157:	c3                   	ret    

c0002158 <reboot>:
reboot():
c0002158:	55                   	push   %ebp
c0002159:	89 e5                	mov    %esp,%ebp
c000215b:	83 ec 18             	sub    $0x18,%esp
c000215e:	fa                   	cli    
c000215f:	c7 04 24 07 00 00 00 	movl   $0x7,(%esp)
c0002166:	e8 12 f1 ff ff       	call   c000127d <kset_color>
c000216b:	c7 04 24 1e 83 00 c0 	movl   $0xc000831e,(%esp)
c0002172:	e8 28 f1 ff ff       	call   c000129f <kprintf>
c0002177:	c7 04 24 21 83 00 c0 	movl   $0xc0008321,(%esp)
c000217e:	e8 1c f1 ff ff       	call   c000129f <kprintf>
c0002183:	e8 ea ef ff ff       	call   c0001172 <stop_clock>
c0002188:	c7 04 24 02 00 00 00 	movl   $0x2,(%esp)
c000218f:	e8 e9 f0 ff ff       	call   c000127d <kset_color>
c0002194:	c7 04 24 37 83 00 c0 	movl   $0xc0008337,(%esp)
c000219b:	e8 ff f0 ff ff       	call   c000129f <kprintf>
c00021a0:	c7 04 24 07 00 00 00 	movl   $0x7,(%esp)
c00021a7:	e8 d1 f0 ff ff       	call   c000127d <kset_color>
c00021ac:	c7 04 24 46 83 00 c0 	movl   $0xc0008346,(%esp)
c00021b3:	e8 e7 f0 ff ff       	call   c000129f <kprintf>
c00021b8:	e8 2f 37 00 00       	call   c00058ec <keyboard_wait_controller>
c00021bd:	c7 44 24 04 fe 00 00 	movl   $0xfe,0x4(%esp)
c00021c4:	00 
c00021c5:	c7 04 24 64 00 00 00 	movl   $0x64,(%esp)
c00021cc:	e8 f6 fe ff ff       	call   c00020c7 <outport08>
c00021d1:	e8 02 00 00 00       	call   c00021d8 <halt>
c00021d6:	c9                   	leave  
c00021d7:	c3                   	ret    

c00021d8 <halt>:
halt():
c00021d8:	55                   	push   %ebp
c00021d9:	89 e5                	mov    %esp,%ebp
c00021db:	fa                   	cli    
c00021dc:	f4                   	hlt    
c00021dd:	5d                   	pop    %ebp
c00021de:	c3                   	ret    

c00021df <mem_sizeof>:
mem_sizeof():
c00021df:	55                   	push   %ebp
c00021e0:	89 e5                	mov    %esp,%ebp
c00021e2:	83 ec 10             	sub    $0x10,%esp
c00021e5:	8b 45 08             	mov    0x8(%ebp),%eax
c00021e8:	83 e8 10             	sub    $0x10,%eax
c00021eb:	89 45 f8             	mov    %eax,-0x8(%ebp)
c00021ee:	9c                   	pushf  
c00021ef:	58                   	pop    %eax
c00021f0:	fa                   	cli    
c00021f1:	89 45 f4             	mov    %eax,-0xc(%ebp)
c00021f4:	8b 45 f8             	mov    -0x8(%ebp),%eax
c00021f7:	8b 00                	mov    (%eax),%eax
c00021f9:	3d ef be ad de       	cmp    $0xdeadbeef,%eax
c00021fe:	75 16                	jne    c0002216 <mem_sizeof+0x37>
c0002200:	8b 45 f8             	mov    -0x8(%ebp),%eax
c0002203:	8b 40 04             	mov    0x4(%eax),%eax
c0002206:	83 f8 01             	cmp    $0x1,%eax
c0002209:	75 0b                	jne    c0002216 <mem_sizeof+0x37>
c000220b:	8b 45 f8             	mov    -0x8(%ebp),%eax
c000220e:	8b 40 08             	mov    0x8(%eax),%eax
c0002211:	89 45 fc             	mov    %eax,-0x4(%ebp)
c0002214:	eb 07                	jmp    c000221d <mem_sizeof+0x3e>
c0002216:	c7 45 fc 00 00 00 00 	movl   $0x0,-0x4(%ebp)
c000221d:	ff 75 f4             	pushl  -0xc(%ebp)
c0002220:	9d                   	popf   
c0002221:	8b 45 fc             	mov    -0x4(%ebp),%eax
c0002224:	c9                   	leave  
c0002225:	c3                   	ret    

c0002226 <kmalloc>:
kmalloc():
c0002226:	55                   	push   %ebp
c0002227:	89 e5                	mov    %esp,%ebp
c0002229:	83 ec 10             	sub    $0x10,%esp
c000222c:	c7 45 f8 00 00 00 00 	movl   $0x0,-0x8(%ebp)
c0002233:	83 7d 08 00          	cmpl   $0x0,0x8(%ebp)
c0002237:	75 0a                	jne    c0002243 <kmalloc+0x1d>
c0002239:	b8 00 00 00 00       	mov    $0x0,%eax
c000223e:	e9 fe 00 00 00       	jmp    c0002341 <kmalloc+0x11b>
c0002243:	8b 45 08             	mov    0x8(%ebp),%eax
c0002246:	83 e0 f0             	and    $0xfffffff0,%eax
c0002249:	83 c0 10             	add    $0x10,%eax
c000224c:	89 45 08             	mov    %eax,0x8(%ebp)
c000224f:	c7 45 fc 00 00 00 d0 	movl   $0xd0000000,-0x4(%ebp)
c0002256:	9c                   	pushf  
c0002257:	58                   	pop    %eax
c0002258:	fa                   	cli    
c0002259:	89 45 f4             	mov    %eax,-0xc(%ebp)
c000225c:	eb 29                	jmp    c0002287 <kmalloc+0x61>
c000225e:	8b 45 fc             	mov    -0x4(%ebp),%eax
c0002261:	8b 40 04             	mov    0x4(%eax),%eax
c0002264:	85 c0                	test   %eax,%eax
c0002266:	75 13                	jne    c000227b <kmalloc+0x55>
c0002268:	8b 45 fc             	mov    -0x4(%ebp),%eax
c000226b:	8b 40 08             	mov    0x8(%eax),%eax
c000226e:	3b 45 08             	cmp    0x8(%ebp),%eax
c0002271:	72 08                	jb     c000227b <kmalloc+0x55>
c0002273:	8b 45 fc             	mov    -0x4(%ebp),%eax
c0002276:	89 45 f8             	mov    %eax,-0x8(%ebp)
c0002279:	eb 15                	jmp    c0002290 <kmalloc+0x6a>
c000227b:	8b 45 fc             	mov    -0x4(%ebp),%eax
c000227e:	8b 40 08             	mov    0x8(%eax),%eax
c0002281:	83 c0 10             	add    $0x10,%eax
c0002284:	01 45 fc             	add    %eax,-0x4(%ebp)
c0002287:	81 7d fc ff ff ff df 	cmpl   $0xdfffffff,-0x4(%ebp)
c000228e:	76 ce                	jbe    c000225e <kmalloc+0x38>
c0002290:	83 7d f8 00          	cmpl   $0x0,-0x8(%ebp)
c0002294:	75 0e                	jne    c00022a4 <kmalloc+0x7e>
c0002296:	ff 75 f4             	pushl  -0xc(%ebp)
c0002299:	9d                   	popf   
c000229a:	b8 00 00 00 00       	mov    $0x0,%eax
c000229f:	e9 9d 00 00 00       	jmp    c0002341 <kmalloc+0x11b>
c00022a4:	8b 45 f8             	mov    -0x8(%ebp),%eax
c00022a7:	8b 40 08             	mov    0x8(%eax),%eax
c00022aa:	3b 45 08             	cmp    0x8(%ebp),%eax
c00022ad:	74 46                	je     c00022f5 <kmalloc+0xcf>
c00022af:	8b 45 08             	mov    0x8(%ebp),%eax
c00022b2:	8d 50 10             	lea    0x10(%eax),%edx
c00022b5:	8b 45 f8             	mov    -0x8(%ebp),%eax
c00022b8:	01 d0                	add    %edx,%eax
c00022ba:	89 45 fc             	mov    %eax,-0x4(%ebp)
c00022bd:	8b 45 fc             	mov    -0x4(%ebp),%eax
c00022c0:	c7 00 ef be ad de    	movl   $0xdeadbeef,(%eax)
c00022c6:	8b 45 fc             	mov    -0x4(%ebp),%eax
c00022c9:	c7 40 04 00 00 00 00 	movl   $0x0,0x4(%eax)
c00022d0:	8b 45 f8             	mov    -0x8(%ebp),%eax
c00022d3:	8b 40 08             	mov    0x8(%eax),%eax
c00022d6:	2b 45 08             	sub    0x8(%ebp),%eax
c00022d9:	8d 50 f0             	lea    -0x10(%eax),%edx
c00022dc:	8b 45 fc             	mov    -0x4(%ebp),%eax
c00022df:	89 50 08             	mov    %edx,0x8(%eax)
c00022e2:	8b 45 fc             	mov    -0x4(%ebp),%eax
c00022e5:	c7 40 0c 00 00 00 00 	movl   $0x0,0xc(%eax)
c00022ec:	8b 45 f8             	mov    -0x8(%ebp),%eax
c00022ef:	8b 55 08             	mov    0x8(%ebp),%edx
c00022f2:	89 50 08             	mov    %edx,0x8(%eax)
c00022f5:	8b 45 f8             	mov    -0x8(%ebp),%eax
c00022f8:	c7 00 ef be ad de    	movl   $0xdeadbeef,(%eax)
c00022fe:	8b 45 f8             	mov    -0x8(%ebp),%eax
c0002301:	c7 40 04 01 00 00 00 	movl   $0x1,0x4(%eax)
c0002308:	83 7d 0c 01          	cmpl   $0x1,0xc(%ebp)
c000230c:	75 1e                	jne    c000232c <kmalloc+0x106>
c000230e:	a1 30 b5 01 c0       	mov    0xc001b530,%eax
c0002313:	85 c0                	test   %eax,%eax
c0002315:	74 1f                	je     c0002336 <kmalloc+0x110>
c0002317:	a1 30 b5 01 c0       	mov    0xc001b530,%eax
c000231c:	8b 80 74 20 00 00    	mov    0x2074(%eax),%eax
c0002322:	89 c2                	mov    %eax,%edx
c0002324:	8b 45 f8             	mov    -0x8(%ebp),%eax
c0002327:	89 50 0c             	mov    %edx,0xc(%eax)
c000232a:	eb 0a                	jmp    c0002336 <kmalloc+0x110>
c000232c:	8b 45 f8             	mov    -0x8(%ebp),%eax
c000232f:	c7 40 0c 00 00 00 00 	movl   $0x0,0xc(%eax)
c0002336:	83 45 f8 10          	addl   $0x10,-0x8(%ebp)
c000233a:	ff 75 f4             	pushl  -0xc(%ebp)
c000233d:	9d                   	popf   
c000233e:	8b 45 f8             	mov    -0x8(%ebp),%eax
c0002341:	c9                   	leave  
c0002342:	c3                   	ret    

c0002343 <kmemalign>:
kmemalign():
c0002343:	55                   	push   %ebp
c0002344:	89 e5                	mov    %esp,%ebp
c0002346:	83 ec 28             	sub    $0x28,%esp
c0002349:	83 7d 0c 00          	cmpl   $0x0,0xc(%ebp)
c000234d:	75 0a                	jne    c0002359 <kmemalign+0x16>
c000234f:	b8 00 00 00 00       	mov    $0x0,%eax
c0002354:	e9 eb 00 00 00       	jmp    c0002444 <kmemalign+0x101>
c0002359:	8b 45 10             	mov    0x10(%ebp),%eax
c000235c:	8b 55 08             	mov    0x8(%ebp),%edx
c000235f:	8b 4d 0c             	mov    0xc(%ebp),%ecx
c0002362:	01 ca                	add    %ecx,%edx
c0002364:	83 c2 20             	add    $0x20,%edx
c0002367:	89 44 24 04          	mov    %eax,0x4(%esp)
c000236b:	89 14 24             	mov    %edx,(%esp)
c000236e:	e8 b3 fe ff ff       	call   c0002226 <kmalloc>
c0002373:	89 45 f4             	mov    %eax,-0xc(%ebp)
c0002376:	83 7d f4 00          	cmpl   $0x0,-0xc(%ebp)
c000237a:	75 0a                	jne    c0002386 <kmemalign+0x43>
c000237c:	b8 00 00 00 00       	mov    $0x0,%eax
c0002381:	e9 be 00 00 00       	jmp    c0002444 <kmemalign+0x101>
c0002386:	83 7d 08 00          	cmpl   $0x0,0x8(%ebp)
c000238a:	75 08                	jne    c0002394 <kmemalign+0x51>
c000238c:	8b 45 f4             	mov    -0xc(%ebp),%eax
c000238f:	e9 b0 00 00 00       	jmp    c0002444 <kmemalign+0x101>
c0002394:	8b 45 f4             	mov    -0xc(%ebp),%eax
c0002397:	ba 00 00 00 00       	mov    $0x0,%edx
c000239c:	f7 75 08             	divl   0x8(%ebp)
c000239f:	89 d0                	mov    %edx,%eax
c00023a1:	85 c0                	test   %eax,%eax
c00023a3:	0f 84 98 00 00 00    	je     c0002441 <kmemalign+0xfe>
c00023a9:	9c                   	pushf  
c00023aa:	58                   	pop    %eax
c00023ab:	fa                   	cli    
c00023ac:	89 45 f0             	mov    %eax,-0x10(%ebp)
c00023af:	8b 45 f4             	mov    -0xc(%ebp),%eax
c00023b2:	83 c0 20             	add    $0x20,%eax
c00023b5:	89 45 ec             	mov    %eax,-0x14(%ebp)
c00023b8:	8b 55 ec             	mov    -0x14(%ebp),%edx
c00023bb:	8b 45 08             	mov    0x8(%ebp),%eax
c00023be:	01 d0                	add    %edx,%eax
c00023c0:	8d 50 ff             	lea    -0x1(%eax),%edx
c00023c3:	8b 45 08             	mov    0x8(%ebp),%eax
c00023c6:	f7 d8                	neg    %eax
c00023c8:	21 d0                	and    %edx,%eax
c00023ca:	83 e8 10             	sub    $0x10,%eax
c00023cd:	89 45 ec             	mov    %eax,-0x14(%ebp)
c00023d0:	8b 45 ec             	mov    -0x14(%ebp),%eax
c00023d3:	c7 00 ef be ad de    	movl   $0xdeadbeef,(%eax)
c00023d9:	8b 45 f4             	mov    -0xc(%ebp),%eax
c00023dc:	83 e8 10             	sub    $0x10,%eax
c00023df:	8b 50 04             	mov    0x4(%eax),%edx
c00023e2:	8b 45 ec             	mov    -0x14(%ebp),%eax
c00023e5:	89 50 04             	mov    %edx,0x4(%eax)
c00023e8:	8b 45 f4             	mov    -0xc(%ebp),%eax
c00023eb:	83 e8 10             	sub    $0x10,%eax
c00023ee:	8b 50 0c             	mov    0xc(%eax),%edx
c00023f1:	8b 45 ec             	mov    -0x14(%ebp),%eax
c00023f4:	89 50 0c             	mov    %edx,0xc(%eax)
c00023f7:	8b 45 f4             	mov    -0xc(%ebp),%eax
c00023fa:	89 04 24             	mov    %eax,(%esp)
c00023fd:	e8 dd fd ff ff       	call   c00021df <mem_sizeof>
c0002402:	8b 4d f4             	mov    -0xc(%ebp),%ecx
c0002405:	8b 55 ec             	mov    -0x14(%ebp),%edx
c0002408:	83 c2 10             	add    $0x10,%edx
c000240b:	29 d1                	sub    %edx,%ecx
c000240d:	89 ca                	mov    %ecx,%edx
c000240f:	01 c2                	add    %eax,%edx
c0002411:	8b 45 ec             	mov    -0x14(%ebp),%eax
c0002414:	89 50 08             	mov    %edx,0x8(%eax)
c0002417:	8b 45 f4             	mov    -0xc(%ebp),%eax
c000241a:	83 e8 10             	sub    $0x10,%eax
c000241d:	8b 4d ec             	mov    -0x14(%ebp),%ecx
c0002420:	8b 55 f4             	mov    -0xc(%ebp),%edx
c0002423:	29 d1                	sub    %edx,%ecx
c0002425:	89 ca                	mov    %ecx,%edx
c0002427:	89 50 08             	mov    %edx,0x8(%eax)
c000242a:	ff 75 f0             	pushl  -0x10(%ebp)
c000242d:	9d                   	popf   
c000242e:	8b 45 f4             	mov    -0xc(%ebp),%eax
c0002431:	89 04 24             	mov    %eax,(%esp)
c0002434:	e8 80 00 00 00       	call   c00024b9 <kfree>
c0002439:	8b 45 ec             	mov    -0x14(%ebp),%eax
c000243c:	83 c0 10             	add    $0x10,%eax
c000243f:	eb 03                	jmp    c0002444 <kmemalign+0x101>
c0002441:	8b 45 f4             	mov    -0xc(%ebp),%eax
c0002444:	c9                   	leave  
c0002445:	c3                   	ret    

c0002446 <deallocate>:
deallocate():
c0002446:	55                   	push   %ebp
c0002447:	89 e5                	mov    %esp,%ebp
c0002449:	83 ec 28             	sub    $0x28,%esp
c000244c:	8b 45 08             	mov    0x8(%ebp),%eax
c000244f:	83 c0 10             	add    $0x10,%eax
c0002452:	05 ff 0f 00 00       	add    $0xfff,%eax
c0002457:	25 00 f0 ff ff       	and    $0xfffff000,%eax
c000245c:	89 45 f4             	mov    %eax,-0xc(%ebp)
c000245f:	8b 45 08             	mov    0x8(%ebp),%eax
c0002462:	8b 40 08             	mov    0x8(%eax),%eax
c0002465:	8d 50 10             	lea    0x10(%eax),%edx
c0002468:	8b 45 08             	mov    0x8(%ebp),%eax
c000246b:	01 d0                	add    %edx,%eax
c000246d:	25 00 f0 ff ff       	and    $0xfffff000,%eax
c0002472:	89 45 f0             	mov    %eax,-0x10(%ebp)
c0002475:	eb 38                	jmp    c00024af <deallocate+0x69>
c0002477:	8b 45 f4             	mov    -0xc(%ebp),%eax
c000247a:	c1 e8 16             	shr    $0x16,%eax
c000247d:	05 00 fc ff 3f       	add    $0x3ffffc00,%eax
c0002482:	c1 e0 02             	shl    $0x2,%eax
c0002485:	8b 00                	mov    (%eax),%eax
c0002487:	85 c0                	test   %eax,%eax
c0002489:	74 14                	je     c000249f <deallocate+0x59>
c000248b:	8b 45 f4             	mov    -0xc(%ebp),%eax
c000248e:	89 04 24             	mov    %eax,(%esp)
c0002491:	e8 fc 0a 00 00       	call   c0002f92 <delete_page>
c0002496:	81 45 f4 00 10 00 00 	addl   $0x1000,-0xc(%ebp)
c000249d:	eb 10                	jmp    c00024af <deallocate+0x69>
c000249f:	8b 45 f4             	mov    -0xc(%ebp),%eax
c00024a2:	25 00 00 c0 ff       	and    $0xffc00000,%eax
c00024a7:	05 00 00 40 00       	add    $0x400000,%eax
c00024ac:	89 45 f4             	mov    %eax,-0xc(%ebp)
c00024af:	8b 45 f4             	mov    -0xc(%ebp),%eax
c00024b2:	3b 45 f0             	cmp    -0x10(%ebp),%eax
c00024b5:	72 c0                	jb     c0002477 <deallocate+0x31>
c00024b7:	c9                   	leave  
c00024b8:	c3                   	ret    

c00024b9 <kfree>:
kfree():
c00024b9:	55                   	push   %ebp
c00024ba:	89 e5                	mov    %esp,%ebp
c00024bc:	83 ec 28             	sub    $0x28,%esp
c00024bf:	83 7d 08 00          	cmpl   $0x0,0x8(%ebp)
c00024c3:	75 05                	jne    c00024ca <kfree+0x11>
c00024c5:	e9 fc 00 00 00       	jmp    c00025c6 <kfree+0x10d>
c00024ca:	8b 45 08             	mov    0x8(%ebp),%eax
c00024cd:	83 e8 10             	sub    $0x10,%eax
c00024d0:	89 45 f4             	mov    %eax,-0xc(%ebp)
c00024d3:	8b 45 f4             	mov    -0xc(%ebp),%eax
c00024d6:	8b 00                	mov    (%eax),%eax
c00024d8:	3d ef be ad de       	cmp    $0xdeadbeef,%eax
c00024dd:	74 05                	je     c00024e4 <kfree+0x2b>
c00024df:	e9 e2 00 00 00       	jmp    c00025c6 <kfree+0x10d>
c00024e4:	8b 45 f4             	mov    -0xc(%ebp),%eax
c00024e7:	8b 40 04             	mov    0x4(%eax),%eax
c00024ea:	83 f8 01             	cmp    $0x1,%eax
c00024ed:	74 05                	je     c00024f4 <kfree+0x3b>
c00024ef:	e9 d2 00 00 00       	jmp    c00025c6 <kfree+0x10d>
c00024f4:	9c                   	pushf  
c00024f5:	58                   	pop    %eax
c00024f6:	fa                   	cli    
c00024f7:	89 45 ec             	mov    %eax,-0x14(%ebp)
c00024fa:	8b 45 f4             	mov    -0xc(%ebp),%eax
c00024fd:	c7 40 04 00 00 00 00 	movl   $0x0,0x4(%eax)
c0002504:	8b 45 f4             	mov    -0xc(%ebp),%eax
c0002507:	c7 40 0c 00 00 00 00 	movl   $0x0,0xc(%eax)
c000250e:	8b 45 f4             	mov    -0xc(%ebp),%eax
c0002511:	8b 40 08             	mov    0x8(%eax),%eax
c0002514:	8d 50 10             	lea    0x10(%eax),%edx
c0002517:	8b 45 f4             	mov    -0xc(%ebp),%eax
c000251a:	01 d0                	add    %edx,%eax
c000251c:	89 45 f0             	mov    %eax,-0x10(%ebp)
c000251f:	81 7d f0 ff ff ff df 	cmpl   $0xdfffffff,-0x10(%ebp)
c0002526:	77 2a                	ja     c0002552 <kfree+0x99>
c0002528:	8b 45 f0             	mov    -0x10(%ebp),%eax
c000252b:	8b 40 04             	mov    0x4(%eax),%eax
c000252e:	85 c0                	test   %eax,%eax
c0002530:	75 20                	jne    c0002552 <kfree+0x99>
c0002532:	8b 45 f4             	mov    -0xc(%ebp),%eax
c0002535:	8b 50 08             	mov    0x8(%eax),%edx
c0002538:	8b 45 f0             	mov    -0x10(%ebp),%eax
c000253b:	8b 40 08             	mov    0x8(%eax),%eax
c000253e:	01 d0                	add    %edx,%eax
c0002540:	8d 50 10             	lea    0x10(%eax),%edx
c0002543:	8b 45 f4             	mov    -0xc(%ebp),%eax
c0002546:	89 50 08             	mov    %edx,0x8(%eax)
c0002549:	8b 45 f0             	mov    -0x10(%ebp),%eax
c000254c:	c7 00 00 00 00 00    	movl   $0x0,(%eax)
c0002552:	81 7d f4 00 00 00 d0 	cmpl   $0xd0000000,-0xc(%ebp)
c0002559:	74 5c                	je     c00025b7 <kfree+0xfe>
c000255b:	c7 45 f0 00 00 00 d0 	movl   $0xd0000000,-0x10(%ebp)
c0002562:	8b 45 f0             	mov    -0x10(%ebp),%eax
c0002565:	8b 40 08             	mov    0x8(%eax),%eax
c0002568:	8d 50 10             	lea    0x10(%eax),%edx
c000256b:	8b 45 f0             	mov    -0x10(%ebp),%eax
c000256e:	01 d0                	add    %edx,%eax
c0002570:	3b 45 f4             	cmp    -0xc(%ebp),%eax
c0002573:	75 34                	jne    c00025a9 <kfree+0xf0>
c0002575:	8b 45 f0             	mov    -0x10(%ebp),%eax
c0002578:	8b 40 04             	mov    0x4(%eax),%eax
c000257b:	85 c0                	test   %eax,%eax
c000257d:	75 28                	jne    c00025a7 <kfree+0xee>
c000257f:	8b 45 f0             	mov    -0x10(%ebp),%eax
c0002582:	8b 50 08             	mov    0x8(%eax),%edx
c0002585:	8b 45 f4             	mov    -0xc(%ebp),%eax
c0002588:	8b 40 08             	mov    0x8(%eax),%eax
c000258b:	01 d0                	add    %edx,%eax
c000258d:	8d 50 10             	lea    0x10(%eax),%edx
c0002590:	8b 45 f0             	mov    -0x10(%ebp),%eax
c0002593:	89 50 08             	mov    %edx,0x8(%eax)
c0002596:	8b 45 f4             	mov    -0xc(%ebp),%eax
c0002599:	c7 00 00 00 00 00    	movl   $0x0,(%eax)
c000259f:	8b 45 f0             	mov    -0x10(%ebp),%eax
c00025a2:	89 45 f4             	mov    %eax,-0xc(%ebp)
c00025a5:	eb 10                	jmp    c00025b7 <kfree+0xfe>
c00025a7:	eb 0e                	jmp    c00025b7 <kfree+0xfe>
c00025a9:	8b 45 f0             	mov    -0x10(%ebp),%eax
c00025ac:	8b 40 08             	mov    0x8(%eax),%eax
c00025af:	83 c0 10             	add    $0x10,%eax
c00025b2:	01 45 f0             	add    %eax,-0x10(%ebp)
c00025b5:	eb ab                	jmp    c0002562 <kfree+0xa9>
c00025b7:	8b 45 f4             	mov    -0xc(%ebp),%eax
c00025ba:	89 04 24             	mov    %eax,(%esp)
c00025bd:	e8 84 fe ff ff       	call   c0002446 <deallocate>
c00025c2:	ff 75 ec             	pushl  -0x14(%ebp)
c00025c5:	9d                   	popf   
c00025c6:	c9                   	leave  
c00025c7:	c3                   	ret    

c00025c8 <kmalloc_initialize>:
kmalloc_initialize():
c00025c8:	55                   	push   %ebp
c00025c9:	89 e5                	mov    %esp,%ebp
c00025cb:	83 ec 10             	sub    $0x10,%esp
c00025ce:	c7 45 fc 00 00 00 d0 	movl   $0xd0000000,-0x4(%ebp)
c00025d5:	8b 45 fc             	mov    -0x4(%ebp),%eax
c00025d8:	c7 00 ef be ad de    	movl   $0xdeadbeef,(%eax)
c00025de:	8b 45 fc             	mov    -0x4(%ebp),%eax
c00025e1:	c7 40 04 00 00 00 00 	movl   $0x0,0x4(%eax)
c00025e8:	8b 45 fc             	mov    -0x4(%ebp),%eax
c00025eb:	c7 40 08 f0 ff ff 0f 	movl   $0xffffff0,0x8(%eax)
c00025f2:	8b 45 fc             	mov    -0x4(%ebp),%eax
c00025f5:	c7 40 0c 00 00 00 00 	movl   $0x0,0xc(%eax)
c00025fc:	c9                   	leave  
c00025fd:	c3                   	ret    

c00025fe <dump_memory_map>:
dump_memory_map():
c00025fe:	55                   	push   %ebp
c00025ff:	89 e5                	mov    %esp,%ebp
c0002601:	56                   	push   %esi
c0002602:	53                   	push   %ebx
c0002603:	83 ec 30             	sub    $0x30,%esp
c0002606:	c7 45 f4 00 00 00 d0 	movl   $0xd0000000,-0xc(%ebp)
c000260d:	c7 45 f0 01 00 00 00 	movl   $0x1,-0x10(%ebp)
c0002614:	8b 45 f4             	mov    -0xc(%ebp),%eax
c0002617:	8b 58 0c             	mov    0xc(%eax),%ebx
c000261a:	8b 45 f4             	mov    -0xc(%ebp),%eax
c000261d:	8b 48 08             	mov    0x8(%eax),%ecx
c0002620:	8b 45 f4             	mov    -0xc(%ebp),%eax
c0002623:	8b 50 04             	mov    0x4(%eax),%edx
c0002626:	8b 45 f4             	mov    -0xc(%ebp),%eax
c0002629:	8b 00                	mov    (%eax),%eax
c000262b:	8b 75 f4             	mov    -0xc(%ebp),%esi
c000262e:	83 c6 10             	add    $0x10,%esi
c0002631:	89 5c 24 14          	mov    %ebx,0x14(%esp)
c0002635:	89 4c 24 10          	mov    %ecx,0x10(%esp)
c0002639:	89 54 24 0c          	mov    %edx,0xc(%esp)
c000263d:	89 44 24 08          	mov    %eax,0x8(%esp)
c0002641:	89 74 24 04          	mov    %esi,0x4(%esp)
c0002645:	c7 04 24 5c 83 00 c0 	movl   $0xc000835c,(%esp)
c000264c:	e8 4e ec ff ff       	call   c000129f <kprintf>
c0002651:	8b 45 f4             	mov    -0xc(%ebp),%eax
c0002654:	8b 40 08             	mov    0x8(%eax),%eax
c0002657:	83 c0 10             	add    $0x10,%eax
c000265a:	01 45 f4             	add    %eax,-0xc(%ebp)
c000265d:	81 7d f4 ff ff ff df 	cmpl   $0xdfffffff,-0xc(%ebp)
c0002664:	76 02                	jbe    c0002668 <dump_memory_map+0x6a>
c0002666:	eb 3c                	jmp    c00026a4 <dump_memory_map+0xa6>
c0002668:	83 45 f0 01          	addl   $0x1,-0x10(%ebp)
c000266c:	8b 4d f0             	mov    -0x10(%ebp),%ecx
c000266f:	ba cd cc cc cc       	mov    $0xcccccccd,%edx
c0002674:	89 c8                	mov    %ecx,%eax
c0002676:	f7 e2                	mul    %edx
c0002678:	c1 ea 03             	shr    $0x3,%edx
c000267b:	89 d0                	mov    %edx,%eax
c000267d:	c1 e0 02             	shl    $0x2,%eax
c0002680:	01 d0                	add    %edx,%eax
c0002682:	01 c0                	add    %eax,%eax
c0002684:	29 c1                	sub    %eax,%ecx
c0002686:	89 ca                	mov    %ecx,%edx
c0002688:	85 d2                	test   %edx,%edx
c000268a:	75 13                	jne    c000269f <dump_memory_map+0xa1>
c000268c:	c7 45 ec 80 96 98 00 	movl   $0x989680,-0x14(%ebp)
c0002693:	eb 04                	jmp    c0002699 <dump_memory_map+0x9b>
c0002695:	83 6d ec 01          	subl   $0x1,-0x14(%ebp)
c0002699:	83 7d ec 00          	cmpl   $0x0,-0x14(%ebp)
c000269d:	75 f6                	jne    c0002695 <dump_memory_map+0x97>
c000269f:	e9 70 ff ff ff       	jmp    c0002614 <dump_memory_map+0x16>
c00026a4:	83 c4 30             	add    $0x30,%esp
c00026a7:	5b                   	pop    %ebx
c00026a8:	5e                   	pop    %esi
c00026a9:	5d                   	pop    %ebp
c00026aa:	c3                   	ret    

c00026ab <prefetch_cpu_cache>:
prefetch_cpu_cache():
c00026ab:	55                   	push   %ebp
c00026ac:	89 e5                	mov    %esp,%ebp
c00026ae:	8b 45 08             	mov    0x8(%ebp),%eax
c00026b1:	0f 18 00             	prefetchnta (%eax)
c00026b4:	5d                   	pop    %ebp
c00026b5:	c3                   	ret    

c00026b6 <__queue_del_entry>:
__queue_del_entry():
c00026b6:	55                   	push   %ebp
c00026b7:	89 e5                	mov    %esp,%ebp
c00026b9:	83 ec 18             	sub    $0x18,%esp
c00026bc:	8b 45 0c             	mov    0xc(%ebp),%eax
c00026bf:	8b 40 04             	mov    0x4(%eax),%eax
c00026c2:	8b 55 0c             	mov    0xc(%ebp),%edx
c00026c5:	8b 52 08             	mov    0x8(%edx),%edx
c00026c8:	89 50 08             	mov    %edx,0x8(%eax)
c00026cb:	8b 45 0c             	mov    0xc(%ebp),%eax
c00026ce:	8b 40 08             	mov    0x8(%eax),%eax
c00026d1:	8b 55 0c             	mov    0xc(%ebp),%edx
c00026d4:	8b 52 04             	mov    0x4(%edx),%edx
c00026d7:	89 50 04             	mov    %edx,0x4(%eax)
c00026da:	8b 45 08             	mov    0x8(%ebp),%eax
c00026dd:	8b 00                	mov    (%eax),%eax
c00026df:	3b 45 0c             	cmp    0xc(%ebp),%eax
c00026e2:	75 20                	jne    c0002704 <__queue_del_entry+0x4e>
c00026e4:	8b 45 08             	mov    0x8(%ebp),%eax
c00026e7:	8b 00                	mov    (%eax),%eax
c00026e9:	8b 50 04             	mov    0x4(%eax),%edx
c00026ec:	8b 45 08             	mov    0x8(%ebp),%eax
c00026ef:	89 10                	mov    %edx,(%eax)
c00026f1:	8b 45 08             	mov    0x8(%ebp),%eax
c00026f4:	8b 00                	mov    (%eax),%eax
c00026f6:	3b 45 0c             	cmp    0xc(%ebp),%eax
c00026f9:	75 09                	jne    c0002704 <__queue_del_entry+0x4e>
c00026fb:	8b 45 08             	mov    0x8(%ebp),%eax
c00026fe:	c7 00 00 00 00 00    	movl   $0x0,(%eax)
c0002704:	8b 45 0c             	mov    0xc(%ebp),%eax
c0002707:	89 04 24             	mov    %eax,(%esp)
c000270a:	e8 aa fd ff ff       	call   c00024b9 <kfree>
c000270f:	c9                   	leave  
c0002710:	c3                   	ret    

c0002711 <count_queue>:
count_queue():
c0002711:	55                   	push   %ebp
c0002712:	89 e5                	mov    %esp,%ebp
c0002714:	53                   	push   %ebx
c0002715:	83 ec 14             	sub    $0x14,%esp
c0002718:	8b 45 08             	mov    0x8(%ebp),%eax
c000271b:	8b 00                	mov    (%eax),%eax
c000271d:	89 45 f4             	mov    %eax,-0xc(%ebp)
c0002720:	8b 45 08             	mov    0x8(%ebp),%eax
c0002723:	8b 00                	mov    (%eax),%eax
c0002725:	89 45 f8             	mov    %eax,-0x8(%ebp)
c0002728:	bb 00 00 00 00       	mov    $0x0,%ebx
c000272d:	83 7d f4 00          	cmpl   $0x0,-0xc(%ebp)
c0002731:	74 28                	je     c000275b <count_queue+0x4a>
c0002733:	eb 1a                	jmp    c000274f <count_queue+0x3e>
c0002735:	8b 45 f8             	mov    -0x8(%ebp),%eax
c0002738:	8b 40 04             	mov    0x4(%eax),%eax
c000273b:	89 45 f8             	mov    %eax,-0x8(%ebp)
c000273e:	8b 45 f8             	mov    -0x8(%ebp),%eax
c0002741:	8b 40 04             	mov    0x4(%eax),%eax
c0002744:	89 04 24             	mov    %eax,(%esp)
c0002747:	e8 5f ff ff ff       	call   c00026ab <prefetch_cpu_cache>
c000274c:	83 c3 01             	add    $0x1,%ebx
c000274f:	8b 45 f8             	mov    -0x8(%ebp),%eax
c0002752:	3b 45 f4             	cmp    -0xc(%ebp),%eax
c0002755:	75 de                	jne    c0002735 <count_queue+0x24>
c0002757:	85 db                	test   %ebx,%ebx
c0002759:	74 da                	je     c0002735 <count_queue+0x24>
c000275b:	89 d8                	mov    %ebx,%eax
c000275d:	83 c4 14             	add    $0x14,%esp
c0002760:	5b                   	pop    %ebx
c0002761:	5d                   	pop    %ebp
c0002762:	c3                   	ret    

c0002763 <rem_queue>:
rem_queue():
c0002763:	55                   	push   %ebp
c0002764:	89 e5                	mov    %esp,%ebp
c0002766:	83 ec 28             	sub    $0x28,%esp
c0002769:	8b 45 08             	mov    0x8(%ebp),%eax
c000276c:	8b 00                	mov    (%eax),%eax
c000276e:	85 c0                	test   %eax,%eax
c0002770:	74 60                	je     c00027d2 <rem_queue+0x6f>
c0002772:	8b 45 08             	mov    0x8(%ebp),%eax
c0002775:	8b 00                	mov    (%eax),%eax
c0002777:	89 45 f4             	mov    %eax,-0xc(%ebp)
c000277a:	8b 45 f4             	mov    -0xc(%ebp),%eax
c000277d:	8b 40 04             	mov    0x4(%eax),%eax
c0002780:	89 45 f0             	mov    %eax,-0x10(%ebp)
c0002783:	8b 45 08             	mov    0x8(%ebp),%eax
c0002786:	89 04 24             	mov    %eax,(%esp)
c0002789:	e8 83 ff ff ff       	call   c0002711 <count_queue>
c000278e:	89 45 ec             	mov    %eax,-0x14(%ebp)
c0002791:	eb 32                	jmp    c00027c5 <rem_queue+0x62>
c0002793:	8b 45 f4             	mov    -0xc(%ebp),%eax
c0002796:	8b 00                	mov    (%eax),%eax
c0002798:	3b 45 0c             	cmp    0xc(%ebp),%eax
c000279b:	75 19                	jne    c00027b6 <rem_queue+0x53>
c000279d:	8b 45 f4             	mov    -0xc(%ebp),%eax
c00027a0:	89 44 24 04          	mov    %eax,0x4(%esp)
c00027a4:	8b 45 08             	mov    0x8(%ebp),%eax
c00027a7:	89 04 24             	mov    %eax,(%esp)
c00027aa:	e8 07 ff ff ff       	call   c00026b6 <__queue_del_entry>
c00027af:	b8 00 00 00 00       	mov    $0x0,%eax
c00027b4:	eb 21                	jmp    c00027d7 <rem_queue+0x74>
c00027b6:	8b 45 f0             	mov    -0x10(%ebp),%eax
c00027b9:	89 45 f4             	mov    %eax,-0xc(%ebp)
c00027bc:	8b 45 f4             	mov    -0xc(%ebp),%eax
c00027bf:	8b 40 04             	mov    0x4(%eax),%eax
c00027c2:	89 45 f0             	mov    %eax,-0x10(%ebp)
c00027c5:	8b 45 ec             	mov    -0x14(%ebp),%eax
c00027c8:	8d 50 ff             	lea    -0x1(%eax),%edx
c00027cb:	89 55 ec             	mov    %edx,-0x14(%ebp)
c00027ce:	85 c0                	test   %eax,%eax
c00027d0:	75 c1                	jne    c0002793 <rem_queue+0x30>
c00027d2:	b8 ff ff ff ff       	mov    $0xffffffff,%eax
c00027d7:	c9                   	leave  
c00027d8:	c3                   	ret    

c00027d9 <k_main>:
k_main():
c00027d9:	55                   	push   %ebp
c00027da:	89 e5                	mov    %esp,%ebp
c00027dc:	83 ec 18             	sub    $0x18,%esp
c00027df:	e8 64 0b 00 00       	call   c0003348 <initialize_paging>
c00027e4:	e8 6c 3a 00 00       	call   c0006255 <initialize_video>
c00027e9:	e8 d2 e9 ff ff       	call   c00011c0 <initialize_boot_console>
c00027ee:	c7 04 24 07 00 00 00 	movl   $0x7,(%esp)
c00027f5:	e8 83 ea ff ff       	call   c000127d <kset_color>
c00027fa:	c7 04 24 b8 83 00 c0 	movl   $0xc00083b8,(%esp)
c0002801:	e8 99 ea ff ff       	call   c000129f <kprintf>
c0002806:	c7 04 24 09 00 00 00 	movl   $0x9,(%esp)
c000280d:	e8 6b ea ff ff       	call   c000127d <kset_color>
c0002812:	c7 04 24 c4 83 00 c0 	movl   $0xc00083c4,(%esp)
c0002819:	e8 81 ea ff ff       	call   c000129f <kprintf>
c000281e:	c7 04 24 07 00 00 00 	movl   $0x7,(%esp)
c0002825:	e8 53 ea ff ff       	call   c000127d <kset_color>
c000282a:	c7 44 24 08 d2 83 00 	movl   $0xc00083d2,0x8(%esp)
c0002831:	c0 
c0002832:	c7 44 24 04 db 83 00 	movl   $0xc00083db,0x4(%esp)
c0002839:	c0 
c000283a:	c7 04 24 ed 83 00 c0 	movl   $0xc00083ed,(%esp)
c0002841:	e8 59 ea ff ff       	call   c000129f <kprintf>
c0002846:	b8 00 00 00 c0       	mov    $0xc0000000,%eax
c000284b:	89 44 24 04          	mov    %eax,0x4(%esp)
c000284f:	c7 04 24 00 84 00 c0 	movl   $0xc0008400,(%esp)
c0002856:	e8 44 ea ff ff       	call   c000129f <kprintf>
c000285b:	a1 04 00 00 c0       	mov    0xc0000004,%eax
c0002860:	c1 e8 14             	shr    $0x14,%eax
c0002863:	89 44 24 04          	mov    %eax,0x4(%esp)
c0002867:	c7 04 24 30 84 00 c0 	movl   $0xc0008430,(%esp)
c000286e:	e8 2c ea ff ff       	call   c000129f <kprintf>
c0002873:	c7 04 24 50 84 00 c0 	movl   $0xc0008450,(%esp)
c000287a:	e8 20 ea ff ff       	call   c000129f <kprintf>
c000287f:	e8 4f 01 00 00       	call   c00029d3 <print_ok>
c0002884:	c7 04 24 7d 84 00 c0 	movl   $0xc000847d,(%esp)
c000288b:	e8 0f ea ff ff       	call   c000129f <kprintf>
c0002890:	e8 65 ee ff ff       	call   c00016fa <reprogram_PIC_8259>
c0002895:	e8 39 01 00 00       	call   c00029d3 <print_ok>
c000289a:	c7 04 24 97 84 00 c0 	movl   $0xc0008497,(%esp)
c00028a1:	e8 f9 e9 ff ff       	call   c000129f <kprintf>
c00028a6:	e8 66 03 00 00       	call   c0002c11 <initialize_GDT>
c00028ab:	e8 23 01 00 00       	call   c00029d3 <print_ok>
c00028b0:	c7 04 24 b0 84 00 c0 	movl   $0xc00084b0,(%esp)
c00028b7:	e8 e3 e9 ff ff       	call   c000129f <kprintf>
c00028bc:	e8 a1 ef ff ff       	call   c0001862 <initialize_IDT>
c00028c1:	e8 0d 01 00 00       	call   c00029d3 <print_ok>
c00028c6:	c7 04 24 cc 84 00 c0 	movl   $0xc00084cc,(%esp)
c00028cd:	e8 cd e9 ff ff       	call   c000129f <kprintf>
c00028d2:	e8 f1 fc ff ff       	call   c00025c8 <kmalloc_initialize>
c00028d7:	e8 f7 00 00 00       	call   c00029d3 <print_ok>
c00028dc:	c7 04 24 ec 84 00 c0 	movl   $0xc00084ec,(%esp)
c00028e3:	e8 b7 e9 ff ff       	call   c000129f <kprintf>
c00028e8:	e8 b0 2e 00 00       	call   c000579d <initialize_DMA>
c00028ed:	e8 e1 00 00 00       	call   c00029d3 <print_ok>
c00028f2:	c7 04 24 11 85 00 c0 	movl   $0xc0008511,(%esp)
c00028f9:	e8 a1 e9 ff ff       	call   c000129f <kprintf>
c00028fe:	e8 fd 23 00 00       	call   c0004d00 <initialize_multitasking>
c0002903:	e8 cb 00 00 00       	call   c00029d3 <print_ok>
c0002908:	c7 04 24 2e 85 00 c0 	movl   $0xc000852e,(%esp)
c000290f:	e8 8b e9 ff ff       	call   c000129f <kprintf>
c0002914:	e8 f7 e7 ff ff       	call   c0001110 <initialize_clock>
c0002919:	e8 b5 00 00 00       	call   c00029d3 <print_ok>
c000291e:	c7 04 24 4b 85 00 c0 	movl   $0xc000854b,(%esp)
c0002925:	e8 75 e9 ff ff       	call   c000129f <kprintf>
c000292a:	e8 c9 34 00 00       	call   c0005df8 <initialize_keyboard>
c000292f:	e8 9f 00 00 00       	call   c00029d3 <print_ok>
c0002934:	c7 04 24 63 85 00 c0 	movl   $0xc0008563,(%esp)
c000293b:	e8 5f e9 ff ff       	call   c000129f <kprintf>
c0002940:	c7 04 24 0e 00 00 00 	movl   $0xe,(%esp)
c0002947:	e8 31 e9 ff ff       	call   c000127d <kset_color>
c000294c:	e8 2a 4f 00 00       	call   c000787b <initialize_floppy>
c0002951:	c7 04 24 07 00 00 00 	movl   $0x7,(%esp)
c0002958:	e8 20 e9 ff ff       	call   c000127d <kset_color>
c000295d:	c7 04 24 71 85 00 c0 	movl   $0xc0008571,(%esp)
c0002964:	e8 36 e9 ff ff       	call   c000129f <kprintf>
c0002969:	e8 65 00 00 00       	call   c00029d3 <print_ok>
c000296e:	c7 44 24 0c 87 85 00 	movl   $0xc0008587,0xc(%esp)
c0002975:	c0 
c0002976:	c7 44 24 08 00 00 00 	movl   $0x0,0x8(%esp)
c000297d:	00 
c000297e:	c7 44 24 04 00 00 00 	movl   $0x0,0x4(%esp)
c0002985:	00 
c0002986:	c7 04 24 b1 78 00 c0 	movl   $0xc00078b1,(%esp)
c000298d:	e8 e3 1d 00 00       	call   c0004775 <create_thread>
c0002992:	a1 30 b5 01 c0       	mov    0xc001b530,%eax
c0002997:	89 44 24 04          	mov    %eax,0x4(%esp)
c000299b:	c7 04 24 24 b5 01 c0 	movl   $0xc001b524,(%esp)
c00029a2:	e8 bc fd ff ff       	call   c0002763 <rem_queue>
c00029a7:	e8 2f 23 00 00       	call   c0004cdb <do_idle>
c00029ac:	c7 44 24 0c 6d 00 00 	movl   $0x6d,0xc(%esp)
c00029b3:	00 
c00029b4:	c7 44 24 08 91 85 00 	movl   $0xc0008591,0x8(%esp)
c00029bb:	c0 
c00029bc:	c7 44 24 04 9f 85 00 	movl   $0xc000859f,0x4(%esp)
c00029c3:	c0 
c00029c4:	c7 04 24 b8 85 00 c0 	movl   $0xc00085b8,(%esp)
c00029cb:	e8 cf e8 ff ff       	call   c000129f <kprintf>
c00029d0:	fa                   	cli    
c00029d1:	eb fe                	jmp    c00029d1 <k_main+0x1f8>

c00029d3 <print_ok>:
print_ok():
c00029d3:	55                   	push   %ebp
c00029d4:	89 e5                	mov    %esp,%ebp
c00029d6:	83 ec 18             	sub    $0x18,%esp
c00029d9:	c7 04 24 07 00 00 00 	movl   $0x7,(%esp)
c00029e0:	e8 98 e8 ff ff       	call   c000127d <kset_color>
c00029e5:	c7 04 24 de 85 00 c0 	movl   $0xc00085de,(%esp)
c00029ec:	e8 ae e8 ff ff       	call   c000129f <kprintf>
c00029f1:	c7 04 24 02 00 00 00 	movl   $0x2,(%esp)
c00029f8:	e8 80 e8 ff ff       	call   c000127d <kset_color>
c00029fd:	c7 04 24 e8 85 00 c0 	movl   $0xc00085e8,(%esp)
c0002a04:	e8 96 e8 ff ff       	call   c000129f <kprintf>
c0002a09:	c7 04 24 07 00 00 00 	movl   $0x7,(%esp)
c0002a10:	e8 68 e8 ff ff       	call   c000127d <kset_color>
c0002a15:	c7 04 24 eb 85 00 c0 	movl   $0xc00085eb,(%esp)
c0002a1c:	e8 7e e8 ff ff       	call   c000129f <kprintf>
c0002a21:	c9                   	leave  
c0002a22:	c3                   	ret    

c0002a23 <print_failed>:
print_failed():
c0002a23:	55                   	push   %ebp
c0002a24:	89 e5                	mov    %esp,%ebp
c0002a26:	83 ec 18             	sub    $0x18,%esp
c0002a29:	c7 04 24 07 00 00 00 	movl   $0x7,(%esp)
c0002a30:	e8 48 e8 ff ff       	call   c000127d <kset_color>
c0002a35:	c7 04 24 de 85 00 c0 	movl   $0xc00085de,(%esp)
c0002a3c:	e8 5e e8 ff ff       	call   c000129f <kprintf>
c0002a41:	c7 04 24 0c 00 00 00 	movl   $0xc,(%esp)
c0002a48:	e8 30 e8 ff ff       	call   c000127d <kset_color>
c0002a4d:	c7 04 24 ef 85 00 c0 	movl   $0xc00085ef,(%esp)
c0002a54:	e8 46 e8 ff ff       	call   c000129f <kprintf>
c0002a59:	c7 04 24 07 00 00 00 	movl   $0x7,(%esp)
c0002a60:	e8 18 e8 ff ff       	call   c000127d <kset_color>
c0002a65:	c7 04 24 eb 85 00 c0 	movl   $0xc00085eb,(%esp)
c0002a6c:	e8 2e e8 ff ff       	call   c000129f <kprintf>
c0002a71:	c9                   	leave  
c0002a72:	c3                   	ret    

c0002a73 <k_update_segment_regs>:
k_update_segment_regs():
c0002a73:	55                   	push   %ebp
c0002a74:	89 e5                	mov    %esp,%ebp
c0002a76:	ea 7d 2a 00 c0 08 00 	ljmp   $0x8,$0xc0002a7d

c0002a7d <update_sel>:
c0002a7d:	b8 10 00 00 00       	mov    $0x10,%eax
c0002a82:	8e d8                	mov    %eax,%ds
c0002a84:	8e c0                	mov    %eax,%es
c0002a86:	8e d0                	mov    %eax,%ss
c0002a88:	90                   	nop
c0002a89:	b8 10 00 00 00       	mov    $0x10,%eax
c0002a8e:	8e e0                	mov    %eax,%fs
c0002a90:	8e e8                	mov    %eax,%gs
c0002a92:	5d                   	pop    %ebp
c0002a93:	c3                   	ret    

c0002a94 <setup_GDT_entry>:
setup_GDT_entry():
c0002a94:	55                   	push   %ebp
c0002a95:	89 e5                	mov    %esp,%ebp
c0002a97:	53                   	push   %ebx
c0002a98:	83 ec 34             	sub    $0x34,%esp
c0002a9b:	8b 4d 08             	mov    0x8(%ebp),%ecx
c0002a9e:	8b 55 10             	mov    0x10(%ebp),%edx
c0002aa1:	8b 45 14             	mov    0x14(%ebp),%eax
c0002aa4:	66 89 4d e4          	mov    %cx,-0x1c(%ebp)
c0002aa8:	88 55 e0             	mov    %dl,-0x20(%ebp)
c0002aab:	88 45 dc             	mov    %al,-0x24(%ebp)
c0002aae:	bb 00 00 00 00       	mov    $0x0,%ebx
c0002ab3:	eb 33                	jmp    c0002ae8 <setup_GDT_entry+0x54>
c0002ab5:	66 81 fb 00 20       	cmp    $0x2000,%bx
c0002aba:	75 27                	jne    c0002ae3 <setup_GDT_entry+0x4f>
c0002abc:	c7 44 24 0c 1d 00 00 	movl   $0x1d,0xc(%esp)
c0002ac3:	00 
c0002ac4:	c7 44 24 08 f8 85 00 	movl   $0xc00085f8,0x8(%esp)
c0002acb:	c0 
c0002acc:	c7 44 24 04 05 86 00 	movl   $0xc0008605,0x4(%esp)
c0002ad3:	c0 
c0002ad4:	c7 04 24 1c 86 00 c0 	movl   $0xc000861c,(%esp)
c0002adb:	e8 bf e7 ff ff       	call   c000129f <kprintf>
c0002ae0:	fa                   	cli    
c0002ae1:	eb fe                	jmp    c0002ae1 <setup_GDT_entry+0x4d>
c0002ae3:	89 d8                	mov    %ebx,%eax
c0002ae5:	8d 58 01             	lea    0x1(%eax),%ebx
c0002ae8:	0f b7 c3             	movzwl %bx,%eax
c0002aeb:	0f b6 80 a0 bd 02 c0 	movzbl -0x3ffd4260(%eax),%eax
c0002af2:	84 c0                	test   %al,%al
c0002af4:	75 bf                	jne    c0002ab5 <setup_GDT_entry+0x21>
c0002af6:	9c                   	pushf  
c0002af7:	58                   	pop    %eax
c0002af8:	fa                   	cli    
c0002af9:	89 45 f4             	mov    %eax,-0xc(%ebp)
c0002afc:	0f b7 c3             	movzwl %bx,%eax
c0002aff:	0f b7 55 e4          	movzwl -0x1c(%ebp),%edx
c0002b03:	66 89 14 c5 a0 bd 01 	mov    %dx,-0x3ffe4260(,%eax,8)
c0002b0a:	c0 
c0002b0b:	0f b7 c3             	movzwl %bx,%eax
c0002b0e:	8b 55 0c             	mov    0xc(%ebp),%edx
c0002b11:	66 89 14 c5 a2 bd 01 	mov    %dx,-0x3ffe425e(,%eax,8)
c0002b18:	c0 
c0002b19:	0f b7 c3             	movzwl %bx,%eax
c0002b1c:	8b 55 0c             	mov    0xc(%ebp),%edx
c0002b1f:	c1 ea 10             	shr    $0x10,%edx
c0002b22:	88 14 c5 a4 bd 01 c0 	mov    %dl,-0x3ffe425c(,%eax,8)
c0002b29:	0f b7 c3             	movzwl %bx,%eax
c0002b2c:	8b 55 0c             	mov    0xc(%ebp),%edx
c0002b2f:	c1 ea 18             	shr    $0x18,%edx
c0002b32:	88 14 c5 a7 bd 01 c0 	mov    %dl,-0x3ffe4259(,%eax,8)
c0002b39:	0f b7 c3             	movzwl %bx,%eax
c0002b3c:	0f b6 55 e0          	movzbl -0x20(%ebp),%edx
c0002b40:	88 14 c5 a5 bd 01 c0 	mov    %dl,-0x3ffe425b(,%eax,8)
c0002b47:	0f b7 c3             	movzwl %bx,%eax
c0002b4a:	0f b6 55 dc          	movzbl -0x24(%ebp),%edx
c0002b4e:	88 14 c5 a6 bd 01 c0 	mov    %dl,-0x3ffe425a(,%eax,8)
c0002b55:	0f b7 c3             	movzwl %bx,%eax
c0002b58:	c6 80 a0 bd 02 c0 01 	movb   $0x1,-0x3ffd4260(%eax)
c0002b5f:	ff 75 f4             	pushl  -0xc(%ebp)
c0002b62:	9d                   	popf   
c0002b63:	8d 04 dd 00 00 00 00 	lea    0x0(,%ebx,8),%eax
c0002b6a:	83 c4 34             	add    $0x34,%esp
c0002b6d:	5b                   	pop    %ebx
c0002b6e:	5d                   	pop    %ebp
c0002b6f:	c3                   	ret    

c0002b70 <remove_GDT_entry>:
remove_GDT_entry():
c0002b70:	55                   	push   %ebp
c0002b71:	89 e5                	mov    %esp,%ebp
c0002b73:	83 ec 14             	sub    $0x14,%esp
c0002b76:	8b 45 08             	mov    0x8(%ebp),%eax
c0002b79:	66 89 45 ec          	mov    %ax,-0x14(%ebp)
c0002b7d:	9c                   	pushf  
c0002b7e:	58                   	pop    %eax
c0002b7f:	fa                   	cli    
c0002b80:	89 45 fc             	mov    %eax,-0x4(%ebp)
c0002b83:	0f b7 45 ec          	movzwl -0x14(%ebp),%eax
c0002b87:	66 c1 e8 03          	shr    $0x3,%ax
c0002b8b:	0f b7 c0             	movzwl %ax,%eax
c0002b8e:	66 c7 04 c5 a0 bd 01 	movw   $0x0,-0x3ffe4260(,%eax,8)
c0002b95:	c0 00 00 
c0002b98:	0f b7 45 ec          	movzwl -0x14(%ebp),%eax
c0002b9c:	66 c1 e8 03          	shr    $0x3,%ax
c0002ba0:	0f b7 c0             	movzwl %ax,%eax
c0002ba3:	66 c7 04 c5 a2 bd 01 	movw   $0x0,-0x3ffe425e(,%eax,8)
c0002baa:	c0 00 00 
c0002bad:	0f b7 45 ec          	movzwl -0x14(%ebp),%eax
c0002bb1:	66 c1 e8 03          	shr    $0x3,%ax
c0002bb5:	0f b7 c0             	movzwl %ax,%eax
c0002bb8:	c6 04 c5 a4 bd 01 c0 	movb   $0x0,-0x3ffe425c(,%eax,8)
c0002bbf:	00 
c0002bc0:	0f b7 45 ec          	movzwl -0x14(%ebp),%eax
c0002bc4:	66 c1 e8 03          	shr    $0x3,%ax
c0002bc8:	0f b7 c0             	movzwl %ax,%eax
c0002bcb:	c6 04 c5 a7 bd 01 c0 	movb   $0x0,-0x3ffe4259(,%eax,8)
c0002bd2:	00 
c0002bd3:	0f b7 45 ec          	movzwl -0x14(%ebp),%eax
c0002bd7:	66 c1 e8 03          	shr    $0x3,%ax
c0002bdb:	0f b7 c0             	movzwl %ax,%eax
c0002bde:	c6 04 c5 a5 bd 01 c0 	movb   $0x0,-0x3ffe425b(,%eax,8)
c0002be5:	00 
c0002be6:	0f b7 45 ec          	movzwl -0x14(%ebp),%eax
c0002bea:	66 c1 e8 03          	shr    $0x3,%ax
c0002bee:	0f b7 c0             	movzwl %ax,%eax
c0002bf1:	c6 04 c5 a6 bd 01 c0 	movb   $0x0,-0x3ffe425a(,%eax,8)
c0002bf8:	00 
c0002bf9:	0f b7 45 ec          	movzwl -0x14(%ebp),%eax
c0002bfd:	66 c1 e8 03          	shr    $0x3,%ax
c0002c01:	0f b7 c0             	movzwl %ax,%eax
c0002c04:	c6 80 a0 bd 02 c0 00 	movb   $0x0,-0x3ffd4260(%eax)
c0002c0b:	ff 75 fc             	pushl  -0x4(%ebp)
c0002c0e:	9d                   	popf   
c0002c0f:	c9                   	leave  
c0002c10:	c3                   	ret    

c0002c11 <initialize_GDT>:
initialize_GDT():
c0002c11:	55                   	push   %ebp
c0002c12:	89 e5                	mov    %esp,%ebp
c0002c14:	53                   	push   %ebx
c0002c15:	83 ec 14             	sub    $0x14,%esp
c0002c18:	bb 00 00 00 00       	mov    $0x0,%ebx
c0002c1d:	eb 0e                	jmp    c0002c2d <initialize_GDT+0x1c>
c0002c1f:	0f b7 c3             	movzwl %bx,%eax
c0002c22:	89 04 24             	mov    %eax,(%esp)
c0002c25:	e8 46 ff ff ff       	call   c0002b70 <remove_GDT_entry>
c0002c2a:	83 c3 08             	add    $0x8,%ebx
c0002c2d:	66 81 fb ff 1f       	cmp    $0x1fff,%bx
c0002c32:	76 eb                	jbe    c0002c1f <initialize_GDT+0xe>
c0002c34:	c7 44 24 0c 00 00 00 	movl   $0x0,0xc(%esp)
c0002c3b:	00 
c0002c3c:	c7 44 24 08 00 00 00 	movl   $0x0,0x8(%esp)
c0002c43:	00 
c0002c44:	c7 44 24 04 00 00 00 	movl   $0x0,0x4(%esp)
c0002c4b:	00 
c0002c4c:	c7 04 24 00 00 00 00 	movl   $0x0,(%esp)
c0002c53:	e8 3c fe ff ff       	call   c0002a94 <setup_GDT_entry>
c0002c58:	c7 44 24 0c cf 00 00 	movl   $0xcf,0xc(%esp)
c0002c5f:	00 
c0002c60:	c7 44 24 08 9a 00 00 	movl   $0x9a,0x8(%esp)
c0002c67:	00 
c0002c68:	c7 44 24 04 00 00 00 	movl   $0x0,0x4(%esp)
c0002c6f:	00 
c0002c70:	c7 04 24 ff ff 00 00 	movl   $0xffff,(%esp)
c0002c77:	e8 18 fe ff ff       	call   c0002a94 <setup_GDT_entry>
c0002c7c:	c7 44 24 0c cf 00 00 	movl   $0xcf,0xc(%esp)
c0002c83:	00 
c0002c84:	c7 44 24 08 92 00 00 	movl   $0x92,0x8(%esp)
c0002c8b:	00 
c0002c8c:	c7 44 24 04 00 00 00 	movl   $0x0,0x4(%esp)
c0002c93:	00 
c0002c94:	c7 04 24 ff ff 00 00 	movl   $0xffff,(%esp)
c0002c9b:	e8 f4 fd ff ff       	call   c0002a94 <setup_GDT_entry>
c0002ca0:	c7 44 24 0c cf 00 00 	movl   $0xcf,0xc(%esp)
c0002ca7:	00 
c0002ca8:	c7 44 24 08 fa 00 00 	movl   $0xfa,0x8(%esp)
c0002caf:	00 
c0002cb0:	c7 44 24 04 00 00 00 	movl   $0x0,0x4(%esp)
c0002cb7:	00 
c0002cb8:	c7 04 24 ff ff 00 00 	movl   $0xffff,(%esp)
c0002cbf:	e8 d0 fd ff ff       	call   c0002a94 <setup_GDT_entry>
c0002cc4:	c7 44 24 0c cf 00 00 	movl   $0xcf,0xc(%esp)
c0002ccb:	00 
c0002ccc:	c7 44 24 08 f2 00 00 	movl   $0xf2,0x8(%esp)
c0002cd3:	00 
c0002cd4:	c7 44 24 04 00 00 00 	movl   $0x0,0x4(%esp)
c0002cdb:	00 
c0002cdc:	c7 04 24 ff ff 00 00 	movl   $0xffff,(%esp)
c0002ce3:	e8 ac fd ff ff       	call   c0002a94 <setup_GDT_entry>
c0002ce8:	66 c7 05 a0 dd 02 c0 	movw   $0xffff,0xc002dda0
c0002cef:	ff ff 
c0002cf1:	b8 a2 dd 02 c0       	mov    $0xc002dda2,%eax
c0002cf6:	ba a0 bd 01 c0       	mov    $0xc001bda0,%edx
c0002cfb:	89 10                	mov    %edx,(%eax)
c0002cfd:	b8 a0 dd 02 c0       	mov    $0xc002dda0,%eax
c0002d02:	0f 01 10             	lgdtl  (%eax)
c0002d05:	e8 69 fd ff ff       	call   c0002a73 <k_update_segment_regs>
c0002d0a:	83 c4 14             	add    $0x14,%esp
c0002d0d:	5b                   	pop    %ebx
c0002d0e:	5d                   	pop    %ebp
c0002d0f:	c3                   	ret    

c0002d10 <memset08>:
memset08():
c0002d10:	55                   	push   %ebp
c0002d11:	89 e5                	mov    %esp,%ebp
c0002d13:	57                   	push   %edi
c0002d14:	83 ec 04             	sub    $0x4,%esp
c0002d17:	8b 45 0c             	mov    0xc(%ebp),%eax
c0002d1a:	88 45 f8             	mov    %al,-0x8(%ebp)
c0002d1d:	8b 55 08             	mov    0x8(%ebp),%edx
c0002d20:	8b 4d 10             	mov    0x10(%ebp),%ecx
c0002d23:	0f b6 45 f8          	movzbl -0x8(%ebp),%eax
c0002d27:	89 d7                	mov    %edx,%edi
c0002d29:	fc                   	cld    
c0002d2a:	f3 aa                	rep stos %al,%es:(%edi)
c0002d2c:	83 c4 04             	add    $0x4,%esp
c0002d2f:	5f                   	pop    %edi
c0002d30:	5d                   	pop    %ebp
c0002d31:	c3                   	ret    

c0002d32 <invlpg>:
invlpg():
c0002d32:	55                   	push   %ebp
c0002d33:	89 e5                	mov    %esp,%ebp
c0002d35:	0f 01 7d 08          	invlpg 0x8(%ebp)
c0002d39:	5d                   	pop    %ebp
c0002d3a:	c3                   	ret    

c0002d3b <reload_CR3>:
reload_CR3():
c0002d3b:	55                   	push   %ebp
c0002d3c:	89 e5                	mov    %esp,%ebp
c0002d3e:	0f 20 d8             	mov    %cr3,%eax
c0002d41:	0f 22 d8             	mov    %eax,%cr3
c0002d44:	5d                   	pop    %ebp
c0002d45:	c3                   	ret    

c0002d46 <virtual_to_physical_address>:
virtual_to_physical_address():
c0002d46:	55                   	push   %ebp
c0002d47:	89 e5                	mov    %esp,%ebp
c0002d49:	8b 45 08             	mov    0x8(%ebp),%eax
c0002d4c:	c1 e8 16             	shr    $0x16,%eax
c0002d4f:	05 00 fc ff 3f       	add    $0x3ffffc00,%eax
c0002d54:	c1 e0 02             	shl    $0x2,%eax
c0002d57:	8b 00                	mov    (%eax),%eax
c0002d59:	85 c0                	test   %eax,%eax
c0002d5b:	75 07                	jne    c0002d64 <virtual_to_physical_address+0x1e>
c0002d5d:	b8 00 00 00 00       	mov    $0x0,%eax
c0002d62:	eb 33                	jmp    c0002d97 <virtual_to_physical_address+0x51>
c0002d64:	8b 45 08             	mov    0x8(%ebp),%eax
c0002d67:	c1 e8 16             	shr    $0x16,%eax
c0002d6a:	05 00 fc 0f 00       	add    $0xffc00,%eax
c0002d6f:	c1 e0 0a             	shl    $0xa,%eax
c0002d72:	89 c2                	mov    %eax,%edx
c0002d74:	8b 45 08             	mov    0x8(%ebp),%eax
c0002d77:	25 ff ff 3f 00       	and    $0x3fffff,%eax
c0002d7c:	c1 e8 0c             	shr    $0xc,%eax
c0002d7f:	01 d0                	add    %edx,%eax
c0002d81:	c1 e0 02             	shl    $0x2,%eax
c0002d84:	8b 00                	mov    (%eax),%eax
c0002d86:	25 00 f0 ff ff       	and    $0xfffff000,%eax
c0002d8b:	89 c2                	mov    %eax,%edx
c0002d8d:	8b 45 08             	mov    0x8(%ebp),%eax
c0002d90:	25 ff 0f 00 00       	and    $0xfff,%eax
c0002d95:	01 d0                	add    %edx,%eax
c0002d97:	5d                   	pop    %ebp
c0002d98:	c3                   	ret    

c0002d99 <pop_frame>:
pop_frame():
c0002d99:	55                   	push   %ebp
c0002d9a:	89 e5                	mov    %esp,%ebp
c0002d9c:	83 ec 10             	sub    $0x10,%esp
c0002d9f:	9c                   	pushf  
c0002da0:	58                   	pop    %eax
c0002da1:	fa                   	cli    
c0002da2:	89 45 fc             	mov    %eax,-0x4(%ebp)
c0002da5:	a1 80 a5 00 c0       	mov    0xc000a580,%eax
c0002daa:	8b 00                	mov    (%eax),%eax
c0002dac:	85 c0                	test   %eax,%eax
c0002dae:	74 2b                	je     c0002ddb <pop_frame+0x42>
c0002db0:	a1 80 a5 00 c0       	mov    0xc000a580,%eax
c0002db5:	8b 00                	mov    (%eax),%eax
c0002db7:	89 45 f8             	mov    %eax,-0x8(%ebp)
c0002dba:	a1 80 a5 00 c0       	mov    0xc000a580,%eax
c0002dbf:	c7 00 00 00 00 00    	movl   $0x0,(%eax)
c0002dc5:	a1 80 a5 00 c0       	mov    0xc000a580,%eax
c0002dca:	83 c0 04             	add    $0x4,%eax
c0002dcd:	a3 80 a5 00 c0       	mov    %eax,0xc000a580
c0002dd2:	ff 75 fc             	pushl  -0x4(%ebp)
c0002dd5:	9d                   	popf   
c0002dd6:	8b 45 f8             	mov    -0x8(%ebp),%eax
c0002dd9:	eb 09                	jmp    c0002de4 <pop_frame+0x4b>
c0002ddb:	ff 75 fc             	pushl  -0x4(%ebp)
c0002dde:	9d                   	popf   
c0002ddf:	b8 00 00 00 00       	mov    $0x0,%eax
c0002de4:	c9                   	leave  
c0002de5:	c3                   	ret    

c0002de6 <push_frame>:
push_frame():
c0002de6:	55                   	push   %ebp
c0002de7:	89 e5                	mov    %esp,%ebp
c0002de9:	83 ec 10             	sub    $0x10,%esp
c0002dec:	9c                   	pushf  
c0002ded:	58                   	pop    %eax
c0002dee:	fa                   	cli    
c0002def:	89 45 fc             	mov    %eax,-0x4(%ebp)
c0002df2:	a1 80 a5 00 c0       	mov    0xc000a580,%eax
c0002df7:	89 c2                	mov    %eax,%edx
c0002df9:	b8 00 e0 02 c0       	mov    $0xc002e000,%eax
c0002dfe:	39 c2                	cmp    %eax,%edx
c0002e00:	76 17                	jbe    c0002e19 <push_frame+0x33>
c0002e02:	a1 80 a5 00 c0       	mov    0xc000a580,%eax
c0002e07:	83 e8 04             	sub    $0x4,%eax
c0002e0a:	a3 80 a5 00 c0       	mov    %eax,0xc000a580
c0002e0f:	a1 80 a5 00 c0       	mov    0xc000a580,%eax
c0002e14:	8b 55 08             	mov    0x8(%ebp),%edx
c0002e17:	89 10                	mov    %edx,(%eax)
c0002e19:	ff 75 fc             	pushl  -0x4(%ebp)
c0002e1c:	9d                   	popf   
c0002e1d:	c9                   	leave  
c0002e1e:	c3                   	ret    

c0002e1f <init_free_frames>:
init_free_frames():
c0002e1f:	55                   	push   %ebp
c0002e20:	89 e5                	mov    %esp,%ebp
c0002e22:	83 ec 10             	sub    $0x10,%esp
c0002e25:	c7 45 fc 00 10 00 00 	movl   $0x1000,-0x4(%ebp)
c0002e2c:	a1 80 a5 00 c0       	mov    0xc000a580,%eax
c0002e31:	a3 a8 dd 02 c0       	mov    %eax,0xc002dda8
c0002e36:	eb 19                	jmp    c0002e51 <init_free_frames+0x32>
c0002e38:	a1 a8 dd 02 c0       	mov    0xc002dda8,%eax
c0002e3d:	8d 50 04             	lea    0x4(%eax),%edx
c0002e40:	89 15 a8 dd 02 c0    	mov    %edx,0xc002dda8
c0002e46:	8b 55 fc             	mov    -0x4(%ebp),%edx
c0002e49:	8d 4a 01             	lea    0x1(%edx),%ecx
c0002e4c:	89 4d fc             	mov    %ecx,-0x4(%ebp)
c0002e4f:	89 10                	mov    %edx,(%eax)
c0002e51:	a1 04 00 00 c0       	mov    0xc0000004,%eax
c0002e56:	c1 e8 0c             	shr    $0xc,%eax
c0002e59:	3b 45 fc             	cmp    -0x4(%ebp),%eax
c0002e5c:	77 da                	ja     c0002e38 <init_free_frames+0x19>
c0002e5e:	a1 a8 dd 02 c0       	mov    0xc002dda8,%eax
c0002e63:	c7 00 00 00 00 00    	movl   $0x0,(%eax)
c0002e69:	c9                   	leave  
c0002e6a:	c3                   	ret    

c0002e6b <map_page>:
map_page():
c0002e6b:	55                   	push   %ebp
c0002e6c:	89 e5                	mov    %esp,%ebp
c0002e6e:	83 ec 18             	sub    $0x18,%esp
c0002e71:	8b 45 10             	mov    0x10(%ebp),%eax
c0002e74:	66 89 45 ec          	mov    %ax,-0x14(%ebp)
c0002e78:	9c                   	pushf  
c0002e79:	58                   	pop    %eax
c0002e7a:	fa                   	cli    
c0002e7b:	89 45 f8             	mov    %eax,-0x8(%ebp)
c0002e7e:	81 65 08 00 f0 ff ff 	andl   $0xfffff000,0x8(%ebp)
c0002e85:	81 65 0c 00 f0 ff ff 	andl   $0xfffff000,0xc(%ebp)
c0002e8c:	66 81 65 ec ff 0f    	andw   $0xfff,-0x14(%ebp)
c0002e92:	8b 45 08             	mov    0x8(%ebp),%eax
c0002e95:	c1 e8 16             	shr    $0x16,%eax
c0002e98:	05 00 fc ff 3f       	add    $0x3ffffc00,%eax
c0002e9d:	c1 e0 02             	shl    $0x2,%eax
c0002ea0:	8b 00                	mov    (%eax),%eax
c0002ea2:	85 c0                	test   %eax,%eax
c0002ea4:	0f 85 a9 00 00 00    	jne    c0002f53 <map_page+0xe8>
c0002eaa:	e8 ea fe ff ff       	call   c0002d99 <pop_frame>
c0002eaf:	c1 e0 0c             	shl    $0xc,%eax
c0002eb2:	89 45 f4             	mov    %eax,-0xc(%ebp)
c0002eb5:	83 7d f4 00          	cmpl   $0x0,-0xc(%ebp)
c0002eb9:	75 0e                	jne    c0002ec9 <map_page+0x5e>
c0002ebb:	ff 75 f8             	pushl  -0x8(%ebp)
c0002ebe:	9d                   	popf   
c0002ebf:	b8 00 00 00 00       	mov    $0x0,%eax
c0002ec4:	e9 c7 00 00 00       	jmp    c0002f90 <map_page+0x125>
c0002ec9:	8b 45 08             	mov    0x8(%ebp),%eax
c0002ecc:	c1 e8 16             	shr    $0x16,%eax
c0002ecf:	05 00 fc ff 3f       	add    $0x3ffffc00,%eax
c0002ed4:	c1 e0 02             	shl    $0x2,%eax
c0002ed7:	8b 55 f4             	mov    -0xc(%ebp),%edx
c0002eda:	83 ca 07             	or     $0x7,%edx
c0002edd:	89 10                	mov    %edx,(%eax)
c0002edf:	8b 45 08             	mov    0x8(%ebp),%eax
c0002ee2:	25 ff ff 3f 00       	and    $0x3fffff,%eax
c0002ee7:	c1 e8 0c             	shr    $0xc,%eax
c0002eea:	89 c2                	mov    %eax,%edx
c0002eec:	8b 45 08             	mov    0x8(%ebp),%eax
c0002eef:	c1 e8 16             	shr    $0x16,%eax
c0002ef2:	c1 e0 0a             	shl    $0xa,%eax
c0002ef5:	01 d0                	add    %edx,%eax
c0002ef7:	05 00 00 f0 3f       	add    $0x3ff00000,%eax
c0002efc:	c1 e0 02             	shl    $0x2,%eax
c0002eff:	89 04 24             	mov    %eax,(%esp)
c0002f02:	e8 2b fe ff ff       	call   c0002d32 <invlpg>
c0002f07:	8b 45 08             	mov    0x8(%ebp),%eax
c0002f0a:	25 00 00 c0 ff       	and    $0xffc00000,%eax
c0002f0f:	89 45 fc             	mov    %eax,-0x4(%ebp)
c0002f12:	eb 2d                	jmp    c0002f41 <map_page+0xd6>
c0002f14:	8b 45 fc             	mov    -0x4(%ebp),%eax
c0002f17:	c1 e8 16             	shr    $0x16,%eax
c0002f1a:	05 00 fc 0f 00       	add    $0xffc00,%eax
c0002f1f:	c1 e0 0a             	shl    $0xa,%eax
c0002f22:	89 c2                	mov    %eax,%edx
c0002f24:	8b 45 fc             	mov    -0x4(%ebp),%eax
c0002f27:	25 ff ff 3f 00       	and    $0x3fffff,%eax
c0002f2c:	c1 e8 0c             	shr    $0xc,%eax
c0002f2f:	01 d0                	add    %edx,%eax
c0002f31:	c1 e0 02             	shl    $0x2,%eax
c0002f34:	c7 00 00 00 00 00    	movl   $0x0,(%eax)
c0002f3a:	81 45 fc 00 10 00 00 	addl   $0x1000,-0x4(%ebp)
c0002f41:	8b 45 08             	mov    0x8(%ebp),%eax
c0002f44:	25 00 00 c0 ff       	and    $0xffc00000,%eax
c0002f49:	05 00 00 40 00       	add    $0x400000,%eax
c0002f4e:	3b 45 fc             	cmp    -0x4(%ebp),%eax
c0002f51:	77 c1                	ja     c0002f14 <map_page+0xa9>
c0002f53:	8b 45 08             	mov    0x8(%ebp),%eax
c0002f56:	c1 e8 16             	shr    $0x16,%eax
c0002f59:	05 00 fc 0f 00       	add    $0xffc00,%eax
c0002f5e:	c1 e0 0a             	shl    $0xa,%eax
c0002f61:	89 c2                	mov    %eax,%edx
c0002f63:	8b 45 08             	mov    0x8(%ebp),%eax
c0002f66:	25 ff ff 3f 00       	and    $0x3fffff,%eax
c0002f6b:	c1 e8 0c             	shr    $0xc,%eax
c0002f6e:	01 d0                	add    %edx,%eax
c0002f70:	c1 e0 02             	shl    $0x2,%eax
c0002f73:	0f b7 55 ec          	movzwl -0x14(%ebp),%edx
c0002f77:	0b 55 0c             	or     0xc(%ebp),%edx
c0002f7a:	89 10                	mov    %edx,(%eax)
c0002f7c:	8b 45 08             	mov    0x8(%ebp),%eax
c0002f7f:	89 04 24             	mov    %eax,(%esp)
c0002f82:	e8 ab fd ff ff       	call   c0002d32 <invlpg>
c0002f87:	ff 75 f8             	pushl  -0x8(%ebp)
c0002f8a:	9d                   	popf   
c0002f8b:	b8 01 00 00 00       	mov    $0x1,%eax
c0002f90:	c9                   	leave  
c0002f91:	c3                   	ret    

c0002f92 <delete_page>:
delete_page():
c0002f92:	55                   	push   %ebp
c0002f93:	89 e5                	mov    %esp,%ebp
c0002f95:	83 ec 14             	sub    $0x14,%esp
c0002f98:	81 65 08 00 f0 ff ff 	andl   $0xfffff000,0x8(%ebp)
c0002f9f:	8b 45 08             	mov    0x8(%ebp),%eax
c0002fa2:	c1 e8 16             	shr    $0x16,%eax
c0002fa5:	05 00 fc ff 3f       	add    $0x3ffffc00,%eax
c0002faa:	c1 e0 02             	shl    $0x2,%eax
c0002fad:	8b 00                	mov    (%eax),%eax
c0002faf:	85 c0                	test   %eax,%eax
c0002fb1:	75 05                	jne    c0002fb8 <delete_page+0x26>
c0002fb3:	e9 4c 01 00 00       	jmp    c0003104 <delete_page+0x172>
c0002fb8:	8b 45 08             	mov    0x8(%ebp),%eax
c0002fbb:	c1 e8 16             	shr    $0x16,%eax
c0002fbe:	05 00 fc 0f 00       	add    $0xffc00,%eax
c0002fc3:	c1 e0 0a             	shl    $0xa,%eax
c0002fc6:	89 c2                	mov    %eax,%edx
c0002fc8:	8b 45 08             	mov    0x8(%ebp),%eax
c0002fcb:	25 ff ff 3f 00       	and    $0x3fffff,%eax
c0002fd0:	c1 e8 0c             	shr    $0xc,%eax
c0002fd3:	01 d0                	add    %edx,%eax
c0002fd5:	c1 e0 02             	shl    $0x2,%eax
c0002fd8:	8b 00                	mov    (%eax),%eax
c0002fda:	85 c0                	test   %eax,%eax
c0002fdc:	75 05                	jne    c0002fe3 <delete_page+0x51>
c0002fde:	e9 21 01 00 00       	jmp    c0003104 <delete_page+0x172>
c0002fe3:	9c                   	pushf  
c0002fe4:	58                   	pop    %eax
c0002fe5:	fa                   	cli    
c0002fe6:	89 45 f8             	mov    %eax,-0x8(%ebp)
c0002fe9:	8b 45 08             	mov    0x8(%ebp),%eax
c0002fec:	89 04 24             	mov    %eax,(%esp)
c0002fef:	e8 52 fd ff ff       	call   c0002d46 <virtual_to_physical_address>
c0002ff4:	3d 00 00 00 01       	cmp    $0x1000000,%eax
c0002ff9:	76 2b                	jbe    c0003026 <delete_page+0x94>
c0002ffb:	8b 45 08             	mov    0x8(%ebp),%eax
c0002ffe:	89 04 24             	mov    %eax,(%esp)
c0003001:	e8 40 fd ff ff       	call   c0002d46 <virtual_to_physical_address>
c0003006:	8b 15 04 00 00 c0    	mov    0xc0000004,%edx
c000300c:	39 d0                	cmp    %edx,%eax
c000300e:	73 16                	jae    c0003026 <delete_page+0x94>
c0003010:	8b 45 08             	mov    0x8(%ebp),%eax
c0003013:	89 04 24             	mov    %eax,(%esp)
c0003016:	e8 2b fd ff ff       	call   c0002d46 <virtual_to_physical_address>
c000301b:	c1 e8 0c             	shr    $0xc,%eax
c000301e:	89 04 24             	mov    %eax,(%esp)
c0003021:	e8 c0 fd ff ff       	call   c0002de6 <push_frame>
c0003026:	8b 45 08             	mov    0x8(%ebp),%eax
c0003029:	c1 e8 16             	shr    $0x16,%eax
c000302c:	05 00 fc 0f 00       	add    $0xffc00,%eax
c0003031:	c1 e0 0a             	shl    $0xa,%eax
c0003034:	89 c2                	mov    %eax,%edx
c0003036:	8b 45 08             	mov    0x8(%ebp),%eax
c0003039:	25 ff ff 3f 00       	and    $0x3fffff,%eax
c000303e:	c1 e8 0c             	shr    $0xc,%eax
c0003041:	01 d0                	add    %edx,%eax
c0003043:	c1 e0 02             	shl    $0x2,%eax
c0003046:	c7 00 00 00 00 00    	movl   $0x0,(%eax)
c000304c:	8b 45 08             	mov    0x8(%ebp),%eax
c000304f:	89 04 24             	mov    %eax,(%esp)
c0003052:	e8 db fc ff ff       	call   c0002d32 <invlpg>
c0003057:	8b 45 08             	mov    0x8(%ebp),%eax
c000305a:	25 00 00 c0 ff       	and    $0xffc00000,%eax
c000305f:	89 45 fc             	mov    %eax,-0x4(%ebp)
c0003062:	eb 33                	jmp    c0003097 <delete_page+0x105>
c0003064:	8b 45 fc             	mov    -0x4(%ebp),%eax
c0003067:	c1 e8 16             	shr    $0x16,%eax
c000306a:	05 00 fc 0f 00       	add    $0xffc00,%eax
c000306f:	c1 e0 0a             	shl    $0xa,%eax
c0003072:	89 c2                	mov    %eax,%edx
c0003074:	8b 45 fc             	mov    -0x4(%ebp),%eax
c0003077:	25 ff ff 3f 00       	and    $0x3fffff,%eax
c000307c:	c1 e8 0c             	shr    $0xc,%eax
c000307f:	01 d0                	add    %edx,%eax
c0003081:	c1 e0 02             	shl    $0x2,%eax
c0003084:	8b 00                	mov    (%eax),%eax
c0003086:	85 c0                	test   %eax,%eax
c0003088:	74 06                	je     c0003090 <delete_page+0xfe>
c000308a:	ff 75 f8             	pushl  -0x8(%ebp)
c000308d:	9d                   	popf   
c000308e:	eb 74                	jmp    c0003104 <delete_page+0x172>
c0003090:	81 45 fc 00 10 00 00 	addl   $0x1000,-0x4(%ebp)
c0003097:	8b 45 08             	mov    0x8(%ebp),%eax
c000309a:	25 00 00 c0 ff       	and    $0xffc00000,%eax
c000309f:	05 00 00 40 00       	add    $0x400000,%eax
c00030a4:	3b 45 fc             	cmp    -0x4(%ebp),%eax
c00030a7:	77 bb                	ja     c0003064 <delete_page+0xd2>
c00030a9:	8b 45 08             	mov    0x8(%ebp),%eax
c00030ac:	c1 e8 16             	shr    $0x16,%eax
c00030af:	05 00 fc ff 3f       	add    $0x3ffffc00,%eax
c00030b4:	c1 e0 02             	shl    $0x2,%eax
c00030b7:	8b 00                	mov    (%eax),%eax
c00030b9:	c1 e8 0c             	shr    $0xc,%eax
c00030bc:	89 04 24             	mov    %eax,(%esp)
c00030bf:	e8 22 fd ff ff       	call   c0002de6 <push_frame>
c00030c4:	8b 45 08             	mov    0x8(%ebp),%eax
c00030c7:	c1 e8 16             	shr    $0x16,%eax
c00030ca:	05 00 fc ff 3f       	add    $0x3ffffc00,%eax
c00030cf:	c1 e0 02             	shl    $0x2,%eax
c00030d2:	c7 00 00 00 00 00    	movl   $0x0,(%eax)
c00030d8:	8b 45 08             	mov    0x8(%ebp),%eax
c00030db:	25 ff ff 3f 00       	and    $0x3fffff,%eax
c00030e0:	c1 e8 0c             	shr    $0xc,%eax
c00030e3:	89 c2                	mov    %eax,%edx
c00030e5:	8b 45 08             	mov    0x8(%ebp),%eax
c00030e8:	c1 e8 16             	shr    $0x16,%eax
c00030eb:	c1 e0 0a             	shl    $0xa,%eax
c00030ee:	01 d0                	add    %edx,%eax
c00030f0:	05 00 00 f0 3f       	add    $0x3ff00000,%eax
c00030f5:	c1 e0 02             	shl    $0x2,%eax
c00030f8:	89 04 24             	mov    %eax,(%esp)
c00030fb:	e8 32 fc ff ff       	call   c0002d32 <invlpg>
c0003100:	ff 75 f8             	pushl  -0x8(%ebp)
c0003103:	9d                   	popf   
c0003104:	c9                   	leave  
c0003105:	c3                   	ret    

c0003106 <get_temp_page>:
get_temp_page():
c0003106:	55                   	push   %ebp
c0003107:	89 e5                	mov    %esp,%ebp
c0003109:	83 ec 2c             	sub    $0x2c,%esp
c000310c:	c7 45 fc 00 00 00 e1 	movl   $0xe1000000,-0x4(%ebp)
c0003113:	9c                   	pushf  
c0003114:	58                   	pop    %eax
c0003115:	fa                   	cli    
c0003116:	89 45 f8             	mov    %eax,-0x8(%ebp)
c0003119:	c7 45 f0 84 a5 00 c0 	movl   $0xc000a584,-0x10(%ebp)
c0003120:	8b 45 f0             	mov    -0x10(%ebp),%eax
c0003123:	f0 fe 08             	lock decb (%eax)
c0003126:	7d 09                	jge    c0003131 <get_temp_page+0x2b>
c0003128:	80 38 00             	cmpb   $0x0,(%eax)
c000312b:	f3 90                	pause  
c000312d:	7e f9                	jle    c0003128 <get_temp_page+0x22>
c000312f:	eb f2                	jmp    c0003123 <get_temp_page+0x1d>
c0003131:	8b 45 fc             	mov    -0x4(%ebp),%eax
c0003134:	c1 e8 16             	shr    $0x16,%eax
c0003137:	05 00 fc ff 3f       	add    $0x3ffffc00,%eax
c000313c:	c1 e0 02             	shl    $0x2,%eax
c000313f:	8b 00                	mov    (%eax),%eax
c0003141:	85 c0                	test   %eax,%eax
c0003143:	74 50                	je     c0003195 <get_temp_page+0x8f>
c0003145:	8b 45 fc             	mov    -0x4(%ebp),%eax
c0003148:	c1 e8 16             	shr    $0x16,%eax
c000314b:	05 00 fc 0f 00       	add    $0xffc00,%eax
c0003150:	c1 e0 0a             	shl    $0xa,%eax
c0003153:	89 c2                	mov    %eax,%edx
c0003155:	8b 45 fc             	mov    -0x4(%ebp),%eax
c0003158:	25 ff ff 3f 00       	and    $0x3fffff,%eax
c000315d:	c1 e8 0c             	shr    $0xc,%eax
c0003160:	01 d0                	add    %edx,%eax
c0003162:	c1 e0 02             	shl    $0x2,%eax
c0003165:	8b 00                	mov    (%eax),%eax
c0003167:	85 c0                	test   %eax,%eax
c0003169:	74 2a                	je     c0003195 <get_temp_page+0x8f>
c000316b:	81 45 fc 00 10 00 00 	addl   $0x1000,-0x4(%ebp)
c0003172:	81 7d fc ff ff bf ff 	cmpl   $0xffbfffff,-0x4(%ebp)
c0003179:	76 18                	jbe    c0003193 <get_temp_page+0x8d>
c000317b:	c7 45 ec 84 a5 00 c0 	movl   $0xc000a584,-0x14(%ebp)
c0003182:	8b 45 ec             	mov    -0x14(%ebp),%eax
c0003185:	c6 00 01             	movb   $0x1,(%eax)
c0003188:	ff 75 f8             	pushl  -0x8(%ebp)
c000318b:	9d                   	popf   
c000318c:	b8 00 00 00 00       	mov    $0x0,%eax
c0003191:	eb 52                	jmp    c00031e5 <get_temp_page+0xdf>
c0003193:	eb 9c                	jmp    c0003131 <get_temp_page+0x2b>
c0003195:	e8 ff fb ff ff       	call   c0002d99 <pop_frame>
c000319a:	89 45 f4             	mov    %eax,-0xc(%ebp)
c000319d:	83 7d f4 00          	cmpl   $0x0,-0xc(%ebp)
c00031a1:	75 09                	jne    c00031ac <get_temp_page+0xa6>
c00031a3:	c7 45 fc 00 00 00 00 	movl   $0x0,-0x4(%ebp)
c00031aa:	eb 25                	jmp    c00031d1 <get_temp_page+0xcb>
c00031ac:	8b 45 fc             	mov    -0x4(%ebp),%eax
c00031af:	c7 44 24 08 03 00 00 	movl   $0x3,0x8(%esp)
c00031b6:	00 
c00031b7:	8b 55 f4             	mov    -0xc(%ebp),%edx
c00031ba:	89 54 24 04          	mov    %edx,0x4(%esp)
c00031be:	89 04 24             	mov    %eax,(%esp)
c00031c1:	e8 a5 fc ff ff       	call   c0002e6b <map_page>
c00031c6:	85 c0                	test   %eax,%eax
c00031c8:	75 07                	jne    c00031d1 <get_temp_page+0xcb>
c00031ca:	c7 45 fc 00 00 00 00 	movl   $0x0,-0x4(%ebp)
c00031d1:	c7 45 e8 84 a5 00 c0 	movl   $0xc000a584,-0x18(%ebp)
c00031d8:	8b 45 e8             	mov    -0x18(%ebp),%eax
c00031db:	c6 00 01             	movb   $0x1,(%eax)
c00031de:	ff 75 f8             	pushl  -0x8(%ebp)
c00031e1:	9d                   	popf   
c00031e2:	8b 45 fc             	mov    -0x4(%ebp),%eax
c00031e5:	c9                   	leave  
c00031e6:	c3                   	ret    

c00031e7 <free_temp_page>:
free_temp_page():
c00031e7:	55                   	push   %ebp
c00031e8:	89 e5                	mov    %esp,%ebp
c00031ea:	83 ec 14             	sub    $0x14,%esp
c00031ed:	9c                   	pushf  
c00031ee:	58                   	pop    %eax
c00031ef:	fa                   	cli    
c00031f0:	89 45 fc             	mov    %eax,-0x4(%ebp)
c00031f3:	c7 45 f8 84 a5 00 c0 	movl   $0xc000a584,-0x8(%ebp)
c00031fa:	8b 45 f8             	mov    -0x8(%ebp),%eax
c00031fd:	f0 fe 08             	lock decb (%eax)
c0003200:	7d 09                	jge    c000320b <free_temp_page+0x24>
c0003202:	80 38 00             	cmpb   $0x0,(%eax)
c0003205:	f3 90                	pause  
c0003207:	7e f9                	jle    c0003202 <free_temp_page+0x1b>
c0003209:	eb f2                	jmp    c00031fd <free_temp_page+0x16>
c000320b:	8b 45 08             	mov    0x8(%ebp),%eax
c000320e:	3d ff ff ff e0       	cmp    $0xe0ffffff,%eax
c0003213:	76 15                	jbe    c000322a <free_temp_page+0x43>
c0003215:	8b 45 08             	mov    0x8(%ebp),%eax
c0003218:	3d ff ff bf ff       	cmp    $0xffbfffff,%eax
c000321d:	77 0b                	ja     c000322a <free_temp_page+0x43>
c000321f:	8b 45 08             	mov    0x8(%ebp),%eax
c0003222:	89 04 24             	mov    %eax,(%esp)
c0003225:	e8 68 fd ff ff       	call   c0002f92 <delete_page>
c000322a:	c7 45 f4 84 a5 00 c0 	movl   $0xc000a584,-0xc(%ebp)
c0003231:	8b 45 f4             	mov    -0xc(%ebp),%eax
c0003234:	c6 00 01             	movb   $0x1,(%eax)
c0003237:	ff 75 fc             	pushl  -0x4(%ebp)
c000323a:	9d                   	popf   
c000323b:	c9                   	leave  
c000323c:	c3                   	ret    

c000323d <page_fault_handler>:
page_fault_handler():
c000323d:	55                   	push   %ebp
c000323e:	89 e5                	mov    %esp,%ebp
c0003240:	83 ec 28             	sub    $0x28,%esp
c0003243:	e8 51 fb ff ff       	call   c0002d99 <pop_frame>
c0003248:	c1 e0 0c             	shl    $0xc,%eax
c000324b:	89 45 f4             	mov    %eax,-0xc(%ebp)
c000324e:	83 7d f4 00          	cmpl   $0x0,-0xc(%ebp)
c0003252:	75 2e                	jne    c0003282 <page_fault_handler+0x45>
c0003254:	c7 04 24 0c 00 00 00 	movl   $0xc,(%esp)
c000325b:	e8 1d e0 ff ff       	call   c000127d <kset_color>
c0003260:	c7 04 24 44 86 00 c0 	movl   $0xc0008644,(%esp)
c0003267:	e8 33 e0 ff ff       	call   c000129f <kprintf>
c000326c:	c7 04 24 07 00 00 00 	movl   $0x7,(%esp)
c0003273:	e8 05 e0 ff ff       	call   c000127d <kset_color>
c0003278:	b8 01 00 00 00       	mov    $0x1,%eax
c000327d:	e9 c4 00 00 00       	jmp    c0003346 <page_fault_handler+0x109>
c0003282:	83 65 08 07          	andl   $0x7,0x8(%ebp)
c0003286:	81 7d 0c ff ff ff bf 	cmpl   $0xbfffffff,0xc(%ebp)
c000328d:	76 49                	jbe    c00032d8 <page_fault_handler+0x9b>
c000328f:	c7 44 24 08 03 00 00 	movl   $0x3,0x8(%esp)
c0003296:	00 
c0003297:	8b 45 f4             	mov    -0xc(%ebp),%eax
c000329a:	89 44 24 04          	mov    %eax,0x4(%esp)
c000329e:	8b 45 0c             	mov    0xc(%ebp),%eax
c00032a1:	89 04 24             	mov    %eax,(%esp)
c00032a4:	e8 c2 fb ff ff       	call   c0002e6b <map_page>
c00032a9:	85 c0                	test   %eax,%eax
c00032ab:	75 74                	jne    c0003321 <page_fault_handler+0xe4>
c00032ad:	c7 04 24 0c 00 00 00 	movl   $0xc,(%esp)
c00032b4:	e8 c4 df ff ff       	call   c000127d <kset_color>
c00032b9:	c7 04 24 44 86 00 c0 	movl   $0xc0008644,(%esp)
c00032c0:	e8 da df ff ff       	call   c000129f <kprintf>
c00032c5:	c7 04 24 07 00 00 00 	movl   $0x7,(%esp)
c00032cc:	e8 ac df ff ff       	call   c000127d <kset_color>
c00032d1:	b8 01 00 00 00       	mov    $0x1,%eax
c00032d6:	eb 6e                	jmp    c0003346 <page_fault_handler+0x109>
c00032d8:	c7 44 24 08 07 00 00 	movl   $0x7,0x8(%esp)
c00032df:	00 
c00032e0:	8b 45 f4             	mov    -0xc(%ebp),%eax
c00032e3:	89 44 24 04          	mov    %eax,0x4(%esp)
c00032e7:	8b 45 0c             	mov    0xc(%ebp),%eax
c00032ea:	89 04 24             	mov    %eax,(%esp)
c00032ed:	e8 79 fb ff ff       	call   c0002e6b <map_page>
c00032f2:	85 c0                	test   %eax,%eax
c00032f4:	75 2b                	jne    c0003321 <page_fault_handler+0xe4>
c00032f6:	c7 04 24 0c 00 00 00 	movl   $0xc,(%esp)
c00032fd:	e8 7b df ff ff       	call   c000127d <kset_color>
c0003302:	c7 04 24 44 86 00 c0 	movl   $0xc0008644,(%esp)
c0003309:	e8 91 df ff ff       	call   c000129f <kprintf>
c000330e:	c7 04 24 07 00 00 00 	movl   $0x7,(%esp)
c0003315:	e8 63 df ff ff       	call   c000127d <kset_color>
c000331a:	b8 01 00 00 00       	mov    $0x1,%eax
c000331f:	eb 25                	jmp    c0003346 <page_fault_handler+0x109>
c0003321:	8b 45 0c             	mov    0xc(%ebp),%eax
c0003324:	25 00 f0 ff ff       	and    $0xfffff000,%eax
c0003329:	c7 44 24 08 00 10 00 	movl   $0x1000,0x8(%esp)
c0003330:	00 
c0003331:	c7 44 24 04 00 00 00 	movl   $0x0,0x4(%esp)
c0003338:	00 
c0003339:	89 04 24             	mov    %eax,(%esp)
c000333c:	e8 cf f9 ff ff       	call   c0002d10 <memset08>
c0003341:	b8 00 00 00 00       	mov    $0x0,%eax
c0003346:	c9                   	leave  
c0003347:	c3                   	ret    

c0003348 <initialize_paging>:
initialize_paging():
c0003348:	55                   	push   %ebp
c0003349:	89 e5                	mov    %esp,%ebp
c000334b:	83 ec 1c             	sub    $0x1c,%esp
c000334e:	e8 cc fa ff ff       	call   c0002e1f <init_free_frames>
c0003353:	b8 00 f0 ff ff       	mov    $0xfffff000,%eax
c0003358:	c7 00 00 00 00 00    	movl   $0x0,(%eax)
c000335e:	c7 45 fc 00 00 00 c0 	movl   $0xc0000000,-0x4(%ebp)
c0003365:	eb 51                	jmp    c00033b8 <initialize_paging+0x70>
c0003367:	8b 45 fc             	mov    -0x4(%ebp),%eax
c000336a:	c1 e8 16             	shr    $0x16,%eax
c000336d:	05 00 fc ff 3f       	add    $0x3ffffc00,%eax
c0003372:	c1 e0 02             	shl    $0x2,%eax
c0003375:	8b 00                	mov    (%eax),%eax
c0003377:	85 c0                	test   %eax,%eax
c0003379:	74 36                	je     c00033b1 <initialize_paging+0x69>
c000337b:	8b 45 fc             	mov    -0x4(%ebp),%eax
c000337e:	c1 e8 16             	shr    $0x16,%eax
c0003381:	8d 90 00 fc 0f 00    	lea    0xffc00(%eax),%edx
c0003387:	89 d1                	mov    %edx,%ecx
c0003389:	c1 e1 0a             	shl    $0xa,%ecx
c000338c:	8b 55 fc             	mov    -0x4(%ebp),%edx
c000338f:	81 e2 ff ff 3f 00    	and    $0x3fffff,%edx
c0003395:	c1 ea 0c             	shr    $0xc,%edx
c0003398:	01 d1                	add    %edx,%ecx
c000339a:	c1 e1 02             	shl    $0x2,%ecx
c000339d:	05 00 fc 0f 00       	add    $0xffc00,%eax
c00033a2:	c1 e0 0a             	shl    $0xa,%eax
c00033a5:	01 d0                	add    %edx,%eax
c00033a7:	c1 e0 02             	shl    $0x2,%eax
c00033aa:	8b 00                	mov    (%eax),%eax
c00033ac:	83 e0 fd             	and    $0xfffffffd,%eax
c00033af:	89 01                	mov    %eax,(%ecx)
c00033b1:	81 45 fc 00 10 00 00 	addl   $0x1000,-0x4(%ebp)
c00033b8:	b8 00 90 00 c0       	mov    $0xc0009000,%eax
c00033bd:	39 45 fc             	cmp    %eax,-0x4(%ebp)
c00033c0:	72 a5                	jb     c0003367 <initialize_paging+0x1f>
c00033c2:	b8 00 10 00 c0       	mov    $0xc0001000,%eax
c00033c7:	c1 e8 16             	shr    $0x16,%eax
c00033ca:	05 00 fc ff 3f       	add    $0x3ffffc00,%eax
c00033cf:	c1 e0 02             	shl    $0x2,%eax
c00033d2:	ba 00 10 00 c0       	mov    $0xc0001000,%edx
c00033d7:	c1 ea 16             	shr    $0x16,%edx
c00033da:	81 c2 00 fc ff 3f    	add    $0x3ffffc00,%edx
c00033e0:	c1 e2 02             	shl    $0x2,%edx
c00033e3:	8b 12                	mov    (%edx),%edx
c00033e5:	83 ca 04             	or     $0x4,%edx
c00033e8:	89 10                	mov    %edx,(%eax)
c00033ea:	b8 00 10 00 c0       	mov    $0xc0001000,%eax
c00033ef:	c1 e8 16             	shr    $0x16,%eax
c00033f2:	05 00 fc 0f 00       	add    $0xffc00,%eax
c00033f7:	c1 e0 0a             	shl    $0xa,%eax
c00033fa:	89 c2                	mov    %eax,%edx
c00033fc:	b8 00 10 00 c0       	mov    $0xc0001000,%eax
c0003401:	25 ff ff 3f 00       	and    $0x3fffff,%eax
c0003406:	c1 e8 0c             	shr    $0xc,%eax
c0003409:	01 d0                	add    %edx,%eax
c000340b:	c1 e0 02             	shl    $0x2,%eax
c000340e:	ba 00 10 00 c0       	mov    $0xc0001000,%edx
c0003413:	c1 ea 16             	shr    $0x16,%edx
c0003416:	81 c2 00 fc 0f 00    	add    $0xffc00,%edx
c000341c:	89 d1                	mov    %edx,%ecx
c000341e:	c1 e1 0a             	shl    $0xa,%ecx
c0003421:	ba 00 10 00 c0       	mov    $0xc0001000,%edx
c0003426:	81 e2 ff ff 3f 00    	and    $0x3fffff,%edx
c000342c:	c1 ea 0c             	shr    $0xc,%edx
c000342f:	01 ca                	add    %ecx,%edx
c0003431:	c1 e2 02             	shl    $0x2,%edx
c0003434:	8b 12                	mov    (%edx),%edx
c0003436:	83 ca 04             	or     $0x4,%edx
c0003439:	89 10                	mov    %edx,(%eax)
c000343b:	c7 45 fc 00 00 00 00 	movl   $0x0,-0x4(%ebp)
c0003442:	eb 27                	jmp    c000346b <initialize_paging+0x123>
c0003444:	8b 45 fc             	mov    -0x4(%ebp),%eax
c0003447:	8d 90 00 00 00 e0    	lea    -0x20000000(%eax),%edx
c000344d:	c7 44 24 08 03 00 00 	movl   $0x3,0x8(%esp)
c0003454:	00 
c0003455:	8b 45 fc             	mov    -0x4(%ebp),%eax
c0003458:	89 44 24 04          	mov    %eax,0x4(%esp)
c000345c:	89 14 24             	mov    %edx,(%esp)
c000345f:	e8 07 fa ff ff       	call   c0002e6b <map_page>
c0003464:	81 45 fc 00 10 00 00 	addl   $0x1000,-0x4(%ebp)
c000346b:	81 7d fc ff ff ff 00 	cmpl   $0xffffff,-0x4(%ebp)
c0003472:	76 d0                	jbe    c0003444 <initialize_paging+0xfc>
c0003474:	c7 45 fc 00 00 00 e1 	movl   $0xe1000000,-0x4(%ebp)
c000347b:	eb 41                	jmp    c00034be <initialize_paging+0x176>
c000347d:	8b 45 fc             	mov    -0x4(%ebp),%eax
c0003480:	c1 e8 16             	shr    $0x16,%eax
c0003483:	05 00 fc ff 3f       	add    $0x3ffffc00,%eax
c0003488:	c1 e0 02             	shl    $0x2,%eax
c000348b:	8b 00                	mov    (%eax),%eax
c000348d:	85 c0                	test   %eax,%eax
c000348f:	74 26                	je     c00034b7 <initialize_paging+0x16f>
c0003491:	8b 45 fc             	mov    -0x4(%ebp),%eax
c0003494:	c1 e8 16             	shr    $0x16,%eax
c0003497:	05 00 fc 0f 00       	add    $0xffc00,%eax
c000349c:	c1 e0 0a             	shl    $0xa,%eax
c000349f:	89 c2                	mov    %eax,%edx
c00034a1:	8b 45 fc             	mov    -0x4(%ebp),%eax
c00034a4:	25 ff ff 3f 00       	and    $0x3fffff,%eax
c00034a9:	c1 e8 0c             	shr    $0xc,%eax
c00034ac:	01 d0                	add    %edx,%eax
c00034ae:	c1 e0 02             	shl    $0x2,%eax
c00034b1:	c7 00 00 00 00 00    	movl   $0x0,(%eax)
c00034b7:	81 45 fc 00 10 00 00 	addl   $0x1000,-0x4(%ebp)
c00034be:	81 7d fc ff ff bf ff 	cmpl   $0xffbfffff,-0x4(%ebp)
c00034c5:	76 b6                	jbe    c000347d <initialize_paging+0x135>
c00034c7:	e8 6f f8 ff ff       	call   c0002d3b <reload_CR3>
c00034cc:	c9                   	leave  
c00034cd:	c3                   	ret    

c00034ce <dump_dirty_pages>:
dump_dirty_pages():
c00034ce:	55                   	push   %ebp
c00034cf:	89 e5                	mov    %esp,%ebp
c00034d1:	83 ec 28             	sub    $0x28,%esp
c00034d4:	c7 45 f0 01 00 00 00 	movl   $0x1,-0x10(%ebp)
c00034db:	c7 04 24 71 86 00 c0 	movl   $0xc0008671,(%esp)
c00034e2:	e8 b8 dd ff ff       	call   c000129f <kprintf>
c00034e7:	c7 45 f4 00 00 00 00 	movl   $0x0,-0xc(%ebp)
c00034ee:	e9 9f 00 00 00       	jmp    c0003592 <dump_dirty_pages+0xc4>
c00034f3:	8b 45 f4             	mov    -0xc(%ebp),%eax
c00034f6:	c1 e8 16             	shr    $0x16,%eax
c00034f9:	05 00 fc ff 3f       	add    $0x3ffffc00,%eax
c00034fe:	c1 e0 02             	shl    $0x2,%eax
c0003501:	8b 00                	mov    (%eax),%eax
c0003503:	85 c0                	test   %eax,%eax
c0003505:	0f 84 80 00 00 00    	je     c000358b <dump_dirty_pages+0xbd>
c000350b:	8b 45 f4             	mov    -0xc(%ebp),%eax
c000350e:	c1 e8 16             	shr    $0x16,%eax
c0003511:	05 00 fc 0f 00       	add    $0xffc00,%eax
c0003516:	c1 e0 0a             	shl    $0xa,%eax
c0003519:	89 c2                	mov    %eax,%edx
c000351b:	8b 45 f4             	mov    -0xc(%ebp),%eax
c000351e:	25 ff ff 3f 00       	and    $0x3fffff,%eax
c0003523:	c1 e8 0c             	shr    $0xc,%eax
c0003526:	01 d0                	add    %edx,%eax
c0003528:	c1 e0 02             	shl    $0x2,%eax
c000352b:	8b 00                	mov    (%eax),%eax
c000352d:	83 e0 40             	and    $0x40,%eax
c0003530:	85 c0                	test   %eax,%eax
c0003532:	74 57                	je     c000358b <dump_dirty_pages+0xbd>
c0003534:	83 45 f0 01          	addl   $0x1,-0x10(%ebp)
c0003538:	8b 4d f0             	mov    -0x10(%ebp),%ecx
c000353b:	ba ab aa aa aa       	mov    $0xaaaaaaab,%edx
c0003540:	89 c8                	mov    %ecx,%eax
c0003542:	f7 e2                	mul    %edx
c0003544:	c1 ea 04             	shr    $0x4,%edx
c0003547:	89 d0                	mov    %edx,%eax
c0003549:	01 c0                	add    %eax,%eax
c000354b:	01 d0                	add    %edx,%eax
c000354d:	c1 e0 03             	shl    $0x3,%eax
c0003550:	29 c1                	sub    %eax,%ecx
c0003552:	8b 45 f4             	mov    -0xc(%ebp),%eax
c0003555:	c1 e8 16             	shr    $0x16,%eax
c0003558:	05 00 fc 0f 00       	add    $0xffc00,%eax
c000355d:	c1 e0 0a             	shl    $0xa,%eax
c0003560:	89 c2                	mov    %eax,%edx
c0003562:	8b 45 f4             	mov    -0xc(%ebp),%eax
c0003565:	25 ff ff 3f 00       	and    $0x3fffff,%eax
c000356a:	c1 e8 0c             	shr    $0xc,%eax
c000356d:	01 d0                	add    %edx,%eax
c000356f:	c1 e0 02             	shl    $0x2,%eax
c0003572:	8b 00                	mov    (%eax),%eax
c0003574:	89 44 24 08          	mov    %eax,0x8(%esp)
c0003578:	8b 45 f4             	mov    -0xc(%ebp),%eax
c000357b:	89 44 24 04          	mov    %eax,0x4(%esp)
c000357f:	c7 04 24 80 86 00 c0 	movl   $0xc0008680,(%esp)
c0003586:	e8 14 dd ff ff       	call   c000129f <kprintf>
c000358b:	81 45 f4 00 10 00 00 	addl   $0x1000,-0xc(%ebp)
c0003592:	81 7d f4 ff ff bf ff 	cmpl   $0xffbfffff,-0xc(%ebp)
c0003599:	0f 86 54 ff ff ff    	jbe    c00034f3 <dump_dirty_pages+0x25>
c000359f:	c7 04 24 9f 86 00 c0 	movl   $0xc000869f,(%esp)
c00035a6:	e8 f4 dc ff ff       	call   c000129f <kprintf>
c00035ab:	c9                   	leave  
c00035ac:	c3                   	ret    

c00035ad <dump_free_frames>:
dump_free_frames():
c00035ad:	55                   	push   %ebp
c00035ae:	89 e5                	mov    %esp,%ebp
c00035b0:	83 ec 28             	sub    $0x28,%esp
c00035b3:	a1 80 a5 00 c0       	mov    0xc000a580,%eax
c00035b8:	89 45 f4             	mov    %eax,-0xc(%ebp)
c00035bb:	c7 45 f0 01 00 00 00 	movl   $0x1,-0x10(%ebp)
c00035c2:	b8 00 e0 02 c0       	mov    $0xc002e000,%eax
c00035c7:	89 44 24 04          	mov    %eax,0x4(%esp)
c00035cb:	c7 04 24 a4 86 00 c0 	movl   $0xc00086a4,(%esp)
c00035d2:	e8 c8 dc ff ff       	call   c000129f <kprintf>
c00035d7:	8b 45 f4             	mov    -0xc(%ebp),%eax
c00035da:	8b 00                	mov    (%eax),%eax
c00035dc:	85 c0                	test   %eax,%eax
c00035de:	75 02                	jne    c00035e2 <dump_free_frames+0x35>
c00035e0:	eb 40                	jmp    c0003622 <dump_free_frames+0x75>
c00035e2:	83 45 f0 01          	addl   $0x1,-0x10(%ebp)
c00035e6:	8b 4d f0             	mov    -0x10(%ebp),%ecx
c00035e9:	ba ab aa aa aa       	mov    $0xaaaaaaab,%edx
c00035ee:	89 c8                	mov    %ecx,%eax
c00035f0:	f7 e2                	mul    %edx
c00035f2:	c1 ea 04             	shr    $0x4,%edx
c00035f5:	89 d0                	mov    %edx,%eax
c00035f7:	01 c0                	add    %eax,%eax
c00035f9:	01 d0                	add    %edx,%eax
c00035fb:	c1 e0 03             	shl    $0x3,%eax
c00035fe:	29 c1                	sub    %eax,%ecx
c0003600:	8b 55 f4             	mov    -0xc(%ebp),%edx
c0003603:	8b 45 f4             	mov    -0xc(%ebp),%eax
c0003606:	8b 00                	mov    (%eax),%eax
c0003608:	89 54 24 08          	mov    %edx,0x8(%esp)
c000360c:	89 44 24 04          	mov    %eax,0x4(%esp)
c0003610:	c7 04 24 c8 86 00 c0 	movl   $0xc00086c8,(%esp)
c0003617:	e8 83 dc ff ff       	call   c000129f <kprintf>
c000361c:	83 45 f4 04          	addl   $0x4,-0xc(%ebp)
c0003620:	eb b5                	jmp    c00035d7 <dump_free_frames+0x2a>
c0003622:	c7 04 24 9f 86 00 c0 	movl   $0xc000869f,(%esp)
c0003629:	e8 71 dc ff ff       	call   c000129f <kprintf>
c000362e:	c9                   	leave  
c000362f:	c3                   	ret    

c0003630 <prefetch_cpu_cache>:
prefetch_cpu_cache():
c0003630:	55                   	push   %ebp
c0003631:	89 e5                	mov    %esp,%ebp
c0003633:	8b 45 08             	mov    0x8(%ebp),%eax
c0003636:	0f 18 00             	prefetchnta (%eax)
c0003639:	5d                   	pop    %ebp
c000363a:	c3                   	ret    

c000363b <jmp_to_tss>:
jmp_to_tss():
c000363b:	55                   	push   %ebp
c000363c:	89 e5                	mov    %esp,%ebp
c000363e:	83 ec 04             	sub    $0x4,%esp
c0003641:	8b 45 08             	mov    0x8(%ebp),%eax
c0003644:	66 89 45 fc          	mov    %ax,-0x4(%ebp)
c0003648:	0f b6 45 fc          	movzbl -0x4(%ebp),%eax
c000364c:	0f b6 15 40 b5 01 c0 	movzbl 0xc001b540,%edx
c0003653:	83 e2 00             	and    $0x0,%edx
c0003656:	09 d0                	or     %edx,%eax
c0003658:	a2 40 b5 01 c0       	mov    %al,0xc001b540
c000365d:	0f b6 45 fd          	movzbl -0x3(%ebp),%eax
c0003661:	0f b6 15 41 b5 01 c0 	movzbl 0xc001b541,%edx
c0003668:	83 e2 00             	and    $0x0,%edx
c000366b:	09 d0                	or     %edx,%eax
c000366d:	a2 41 b5 01 c0       	mov    %al,0xc001b541
c0003672:	ff 2d 3c b5 01 c0    	ljmp   *0xc001b53c
c0003678:	c9                   	leave  
c0003679:	c3                   	ret    

c000367a <memcpy08>:
memcpy08():
c000367a:	55                   	push   %ebp
c000367b:	89 e5                	mov    %esp,%ebp
c000367d:	57                   	push   %edi
c000367e:	56                   	push   %esi
c000367f:	8b 45 08             	mov    0x8(%ebp),%eax
c0003682:	8b 55 0c             	mov    0xc(%ebp),%edx
c0003685:	8b 4d 10             	mov    0x10(%ebp),%ecx
c0003688:	89 c7                	mov    %eax,%edi
c000368a:	89 d6                	mov    %edx,%esi
c000368c:	fc                   	cld    
c000368d:	f3 a4                	rep movsb %ds:(%esi),%es:(%edi)
c000368f:	5e                   	pop    %esi
c0003690:	5f                   	pop    %edi
c0003691:	5d                   	pop    %ebp
c0003692:	c3                   	ret    

c0003693 <queue_move_entry>:
queue_move_entry():
c0003693:	55                   	push   %ebp
c0003694:	89 e5                	mov    %esp,%ebp
c0003696:	8b 45 0c             	mov    0xc(%ebp),%eax
c0003699:	8b 00                	mov    (%eax),%eax
c000369b:	85 c0                	test   %eax,%eax
c000369d:	75 0a                	jne    c00036a9 <queue_move_entry+0x16>
c000369f:	b8 ff ff ff ff       	mov    $0xffffffff,%eax
c00036a4:	e9 a7 00 00 00       	jmp    c0003750 <queue_move_entry+0xbd>
c00036a9:	8b 45 10             	mov    0x10(%ebp),%eax
c00036ac:	8b 40 04             	mov    0x4(%eax),%eax
c00036af:	8b 55 10             	mov    0x10(%ebp),%edx
c00036b2:	8b 52 08             	mov    0x8(%edx),%edx
c00036b5:	89 50 08             	mov    %edx,0x8(%eax)
c00036b8:	8b 45 10             	mov    0x10(%ebp),%eax
c00036bb:	8b 40 08             	mov    0x8(%eax),%eax
c00036be:	8b 55 10             	mov    0x10(%ebp),%edx
c00036c1:	8b 52 04             	mov    0x4(%edx),%edx
c00036c4:	89 50 04             	mov    %edx,0x4(%eax)
c00036c7:	8b 45 0c             	mov    0xc(%ebp),%eax
c00036ca:	8b 00                	mov    (%eax),%eax
c00036cc:	3b 45 10             	cmp    0x10(%ebp),%eax
c00036cf:	75 20                	jne    c00036f1 <queue_move_entry+0x5e>
c00036d1:	8b 45 0c             	mov    0xc(%ebp),%eax
c00036d4:	8b 00                	mov    (%eax),%eax
c00036d6:	8b 50 04             	mov    0x4(%eax),%edx
c00036d9:	8b 45 0c             	mov    0xc(%ebp),%eax
c00036dc:	89 10                	mov    %edx,(%eax)
c00036de:	8b 45 0c             	mov    0xc(%ebp),%eax
c00036e1:	8b 00                	mov    (%eax),%eax
c00036e3:	3b 45 10             	cmp    0x10(%ebp),%eax
c00036e6:	75 09                	jne    c00036f1 <queue_move_entry+0x5e>
c00036e8:	8b 45 0c             	mov    0xc(%ebp),%eax
c00036eb:	c7 00 00 00 00 00    	movl   $0x0,(%eax)
c00036f1:	8b 45 08             	mov    0x8(%ebp),%eax
c00036f4:	8b 00                	mov    (%eax),%eax
c00036f6:	85 c0                	test   %eax,%eax
c00036f8:	75 1f                	jne    c0003719 <queue_move_entry+0x86>
c00036fa:	8b 45 10             	mov    0x10(%ebp),%eax
c00036fd:	8b 55 10             	mov    0x10(%ebp),%edx
c0003700:	89 50 08             	mov    %edx,0x8(%eax)
c0003703:	8b 45 10             	mov    0x10(%ebp),%eax
c0003706:	8b 50 08             	mov    0x8(%eax),%edx
c0003709:	8b 45 10             	mov    0x10(%ebp),%eax
c000370c:	89 50 04             	mov    %edx,0x4(%eax)
c000370f:	8b 45 08             	mov    0x8(%ebp),%eax
c0003712:	8b 55 10             	mov    0x10(%ebp),%edx
c0003715:	89 10                	mov    %edx,(%eax)
c0003717:	eb 32                	jmp    c000374b <queue_move_entry+0xb8>
c0003719:	8b 45 08             	mov    0x8(%ebp),%eax
c000371c:	8b 00                	mov    (%eax),%eax
c000371e:	8b 50 08             	mov    0x8(%eax),%edx
c0003721:	8b 45 10             	mov    0x10(%ebp),%eax
c0003724:	89 50 08             	mov    %edx,0x8(%eax)
c0003727:	8b 45 08             	mov    0x8(%ebp),%eax
c000372a:	8b 10                	mov    (%eax),%edx
c000372c:	8b 45 10             	mov    0x10(%ebp),%eax
c000372f:	89 50 04             	mov    %edx,0x4(%eax)
c0003732:	8b 45 08             	mov    0x8(%ebp),%eax
c0003735:	8b 00                	mov    (%eax),%eax
c0003737:	8b 40 08             	mov    0x8(%eax),%eax
c000373a:	8b 55 10             	mov    0x10(%ebp),%edx
c000373d:	89 50 04             	mov    %edx,0x4(%eax)
c0003740:	8b 45 08             	mov    0x8(%ebp),%eax
c0003743:	8b 00                	mov    (%eax),%eax
c0003745:	8b 55 10             	mov    0x10(%ebp),%edx
c0003748:	89 50 08             	mov    %edx,0x8(%eax)
c000374b:	b8 00 00 00 00       	mov    $0x0,%eax
c0003750:	5d                   	pop    %ebp
c0003751:	c3                   	ret    

c0003752 <queue_get_entry>:
queue_get_entry():
c0003752:	55                   	push   %ebp
c0003753:	89 e5                	mov    %esp,%ebp
c0003755:	83 7d 08 00          	cmpl   $0x0,0x8(%ebp)
c0003759:	74 07                	je     c0003762 <queue_get_entry+0x10>
c000375b:	8b 45 08             	mov    0x8(%ebp),%eax
c000375e:	8b 00                	mov    (%eax),%eax
c0003760:	eb 05                	jmp    c0003767 <queue_get_entry+0x15>
c0003762:	b8 00 00 00 00       	mov    $0x0,%eax
c0003767:	5d                   	pop    %ebp
c0003768:	c3                   	ret    

c0003769 <count_queue>:
count_queue():
c0003769:	55                   	push   %ebp
c000376a:	89 e5                	mov    %esp,%ebp
c000376c:	53                   	push   %ebx
c000376d:	83 ec 14             	sub    $0x14,%esp
c0003770:	8b 45 08             	mov    0x8(%ebp),%eax
c0003773:	8b 00                	mov    (%eax),%eax
c0003775:	89 45 f4             	mov    %eax,-0xc(%ebp)
c0003778:	8b 45 08             	mov    0x8(%ebp),%eax
c000377b:	8b 00                	mov    (%eax),%eax
c000377d:	89 45 f8             	mov    %eax,-0x8(%ebp)
c0003780:	bb 00 00 00 00       	mov    $0x0,%ebx
c0003785:	83 7d f4 00          	cmpl   $0x0,-0xc(%ebp)
c0003789:	74 28                	je     c00037b3 <count_queue+0x4a>
c000378b:	eb 1a                	jmp    c00037a7 <count_queue+0x3e>
c000378d:	8b 45 f8             	mov    -0x8(%ebp),%eax
c0003790:	8b 40 04             	mov    0x4(%eax),%eax
c0003793:	89 45 f8             	mov    %eax,-0x8(%ebp)
c0003796:	8b 45 f8             	mov    -0x8(%ebp),%eax
c0003799:	8b 40 04             	mov    0x4(%eax),%eax
c000379c:	89 04 24             	mov    %eax,(%esp)
c000379f:	e8 8c fe ff ff       	call   c0003630 <prefetch_cpu_cache>
c00037a4:	83 c3 01             	add    $0x1,%ebx
c00037a7:	8b 45 f8             	mov    -0x8(%ebp),%eax
c00037aa:	3b 45 f4             	cmp    -0xc(%ebp),%eax
c00037ad:	75 de                	jne    c000378d <count_queue+0x24>
c00037af:	85 db                	test   %ebx,%ebx
c00037b1:	74 da                	je     c000378d <count_queue+0x24>
c00037b3:	89 d8                	mov    %ebx,%eax
c00037b5:	83 c4 14             	add    $0x14,%esp
c00037b8:	5b                   	pop    %ebx
c00037b9:	5d                   	pop    %ebp
c00037ba:	c3                   	ret    

c00037bb <sched_is_disabled>:
sched_is_disabled():
c00037bb:	55                   	push   %ebp
c00037bc:	89 e5                	mov    %esp,%ebp
c00037be:	b8 88 a5 00 c0       	mov    $0xc000a588,%eax
c00037c3:	0f b6 00             	movzbl (%eax),%eax
c00037c6:	84 c0                	test   %al,%al
c00037c8:	0f 9e c0             	setle  %al
c00037cb:	0f b6 c0             	movzbl %al,%eax
c00037ce:	5d                   	pop    %ebp
c00037cf:	c3                   	ret    

c00037d0 <do_refresh_queues>:
do_refresh_queues():
c00037d0:	55                   	push   %ebp
c00037d1:	89 e5                	mov    %esp,%ebp
c00037d3:	83 ec 28             	sub    $0x28,%esp
c00037d6:	a1 24 b5 01 c0       	mov    0xc001b524,%eax
c00037db:	85 c0                	test   %eax,%eax
c00037dd:	0f 84 ce 00 00 00    	je     c00038b1 <do_refresh_queues+0xe1>
c00037e3:	a1 24 b5 01 c0       	mov    0xc001b524,%eax
c00037e8:	89 45 f4             	mov    %eax,-0xc(%ebp)
c00037eb:	8b 45 f4             	mov    -0xc(%ebp),%eax
c00037ee:	8b 40 04             	mov    0x4(%eax),%eax
c00037f1:	89 45 f0             	mov    %eax,-0x10(%ebp)
c00037f4:	c7 04 24 24 b5 01 c0 	movl   $0xc001b524,(%esp)
c00037fb:	e8 69 ff ff ff       	call   c0003769 <count_queue>
c0003800:	89 45 ec             	mov    %eax,-0x14(%ebp)
c0003803:	e9 98 00 00 00       	jmp    c00038a0 <do_refresh_queues+0xd0>
c0003808:	8b 45 f4             	mov    -0xc(%ebp),%eax
c000380b:	89 04 24             	mov    %eax,(%esp)
c000380e:	e8 3f ff ff ff       	call   c0003752 <queue_get_entry>
c0003813:	89 45 e8             	mov    %eax,-0x18(%ebp)
c0003816:	8b 45 e8             	mov    -0x18(%ebp),%eax
c0003819:	0f b6 80 a4 20 00 00 	movzbl 0x20a4(%eax),%eax
c0003820:	3c 02                	cmp    $0x2,%al
c0003822:	75 1d                	jne    c0003841 <do_refresh_queues+0x71>
c0003824:	8b 45 f4             	mov    -0xc(%ebp),%eax
c0003827:	89 44 24 08          	mov    %eax,0x8(%esp)
c000382b:	c7 44 24 04 24 b5 01 	movl   $0xc001b524,0x4(%esp)
c0003832:	c0 
c0003833:	c7 04 24 28 b5 01 c0 	movl   $0xc001b528,(%esp)
c000383a:	e8 54 fe ff ff       	call   c0003693 <queue_move_entry>
c000383f:	eb 50                	jmp    c0003891 <do_refresh_queues+0xc1>
c0003841:	8b 45 e8             	mov    -0x18(%ebp),%eax
c0003844:	0f b6 80 a4 20 00 00 	movzbl 0x20a4(%eax),%eax
c000384b:	3c 04                	cmp    $0x4,%al
c000384d:	75 42                	jne    c0003891 <do_refresh_queues+0xc1>
c000384f:	8b 45 f4             	mov    -0xc(%ebp),%eax
c0003852:	89 44 24 08          	mov    %eax,0x8(%esp)
c0003856:	c7 44 24 04 24 b5 01 	movl   $0xc001b524,0x4(%esp)
c000385d:	c0 
c000385e:	c7 04 24 2c b5 01 c0 	movl   $0xc001b52c,(%esp)
c0003865:	e8 29 fe ff ff       	call   c0003693 <queue_move_entry>
c000386a:	c7 44 24 0c 35 00 00 	movl   $0x35,0xc(%esp)
c0003871:	00 
c0003872:	c7 44 24 08 e0 86 00 	movl   $0xc00086e0,0x8(%esp)
c0003879:	c0 
c000387a:	c7 44 24 04 ef 86 00 	movl   $0xc00086ef,0x4(%esp)
c0003881:	c0 
c0003882:	c7 04 24 fc 86 00 c0 	movl   $0xc00086fc,(%esp)
c0003889:	e8 11 da ff ff       	call   c000129f <kprintf>
c000388e:	fa                   	cli    
c000388f:	eb fe                	jmp    c000388f <do_refresh_queues+0xbf>
c0003891:	8b 45 f0             	mov    -0x10(%ebp),%eax
c0003894:	89 45 f4             	mov    %eax,-0xc(%ebp)
c0003897:	8b 45 f4             	mov    -0xc(%ebp),%eax
c000389a:	8b 40 04             	mov    0x4(%eax),%eax
c000389d:	89 45 f0             	mov    %eax,-0x10(%ebp)
c00038a0:	8b 45 ec             	mov    -0x14(%ebp),%eax
c00038a3:	8d 50 ff             	lea    -0x1(%eax),%edx
c00038a6:	89 55 ec             	mov    %edx,-0x14(%ebp)
c00038a9:	85 c0                	test   %eax,%eax
c00038ab:	0f 85 57 ff ff ff    	jne    c0003808 <do_refresh_queues+0x38>
c00038b1:	a1 28 b5 01 c0       	mov    0xc001b528,%eax
c00038b6:	85 c0                	test   %eax,%eax
c00038b8:	0f 84 e3 00 00 00    	je     c00039a1 <do_refresh_queues+0x1d1>
c00038be:	a1 28 b5 01 c0       	mov    0xc001b528,%eax
c00038c3:	89 45 f4             	mov    %eax,-0xc(%ebp)
c00038c6:	8b 45 f4             	mov    -0xc(%ebp),%eax
c00038c9:	8b 40 04             	mov    0x4(%eax),%eax
c00038cc:	89 45 f0             	mov    %eax,-0x10(%ebp)
c00038cf:	c7 04 24 28 b5 01 c0 	movl   $0xc001b528,(%esp)
c00038d6:	e8 8e fe ff ff       	call   c0003769 <count_queue>
c00038db:	89 45 ec             	mov    %eax,-0x14(%ebp)
c00038de:	e9 ad 00 00 00       	jmp    c0003990 <do_refresh_queues+0x1c0>
c00038e3:	8b 45 f4             	mov    -0xc(%ebp),%eax
c00038e6:	89 04 24             	mov    %eax,(%esp)
c00038e9:	e8 64 fe ff ff       	call   c0003752 <queue_get_entry>
c00038ee:	89 45 e8             	mov    %eax,-0x18(%ebp)
c00038f1:	8b 45 e8             	mov    -0x18(%ebp),%eax
c00038f4:	0f b6 80 a4 20 00 00 	movzbl 0x20a4(%eax),%eax
c00038fb:	3c 01                	cmp    $0x1,%al
c00038fd:	75 32                	jne    c0003931 <do_refresh_queues+0x161>
c00038ff:	8b 45 f4             	mov    -0xc(%ebp),%eax
c0003902:	89 44 24 08          	mov    %eax,0x8(%esp)
c0003906:	c7 44 24 04 28 b5 01 	movl   $0xc001b528,0x4(%esp)
c000390d:	c0 
c000390e:	c7 04 24 24 b5 01 c0 	movl   $0xc001b524,(%esp)
c0003915:	e8 79 fd ff ff       	call   c0003693 <queue_move_entry>
c000391a:	8b 45 e8             	mov    -0x18(%ebp),%eax
c000391d:	8b 80 b8 20 00 00    	mov    0x20b8(%eax),%eax
c0003923:	8d 50 e0             	lea    -0x20(%eax),%edx
c0003926:	8b 45 e8             	mov    -0x18(%ebp),%eax
c0003929:	89 90 bc 20 00 00    	mov    %edx,0x20bc(%eax)
c000392f:	eb 50                	jmp    c0003981 <do_refresh_queues+0x1b1>
c0003931:	8b 45 e8             	mov    -0x18(%ebp),%eax
c0003934:	0f b6 80 a4 20 00 00 	movzbl 0x20a4(%eax),%eax
c000393b:	3c 04                	cmp    $0x4,%al
c000393d:	75 42                	jne    c0003981 <do_refresh_queues+0x1b1>
c000393f:	8b 45 f4             	mov    -0xc(%ebp),%eax
c0003942:	89 44 24 08          	mov    %eax,0x8(%esp)
c0003946:	c7 44 24 04 28 b5 01 	movl   $0xc001b528,0x4(%esp)
c000394d:	c0 
c000394e:	c7 04 24 2c b5 01 c0 	movl   $0xc001b52c,(%esp)
c0003955:	e8 39 fd ff ff       	call   c0003693 <queue_move_entry>
c000395a:	c7 44 24 0c 43 00 00 	movl   $0x43,0xc(%esp)
c0003961:	00 
c0003962:	c7 44 24 08 e0 86 00 	movl   $0xc00086e0,0x8(%esp)
c0003969:	c0 
c000396a:	c7 44 24 04 ef 86 00 	movl   $0xc00086ef,0x4(%esp)
c0003971:	c0 
c0003972:	c7 04 24 fc 86 00 c0 	movl   $0xc00086fc,(%esp)
c0003979:	e8 21 d9 ff ff       	call   c000129f <kprintf>
c000397e:	fa                   	cli    
c000397f:	eb fe                	jmp    c000397f <do_refresh_queues+0x1af>
c0003981:	8b 45 f0             	mov    -0x10(%ebp),%eax
c0003984:	89 45 f4             	mov    %eax,-0xc(%ebp)
c0003987:	8b 45 f4             	mov    -0xc(%ebp),%eax
c000398a:	8b 40 04             	mov    0x4(%eax),%eax
c000398d:	89 45 f0             	mov    %eax,-0x10(%ebp)
c0003990:	8b 45 ec             	mov    -0x14(%ebp),%eax
c0003993:	8d 50 ff             	lea    -0x1(%eax),%edx
c0003996:	89 55 ec             	mov    %edx,-0x14(%ebp)
c0003999:	85 c0                	test   %eax,%eax
c000399b:	0f 85 42 ff ff ff    	jne    c00038e3 <do_refresh_queues+0x113>
c00039a1:	c7 05 38 b5 01 c0 00 	movl   $0x0,0xc001b538
c00039a8:	00 00 00 
c00039ab:	c9                   	leave  
c00039ac:	c3                   	ret    

c00039ad <switch_to>:
switch_to():
c00039ad:	55                   	push   %ebp
c00039ae:	89 e5                	mov    %esp,%ebp
c00039b0:	83 ec 0c             	sub    $0xc,%esp
c00039b3:	8b 45 08             	mov    0x8(%ebp),%eax
c00039b6:	3b 45 0c             	cmp    0xc(%ebp),%eax
c00039b9:	74 7e                	je     c0003a39 <switch_to+0x8c>
c00039bb:	8b 45 0c             	mov    0xc(%ebp),%eax
c00039be:	8b 90 70 20 00 00    	mov    0x2070(%eax),%edx
c00039c4:	8b 45 08             	mov    0x8(%ebp),%eax
c00039c7:	8b 80 70 20 00 00    	mov    0x2070(%eax),%eax
c00039cd:	39 c2                	cmp    %eax,%edx
c00039cf:	74 53                	je     c0003a24 <switch_to+0x77>
c00039d1:	8b 45 0c             	mov    0xc(%ebp),%eax
c00039d4:	8b 50 1c             	mov    0x1c(%eax),%edx
c00039d7:	8b 45 08             	mov    0x8(%ebp),%eax
c00039da:	8b 40 1c             	mov    0x1c(%eax),%eax
c00039dd:	39 c2                	cmp    %eax,%edx
c00039df:	74 31                	je     c0003a12 <switch_to+0x65>
c00039e1:	8b 45 08             	mov    0x8(%ebp),%eax
c00039e4:	8b 80 6c 20 00 00    	mov    0x206c(%eax),%eax
c00039ea:	8d 90 00 0c 00 00    	lea    0xc00(%eax),%edx
c00039f0:	8b 45 0c             	mov    0xc(%ebp),%eax
c00039f3:	8b 80 6c 20 00 00    	mov    0x206c(%eax),%eax
c00039f9:	05 00 0c 00 00       	add    $0xc00,%eax
c00039fe:	c7 44 24 08 fc 03 00 	movl   $0x3fc,0x8(%esp)
c0003a05:	00 
c0003a06:	89 54 24 04          	mov    %edx,0x4(%esp)
c0003a0a:	89 04 24             	mov    %eax,(%esp)
c0003a0d:	e8 68 fc ff ff       	call   c000367a <memcpy08>
c0003a12:	8b 45 08             	mov    0x8(%ebp),%eax
c0003a15:	8b 90 70 20 00 00    	mov    0x2070(%eax),%edx
c0003a1b:	8b 45 0c             	mov    0xc(%ebp),%eax
c0003a1e:	89 90 70 20 00 00    	mov    %edx,0x2070(%eax)
c0003a24:	8b 45 0c             	mov    0xc(%ebp),%eax
c0003a27:	0f b7 80 68 20 00 00 	movzwl 0x2068(%eax),%eax
c0003a2e:	0f b7 c0             	movzwl %ax,%eax
c0003a31:	89 04 24             	mov    %eax,(%esp)
c0003a34:	e8 02 fc ff ff       	call   c000363b <jmp_to_tss>
c0003a39:	c9                   	leave  
c0003a3a:	c3                   	ret    

c0003a3b <schedule>:
schedule():
c0003a3b:	55                   	push   %ebp
c0003a3c:	89 e5                	mov    %esp,%ebp
c0003a3e:	83 ec 38             	sub    $0x38,%esp
c0003a41:	c7 45 f4 ff ff ff 7f 	movl   $0x7fffffff,-0xc(%ebp)
c0003a48:	e8 6e fd ff ff       	call   c00037bb <sched_is_disabled>
c0003a4d:	85 c0                	test   %eax,%eax
c0003a4f:	74 05                	je     c0003a56 <schedule+0x1b>
c0003a51:	e9 fc 00 00 00       	jmp    c0003b52 <schedule+0x117>
c0003a56:	9c                   	pushf  
c0003a57:	58                   	pop    %eax
c0003a58:	fa                   	cli    
c0003a59:	89 45 e8             	mov    %eax,-0x18(%ebp)
c0003a5c:	a1 38 b5 01 c0       	mov    0xc001b538,%eax
c0003a61:	85 c0                	test   %eax,%eax
c0003a63:	74 05                	je     c0003a6a <schedule+0x2f>
c0003a65:	e8 66 fd ff ff       	call   c00037d0 <do_refresh_queues>
c0003a6a:	a1 30 b5 01 c0       	mov    0xc001b530,%eax
c0003a6f:	89 45 e4             	mov    %eax,-0x1c(%ebp)
c0003a72:	a1 34 b5 01 c0       	mov    0xc001b534,%eax
c0003a77:	a3 30 b5 01 c0       	mov    %eax,0xc001b530
c0003a7c:	8b 45 e4             	mov    -0x1c(%ebp),%eax
c0003a7f:	8b 90 b8 20 00 00    	mov    0x20b8(%eax),%edx
c0003a85:	8b 45 e4             	mov    -0x1c(%ebp),%eax
c0003a88:	89 90 bc 20 00 00    	mov    %edx,0x20bc(%eax)
c0003a8e:	a1 24 b5 01 c0       	mov    0xc001b524,%eax
c0003a93:	85 c0                	test   %eax,%eax
c0003a95:	0f 84 9f 00 00 00    	je     c0003b3a <schedule+0xff>
c0003a9b:	a1 24 b5 01 c0       	mov    0xc001b524,%eax
c0003aa0:	89 45 f0             	mov    %eax,-0x10(%ebp)
c0003aa3:	c7 45 ec 00 00 00 00 	movl   $0x0,-0x14(%ebp)
c0003aaa:	8b 45 f0             	mov    -0x10(%ebp),%eax
c0003aad:	8b 40 04             	mov    0x4(%eax),%eax
c0003ab0:	89 04 24             	mov    %eax,(%esp)
c0003ab3:	e8 78 fb ff ff       	call   c0003630 <prefetch_cpu_cache>
c0003ab8:	eb 70                	jmp    c0003b2a <schedule+0xef>
c0003aba:	8b 45 f0             	mov    -0x10(%ebp),%eax
c0003abd:	89 04 24             	mov    %eax,(%esp)
c0003ac0:	e8 8d fc ff ff       	call   c0003752 <queue_get_entry>
c0003ac5:	89 45 e0             	mov    %eax,-0x20(%ebp)
c0003ac8:	8b 45 e0             	mov    -0x20(%ebp),%eax
c0003acb:	8b 80 bc 20 00 00    	mov    0x20bc(%eax),%eax
c0003ad1:	3b 45 f4             	cmp    -0xc(%ebp),%eax
c0003ad4:	7d 16                	jge    c0003aec <schedule+0xb1>
c0003ad6:	8b 45 e0             	mov    -0x20(%ebp),%eax
c0003ad9:	a3 30 b5 01 c0       	mov    %eax,0xc001b530
c0003ade:	a1 30 b5 01 c0       	mov    0xc001b530,%eax
c0003ae3:	8b 80 bc 20 00 00    	mov    0x20bc(%eax),%eax
c0003ae9:	89 45 f4             	mov    %eax,-0xc(%ebp)
c0003aec:	8b 45 e0             	mov    -0x20(%ebp),%eax
c0003aef:	8b 80 bc 20 00 00    	mov    0x20bc(%eax),%eax
c0003af5:	83 f8 e1             	cmp    $0xffffffe1,%eax
c0003af8:	7c 15                	jl     c0003b0f <schedule+0xd4>
c0003afa:	8b 45 e0             	mov    -0x20(%ebp),%eax
c0003afd:	8b 80 bc 20 00 00    	mov    0x20bc(%eax),%eax
c0003b03:	8d 50 ff             	lea    -0x1(%eax),%edx
c0003b06:	8b 45 e0             	mov    -0x20(%ebp),%eax
c0003b09:	89 90 bc 20 00 00    	mov    %edx,0x20bc(%eax)
c0003b0f:	8b 45 f0             	mov    -0x10(%ebp),%eax
c0003b12:	8b 40 04             	mov    0x4(%eax),%eax
c0003b15:	89 45 f0             	mov    %eax,-0x10(%ebp)
c0003b18:	8b 45 f0             	mov    -0x10(%ebp),%eax
c0003b1b:	8b 40 04             	mov    0x4(%eax),%eax
c0003b1e:	89 04 24             	mov    %eax,(%esp)
c0003b21:	e8 0a fb ff ff       	call   c0003630 <prefetch_cpu_cache>
c0003b26:	83 45 ec 01          	addl   $0x1,-0x14(%ebp)
c0003b2a:	a1 24 b5 01 c0       	mov    0xc001b524,%eax
c0003b2f:	39 45 f0             	cmp    %eax,-0x10(%ebp)
c0003b32:	75 86                	jne    c0003aba <schedule+0x7f>
c0003b34:	83 7d ec 00          	cmpl   $0x0,-0x14(%ebp)
c0003b38:	74 80                	je     c0003aba <schedule+0x7f>
c0003b3a:	a1 30 b5 01 c0       	mov    0xc001b530,%eax
c0003b3f:	89 44 24 04          	mov    %eax,0x4(%esp)
c0003b43:	8b 45 e4             	mov    -0x1c(%ebp),%eax
c0003b46:	89 04 24             	mov    %eax,(%esp)
c0003b49:	e8 5f fe ff ff       	call   c00039ad <switch_to>
c0003b4e:	ff 75 e8             	pushl  -0x18(%ebp)
c0003b51:	9d                   	popf   
c0003b52:	c9                   	leave  
c0003b53:	c3                   	ret    

c0003b54 <prefetch_cpu_cache>:
prefetch_cpu_cache():
c0003b54:	55                   	push   %ebp
c0003b55:	89 e5                	mov    %esp,%ebp
c0003b57:	8b 45 08             	mov    0x8(%ebp),%eax
c0003b5a:	0f 18 00             	prefetchnta (%eax)
c0003b5d:	5d                   	pop    %ebp
c0003b5e:	c3                   	ret    

c0003b5f <memset08>:
memset08():
c0003b5f:	55                   	push   %ebp
c0003b60:	89 e5                	mov    %esp,%ebp
c0003b62:	57                   	push   %edi
c0003b63:	83 ec 04             	sub    $0x4,%esp
c0003b66:	8b 45 0c             	mov    0xc(%ebp),%eax
c0003b69:	88 45 f8             	mov    %al,-0x8(%ebp)
c0003b6c:	8b 55 08             	mov    0x8(%ebp),%edx
c0003b6f:	8b 4d 10             	mov    0x10(%ebp),%ecx
c0003b72:	0f b6 45 f8          	movzbl -0x8(%ebp),%eax
c0003b76:	89 d7                	mov    %edx,%edi
c0003b78:	fc                   	cld    
c0003b79:	f3 aa                	rep stos %al,%es:(%edi)
c0003b7b:	83 c4 04             	add    $0x4,%esp
c0003b7e:	5f                   	pop    %edi
c0003b7f:	5d                   	pop    %ebp
c0003b80:	c3                   	ret    

c0003b81 <memset32>:
memset32():
c0003b81:	55                   	push   %ebp
c0003b82:	89 e5                	mov    %esp,%ebp
c0003b84:	57                   	push   %edi
c0003b85:	8b 55 08             	mov    0x8(%ebp),%edx
c0003b88:	8b 4d 10             	mov    0x10(%ebp),%ecx
c0003b8b:	8b 45 0c             	mov    0xc(%ebp),%eax
c0003b8e:	89 d7                	mov    %edx,%edi
c0003b90:	fc                   	cld    
c0003b91:	f3 ab                	rep stos %eax,%es:(%edi)
c0003b93:	5f                   	pop    %edi
c0003b94:	5d                   	pop    %ebp
c0003b95:	c3                   	ret    

c0003b96 <memcpy08>:
memcpy08():
c0003b96:	55                   	push   %ebp
c0003b97:	89 e5                	mov    %esp,%ebp
c0003b99:	57                   	push   %edi
c0003b9a:	56                   	push   %esi
c0003b9b:	8b 45 08             	mov    0x8(%ebp),%eax
c0003b9e:	8b 55 0c             	mov    0xc(%ebp),%edx
c0003ba1:	8b 4d 10             	mov    0x10(%ebp),%ecx
c0003ba4:	89 c7                	mov    %eax,%edi
c0003ba6:	89 d6                	mov    %edx,%esi
c0003ba8:	fc                   	cld    
c0003ba9:	f3 a4                	rep movsb %ds:(%esi),%es:(%edi)
c0003bab:	5e                   	pop    %esi
c0003bac:	5f                   	pop    %edi
c0003bad:	5d                   	pop    %ebp
c0003bae:	c3                   	ret    

c0003baf <virtual_to_physical_address>:
virtual_to_physical_address():
c0003baf:	55                   	push   %ebp
c0003bb0:	89 e5                	mov    %esp,%ebp
c0003bb2:	8b 45 08             	mov    0x8(%ebp),%eax
c0003bb5:	c1 e8 16             	shr    $0x16,%eax
c0003bb8:	05 00 fc ff 3f       	add    $0x3ffffc00,%eax
c0003bbd:	c1 e0 02             	shl    $0x2,%eax
c0003bc0:	8b 00                	mov    (%eax),%eax
c0003bc2:	85 c0                	test   %eax,%eax
c0003bc4:	75 07                	jne    c0003bcd <virtual_to_physical_address+0x1e>
c0003bc6:	b8 00 00 00 00       	mov    $0x0,%eax
c0003bcb:	eb 33                	jmp    c0003c00 <virtual_to_physical_address+0x51>
c0003bcd:	8b 45 08             	mov    0x8(%ebp),%eax
c0003bd0:	c1 e8 16             	shr    $0x16,%eax
c0003bd3:	05 00 fc 0f 00       	add    $0xffc00,%eax
c0003bd8:	c1 e0 0a             	shl    $0xa,%eax
c0003bdb:	89 c2                	mov    %eax,%edx
c0003bdd:	8b 45 08             	mov    0x8(%ebp),%eax
c0003be0:	25 ff ff 3f 00       	and    $0x3fffff,%eax
c0003be5:	c1 e8 0c             	shr    $0xc,%eax
c0003be8:	01 d0                	add    %edx,%eax
c0003bea:	c1 e0 02             	shl    $0x2,%eax
c0003bed:	8b 00                	mov    (%eax),%eax
c0003bef:	25 00 f0 ff ff       	and    $0xfffff000,%eax
c0003bf4:	89 c2                	mov    %eax,%edx
c0003bf6:	8b 45 08             	mov    0x8(%ebp),%eax
c0003bf9:	25 ff 0f 00 00       	and    $0xfff,%eax
c0003bfe:	01 d0                	add    %edx,%eax
c0003c00:	5d                   	pop    %ebp
c0003c01:	c3                   	ret    

c0003c02 <switch_mmu>:
switch_mmu():
c0003c02:	55                   	push   %ebp
c0003c03:	89 e5                	mov    %esp,%ebp
c0003c05:	8b 45 08             	mov    0x8(%ebp),%eax
c0003c08:	0f 22 d8             	mov    %eax,%cr3
c0003c0b:	5d                   	pop    %ebp
c0003c0c:	c3                   	ret    

c0003c0d <__queue_del_entry>:
__queue_del_entry():
c0003c0d:	55                   	push   %ebp
c0003c0e:	89 e5                	mov    %esp,%ebp
c0003c10:	83 ec 18             	sub    $0x18,%esp
c0003c13:	8b 45 0c             	mov    0xc(%ebp),%eax
c0003c16:	8b 40 04             	mov    0x4(%eax),%eax
c0003c19:	8b 55 0c             	mov    0xc(%ebp),%edx
c0003c1c:	8b 52 08             	mov    0x8(%edx),%edx
c0003c1f:	89 50 08             	mov    %edx,0x8(%eax)
c0003c22:	8b 45 0c             	mov    0xc(%ebp),%eax
c0003c25:	8b 40 08             	mov    0x8(%eax),%eax
c0003c28:	8b 55 0c             	mov    0xc(%ebp),%edx
c0003c2b:	8b 52 04             	mov    0x4(%edx),%edx
c0003c2e:	89 50 04             	mov    %edx,0x4(%eax)
c0003c31:	8b 45 08             	mov    0x8(%ebp),%eax
c0003c34:	8b 00                	mov    (%eax),%eax
c0003c36:	3b 45 0c             	cmp    0xc(%ebp),%eax
c0003c39:	75 20                	jne    c0003c5b <__queue_del_entry+0x4e>
c0003c3b:	8b 45 08             	mov    0x8(%ebp),%eax
c0003c3e:	8b 00                	mov    (%eax),%eax
c0003c40:	8b 50 04             	mov    0x4(%eax),%edx
c0003c43:	8b 45 08             	mov    0x8(%ebp),%eax
c0003c46:	89 10                	mov    %edx,(%eax)
c0003c48:	8b 45 08             	mov    0x8(%ebp),%eax
c0003c4b:	8b 00                	mov    (%eax),%eax
c0003c4d:	3b 45 0c             	cmp    0xc(%ebp),%eax
c0003c50:	75 09                	jne    c0003c5b <__queue_del_entry+0x4e>
c0003c52:	8b 45 08             	mov    0x8(%ebp),%eax
c0003c55:	c7 00 00 00 00 00    	movl   $0x0,(%eax)
c0003c5b:	8b 45 0c             	mov    0xc(%ebp),%eax
c0003c5e:	89 04 24             	mov    %eax,(%esp)
c0003c61:	e8 53 e8 ff ff       	call   c00024b9 <kfree>
c0003c66:	c9                   	leave  
c0003c67:	c3                   	ret    

c0003c68 <count_queue>:
count_queue():
c0003c68:	55                   	push   %ebp
c0003c69:	89 e5                	mov    %esp,%ebp
c0003c6b:	53                   	push   %ebx
c0003c6c:	83 ec 14             	sub    $0x14,%esp
c0003c6f:	8b 45 08             	mov    0x8(%ebp),%eax
c0003c72:	8b 00                	mov    (%eax),%eax
c0003c74:	89 45 f4             	mov    %eax,-0xc(%ebp)
c0003c77:	8b 45 08             	mov    0x8(%ebp),%eax
c0003c7a:	8b 00                	mov    (%eax),%eax
c0003c7c:	89 45 f8             	mov    %eax,-0x8(%ebp)
c0003c7f:	bb 00 00 00 00       	mov    $0x0,%ebx
c0003c84:	83 7d f4 00          	cmpl   $0x0,-0xc(%ebp)
c0003c88:	74 28                	je     c0003cb2 <count_queue+0x4a>
c0003c8a:	eb 1a                	jmp    c0003ca6 <count_queue+0x3e>
c0003c8c:	8b 45 f8             	mov    -0x8(%ebp),%eax
c0003c8f:	8b 40 04             	mov    0x4(%eax),%eax
c0003c92:	89 45 f8             	mov    %eax,-0x8(%ebp)
c0003c95:	8b 45 f8             	mov    -0x8(%ebp),%eax
c0003c98:	8b 40 04             	mov    0x4(%eax),%eax
c0003c9b:	89 04 24             	mov    %eax,(%esp)
c0003c9e:	e8 b1 fe ff ff       	call   c0003b54 <prefetch_cpu_cache>
c0003ca3:	83 c3 01             	add    $0x1,%ebx
c0003ca6:	8b 45 f8             	mov    -0x8(%ebp),%eax
c0003ca9:	3b 45 f4             	cmp    -0xc(%ebp),%eax
c0003cac:	75 de                	jne    c0003c8c <count_queue+0x24>
c0003cae:	85 db                	test   %ebx,%ebx
c0003cb0:	74 da                	je     c0003c8c <count_queue+0x24>
c0003cb2:	89 d8                	mov    %ebx,%eax
c0003cb4:	83 c4 14             	add    $0x14,%esp
c0003cb7:	5b                   	pop    %ebx
c0003cb8:	5d                   	pop    %ebp
c0003cb9:	c3                   	ret    

c0003cba <add_queue>:
add_queue():
c0003cba:	55                   	push   %ebp
c0003cbb:	89 e5                	mov    %esp,%ebp
c0003cbd:	83 ec 28             	sub    $0x28,%esp
c0003cc0:	c7 44 24 04 02 00 00 	movl   $0x2,0x4(%esp)
c0003cc7:	00 
c0003cc8:	c7 04 24 0c 00 00 00 	movl   $0xc,(%esp)
c0003ccf:	e8 52 e5 ff ff       	call   c0002226 <kmalloc>
c0003cd4:	89 45 f4             	mov    %eax,-0xc(%ebp)
c0003cd7:	83 7d f4 00          	cmpl   $0x0,-0xc(%ebp)
c0003cdb:	75 07                	jne    c0003ce4 <add_queue+0x2a>
c0003cdd:	b8 f4 ff ff ff       	mov    $0xfffffff4,%eax
c0003ce2:	eb 67                	jmp    c0003d4b <add_queue+0x91>
c0003ce4:	8b 45 f4             	mov    -0xc(%ebp),%eax
c0003ce7:	8b 55 0c             	mov    0xc(%ebp),%edx
c0003cea:	89 10                	mov    %edx,(%eax)
c0003cec:	8b 45 08             	mov    0x8(%ebp),%eax
c0003cef:	8b 00                	mov    (%eax),%eax
c0003cf1:	85 c0                	test   %eax,%eax
c0003cf3:	75 1f                	jne    c0003d14 <add_queue+0x5a>
c0003cf5:	8b 45 f4             	mov    -0xc(%ebp),%eax
c0003cf8:	8b 55 f4             	mov    -0xc(%ebp),%edx
c0003cfb:	89 50 08             	mov    %edx,0x8(%eax)
c0003cfe:	8b 45 f4             	mov    -0xc(%ebp),%eax
c0003d01:	8b 50 08             	mov    0x8(%eax),%edx
c0003d04:	8b 45 f4             	mov    -0xc(%ebp),%eax
c0003d07:	89 50 04             	mov    %edx,0x4(%eax)
c0003d0a:	8b 45 08             	mov    0x8(%ebp),%eax
c0003d0d:	8b 55 f4             	mov    -0xc(%ebp),%edx
c0003d10:	89 10                	mov    %edx,(%eax)
c0003d12:	eb 32                	jmp    c0003d46 <add_queue+0x8c>
c0003d14:	8b 45 08             	mov    0x8(%ebp),%eax
c0003d17:	8b 00                	mov    (%eax),%eax
c0003d19:	8b 50 08             	mov    0x8(%eax),%edx
c0003d1c:	8b 45 f4             	mov    -0xc(%ebp),%eax
c0003d1f:	89 50 08             	mov    %edx,0x8(%eax)
c0003d22:	8b 45 08             	mov    0x8(%ebp),%eax
c0003d25:	8b 10                	mov    (%eax),%edx
c0003d27:	8b 45 f4             	mov    -0xc(%ebp),%eax
c0003d2a:	89 50 04             	mov    %edx,0x4(%eax)
c0003d2d:	8b 45 08             	mov    0x8(%ebp),%eax
c0003d30:	8b 00                	mov    (%eax),%eax
c0003d32:	8b 40 08             	mov    0x8(%eax),%eax
c0003d35:	8b 55 f4             	mov    -0xc(%ebp),%edx
c0003d38:	89 50 04             	mov    %edx,0x4(%eax)
c0003d3b:	8b 45 08             	mov    0x8(%ebp),%eax
c0003d3e:	8b 00                	mov    (%eax),%eax
c0003d40:	8b 55 f4             	mov    -0xc(%ebp),%edx
c0003d43:	89 50 08             	mov    %edx,0x8(%eax)
c0003d46:	b8 00 00 00 00       	mov    $0x0,%eax
c0003d4b:	c9                   	leave  
c0003d4c:	c3                   	ret    

c0003d4d <rem_queue>:
rem_queue():
c0003d4d:	55                   	push   %ebp
c0003d4e:	89 e5                	mov    %esp,%ebp
c0003d50:	83 ec 28             	sub    $0x28,%esp
c0003d53:	8b 45 08             	mov    0x8(%ebp),%eax
c0003d56:	8b 00                	mov    (%eax),%eax
c0003d58:	85 c0                	test   %eax,%eax
c0003d5a:	74 60                	je     c0003dbc <rem_queue+0x6f>
c0003d5c:	8b 45 08             	mov    0x8(%ebp),%eax
c0003d5f:	8b 00                	mov    (%eax),%eax
c0003d61:	89 45 f4             	mov    %eax,-0xc(%ebp)
c0003d64:	8b 45 f4             	mov    -0xc(%ebp),%eax
c0003d67:	8b 40 04             	mov    0x4(%eax),%eax
c0003d6a:	89 45 f0             	mov    %eax,-0x10(%ebp)
c0003d6d:	8b 45 08             	mov    0x8(%ebp),%eax
c0003d70:	89 04 24             	mov    %eax,(%esp)
c0003d73:	e8 f0 fe ff ff       	call   c0003c68 <count_queue>
c0003d78:	89 45 ec             	mov    %eax,-0x14(%ebp)
c0003d7b:	eb 32                	jmp    c0003daf <rem_queue+0x62>
c0003d7d:	8b 45 f4             	mov    -0xc(%ebp),%eax
c0003d80:	8b 00                	mov    (%eax),%eax
c0003d82:	3b 45 0c             	cmp    0xc(%ebp),%eax
c0003d85:	75 19                	jne    c0003da0 <rem_queue+0x53>
c0003d87:	8b 45 f4             	mov    -0xc(%ebp),%eax
c0003d8a:	89 44 24 04          	mov    %eax,0x4(%esp)
c0003d8e:	8b 45 08             	mov    0x8(%ebp),%eax
c0003d91:	89 04 24             	mov    %eax,(%esp)
c0003d94:	e8 74 fe ff ff       	call   c0003c0d <__queue_del_entry>
c0003d99:	b8 00 00 00 00       	mov    $0x0,%eax
c0003d9e:	eb 21                	jmp    c0003dc1 <rem_queue+0x74>
c0003da0:	8b 45 f0             	mov    -0x10(%ebp),%eax
c0003da3:	89 45 f4             	mov    %eax,-0xc(%ebp)
c0003da6:	8b 45 f4             	mov    -0xc(%ebp),%eax
c0003da9:	8b 40 04             	mov    0x4(%eax),%eax
c0003dac:	89 45 f0             	mov    %eax,-0x10(%ebp)
c0003daf:	8b 45 ec             	mov    -0x14(%ebp),%eax
c0003db2:	8d 50 ff             	lea    -0x1(%eax),%edx
c0003db5:	89 55 ec             	mov    %edx,-0x14(%ebp)
c0003db8:	85 c0                	test   %eax,%eax
c0003dba:	75 c1                	jne    c0003d7d <rem_queue+0x30>
c0003dbc:	b8 ff ff ff ff       	mov    $0xffffffff,%eax
c0003dc1:	c9                   	leave  
c0003dc2:	c3                   	ret    

c0003dc3 <pick_queue>:
pick_queue():
c0003dc3:	55                   	push   %ebp
c0003dc4:	89 e5                	mov    %esp,%ebp
c0003dc6:	83 ec 10             	sub    $0x10,%esp
c0003dc9:	8b 45 08             	mov    0x8(%ebp),%eax
c0003dcc:	8b 00                	mov    (%eax),%eax
c0003dce:	85 c0                	test   %eax,%eax
c0003dd0:	75 07                	jne    c0003dd9 <pick_queue+0x16>
c0003dd2:	b8 00 00 00 00       	mov    $0x0,%eax
c0003dd7:	eb 1a                	jmp    c0003df3 <pick_queue+0x30>
c0003dd9:	8b 45 08             	mov    0x8(%ebp),%eax
c0003ddc:	8b 00                	mov    (%eax),%eax
c0003dde:	8b 00                	mov    (%eax),%eax
c0003de0:	89 45 fc             	mov    %eax,-0x4(%ebp)
c0003de3:	8b 45 08             	mov    0x8(%ebp),%eax
c0003de6:	8b 00                	mov    (%eax),%eax
c0003de8:	8b 50 04             	mov    0x4(%eax),%edx
c0003deb:	8b 45 08             	mov    0x8(%ebp),%eax
c0003dee:	89 10                	mov    %edx,(%eax)
c0003df0:	8b 45 fc             	mov    -0x4(%ebp),%eax
c0003df3:	c9                   	leave  
c0003df4:	c3                   	ret    

c0003df5 <task_switch_mmu>:
task_switch_mmu():
c0003df5:	55                   	push   %ebp
c0003df6:	89 e5                	mov    %esp,%ebp
c0003df8:	83 ec 1c             	sub    $0x1c,%esp
c0003dfb:	8b 45 08             	mov    0x8(%ebp),%eax
c0003dfe:	8b 80 6c 20 00 00    	mov    0x206c(%eax),%eax
c0003e04:	89 04 24             	mov    %eax,(%esp)
c0003e07:	e8 a3 fd ff ff       	call   c0003baf <virtual_to_physical_address>
c0003e0c:	89 45 fc             	mov    %eax,-0x4(%ebp)
c0003e0f:	8b 45 0c             	mov    0xc(%ebp),%eax
c0003e12:	8b 80 6c 20 00 00    	mov    0x206c(%eax),%eax
c0003e18:	89 04 24             	mov    %eax,(%esp)
c0003e1b:	e8 8f fd ff ff       	call   c0003baf <virtual_to_physical_address>
c0003e20:	89 45 f8             	mov    %eax,-0x8(%ebp)
c0003e23:	8b 45 fc             	mov    -0x4(%ebp),%eax
c0003e26:	3b 45 f8             	cmp    -0x8(%ebp),%eax
c0003e29:	74 6e                	je     c0003e99 <task_switch_mmu+0xa4>
c0003e2b:	8b 45 0c             	mov    0xc(%ebp),%eax
c0003e2e:	8b 90 70 20 00 00    	mov    0x2070(%eax),%edx
c0003e34:	8b 45 08             	mov    0x8(%ebp),%eax
c0003e37:	8b 80 70 20 00 00    	mov    0x2070(%eax),%eax
c0003e3d:	39 c2                	cmp    %eax,%edx
c0003e3f:	74 4d                	je     c0003e8e <task_switch_mmu+0x99>
c0003e41:	9c                   	pushf  
c0003e42:	58                   	pop    %eax
c0003e43:	fa                   	cli    
c0003e44:	89 45 f4             	mov    %eax,-0xc(%ebp)
c0003e47:	8b 45 08             	mov    0x8(%ebp),%eax
c0003e4a:	8b 80 6c 20 00 00    	mov    0x206c(%eax),%eax
c0003e50:	8d 90 00 0c 00 00    	lea    0xc00(%eax),%edx
c0003e56:	8b 45 0c             	mov    0xc(%ebp),%eax
c0003e59:	8b 80 6c 20 00 00    	mov    0x206c(%eax),%eax
c0003e5f:	05 00 0c 00 00       	add    $0xc00,%eax
c0003e64:	c7 44 24 08 fc 03 00 	movl   $0x3fc,0x8(%esp)
c0003e6b:	00 
c0003e6c:	89 54 24 04          	mov    %edx,0x4(%esp)
c0003e70:	89 04 24             	mov    %eax,(%esp)
c0003e73:	e8 1e fd ff ff       	call   c0003b96 <memcpy08>
c0003e78:	8b 45 08             	mov    0x8(%ebp),%eax
c0003e7b:	8b 90 70 20 00 00    	mov    0x2070(%eax),%edx
c0003e81:	8b 45 0c             	mov    0xc(%ebp),%eax
c0003e84:	89 90 70 20 00 00    	mov    %edx,0x2070(%eax)
c0003e8a:	ff 75 f4             	pushl  -0xc(%ebp)
c0003e8d:	9d                   	popf   
c0003e8e:	8b 45 f8             	mov    -0x8(%ebp),%eax
c0003e91:	89 04 24             	mov    %eax,(%esp)
c0003e94:	e8 69 fd ff ff       	call   c0003c02 <switch_mmu>
c0003e99:	c9                   	leave  
c0003e9a:	c3                   	ret    

c0003e9b <strcpy08>:
strcpy08():
c0003e9b:	55                   	push   %ebp
c0003e9c:	89 e5                	mov    %esp,%ebp
c0003e9e:	83 ec 10             	sub    $0x10,%esp
c0003ea1:	8b 45 08             	mov    0x8(%ebp),%eax
c0003ea4:	89 45 fc             	mov    %eax,-0x4(%ebp)
c0003ea7:	eb 08                	jmp    c0003eb1 <strcpy08+0x16>
c0003ea9:	83 45 08 01          	addl   $0x1,0x8(%ebp)
c0003ead:	83 45 0c 01          	addl   $0x1,0xc(%ebp)
c0003eb1:	8b 45 0c             	mov    0xc(%ebp),%eax
c0003eb4:	0f b6 10             	movzbl (%eax),%edx
c0003eb7:	8b 45 08             	mov    0x8(%ebp),%eax
c0003eba:	88 10                	mov    %dl,(%eax)
c0003ebc:	8b 45 08             	mov    0x8(%ebp),%eax
c0003ebf:	0f b6 00             	movzbl (%eax),%eax
c0003ec2:	84 c0                	test   %al,%al
c0003ec4:	75 e3                	jne    c0003ea9 <strcpy08+0xe>
c0003ec6:	8b 45 fc             	mov    -0x4(%ebp),%eax
c0003ec9:	c9                   	leave  
c0003eca:	c3                   	ret    

c0003ecb <strncpy08>:
strncpy08():
c0003ecb:	55                   	push   %ebp
c0003ecc:	89 e5                	mov    %esp,%ebp
c0003ece:	83 ec 10             	sub    $0x10,%esp
c0003ed1:	8b 45 08             	mov    0x8(%ebp),%eax
c0003ed4:	89 45 fc             	mov    %eax,-0x4(%ebp)
c0003ed7:	8b 45 0c             	mov    0xc(%ebp),%eax
c0003eda:	89 45 f8             	mov    %eax,-0x8(%ebp)
c0003edd:	83 7d 10 00          	cmpl   $0x0,0x10(%ebp)
c0003ee1:	74 42                	je     c0003f25 <strncpy08+0x5a>
c0003ee3:	8b 45 fc             	mov    -0x4(%ebp),%eax
c0003ee6:	8d 50 01             	lea    0x1(%eax),%edx
c0003ee9:	89 55 fc             	mov    %edx,-0x4(%ebp)
c0003eec:	8b 55 f8             	mov    -0x8(%ebp),%edx
c0003eef:	8d 4a 01             	lea    0x1(%edx),%ecx
c0003ef2:	89 4d f8             	mov    %ecx,-0x8(%ebp)
c0003ef5:	0f b6 12             	movzbl (%edx),%edx
c0003ef8:	88 10                	mov    %dl,(%eax)
c0003efa:	0f b6 00             	movzbl (%eax),%eax
c0003efd:	84 c0                	test   %al,%al
c0003eff:	75 1a                	jne    c0003f1b <strncpy08+0x50>
c0003f01:	eb 0c                	jmp    c0003f0f <strncpy08+0x44>
c0003f03:	8b 45 fc             	mov    -0x4(%ebp),%eax
c0003f06:	8d 50 01             	lea    0x1(%eax),%edx
c0003f09:	89 55 fc             	mov    %edx,-0x4(%ebp)
c0003f0c:	c6 00 00             	movb   $0x0,(%eax)
c0003f0f:	83 6d 10 01          	subl   $0x1,0x10(%ebp)
c0003f13:	83 7d 10 00          	cmpl   $0x0,0x10(%ebp)
c0003f17:	75 ea                	jne    c0003f03 <strncpy08+0x38>
c0003f19:	eb 0a                	jmp    c0003f25 <strncpy08+0x5a>
c0003f1b:	83 6d 10 01          	subl   $0x1,0x10(%ebp)
c0003f1f:	83 7d 10 00          	cmpl   $0x0,0x10(%ebp)
c0003f23:	75 be                	jne    c0003ee3 <strncpy08+0x18>
c0003f25:	8b 45 08             	mov    0x8(%ebp),%eax
c0003f28:	c9                   	leave  
c0003f29:	c3                   	ret    

c0003f2a <new_pid>:
new_pid():
c0003f2a:	55                   	push   %ebp
c0003f2b:	89 e5                	mov    %esp,%ebp
c0003f2d:	83 ec 10             	sub    $0x10,%esp
c0003f30:	c7 45 f8 8c a5 00 c0 	movl   $0xc000a58c,-0x8(%ebp)
c0003f37:	8b 45 f8             	mov    -0x8(%ebp),%eax
c0003f3a:	f0 fe 08             	lock decb (%eax)
c0003f3d:	7d 09                	jge    c0003f48 <new_pid+0x1e>
c0003f3f:	80 38 00             	cmpb   $0x0,(%eax)
c0003f42:	f3 90                	pause  
c0003f44:	7e f9                	jle    c0003f3f <new_pid+0x15>
c0003f46:	eb f2                	jmp    c0003f3a <new_pid+0x10>
c0003f48:	a1 44 b5 01 c0       	mov    0xc001b544,%eax
c0003f4d:	83 c0 01             	add    $0x1,%eax
c0003f50:	a3 44 b5 01 c0       	mov    %eax,0xc001b544
c0003f55:	a1 44 b5 01 c0       	mov    0xc001b544,%eax
c0003f5a:	89 45 fc             	mov    %eax,-0x4(%ebp)
c0003f5d:	c7 45 f4 8c a5 00 c0 	movl   $0xc000a58c,-0xc(%ebp)
c0003f64:	8b 45 f4             	mov    -0xc(%ebp),%eax
c0003f67:	c6 00 01             	movb   $0x1,(%eax)
c0003f6a:	8b 45 fc             	mov    -0x4(%ebp),%eax
c0003f6d:	c9                   	leave  
c0003f6e:	c3                   	ret    

c0003f6f <get_pid>:
get_pid():
c0003f6f:	55                   	push   %ebp
c0003f70:	89 e5                	mov    %esp,%ebp
c0003f72:	a1 30 b5 01 c0       	mov    0xc001b530,%eax
c0003f77:	85 c0                	test   %eax,%eax
c0003f79:	75 07                	jne    c0003f82 <get_pid+0x13>
c0003f7b:	b8 00 00 00 00       	mov    $0x0,%eax
c0003f80:	eb 0b                	jmp    c0003f8d <get_pid+0x1e>
c0003f82:	a1 30 b5 01 c0       	mov    0xc001b530,%eax
c0003f87:	8b 80 74 20 00 00    	mov    0x2074(%eax),%eax
c0003f8d:	5d                   	pop    %ebp
c0003f8e:	c3                   	ret    

c0003f8f <new_vspace>:
new_vspace():
c0003f8f:	55                   	push   %ebp
c0003f90:	89 e5                	mov    %esp,%ebp
c0003f92:	53                   	push   %ebx
c0003f93:	83 ec 24             	sub    $0x24,%esp
c0003f96:	e8 6b f1 ff ff       	call   c0003106 <get_temp_page>
c0003f9b:	8b 55 08             	mov    0x8(%ebp),%edx
c0003f9e:	89 82 6c 20 00 00    	mov    %eax,0x206c(%edx)
c0003fa4:	8b 45 08             	mov    0x8(%ebp),%eax
c0003fa7:	8b 80 6c 20 00 00    	mov    0x206c(%eax),%eax
c0003fad:	85 c0                	test   %eax,%eax
c0003faf:	75 19                	jne    c0003fca <new_vspace+0x3b>
c0003fb1:	c7 44 24 04 ba 88 00 	movl   $0xc00088ba,0x4(%esp)
c0003fb8:	c0 
c0003fb9:	c7 04 24 24 87 00 c0 	movl   $0xc0008724,(%esp)
c0003fc0:	e8 da d2 ff ff       	call   c000129f <kprintf>
c0003fc5:	e9 e2 00 00 00       	jmp    c00040ac <new_vspace+0x11d>
c0003fca:	8b 45 08             	mov    0x8(%ebp),%eax
c0003fcd:	8b 80 6c 20 00 00    	mov    0x206c(%eax),%eax
c0003fd3:	c7 44 24 08 00 0c 00 	movl   $0xc00,0x8(%esp)
c0003fda:	00 
c0003fdb:	c7 44 24 04 00 00 00 	movl   $0x0,0x4(%esp)
c0003fe2:	00 
c0003fe3:	89 04 24             	mov    %eax,(%esp)
c0003fe6:	e8 74 fb ff ff       	call   c0003b5f <memset08>
c0003feb:	a1 30 b5 01 c0       	mov    0xc001b530,%eax
c0003ff0:	85 c0                	test   %eax,%eax
c0003ff2:	74 40                	je     c0004034 <new_vspace+0xa5>
c0003ff4:	c7 45 f4 00 03 00 00 	movl   $0x300,-0xc(%ebp)
c0003ffb:	eb 2c                	jmp    c0004029 <new_vspace+0x9a>
c0003ffd:	8b 45 08             	mov    0x8(%ebp),%eax
c0004000:	8b 80 6c 20 00 00    	mov    0x206c(%eax),%eax
c0004006:	8b 55 f4             	mov    -0xc(%ebp),%edx
c0004009:	c1 e2 02             	shl    $0x2,%edx
c000400c:	01 c2                	add    %eax,%edx
c000400e:	a1 30 b5 01 c0       	mov    0xc001b530,%eax
c0004013:	8b 80 6c 20 00 00    	mov    0x206c(%eax),%eax
c0004019:	8b 4d f4             	mov    -0xc(%ebp),%ecx
c000401c:	c1 e1 02             	shl    $0x2,%ecx
c000401f:	01 c8                	add    %ecx,%eax
c0004021:	8b 00                	mov    (%eax),%eax
c0004023:	89 02                	mov    %eax,(%edx)
c0004025:	83 45 f4 01          	addl   $0x1,-0xc(%ebp)
c0004029:	81 7d f4 fe 03 00 00 	cmpl   $0x3fe,-0xc(%ebp)
c0004030:	7e cb                	jle    c0003ffd <new_vspace+0x6e>
c0004032:	eb 36                	jmp    c000406a <new_vspace+0xdb>
c0004034:	c7 45 f4 00 03 00 00 	movl   $0x300,-0xc(%ebp)
c000403b:	eb 24                	jmp    c0004061 <new_vspace+0xd2>
c000403d:	8b 45 08             	mov    0x8(%ebp),%eax
c0004040:	8b 80 6c 20 00 00    	mov    0x206c(%eax),%eax
c0004046:	8b 55 f4             	mov    -0xc(%ebp),%edx
c0004049:	c1 e2 02             	shl    $0x2,%edx
c000404c:	01 c2                	add    %eax,%edx
c000404e:	8b 45 f4             	mov    -0xc(%ebp),%eax
c0004051:	c1 e0 02             	shl    $0x2,%eax
c0004054:	2d 00 10 00 00       	sub    $0x1000,%eax
c0004059:	8b 00                	mov    (%eax),%eax
c000405b:	89 02                	mov    %eax,(%edx)
c000405d:	83 45 f4 01          	addl   $0x1,-0xc(%ebp)
c0004061:	81 7d f4 fe 03 00 00 	cmpl   $0x3fe,-0xc(%ebp)
c0004068:	7e d3                	jle    c000403d <new_vspace+0xae>
c000406a:	8b 45 08             	mov    0x8(%ebp),%eax
c000406d:	8b 80 6c 20 00 00    	mov    0x206c(%eax),%eax
c0004073:	8d 98 fc 0f 00 00    	lea    0xffc(%eax),%ebx
c0004079:	8b 45 08             	mov    0x8(%ebp),%eax
c000407c:	8b 80 6c 20 00 00    	mov    0x206c(%eax),%eax
c0004082:	89 04 24             	mov    %eax,(%esp)
c0004085:	e8 25 fb ff ff       	call   c0003baf <virtual_to_physical_address>
c000408a:	83 c8 03             	or     $0x3,%eax
c000408d:	89 03                	mov    %eax,(%ebx)
c000408f:	a1 30 b5 01 c0       	mov    0xc001b530,%eax
c0004094:	85 c0                	test   %eax,%eax
c0004096:	74 14                	je     c00040ac <new_vspace+0x11d>
c0004098:	a1 30 b5 01 c0       	mov    0xc001b530,%eax
c000409d:	8b 90 70 20 00 00    	mov    0x2070(%eax),%edx
c00040a3:	8b 45 08             	mov    0x8(%ebp),%eax
c00040a6:	89 90 70 20 00 00    	mov    %edx,0x2070(%eax)
c00040ac:	83 c4 24             	add    $0x24,%esp
c00040af:	5b                   	pop    %ebx
c00040b0:	5d                   	pop    %ebp
c00040b1:	c3                   	ret    

c00040b2 <task_setup_stack>:
task_setup_stack():
c00040b2:	55                   	push   %ebp
c00040b3:	89 e5                	mov    %esp,%ebp
c00040b5:	53                   	push   %ebx
c00040b6:	83 ec 24             	sub    $0x24,%esp
c00040b9:	8b 45 10             	mov    0x10(%ebp),%eax
c00040bc:	83 e0 fc             	and    $0xfffffffc,%eax
c00040bf:	83 e8 04             	sub    $0x4,%eax
c00040c2:	89 45 f4             	mov    %eax,-0xc(%ebp)
c00040c5:	c7 45 f0 00 00 00 00 	movl   $0x0,-0x10(%ebp)
c00040cc:	eb 5e                	jmp    c000412c <task_setup_stack+0x7a>
c00040ce:	8b 5d f4             	mov    -0xc(%ebp),%ebx
c00040d1:	8b 45 f0             	mov    -0x10(%ebp),%eax
c00040d4:	8d 14 85 00 00 00 00 	lea    0x0(,%eax,4),%edx
c00040db:	8b 45 0c             	mov    0xc(%ebp),%eax
c00040de:	01 d0                	add    %edx,%eax
c00040e0:	8b 00                	mov    (%eax),%eax
c00040e2:	89 04 24             	mov    %eax,(%esp)
c00040e5:	e8 57 24 00 00       	call   c0006541 <strlen>
c00040ea:	29 c3                	sub    %eax,%ebx
c00040ec:	89 d8                	mov    %ebx,%eax
c00040ee:	83 e8 01             	sub    $0x1,%eax
c00040f1:	89 45 f4             	mov    %eax,-0xc(%ebp)
c00040f4:	8b 45 f0             	mov    -0x10(%ebp),%eax
c00040f7:	8d 14 85 00 00 00 00 	lea    0x0(,%eax,4),%edx
c00040fe:	8b 45 0c             	mov    0xc(%ebp),%eax
c0004101:	01 d0                	add    %edx,%eax
c0004103:	8b 00                	mov    (%eax),%eax
c0004105:	89 44 24 04          	mov    %eax,0x4(%esp)
c0004109:	8b 45 f4             	mov    -0xc(%ebp),%eax
c000410c:	89 04 24             	mov    %eax,(%esp)
c000410f:	e8 87 fd ff ff       	call   c0003e9b <strcpy08>
c0004114:	8b 45 f0             	mov    -0x10(%ebp),%eax
c0004117:	8d 14 85 00 00 00 00 	lea    0x0(,%eax,4),%edx
c000411e:	8b 45 0c             	mov    0xc(%ebp),%eax
c0004121:	01 c2                	add    %eax,%edx
c0004123:	8b 45 f4             	mov    -0xc(%ebp),%eax
c0004126:	89 02                	mov    %eax,(%edx)
c0004128:	83 45 f0 01          	addl   $0x1,-0x10(%ebp)
c000412c:	8b 45 f0             	mov    -0x10(%ebp),%eax
c000412f:	3b 45 08             	cmp    0x8(%ebp),%eax
c0004132:	7c 9a                	jl     c00040ce <task_setup_stack+0x1c>
c0004134:	8b 45 f4             	mov    -0xc(%ebp),%eax
c0004137:	83 e0 fc             	and    $0xfffffffc,%eax
c000413a:	89 45 f4             	mov    %eax,-0xc(%ebp)
c000413d:	83 6d f4 04          	subl   $0x4,-0xc(%ebp)
c0004141:	8b 45 f4             	mov    -0xc(%ebp),%eax
c0004144:	c7 00 00 00 00 00    	movl   $0x0,(%eax)
c000414a:	c7 45 f0 00 00 00 00 	movl   $0x0,-0x10(%ebp)
c0004151:	eb 2c                	jmp    c000417f <task_setup_stack+0xcd>
c0004153:	83 6d f4 04          	subl   $0x4,-0xc(%ebp)
c0004157:	8b 45 f0             	mov    -0x10(%ebp),%eax
c000415a:	8b 55 08             	mov    0x8(%ebp),%edx
c000415d:	29 c2                	sub    %eax,%edx
c000415f:	89 d0                	mov    %edx,%eax
c0004161:	05 ff ff ff 3f       	add    $0x3fffffff,%eax
c0004166:	8d 14 85 00 00 00 00 	lea    0x0(,%eax,4),%edx
c000416d:	8b 45 0c             	mov    0xc(%ebp),%eax
c0004170:	01 d0                	add    %edx,%eax
c0004172:	8b 00                	mov    (%eax),%eax
c0004174:	89 c2                	mov    %eax,%edx
c0004176:	8b 45 f4             	mov    -0xc(%ebp),%eax
c0004179:	89 10                	mov    %edx,(%eax)
c000417b:	83 45 f0 01          	addl   $0x1,-0x10(%ebp)
c000417f:	8b 45 f0             	mov    -0x10(%ebp),%eax
c0004182:	3b 45 08             	cmp    0x8(%ebp),%eax
c0004185:	7c cc                	jl     c0004153 <task_setup_stack+0xa1>
c0004187:	8b 45 f4             	mov    -0xc(%ebp),%eax
c000418a:	89 45 ec             	mov    %eax,-0x14(%ebp)
c000418d:	83 6d f4 04          	subl   $0x4,-0xc(%ebp)
c0004191:	8b 55 ec             	mov    -0x14(%ebp),%edx
c0004194:	8b 45 f4             	mov    -0xc(%ebp),%eax
c0004197:	89 10                	mov    %edx,(%eax)
c0004199:	83 6d f4 04          	subl   $0x4,-0xc(%ebp)
c000419d:	8b 55 08             	mov    0x8(%ebp),%edx
c00041a0:	8b 45 f4             	mov    -0xc(%ebp),%eax
c00041a3:	89 10                	mov    %edx,(%eax)
c00041a5:	83 6d f4 04          	subl   $0x4,-0xc(%ebp)
c00041a9:	ba 00 10 00 c0       	mov    $0xc0001000,%edx
c00041ae:	8b 45 f4             	mov    -0xc(%ebp),%eax
c00041b1:	89 10                	mov    %edx,(%eax)
c00041b3:	8b 45 f4             	mov    -0xc(%ebp),%eax
c00041b6:	83 e8 04             	sub    $0x4,%eax
c00041b9:	c7 00 00 00 00 00    	movl   $0x0,(%eax)
c00041bf:	8b 45 f4             	mov    -0xc(%ebp),%eax
c00041c2:	83 c4 24             	add    $0x24,%esp
c00041c5:	5b                   	pop    %ebx
c00041c6:	5d                   	pop    %ebp
c00041c7:	c3                   	ret    

c00041c8 <create_process>:
create_process():
c00041c8:	55                   	push   %ebp
c00041c9:	89 e5                	mov    %esp,%ebp
c00041cb:	83 ec 28             	sub    $0x28,%esp
c00041ce:	e8 0f 0b 00 00       	call   c0004ce2 <sched_enter_critical_region>
c00041d3:	c7 44 24 08 01 00 00 	movl   $0x1,0x8(%esp)
c00041da:	00 
c00041db:	c7 44 24 04 c4 21 00 	movl   $0x21c4,0x4(%esp)
c00041e2:	00 
c00041e3:	c7 04 24 00 10 00 00 	movl   $0x1000,(%esp)
c00041ea:	e8 54 e1 ff ff       	call   c0002343 <kmemalign>
c00041ef:	89 45 f4             	mov    %eax,-0xc(%ebp)
c00041f2:	83 7d f4 00          	cmpl   $0x0,-0xc(%ebp)
c00041f6:	75 2a                	jne    c0004222 <create_process+0x5a>
c00041f8:	8b 45 14             	mov    0x14(%ebp),%eax
c00041fb:	89 44 24 08          	mov    %eax,0x8(%esp)
c00041ff:	c7 44 24 04 c5 88 00 	movl   $0xc00088c5,0x4(%esp)
c0004206:	c0 
c0004207:	c7 04 24 40 87 00 c0 	movl   $0xc0008740,(%esp)
c000420e:	e8 8c d0 ff ff       	call   c000129f <kprintf>
c0004213:	e8 d9 0a 00 00       	call   c0004cf1 <sched_leave_critical_region>
c0004218:	b8 00 00 00 00       	mov    $0x0,%eax
c000421d:	e9 51 05 00 00       	jmp    c0004773 <create_process+0x5ab>
c0004222:	8b 45 f4             	mov    -0xc(%ebp),%eax
c0004225:	89 44 24 04          	mov    %eax,0x4(%esp)
c0004229:	c7 04 24 2c b5 01 c0 	movl   $0xc001b52c,(%esp)
c0004230:	e8 85 fa ff ff       	call   c0003cba <add_queue>
c0004235:	8b 45 f4             	mov    -0xc(%ebp),%eax
c0004238:	c6 80 a4 20 00 00 00 	movb   $0x0,0x20a4(%eax)
c000423f:	c7 44 24 04 01 00 00 	movl   $0x1,0x4(%esp)
c0004246:	00 
c0004247:	c7 04 24 00 40 00 00 	movl   $0x4000,(%esp)
c000424e:	e8 d3 df ff ff       	call   c0002226 <kmalloc>
c0004253:	89 c2                	mov    %eax,%edx
c0004255:	8b 45 f4             	mov    -0xc(%ebp),%eax
c0004258:	89 90 88 20 00 00    	mov    %edx,0x2088(%eax)
c000425e:	8b 45 f4             	mov    -0xc(%ebp),%eax
c0004261:	8b 80 88 20 00 00    	mov    0x2088(%eax),%eax
c0004267:	85 c0                	test   %eax,%eax
c0004269:	75 35                	jne    c00042a0 <create_process+0xd8>
c000426b:	8b 45 14             	mov    0x14(%ebp),%eax
c000426e:	89 44 24 08          	mov    %eax,0x8(%esp)
c0004272:	c7 44 24 04 c5 88 00 	movl   $0xc00088c5,0x4(%esp)
c0004279:	c0 
c000427a:	c7 04 24 78 87 00 c0 	movl   $0xc0008778,(%esp)
c0004281:	e8 19 d0 ff ff       	call   c000129f <kprintf>
c0004286:	8b 45 f4             	mov    -0xc(%ebp),%eax
c0004289:	89 04 24             	mov    %eax,(%esp)
c000428c:	e8 28 e2 ff ff       	call   c00024b9 <kfree>
c0004291:	e8 5b 0a 00 00       	call   c0004cf1 <sched_leave_critical_region>
c0004296:	b8 00 00 00 00       	mov    $0x0,%eax
c000429b:	e9 d3 04 00 00       	jmp    c0004773 <create_process+0x5ab>
c00042a0:	8b 45 f4             	mov    -0xc(%ebp),%eax
c00042a3:	8b 80 88 20 00 00    	mov    0x2088(%eax),%eax
c00042a9:	c7 44 24 08 00 40 00 	movl   $0x4000,0x8(%esp)
c00042b0:	00 
c00042b1:	c7 44 24 04 00 00 00 	movl   $0x0,0x4(%esp)
c00042b8:	00 
c00042b9:	89 04 24             	mov    %eax,(%esp)
c00042bc:	e8 9e f8 ff ff       	call   c0003b5f <memset08>
c00042c1:	8b 45 f4             	mov    -0xc(%ebp),%eax
c00042c4:	c7 40 08 10 00 00 00 	movl   $0x10,0x8(%eax)
c00042cb:	8b 45 f4             	mov    -0xc(%ebp),%eax
c00042ce:	8b 80 88 20 00 00    	mov    0x2088(%eax),%eax
c00042d4:	05 fc 3f 00 00       	add    $0x3ffc,%eax
c00042d9:	83 e0 fc             	and    $0xfffffffc,%eax
c00042dc:	89 c2                	mov    %eax,%edx
c00042de:	8b 45 f4             	mov    -0xc(%ebp),%eax
c00042e1:	89 50 04             	mov    %edx,0x4(%eax)
c00042e4:	8b 45 f4             	mov    -0xc(%ebp),%eax
c00042e7:	c7 44 24 0c 00 00 00 	movl   $0x0,0xc(%esp)
c00042ee:	00 
c00042ef:	c7 44 24 08 89 00 00 	movl   $0x89,0x8(%esp)
c00042f6:	00 
c00042f7:	89 44 24 04          	mov    %eax,0x4(%esp)
c00042fb:	c7 04 24 68 20 00 00 	movl   $0x2068,(%esp)
c0004302:	e8 8d e7 ff ff       	call   c0002a94 <setup_GDT_entry>
c0004307:	8b 55 f4             	mov    -0xc(%ebp),%edx
c000430a:	66 89 82 68 20 00 00 	mov    %ax,0x2068(%edx)
c0004311:	8b 45 f4             	mov    -0xc(%ebp),%eax
c0004314:	0f b7 80 68 20 00 00 	movzwl 0x2068(%eax),%eax
c000431b:	66 85 c0             	test   %ax,%ax
c000431e:	75 46                	jne    c0004366 <create_process+0x19e>
c0004320:	8b 45 14             	mov    0x14(%ebp),%eax
c0004323:	89 44 24 08          	mov    %eax,0x8(%esp)
c0004327:	c7 44 24 04 c5 88 00 	movl   $0xc00088c5,0x4(%esp)
c000432e:	c0 
c000432f:	c7 04 24 b4 87 00 c0 	movl   $0xc00087b4,(%esp)
c0004336:	e8 64 cf ff ff       	call   c000129f <kprintf>
c000433b:	8b 45 f4             	mov    -0xc(%ebp),%eax
c000433e:	89 04 24             	mov    %eax,(%esp)
c0004341:	e8 73 e1 ff ff       	call   c00024b9 <kfree>
c0004346:	8b 45 f4             	mov    -0xc(%ebp),%eax
c0004349:	8b 80 88 20 00 00    	mov    0x2088(%eax),%eax
c000434f:	89 04 24             	mov    %eax,(%esp)
c0004352:	e8 62 e1 ff ff       	call   c00024b9 <kfree>
c0004357:	e8 95 09 00 00       	call   c0004cf1 <sched_leave_critical_region>
c000435c:	b8 00 00 00 00       	mov    $0x0,%eax
c0004361:	e9 0d 04 00 00       	jmp    c0004773 <create_process+0x5ab>
c0004366:	8b 45 f4             	mov    -0xc(%ebp),%eax
c0004369:	8b 55 18             	mov    0x18(%ebp),%edx
c000436c:	89 90 b4 20 00 00    	mov    %edx,0x20b4(%eax)
c0004372:	8b 45 f4             	mov    -0xc(%ebp),%eax
c0004375:	0f b6 90 b0 20 00 00 	movzbl 0x20b0(%eax),%edx
c000437c:	83 ca 01             	or     $0x1,%edx
c000437f:	88 90 b0 20 00 00    	mov    %dl,0x20b0(%eax)
c0004385:	8b 45 f4             	mov    -0xc(%ebp),%eax
c0004388:	89 04 24             	mov    %eax,(%esp)
c000438b:	e8 ff fb ff ff       	call   c0003f8f <new_vspace>
c0004390:	8b 45 f4             	mov    -0xc(%ebp),%eax
c0004393:	8b 80 6c 20 00 00    	mov    0x206c(%eax),%eax
c0004399:	85 c0                	test   %eax,%eax
c000439b:	75 5b                	jne    c00043f8 <create_process+0x230>
c000439d:	8b 45 14             	mov    0x14(%ebp),%eax
c00043a0:	89 44 24 08          	mov    %eax,0x8(%esp)
c00043a4:	c7 44 24 04 c5 88 00 	movl   $0xc00088c5,0x4(%esp)
c00043ab:	c0 
c00043ac:	c7 04 24 f0 87 00 c0 	movl   $0xc00087f0,(%esp)
c00043b3:	e8 e7 ce ff ff       	call   c000129f <kprintf>
c00043b8:	8b 45 f4             	mov    -0xc(%ebp),%eax
c00043bb:	89 04 24             	mov    %eax,(%esp)
c00043be:	e8 f6 e0 ff ff       	call   c00024b9 <kfree>
c00043c3:	8b 45 f4             	mov    -0xc(%ebp),%eax
c00043c6:	8b 80 88 20 00 00    	mov    0x2088(%eax),%eax
c00043cc:	89 04 24             	mov    %eax,(%esp)
c00043cf:	e8 e5 e0 ff ff       	call   c00024b9 <kfree>
c00043d4:	8b 45 f4             	mov    -0xc(%ebp),%eax
c00043d7:	0f b7 80 68 20 00 00 	movzwl 0x2068(%eax),%eax
c00043de:	0f b7 c0             	movzwl %ax,%eax
c00043e1:	89 04 24             	mov    %eax,(%esp)
c00043e4:	e8 87 e7 ff ff       	call   c0002b70 <remove_GDT_entry>
c00043e9:	e8 03 09 00 00       	call   c0004cf1 <sched_leave_critical_region>
c00043ee:	b8 00 00 00 00       	mov    $0x0,%eax
c00043f3:	e9 7b 03 00 00       	jmp    c0004773 <create_process+0x5ab>
c00043f8:	8b 45 f4             	mov    -0xc(%ebp),%eax
c00043fb:	8b 80 6c 20 00 00    	mov    0x206c(%eax),%eax
c0004401:	89 04 24             	mov    %eax,(%esp)
c0004404:	e8 a6 f7 ff ff       	call   c0003baf <virtual_to_physical_address>
c0004409:	8b 55 f4             	mov    -0xc(%ebp),%edx
c000440c:	89 42 1c             	mov    %eax,0x1c(%edx)
c000440f:	a1 30 b5 01 c0       	mov    0xc001b530,%eax
c0004414:	85 c0                	test   %eax,%eax
c0004416:	74 16                	je     c000442e <create_process+0x266>
c0004418:	a1 30 b5 01 c0       	mov    0xc001b530,%eax
c000441d:	8b 55 f4             	mov    -0xc(%ebp),%edx
c0004420:	89 54 24 04          	mov    %edx,0x4(%esp)
c0004424:	89 04 24             	mov    %eax,(%esp)
c0004427:	e8 c9 f9 ff ff       	call   c0003df5 <task_switch_mmu>
c000442c:	eb 0e                	jmp    c000443c <create_process+0x274>
c000442e:	8b 45 f4             	mov    -0xc(%ebp),%eax
c0004431:	8b 40 1c             	mov    0x1c(%eax),%eax
c0004434:	89 04 24             	mov    %eax,(%esp)
c0004437:	e8 c6 f7 ff ff       	call   c0003c02 <switch_mmu>
c000443c:	83 7d 18 00          	cmpl   $0x0,0x18(%ebp)
c0004440:	75 07                	jne    c0004449 <create_process+0x281>
c0004442:	b8 10 00 00 00       	mov    $0x10,%eax
c0004447:	eb 05                	jmp    c000444e <create_process+0x286>
c0004449:	b8 23 00 00 00       	mov    $0x23,%eax
c000444e:	8b 55 f4             	mov    -0xc(%ebp),%edx
c0004451:	89 42 50             	mov    %eax,0x50(%edx)
c0004454:	83 7d 18 00          	cmpl   $0x0,0x18(%ebp)
c0004458:	75 29                	jne    c0004483 <create_process+0x2bb>
c000445a:	8b 45 f4             	mov    -0xc(%ebp),%eax
c000445d:	8b 40 04             	mov    0x4(%eax),%eax
c0004460:	83 c0 04             	add    $0x4,%eax
c0004463:	89 44 24 08          	mov    %eax,0x8(%esp)
c0004467:	8b 45 10             	mov    0x10(%ebp),%eax
c000446a:	89 44 24 04          	mov    %eax,0x4(%esp)
c000446e:	8b 45 0c             	mov    0xc(%ebp),%eax
c0004471:	89 04 24             	mov    %eax,(%esp)
c0004474:	e8 39 fc ff ff       	call   c00040b2 <task_setup_stack>
c0004479:	89 c2                	mov    %eax,%edx
c000447b:	8b 45 f4             	mov    -0xc(%ebp),%eax
c000447e:	89 50 38             	mov    %edx,0x38(%eax)
c0004481:	eb 22                	jmp    c00044a5 <create_process+0x2dd>
c0004483:	c7 44 24 08 00 00 00 	movl   $0x40000000,0x8(%esp)
c000448a:	40 
c000448b:	8b 45 10             	mov    0x10(%ebp),%eax
c000448e:	89 44 24 04          	mov    %eax,0x4(%esp)
c0004492:	8b 45 0c             	mov    0xc(%ebp),%eax
c0004495:	89 04 24             	mov    %eax,(%esp)
c0004498:	e8 15 fc ff ff       	call   c00040b2 <task_setup_stack>
c000449d:	89 c2                	mov    %eax,%edx
c000449f:	8b 45 f4             	mov    -0xc(%ebp),%eax
c00044a2:	89 50 38             	mov    %edx,0x38(%eax)
c00044a5:	a1 30 b5 01 c0       	mov    0xc001b530,%eax
c00044aa:	85 c0                	test   %eax,%eax
c00044ac:	74 14                	je     c00044c2 <create_process+0x2fa>
c00044ae:	a1 30 b5 01 c0       	mov    0xc001b530,%eax
c00044b3:	89 44 24 04          	mov    %eax,0x4(%esp)
c00044b7:	8b 45 f4             	mov    -0xc(%ebp),%eax
c00044ba:	89 04 24             	mov    %eax,(%esp)
c00044bd:	e8 33 f9 ff ff       	call   c0003df5 <task_switch_mmu>
c00044c2:	8b 45 f4             	mov    -0xc(%ebp),%eax
c00044c5:	66 c7 40 66 68 00    	movw   $0x68,0x66(%eax)
c00044cb:	8b 45 f4             	mov    -0xc(%ebp),%eax
c00044ce:	83 c0 68             	add    $0x68,%eax
c00044d1:	c7 44 24 08 00 08 00 	movl   $0x800,0x8(%esp)
c00044d8:	00 
c00044d9:	c7 44 24 04 ff ff ff 	movl   $0xffffffff,0x4(%esp)
c00044e0:	ff 
c00044e1:	89 04 24             	mov    %eax,(%esp)
c00044e4:	e8 98 f6 ff ff       	call   c0003b81 <memset32>
c00044e9:	83 7d 18 00          	cmpl   $0x0,0x18(%ebp)
c00044ed:	75 30                	jne    c000451f <create_process+0x357>
c00044ef:	8b 45 f4             	mov    -0xc(%ebp),%eax
c00044f2:	c7 40 5c 10 00 00 00 	movl   $0x10,0x5c(%eax)
c00044f9:	8b 45 f4             	mov    -0xc(%ebp),%eax
c00044fc:	8b 50 5c             	mov    0x5c(%eax),%edx
c00044ff:	8b 45 f4             	mov    -0xc(%ebp),%eax
c0004502:	89 50 58             	mov    %edx,0x58(%eax)
c0004505:	8b 45 f4             	mov    -0xc(%ebp),%eax
c0004508:	8b 50 58             	mov    0x58(%eax),%edx
c000450b:	8b 45 f4             	mov    -0xc(%ebp),%eax
c000450e:	89 50 48             	mov    %edx,0x48(%eax)
c0004511:	8b 45 f4             	mov    -0xc(%ebp),%eax
c0004514:	8b 50 48             	mov    0x48(%eax),%edx
c0004517:	8b 45 f4             	mov    -0xc(%ebp),%eax
c000451a:	89 50 54             	mov    %edx,0x54(%eax)
c000451d:	eb 2e                	jmp    c000454d <create_process+0x385>
c000451f:	8b 45 f4             	mov    -0xc(%ebp),%eax
c0004522:	c7 40 5c 23 00 00 00 	movl   $0x23,0x5c(%eax)
c0004529:	8b 45 f4             	mov    -0xc(%ebp),%eax
c000452c:	8b 50 5c             	mov    0x5c(%eax),%edx
c000452f:	8b 45 f4             	mov    -0xc(%ebp),%eax
c0004532:	89 50 58             	mov    %edx,0x58(%eax)
c0004535:	8b 45 f4             	mov    -0xc(%ebp),%eax
c0004538:	8b 50 58             	mov    0x58(%eax),%edx
c000453b:	8b 45 f4             	mov    -0xc(%ebp),%eax
c000453e:	89 50 48             	mov    %edx,0x48(%eax)
c0004541:	8b 45 f4             	mov    -0xc(%ebp),%eax
c0004544:	8b 50 48             	mov    0x48(%eax),%edx
c0004547:	8b 45 f4             	mov    -0xc(%ebp),%eax
c000454a:	89 50 54             	mov    %edx,0x54(%eax)
c000454d:	8b 45 f4             	mov    -0xc(%ebp),%eax
c0004550:	c7 40 24 02 02 00 00 	movl   $0x202,0x24(%eax)
c0004557:	83 7d 18 00          	cmpl   $0x0,0x18(%ebp)
c000455b:	75 07                	jne    c0004564 <create_process+0x39c>
c000455d:	b8 08 00 00 00       	mov    $0x8,%eax
c0004562:	eb 05                	jmp    c0004569 <create_process+0x3a1>
c0004564:	b8 1b 00 00 00       	mov    $0x1b,%eax
c0004569:	8b 55 f4             	mov    -0xc(%ebp),%edx
c000456c:	89 42 4c             	mov    %eax,0x4c(%edx)
c000456f:	8b 55 08             	mov    0x8(%ebp),%edx
c0004572:	8b 45 f4             	mov    -0xc(%ebp),%eax
c0004575:	89 50 20             	mov    %edx,0x20(%eax)
c0004578:	8b 45 f4             	mov    -0xc(%ebp),%eax
c000457b:	8d 90 c0 20 00 00    	lea    0x20c0(%eax),%edx
c0004581:	c7 44 24 08 fe 00 00 	movl   $0xfe,0x8(%esp)
c0004588:	00 
c0004589:	8b 45 14             	mov    0x14(%ebp),%eax
c000458c:	89 44 24 04          	mov    %eax,0x4(%esp)
c0004590:	89 14 24             	mov    %edx,(%esp)
c0004593:	e8 33 f9 ff ff       	call   c0003ecb <strncpy08>
c0004598:	8b 45 f4             	mov    -0xc(%ebp),%eax
c000459b:	c7 80 c0 21 00 00 00 	movl   $0x0,0x21c0(%eax)
c00045a2:	00 00 00 
c00045a5:	e8 80 f9 ff ff       	call   c0003f2a <new_pid>
c00045aa:	8b 55 f4             	mov    -0xc(%ebp),%edx
c00045ad:	89 82 74 20 00 00    	mov    %eax,0x2074(%edx)
c00045b3:	83 7d 18 00          	cmpl   $0x0,0x18(%ebp)
c00045b7:	0f 85 95 00 00 00    	jne    c0004652 <create_process+0x48a>
c00045bd:	8b 45 f4             	mov    -0xc(%ebp),%eax
c00045c0:	66 c7 80 7e 20 00 00 	movw   $0x0,0x207e(%eax)
c00045c7:	00 00 
c00045c9:	8b 45 f4             	mov    -0xc(%ebp),%eax
c00045cc:	0f b7 90 7e 20 00 00 	movzwl 0x207e(%eax),%edx
c00045d3:	8b 45 f4             	mov    -0xc(%ebp),%eax
c00045d6:	66 89 90 7c 20 00 00 	mov    %dx,0x207c(%eax)
c00045dd:	8b 45 f4             	mov    -0xc(%ebp),%eax
c00045e0:	0f b7 90 7c 20 00 00 	movzwl 0x207c(%eax),%edx
c00045e7:	8b 45 f4             	mov    -0xc(%ebp),%eax
c00045ea:	66 89 90 7a 20 00 00 	mov    %dx,0x207a(%eax)
c00045f1:	8b 45 f4             	mov    -0xc(%ebp),%eax
c00045f4:	0f b7 90 7a 20 00 00 	movzwl 0x207a(%eax),%edx
c00045fb:	8b 45 f4             	mov    -0xc(%ebp),%eax
c00045fe:	66 89 90 78 20 00 00 	mov    %dx,0x2078(%eax)
c0004605:	8b 45 f4             	mov    -0xc(%ebp),%eax
c0004608:	66 c7 80 86 20 00 00 	movw   $0x0,0x2086(%eax)
c000460f:	00 00 
c0004611:	8b 45 f4             	mov    -0xc(%ebp),%eax
c0004614:	0f b7 90 86 20 00 00 	movzwl 0x2086(%eax),%edx
c000461b:	8b 45 f4             	mov    -0xc(%ebp),%eax
c000461e:	66 89 90 84 20 00 00 	mov    %dx,0x2084(%eax)
c0004625:	8b 45 f4             	mov    -0xc(%ebp),%eax
c0004628:	0f b7 90 84 20 00 00 	movzwl 0x2084(%eax),%edx
c000462f:	8b 45 f4             	mov    -0xc(%ebp),%eax
c0004632:	66 89 90 82 20 00 00 	mov    %dx,0x2082(%eax)
c0004639:	8b 45 f4             	mov    -0xc(%ebp),%eax
c000463c:	0f b7 90 82 20 00 00 	movzwl 0x2082(%eax),%edx
c0004643:	8b 45 f4             	mov    -0xc(%ebp),%eax
c0004646:	66 89 90 80 20 00 00 	mov    %dx,0x2080(%eax)
c000464d:	e9 90 00 00 00       	jmp    c00046e2 <create_process+0x51a>
c0004652:	8b 45 f4             	mov    -0xc(%ebp),%eax
c0004655:	66 c7 80 7e 20 00 00 	movw   $0x1,0x207e(%eax)
c000465c:	01 00 
c000465e:	8b 45 f4             	mov    -0xc(%ebp),%eax
c0004661:	0f b7 90 7e 20 00 00 	movzwl 0x207e(%eax),%edx
c0004668:	8b 45 f4             	mov    -0xc(%ebp),%eax
c000466b:	66 89 90 7c 20 00 00 	mov    %dx,0x207c(%eax)
c0004672:	8b 45 f4             	mov    -0xc(%ebp),%eax
c0004675:	0f b7 90 7c 20 00 00 	movzwl 0x207c(%eax),%edx
c000467c:	8b 45 f4             	mov    -0xc(%ebp),%eax
c000467f:	66 89 90 7a 20 00 00 	mov    %dx,0x207a(%eax)
c0004686:	8b 45 f4             	mov    -0xc(%ebp),%eax
c0004689:	0f b7 90 7a 20 00 00 	movzwl 0x207a(%eax),%edx
c0004690:	8b 45 f4             	mov    -0xc(%ebp),%eax
c0004693:	66 89 90 78 20 00 00 	mov    %dx,0x2078(%eax)
c000469a:	8b 45 f4             	mov    -0xc(%ebp),%eax
c000469d:	66 c7 80 86 20 00 00 	movw   $0x1,0x2086(%eax)
c00046a4:	01 00 
c00046a6:	8b 45 f4             	mov    -0xc(%ebp),%eax
c00046a9:	0f b7 90 86 20 00 00 	movzwl 0x2086(%eax),%edx
c00046b0:	8b 45 f4             	mov    -0xc(%ebp),%eax
c00046b3:	66 89 90 84 20 00 00 	mov    %dx,0x2084(%eax)
c00046ba:	8b 45 f4             	mov    -0xc(%ebp),%eax
c00046bd:	0f b7 90 84 20 00 00 	movzwl 0x2084(%eax),%edx
c00046c4:	8b 45 f4             	mov    -0xc(%ebp),%eax
c00046c7:	66 89 90 82 20 00 00 	mov    %dx,0x2082(%eax)
c00046ce:	8b 45 f4             	mov    -0xc(%ebp),%eax
c00046d1:	0f b7 90 82 20 00 00 	movzwl 0x2082(%eax),%edx
c00046d8:	8b 45 f4             	mov    -0xc(%ebp),%eax
c00046db:	66 89 90 80 20 00 00 	mov    %dx,0x2080(%eax)
c00046e2:	8b 15 30 b5 01 c0    	mov    0xc001b530,%edx
c00046e8:	8b 45 f4             	mov    -0xc(%ebp),%eax
c00046eb:	89 90 a8 20 00 00    	mov    %edx,0x20a8(%eax)
c00046f1:	a1 30 b5 01 c0       	mov    0xc001b530,%eax
c00046f6:	85 c0                	test   %eax,%eax
c00046f8:	74 14                	je     c000470e <create_process+0x546>
c00046fa:	a1 30 b5 01 c0       	mov    0xc001b530,%eax
c00046ff:	8b 90 ac 20 00 00    	mov    0x20ac(%eax),%edx
c0004705:	8b 45 f4             	mov    -0xc(%ebp),%eax
c0004708:	89 90 ac 20 00 00    	mov    %edx,0x20ac(%eax)
c000470e:	8b 45 f4             	mov    -0xc(%ebp),%eax
c0004711:	c7 80 bc 20 00 00 f0 	movl   $0xfffffff0,0x20bc(%eax)
c0004718:	ff ff ff 
c000471b:	8b 45 f4             	mov    -0xc(%ebp),%eax
c000471e:	8b 90 bc 20 00 00    	mov    0x20bc(%eax),%edx
c0004724:	8b 45 f4             	mov    -0xc(%ebp),%eax
c0004727:	89 90 b8 20 00 00    	mov    %edx,0x20b8(%eax)
c000472d:	8b 45 f4             	mov    -0xc(%ebp),%eax
c0004730:	89 44 24 04          	mov    %eax,0x4(%esp)
c0004734:	c7 04 24 2c b5 01 c0 	movl   $0xc001b52c,(%esp)
c000473b:	e8 0d f6 ff ff       	call   c0003d4d <rem_queue>
c0004740:	8b 45 f4             	mov    -0xc(%ebp),%eax
c0004743:	89 44 24 04          	mov    %eax,0x4(%esp)
c0004747:	c7 04 24 24 b5 01 c0 	movl   $0xc001b524,(%esp)
c000474e:	e8 67 f5 ff ff       	call   c0003cba <add_queue>
c0004753:	8b 45 f4             	mov    -0xc(%ebp),%eax
c0004756:	c6 80 a4 20 00 00 01 	movb   $0x1,0x20a4(%eax)
c000475d:	e8 8f 05 00 00       	call   c0004cf1 <sched_leave_critical_region>
c0004762:	a1 30 b5 01 c0       	mov    0xc001b530,%eax
c0004767:	85 c0                	test   %eax,%eax
c0004769:	74 05                	je     c0004770 <create_process+0x5a8>
c000476b:	e8 cb f2 ff ff       	call   c0003a3b <schedule>
c0004770:	8b 45 f4             	mov    -0xc(%ebp),%eax
c0004773:	c9                   	leave  
c0004774:	c3                   	ret    

c0004775 <create_thread>:
create_thread():
c0004775:	55                   	push   %ebp
c0004776:	89 e5                	mov    %esp,%ebp
c0004778:	83 ec 28             	sub    $0x28,%esp
c000477b:	a1 30 b5 01 c0       	mov    0xc001b530,%eax
c0004780:	85 c0                	test   %eax,%eax
c0004782:	75 0a                	jne    c000478e <create_thread+0x19>
c0004784:	b8 00 00 00 00       	mov    $0x0,%eax
c0004789:	e9 df 04 00 00       	jmp    c0004c6d <create_thread+0x4f8>
c000478e:	e8 4f 05 00 00       	call   c0004ce2 <sched_enter_critical_region>
c0004793:	c7 44 24 08 01 00 00 	movl   $0x1,0x8(%esp)
c000479a:	00 
c000479b:	c7 44 24 04 c4 21 00 	movl   $0x21c4,0x4(%esp)
c00047a2:	00 
c00047a3:	c7 04 24 00 10 00 00 	movl   $0x1000,(%esp)
c00047aa:	e8 94 db ff ff       	call   c0002343 <kmemalign>
c00047af:	89 45 f0             	mov    %eax,-0x10(%ebp)
c00047b2:	83 7d f0 00          	cmpl   $0x0,-0x10(%ebp)
c00047b6:	75 2a                	jne    c00047e2 <create_thread+0x6d>
c00047b8:	8b 45 14             	mov    0x14(%ebp),%eax
c00047bb:	89 44 24 08          	mov    %eax,0x8(%esp)
c00047bf:	c7 44 24 04 d4 88 00 	movl   $0xc00088d4,0x4(%esp)
c00047c6:	c0 
c00047c7:	c7 04 24 40 87 00 c0 	movl   $0xc0008740,(%esp)
c00047ce:	e8 cc ca ff ff       	call   c000129f <kprintf>
c00047d3:	e8 19 05 00 00       	call   c0004cf1 <sched_leave_critical_region>
c00047d8:	b8 00 00 00 00       	mov    $0x0,%eax
c00047dd:	e9 8b 04 00 00       	jmp    c0004c6d <create_thread+0x4f8>
c00047e2:	8b 45 f0             	mov    -0x10(%ebp),%eax
c00047e5:	89 44 24 04          	mov    %eax,0x4(%esp)
c00047e9:	c7 04 24 2c b5 01 c0 	movl   $0xc001b52c,(%esp)
c00047f0:	e8 c5 f4 ff ff       	call   c0003cba <add_queue>
c00047f5:	8b 45 f0             	mov    -0x10(%ebp),%eax
c00047f8:	c6 80 a4 20 00 00 00 	movb   $0x0,0x20a4(%eax)
c00047ff:	c7 44 24 04 01 00 00 	movl   $0x1,0x4(%esp)
c0004806:	00 
c0004807:	c7 04 24 00 40 00 00 	movl   $0x4000,(%esp)
c000480e:	e8 13 da ff ff       	call   c0002226 <kmalloc>
c0004813:	89 c2                	mov    %eax,%edx
c0004815:	8b 45 f0             	mov    -0x10(%ebp),%eax
c0004818:	89 90 88 20 00 00    	mov    %edx,0x2088(%eax)
c000481e:	8b 45 f0             	mov    -0x10(%ebp),%eax
c0004821:	8b 80 88 20 00 00    	mov    0x2088(%eax),%eax
c0004827:	85 c0                	test   %eax,%eax
c0004829:	75 35                	jne    c0004860 <create_thread+0xeb>
c000482b:	8b 45 14             	mov    0x14(%ebp),%eax
c000482e:	89 44 24 08          	mov    %eax,0x8(%esp)
c0004832:	c7 44 24 04 d4 88 00 	movl   $0xc00088d4,0x4(%esp)
c0004839:	c0 
c000483a:	c7 04 24 78 87 00 c0 	movl   $0xc0008778,(%esp)
c0004841:	e8 59 ca ff ff       	call   c000129f <kprintf>
c0004846:	8b 45 f0             	mov    -0x10(%ebp),%eax
c0004849:	89 04 24             	mov    %eax,(%esp)
c000484c:	e8 68 dc ff ff       	call   c00024b9 <kfree>
c0004851:	e8 9b 04 00 00       	call   c0004cf1 <sched_leave_critical_region>
c0004856:	b8 00 00 00 00       	mov    $0x0,%eax
c000485b:	e9 0d 04 00 00       	jmp    c0004c6d <create_thread+0x4f8>
c0004860:	8b 45 f0             	mov    -0x10(%ebp),%eax
c0004863:	8b 80 88 20 00 00    	mov    0x2088(%eax),%eax
c0004869:	c7 44 24 08 00 40 00 	movl   $0x4000,0x8(%esp)
c0004870:	00 
c0004871:	c7 44 24 04 00 00 00 	movl   $0x0,0x4(%esp)
c0004878:	00 
c0004879:	89 04 24             	mov    %eax,(%esp)
c000487c:	e8 de f2 ff ff       	call   c0003b5f <memset08>
c0004881:	8b 45 f0             	mov    -0x10(%ebp),%eax
c0004884:	c7 40 08 10 00 00 00 	movl   $0x10,0x8(%eax)
c000488b:	8b 45 f0             	mov    -0x10(%ebp),%eax
c000488e:	8b 80 88 20 00 00    	mov    0x2088(%eax),%eax
c0004894:	05 fc 3f 00 00       	add    $0x3ffc,%eax
c0004899:	83 e0 fc             	and    $0xfffffffc,%eax
c000489c:	89 c2                	mov    %eax,%edx
c000489e:	8b 45 f0             	mov    -0x10(%ebp),%eax
c00048a1:	89 50 04             	mov    %edx,0x4(%eax)
c00048a4:	8b 45 f0             	mov    -0x10(%ebp),%eax
c00048a7:	c7 44 24 0c 00 00 00 	movl   $0x0,0xc(%esp)
c00048ae:	00 
c00048af:	c7 44 24 08 89 00 00 	movl   $0x89,0x8(%esp)
c00048b6:	00 
c00048b7:	89 44 24 04          	mov    %eax,0x4(%esp)
c00048bb:	c7 04 24 68 20 00 00 	movl   $0x2068,(%esp)
c00048c2:	e8 cd e1 ff ff       	call   c0002a94 <setup_GDT_entry>
c00048c7:	8b 55 f0             	mov    -0x10(%ebp),%edx
c00048ca:	66 89 82 68 20 00 00 	mov    %ax,0x2068(%edx)
c00048d1:	8b 45 f0             	mov    -0x10(%ebp),%eax
c00048d4:	0f b7 80 68 20 00 00 	movzwl 0x2068(%eax),%eax
c00048db:	66 85 c0             	test   %ax,%ax
c00048de:	75 46                	jne    c0004926 <create_thread+0x1b1>
c00048e0:	8b 45 14             	mov    0x14(%ebp),%eax
c00048e3:	89 44 24 08          	mov    %eax,0x8(%esp)
c00048e7:	c7 44 24 04 d4 88 00 	movl   $0xc00088d4,0x4(%esp)
c00048ee:	c0 
c00048ef:	c7 04 24 b4 87 00 c0 	movl   $0xc00087b4,(%esp)
c00048f6:	e8 a4 c9 ff ff       	call   c000129f <kprintf>
c00048fb:	8b 45 f0             	mov    -0x10(%ebp),%eax
c00048fe:	89 04 24             	mov    %eax,(%esp)
c0004901:	e8 b3 db ff ff       	call   c00024b9 <kfree>
c0004906:	8b 45 f0             	mov    -0x10(%ebp),%eax
c0004909:	8b 80 88 20 00 00    	mov    0x2088(%eax),%eax
c000490f:	89 04 24             	mov    %eax,(%esp)
c0004912:	e8 a2 db ff ff       	call   c00024b9 <kfree>
c0004917:	e8 d5 03 00 00       	call   c0004cf1 <sched_leave_critical_region>
c000491c:	b8 00 00 00 00       	mov    $0x0,%eax
c0004921:	e9 47 03 00 00       	jmp    c0004c6d <create_thread+0x4f8>
c0004926:	8b 45 f0             	mov    -0x10(%ebp),%eax
c0004929:	0f b6 90 b0 20 00 00 	movzbl 0x20b0(%eax),%edx
c0004930:	83 e2 fe             	and    $0xfffffffe,%edx
c0004933:	88 90 b0 20 00 00    	mov    %dl,0x20b0(%eax)
c0004939:	a1 30 b5 01 c0       	mov    0xc001b530,%eax
c000493e:	8b 90 b4 20 00 00    	mov    0x20b4(%eax),%edx
c0004944:	8b 45 f0             	mov    -0x10(%ebp),%eax
c0004947:	89 90 b4 20 00 00    	mov    %edx,0x20b4(%eax)
c000494d:	8b 45 f0             	mov    -0x10(%ebp),%eax
c0004950:	8b 80 b4 20 00 00    	mov    0x20b4(%eax),%eax
c0004956:	89 45 ec             	mov    %eax,-0x14(%ebp)
c0004959:	a1 30 b5 01 c0       	mov    0xc001b530,%eax
c000495e:	89 45 f4             	mov    %eax,-0xc(%ebp)
c0004961:	eb 0c                	jmp    c000496f <create_thread+0x1fa>
c0004963:	8b 45 f4             	mov    -0xc(%ebp),%eax
c0004966:	8b 80 a8 20 00 00    	mov    0x20a8(%eax),%eax
c000496c:	89 45 f4             	mov    %eax,-0xc(%ebp)
c000496f:	8b 45 f4             	mov    -0xc(%ebp),%eax
c0004972:	0f b6 80 b0 20 00 00 	movzbl 0x20b0(%eax),%eax
c0004979:	83 e0 01             	and    $0x1,%eax
c000497c:	84 c0                	test   %al,%al
c000497e:	74 e3                	je     c0004963 <create_thread+0x1ee>
c0004980:	8b 45 f4             	mov    -0xc(%ebp),%eax
c0004983:	8b 90 90 20 00 00    	mov    0x2090(%eax),%edx
c0004989:	8b 45 f0             	mov    -0x10(%ebp),%eax
c000498c:	89 90 90 20 00 00    	mov    %edx,0x2090(%eax)
c0004992:	8b 45 f4             	mov    -0xc(%ebp),%eax
c0004995:	8b 90 94 20 00 00    	mov    0x2094(%eax),%edx
c000499b:	8b 45 f0             	mov    -0x10(%ebp),%eax
c000499e:	89 90 94 20 00 00    	mov    %edx,0x2094(%eax)
c00049a4:	8b 45 f4             	mov    -0xc(%ebp),%eax
c00049a7:	8b 50 1c             	mov    0x1c(%eax),%edx
c00049aa:	8b 45 f0             	mov    -0x10(%ebp),%eax
c00049ad:	89 50 1c             	mov    %edx,0x1c(%eax)
c00049b0:	a1 30 b5 01 c0       	mov    0xc001b530,%eax
c00049b5:	8b 90 6c 20 00 00    	mov    0x206c(%eax),%edx
c00049bb:	8b 45 f0             	mov    -0x10(%ebp),%eax
c00049be:	89 90 6c 20 00 00    	mov    %edx,0x206c(%eax)
c00049c4:	a1 30 b5 01 c0       	mov    0xc001b530,%eax
c00049c9:	8b 90 70 20 00 00    	mov    0x2070(%eax),%edx
c00049cf:	8b 45 f0             	mov    -0x10(%ebp),%eax
c00049d2:	89 90 70 20 00 00    	mov    %edx,0x2070(%eax)
c00049d8:	83 7d ec 00          	cmpl   $0x0,-0x14(%ebp)
c00049dc:	75 07                	jne    c00049e5 <create_thread+0x270>
c00049de:	b8 10 00 00 00       	mov    $0x10,%eax
c00049e3:	eb 05                	jmp    c00049ea <create_thread+0x275>
c00049e5:	b8 23 00 00 00       	mov    $0x23,%eax
c00049ea:	8b 55 f0             	mov    -0x10(%ebp),%edx
c00049ed:	89 42 50             	mov    %eax,0x50(%edx)
c00049f0:	83 7d ec 00          	cmpl   $0x0,-0x14(%ebp)
c00049f4:	75 56                	jne    c0004a4c <create_thread+0x2d7>
c00049f6:	8b 45 f0             	mov    -0x10(%ebp),%eax
c00049f9:	8b 40 04             	mov    0x4(%eax),%eax
c00049fc:	83 c0 04             	add    $0x4,%eax
c00049ff:	89 44 24 08          	mov    %eax,0x8(%esp)
c0004a03:	8b 45 10             	mov    0x10(%ebp),%eax
c0004a06:	89 44 24 04          	mov    %eax,0x4(%esp)
c0004a0a:	8b 45 0c             	mov    0xc(%ebp),%eax
c0004a0d:	89 04 24             	mov    %eax,(%esp)
c0004a10:	e8 9d f6 ff ff       	call   c00040b2 <task_setup_stack>
c0004a15:	89 c2                	mov    %eax,%edx
c0004a17:	8b 45 f0             	mov    -0x10(%ebp),%eax
c0004a1a:	89 50 38             	mov    %edx,0x38(%eax)
c0004a1d:	8b 45 f0             	mov    -0x10(%ebp),%eax
c0004a20:	66 c7 40 66 68 00    	movw   $0x68,0x66(%eax)
c0004a26:	8b 45 f0             	mov    -0x10(%ebp),%eax
c0004a29:	83 c0 68             	add    $0x68,%eax
c0004a2c:	c7 44 24 08 00 08 00 	movl   $0x800,0x8(%esp)
c0004a33:	00 
c0004a34:	c7 44 24 04 ff ff ff 	movl   $0xffffffff,0x4(%esp)
c0004a3b:	ff 
c0004a3c:	89 04 24             	mov    %eax,(%esp)
c0004a3f:	e8 3d f1 ff ff       	call   c0003b81 <memset32>
c0004a44:	83 7d ec 00          	cmpl   $0x0,-0x14(%ebp)
c0004a48:	75 59                	jne    c0004aa3 <create_thread+0x32e>
c0004a4a:	eb 27                	jmp    c0004a73 <create_thread+0x2fe>
c0004a4c:	c7 44 24 0c 84 01 00 	movl   $0x184,0xc(%esp)
c0004a53:	00 
c0004a54:	c7 44 24 08 2b 88 00 	movl   $0xc000882b,0x8(%esp)
c0004a5b:	c0 
c0004a5c:	c7 44 24 04 39 88 00 	movl   $0xc0008839,0x4(%esp)
c0004a63:	c0 
c0004a64:	c7 04 24 54 88 00 c0 	movl   $0xc0008854,(%esp)
c0004a6b:	e8 2f c8 ff ff       	call   c000129f <kprintf>
c0004a70:	fa                   	cli    
c0004a71:	eb fe                	jmp    c0004a71 <create_thread+0x2fc>
c0004a73:	8b 45 f0             	mov    -0x10(%ebp),%eax
c0004a76:	c7 40 5c 10 00 00 00 	movl   $0x10,0x5c(%eax)
c0004a7d:	8b 45 f0             	mov    -0x10(%ebp),%eax
c0004a80:	8b 50 5c             	mov    0x5c(%eax),%edx
c0004a83:	8b 45 f0             	mov    -0x10(%ebp),%eax
c0004a86:	89 50 58             	mov    %edx,0x58(%eax)
c0004a89:	8b 45 f0             	mov    -0x10(%ebp),%eax
c0004a8c:	8b 50 58             	mov    0x58(%eax),%edx
c0004a8f:	8b 45 f0             	mov    -0x10(%ebp),%eax
c0004a92:	89 50 48             	mov    %edx,0x48(%eax)
c0004a95:	8b 45 f0             	mov    -0x10(%ebp),%eax
c0004a98:	8b 50 48             	mov    0x48(%eax),%edx
c0004a9b:	8b 45 f0             	mov    -0x10(%ebp),%eax
c0004a9e:	89 50 54             	mov    %edx,0x54(%eax)
c0004aa1:	eb 2e                	jmp    c0004ad1 <create_thread+0x35c>
c0004aa3:	8b 45 f0             	mov    -0x10(%ebp),%eax
c0004aa6:	c7 40 5c 23 00 00 00 	movl   $0x23,0x5c(%eax)
c0004aad:	8b 45 f0             	mov    -0x10(%ebp),%eax
c0004ab0:	8b 50 5c             	mov    0x5c(%eax),%edx
c0004ab3:	8b 45 f0             	mov    -0x10(%ebp),%eax
c0004ab6:	89 50 58             	mov    %edx,0x58(%eax)
c0004ab9:	8b 45 f0             	mov    -0x10(%ebp),%eax
c0004abc:	8b 50 58             	mov    0x58(%eax),%edx
c0004abf:	8b 45 f0             	mov    -0x10(%ebp),%eax
c0004ac2:	89 50 48             	mov    %edx,0x48(%eax)
c0004ac5:	8b 45 f0             	mov    -0x10(%ebp),%eax
c0004ac8:	8b 50 48             	mov    0x48(%eax),%edx
c0004acb:	8b 45 f0             	mov    -0x10(%ebp),%eax
c0004ace:	89 50 54             	mov    %edx,0x54(%eax)
c0004ad1:	8b 45 f0             	mov    -0x10(%ebp),%eax
c0004ad4:	c7 40 24 02 02 00 00 	movl   $0x202,0x24(%eax)
c0004adb:	83 7d ec 00          	cmpl   $0x0,-0x14(%ebp)
c0004adf:	75 07                	jne    c0004ae8 <create_thread+0x373>
c0004ae1:	b8 08 00 00 00       	mov    $0x8,%eax
c0004ae6:	eb 05                	jmp    c0004aed <create_thread+0x378>
c0004ae8:	b8 1b 00 00 00       	mov    $0x1b,%eax
c0004aed:	8b 55 f0             	mov    -0x10(%ebp),%edx
c0004af0:	89 42 4c             	mov    %eax,0x4c(%edx)
c0004af3:	8b 55 08             	mov    0x8(%ebp),%edx
c0004af6:	8b 45 f0             	mov    -0x10(%ebp),%eax
c0004af9:	89 50 20             	mov    %edx,0x20(%eax)
c0004afc:	8b 45 f0             	mov    -0x10(%ebp),%eax
c0004aff:	8d 90 c0 20 00 00    	lea    0x20c0(%eax),%edx
c0004b05:	c7 44 24 08 fe 00 00 	movl   $0xfe,0x8(%esp)
c0004b0c:	00 
c0004b0d:	8b 45 14             	mov    0x14(%ebp),%eax
c0004b10:	89 44 24 04          	mov    %eax,0x4(%esp)
c0004b14:	89 14 24             	mov    %edx,(%esp)
c0004b17:	e8 af f3 ff ff       	call   c0003ecb <strncpy08>
c0004b1c:	a1 30 b5 01 c0       	mov    0xc001b530,%eax
c0004b21:	8b 90 c0 21 00 00    	mov    0x21c0(%eax),%edx
c0004b27:	8b 45 f0             	mov    -0x10(%ebp),%eax
c0004b2a:	89 90 c0 21 00 00    	mov    %edx,0x21c0(%eax)
c0004b30:	e8 f5 f3 ff ff       	call   c0003f2a <new_pid>
c0004b35:	8b 55 f0             	mov    -0x10(%ebp),%edx
c0004b38:	89 82 74 20 00 00    	mov    %eax,0x2074(%edx)
c0004b3e:	a1 30 b5 01 c0       	mov    0xc001b530,%eax
c0004b43:	0f b7 90 78 20 00 00 	movzwl 0x2078(%eax),%edx
c0004b4a:	8b 45 f0             	mov    -0x10(%ebp),%eax
c0004b4d:	66 89 90 78 20 00 00 	mov    %dx,0x2078(%eax)
c0004b54:	a1 30 b5 01 c0       	mov    0xc001b530,%eax
c0004b59:	0f b7 90 7a 20 00 00 	movzwl 0x207a(%eax),%edx
c0004b60:	8b 45 f0             	mov    -0x10(%ebp),%eax
c0004b63:	66 89 90 7a 20 00 00 	mov    %dx,0x207a(%eax)
c0004b6a:	a1 30 b5 01 c0       	mov    0xc001b530,%eax
c0004b6f:	0f b7 90 7c 20 00 00 	movzwl 0x207c(%eax),%edx
c0004b76:	8b 45 f0             	mov    -0x10(%ebp),%eax
c0004b79:	66 89 90 7c 20 00 00 	mov    %dx,0x207c(%eax)
c0004b80:	a1 30 b5 01 c0       	mov    0xc001b530,%eax
c0004b85:	0f b7 90 7e 20 00 00 	movzwl 0x207e(%eax),%edx
c0004b8c:	8b 45 f0             	mov    -0x10(%ebp),%eax
c0004b8f:	66 89 90 7e 20 00 00 	mov    %dx,0x207e(%eax)
c0004b96:	a1 30 b5 01 c0       	mov    0xc001b530,%eax
c0004b9b:	0f b7 90 80 20 00 00 	movzwl 0x2080(%eax),%edx
c0004ba2:	8b 45 f0             	mov    -0x10(%ebp),%eax
c0004ba5:	66 89 90 80 20 00 00 	mov    %dx,0x2080(%eax)
c0004bac:	a1 30 b5 01 c0       	mov    0xc001b530,%eax
c0004bb1:	0f b7 90 82 20 00 00 	movzwl 0x2082(%eax),%edx
c0004bb8:	8b 45 f0             	mov    -0x10(%ebp),%eax
c0004bbb:	66 89 90 82 20 00 00 	mov    %dx,0x2082(%eax)
c0004bc2:	a1 30 b5 01 c0       	mov    0xc001b530,%eax
c0004bc7:	0f b7 90 84 20 00 00 	movzwl 0x2084(%eax),%edx
c0004bce:	8b 45 f0             	mov    -0x10(%ebp),%eax
c0004bd1:	66 89 90 84 20 00 00 	mov    %dx,0x2084(%eax)
c0004bd8:	a1 30 b5 01 c0       	mov    0xc001b530,%eax
c0004bdd:	0f b7 90 86 20 00 00 	movzwl 0x2086(%eax),%edx
c0004be4:	8b 45 f0             	mov    -0x10(%ebp),%eax
c0004be7:	66 89 90 86 20 00 00 	mov    %dx,0x2086(%eax)
c0004bee:	8b 15 30 b5 01 c0    	mov    0xc001b530,%edx
c0004bf4:	8b 45 f0             	mov    -0x10(%ebp),%eax
c0004bf7:	89 90 a8 20 00 00    	mov    %edx,0x20a8(%eax)
c0004bfd:	a1 30 b5 01 c0       	mov    0xc001b530,%eax
c0004c02:	8b 90 ac 20 00 00    	mov    0x20ac(%eax),%edx
c0004c08:	8b 45 f0             	mov    -0x10(%ebp),%eax
c0004c0b:	89 90 ac 20 00 00    	mov    %edx,0x20ac(%eax)
c0004c11:	8b 45 f0             	mov    -0x10(%ebp),%eax
c0004c14:	c7 80 bc 20 00 00 f0 	movl   $0xfffffff0,0x20bc(%eax)
c0004c1b:	ff ff ff 
c0004c1e:	8b 45 f0             	mov    -0x10(%ebp),%eax
c0004c21:	8b 90 bc 20 00 00    	mov    0x20bc(%eax),%edx
c0004c27:	8b 45 f0             	mov    -0x10(%ebp),%eax
c0004c2a:	89 90 b8 20 00 00    	mov    %edx,0x20b8(%eax)
c0004c30:	8b 45 f0             	mov    -0x10(%ebp),%eax
c0004c33:	89 44 24 04          	mov    %eax,0x4(%esp)
c0004c37:	c7 04 24 2c b5 01 c0 	movl   $0xc001b52c,(%esp)
c0004c3e:	e8 0a f1 ff ff       	call   c0003d4d <rem_queue>
c0004c43:	8b 45 f0             	mov    -0x10(%ebp),%eax
c0004c46:	89 44 24 04          	mov    %eax,0x4(%esp)
c0004c4a:	c7 04 24 24 b5 01 c0 	movl   $0xc001b524,(%esp)
c0004c51:	e8 64 f0 ff ff       	call   c0003cba <add_queue>
c0004c56:	8b 45 f0             	mov    -0x10(%ebp),%eax
c0004c59:	c6 80 a4 20 00 00 01 	movb   $0x1,0x20a4(%eax)
c0004c60:	e8 8c 00 00 00       	call   c0004cf1 <sched_leave_critical_region>
c0004c65:	e8 d1 ed ff ff       	call   c0003a3b <schedule>
c0004c6a:	8b 45 f0             	mov    -0x10(%ebp),%eax
c0004c6d:	c9                   	leave  
c0004c6e:	c3                   	ret    

c0004c6f <get_pname>:
get_pname():
c0004c6f:	55                   	push   %ebp
c0004c70:	89 e5                	mov    %esp,%ebp
c0004c72:	a1 30 b5 01 c0       	mov    0xc001b530,%eax
c0004c77:	85 c0                	test   %eax,%eax
c0004c79:	75 07                	jne    c0004c82 <get_pname+0x13>
c0004c7b:	b8 00 00 00 00       	mov    $0x0,%eax
c0004c80:	eb 0a                	jmp    c0004c8c <get_pname+0x1d>
c0004c82:	a1 30 b5 01 c0       	mov    0xc001b530,%eax
c0004c87:	05 c0 20 00 00       	add    $0x20c0,%eax
c0004c8c:	5d                   	pop    %ebp
c0004c8d:	c3                   	ret    

c0004c8e <auto_kill>:
auto_kill():
c0004c8e:	55                   	push   %ebp
c0004c8f:	89 e5                	mov    %esp,%ebp
c0004c91:	83 ec 18             	sub    $0x18,%esp
c0004c94:	e8 49 00 00 00       	call   c0004ce2 <sched_enter_critical_region>
c0004c99:	a1 30 b5 01 c0       	mov    0xc001b530,%eax
c0004c9e:	89 44 24 04          	mov    %eax,0x4(%esp)
c0004ca2:	c7 04 24 24 b5 01 c0 	movl   $0xc001b524,(%esp)
c0004ca9:	e8 9f f0 ff ff       	call   c0003d4d <rem_queue>
c0004cae:	a1 30 b5 01 c0       	mov    0xc001b530,%eax
c0004cb3:	89 44 24 04          	mov    %eax,0x4(%esp)
c0004cb7:	c7 04 24 2c b5 01 c0 	movl   $0xc001b52c,(%esp)
c0004cbe:	e8 f7 ef ff ff       	call   c0003cba <add_queue>
c0004cc3:	a1 30 b5 01 c0       	mov    0xc001b530,%eax
c0004cc8:	c6 80 a4 20 00 00 04 	movb   $0x4,0x20a4(%eax)
c0004ccf:	e8 1d 00 00 00       	call   c0004cf1 <sched_leave_critical_region>
c0004cd4:	e8 02 00 00 00       	call   c0004cdb <do_idle>
c0004cd9:	c9                   	leave  
c0004cda:	c3                   	ret    

c0004cdb <do_idle>:
do_idle():
c0004cdb:	55                   	push   %ebp
c0004cdc:	89 e5                	mov    %esp,%ebp
c0004cde:	fb                   	sti    
c0004cdf:	f4                   	hlt    
c0004ce0:	eb fc                	jmp    c0004cde <do_idle+0x3>

c0004ce2 <sched_enter_critical_region>:
sched_enter_critical_region():
c0004ce2:	55                   	push   %ebp
c0004ce3:	89 e5                	mov    %esp,%ebp
c0004ce5:	c7 05 88 a5 00 c0 00 	movl   $0x0,0xc000a588
c0004cec:	00 00 00 
c0004cef:	5d                   	pop    %ebp
c0004cf0:	c3                   	ret    

c0004cf1 <sched_leave_critical_region>:
sched_leave_critical_region():
c0004cf1:	55                   	push   %ebp
c0004cf2:	89 e5                	mov    %esp,%ebp
c0004cf4:	c7 05 88 a5 00 c0 01 	movl   $0x1,0xc000a588
c0004cfb:	00 00 00 
c0004cfe:	5d                   	pop    %ebp
c0004cff:	c3                   	ret    

c0004d00 <initialize_multitasking>:
initialize_multitasking():
c0004d00:	55                   	push   %ebp
c0004d01:	89 e5                	mov    %esp,%ebp
c0004d03:	83 ec 28             	sub    $0x28,%esp
c0004d06:	c7 44 24 10 00 00 00 	movl   $0x0,0x10(%esp)
c0004d0d:	00 
c0004d0e:	c7 44 24 0c 7a 88 00 	movl   $0xc000887a,0xc(%esp)
c0004d15:	c0 
c0004d16:	c7 44 24 08 00 00 00 	movl   $0x0,0x8(%esp)
c0004d1d:	00 
c0004d1e:	c7 44 24 04 00 00 00 	movl   $0x0,0x4(%esp)
c0004d25:	00 
c0004d26:	c7 04 24 00 00 00 00 	movl   $0x0,(%esp)
c0004d2d:	e8 96 f4 ff ff       	call   c00041c8 <create_process>
c0004d32:	a3 30 b5 01 c0       	mov    %eax,0xc001b530
c0004d37:	a1 30 b5 01 c0       	mov    0xc001b530,%eax
c0004d3c:	c7 80 ac 20 00 00 01 	movl   $0x1,0x20ac(%eax)
c0004d43:	00 00 00 
c0004d46:	a1 30 b5 01 c0       	mov    0xc001b530,%eax
c0004d4b:	a3 34 b5 01 c0       	mov    %eax,0xc001b534
c0004d50:	a1 30 b5 01 c0       	mov    0xc001b530,%eax
c0004d55:	0f b7 80 68 20 00 00 	movzwl 0x2068(%eax),%eax
c0004d5c:	0f 00 d8             	ltr    %ax
c0004d5f:	c9                   	leave  
c0004d60:	c3                   	ret    

c0004d61 <ps>:
ps():
c0004d61:	55                   	push   %ebp
c0004d62:	89 e5                	mov    %esp,%ebp
c0004d64:	83 ec 28             	sub    $0x28,%esp
c0004d67:	a1 30 b5 01 c0       	mov    0xc001b530,%eax
c0004d6c:	89 45 f4             	mov    %eax,-0xc(%ebp)
c0004d6f:	8b 45 f4             	mov    -0xc(%ebp),%eax
c0004d72:	89 45 f0             	mov    %eax,-0x10(%ebp)
c0004d75:	83 7d f0 00          	cmpl   $0x0,-0x10(%ebp)
c0004d79:	75 05                	jne    c0004d80 <ps+0x1f>
c0004d7b:	e9 2a 01 00 00       	jmp    c0004eaa <ps+0x149>
c0004d80:	c7 04 24 0f 00 00 00 	movl   $0xf,(%esp)
c0004d87:	e8 f1 c4 ff ff       	call   c000127d <kset_color>
c0004d8c:	c7 04 24 7f 88 00 c0 	movl   $0xc000887f,(%esp)
c0004d93:	e8 07 c5 ff ff       	call   c000129f <kprintf>
c0004d98:	c7 04 24 07 00 00 00 	movl   $0x7,(%esp)
c0004d9f:	e8 d9 c4 ff ff       	call   c000127d <kset_color>
c0004da4:	e8 39 ff ff ff       	call   c0004ce2 <sched_enter_critical_region>
c0004da9:	8b 45 f4             	mov    -0xc(%ebp),%eax
c0004dac:	8d 90 c0 20 00 00    	lea    0x20c0(%eax),%edx
c0004db2:	8b 45 f4             	mov    -0xc(%ebp),%eax
c0004db5:	8b 80 74 20 00 00    	mov    0x2074(%eax),%eax
c0004dbb:	89 54 24 08          	mov    %edx,0x8(%esp)
c0004dbf:	89 44 24 04          	mov    %eax,0x4(%esp)
c0004dc3:	c7 04 24 93 88 00 c0 	movl   $0xc0008893,(%esp)
c0004dca:	e8 d0 c4 ff ff       	call   c000129f <kprintf>
c0004dcf:	c7 04 24 24 b5 01 c0 	movl   $0xc001b524,(%esp)
c0004dd6:	e8 e8 ef ff ff       	call   c0003dc3 <pick_queue>
c0004ddb:	89 45 f4             	mov    %eax,-0xc(%ebp)
c0004dde:	a1 30 b5 01 c0       	mov    0xc001b530,%eax
c0004de3:	39 45 f4             	cmp    %eax,-0xc(%ebp)
c0004de6:	75 1e                	jne    c0004e06 <ps+0xa5>
c0004de8:	90                   	nop
c0004de9:	c7 04 24 28 b5 01 c0 	movl   $0xc001b528,(%esp)
c0004df0:	e8 ce ef ff ff       	call   c0003dc3 <pick_queue>
c0004df5:	89 45 f4             	mov    %eax,-0xc(%ebp)
c0004df8:	8b 45 f4             	mov    -0xc(%ebp),%eax
c0004dfb:	89 45 f0             	mov    %eax,-0x10(%ebp)
c0004dfe:	83 7d f0 00          	cmpl   $0x0,-0x10(%ebp)
c0004e02:	74 45                	je     c0004e49 <ps+0xe8>
c0004e04:	eb 02                	jmp    c0004e08 <ps+0xa7>
c0004e06:	eb a1                	jmp    c0004da9 <ps+0x48>
c0004e08:	8b 45 f4             	mov    -0xc(%ebp),%eax
c0004e0b:	8d 90 c0 20 00 00    	lea    0x20c0(%eax),%edx
c0004e11:	8b 45 f4             	mov    -0xc(%ebp),%eax
c0004e14:	8b 80 74 20 00 00    	mov    0x2074(%eax),%eax
c0004e1a:	89 54 24 08          	mov    %edx,0x8(%esp)
c0004e1e:	89 44 24 04          	mov    %eax,0x4(%esp)
c0004e22:	c7 04 24 a0 88 00 c0 	movl   $0xc00088a0,(%esp)
c0004e29:	e8 71 c4 ff ff       	call   c000129f <kprintf>
c0004e2e:	c7 04 24 28 b5 01 c0 	movl   $0xc001b528,(%esp)
c0004e35:	e8 89 ef ff ff       	call   c0003dc3 <pick_queue>
c0004e3a:	89 45 f4             	mov    %eax,-0xc(%ebp)
c0004e3d:	8b 45 f4             	mov    -0xc(%ebp),%eax
c0004e40:	3b 45 f0             	cmp    -0x10(%ebp),%eax
c0004e43:	75 02                	jne    c0004e47 <ps+0xe6>
c0004e45:	eb 02                	jmp    c0004e49 <ps+0xe8>
c0004e47:	eb bf                	jmp    c0004e08 <ps+0xa7>
c0004e49:	c7 04 24 2c b5 01 c0 	movl   $0xc001b52c,(%esp)
c0004e50:	e8 6e ef ff ff       	call   c0003dc3 <pick_queue>
c0004e55:	89 45 f4             	mov    %eax,-0xc(%ebp)
c0004e58:	8b 45 f4             	mov    -0xc(%ebp),%eax
c0004e5b:	89 45 f0             	mov    %eax,-0x10(%ebp)
c0004e5e:	83 7d f0 00          	cmpl   $0x0,-0x10(%ebp)
c0004e62:	74 41                	je     c0004ea5 <ps+0x144>
c0004e64:	8b 45 f4             	mov    -0xc(%ebp),%eax
c0004e67:	8d 90 c0 20 00 00    	lea    0x20c0(%eax),%edx
c0004e6d:	8b 45 f4             	mov    -0xc(%ebp),%eax
c0004e70:	8b 80 74 20 00 00    	mov    0x2074(%eax),%eax
c0004e76:	89 54 24 08          	mov    %edx,0x8(%esp)
c0004e7a:	89 44 24 04          	mov    %eax,0x4(%esp)
c0004e7e:	c7 04 24 ac 88 00 c0 	movl   $0xc00088ac,(%esp)
c0004e85:	e8 15 c4 ff ff       	call   c000129f <kprintf>
c0004e8a:	c7 04 24 2c b5 01 c0 	movl   $0xc001b52c,(%esp)
c0004e91:	e8 2d ef ff ff       	call   c0003dc3 <pick_queue>
c0004e96:	89 45 f4             	mov    %eax,-0xc(%ebp)
c0004e99:	8b 45 f4             	mov    -0xc(%ebp),%eax
c0004e9c:	3b 45 f0             	cmp    -0x10(%ebp),%eax
c0004e9f:	75 02                	jne    c0004ea3 <ps+0x142>
c0004ea1:	eb 02                	jmp    c0004ea5 <ps+0x144>
c0004ea3:	eb bf                	jmp    c0004e64 <ps+0x103>
c0004ea5:	e8 47 fe ff ff       	call   c0004cf1 <sched_leave_critical_region>
c0004eaa:	c9                   	leave  
c0004eab:	c3                   	ret    

c0004eac <memcpy08>:
memcpy08():
c0004eac:	55                   	push   %ebp
c0004ead:	89 e5                	mov    %esp,%ebp
c0004eaf:	57                   	push   %edi
c0004eb0:	56                   	push   %esi
c0004eb1:	8b 45 08             	mov    0x8(%ebp),%eax
c0004eb4:	8b 55 0c             	mov    0xc(%ebp),%edx
c0004eb7:	8b 4d 10             	mov    0x10(%ebp),%ecx
c0004eba:	89 c7                	mov    %eax,%edi
c0004ebc:	89 d6                	mov    %edx,%esi
c0004ebe:	fc                   	cld    
c0004ebf:	f3 a4                	rep movsb %ds:(%esi),%es:(%edi)
c0004ec1:	5e                   	pop    %esi
c0004ec2:	5f                   	pop    %edi
c0004ec3:	5d                   	pop    %ebp
c0004ec4:	c3                   	ret    

c0004ec5 <virtual_to_physical_address>:
virtual_to_physical_address():
c0004ec5:	55                   	push   %ebp
c0004ec6:	89 e5                	mov    %esp,%ebp
c0004ec8:	8b 45 08             	mov    0x8(%ebp),%eax
c0004ecb:	c1 e8 16             	shr    $0x16,%eax
c0004ece:	05 00 fc ff 3f       	add    $0x3ffffc00,%eax
c0004ed3:	c1 e0 02             	shl    $0x2,%eax
c0004ed6:	8b 00                	mov    (%eax),%eax
c0004ed8:	85 c0                	test   %eax,%eax
c0004eda:	75 07                	jne    c0004ee3 <virtual_to_physical_address+0x1e>
c0004edc:	b8 00 00 00 00       	mov    $0x0,%eax
c0004ee1:	eb 33                	jmp    c0004f16 <virtual_to_physical_address+0x51>
c0004ee3:	8b 45 08             	mov    0x8(%ebp),%eax
c0004ee6:	c1 e8 16             	shr    $0x16,%eax
c0004ee9:	05 00 fc 0f 00       	add    $0xffc00,%eax
c0004eee:	c1 e0 0a             	shl    $0xa,%eax
c0004ef1:	89 c2                	mov    %eax,%edx
c0004ef3:	8b 45 08             	mov    0x8(%ebp),%eax
c0004ef6:	25 ff ff 3f 00       	and    $0x3fffff,%eax
c0004efb:	c1 e8 0c             	shr    $0xc,%eax
c0004efe:	01 d0                	add    %edx,%eax
c0004f00:	c1 e0 02             	shl    $0x2,%eax
c0004f03:	8b 00                	mov    (%eax),%eax
c0004f05:	25 00 f0 ff ff       	and    $0xfffff000,%eax
c0004f0a:	89 c2                	mov    %eax,%edx
c0004f0c:	8b 45 08             	mov    0x8(%ebp),%eax
c0004f0f:	25 ff 0f 00 00       	and    $0xfff,%eax
c0004f14:	01 d0                	add    %edx,%eax
c0004f16:	5d                   	pop    %ebp
c0004f17:	c3                   	ret    

c0004f18 <switch_mmu>:
switch_mmu():
c0004f18:	55                   	push   %ebp
c0004f19:	89 e5                	mov    %esp,%ebp
c0004f1b:	8b 45 08             	mov    0x8(%ebp),%eax
c0004f1e:	0f 22 d8             	mov    %eax,%cr3
c0004f21:	5d                   	pop    %ebp
c0004f22:	c3                   	ret    

c0004f23 <initialize_MUTEX>:
initialize_MUTEX():
c0004f23:	55                   	push   %ebp
c0004f24:	89 e5                	mov    %esp,%ebp
c0004f26:	8b 45 08             	mov    0x8(%ebp),%eax
c0004f29:	c7 00 01 00 00 00    	movl   $0x1,(%eax)
c0004f2f:	8b 45 08             	mov    0x8(%ebp),%eax
c0004f32:	c7 40 04 00 00 00 00 	movl   $0x0,0x4(%eax)
c0004f39:	8b 45 08             	mov    0x8(%ebp),%eax
c0004f3c:	c7 40 08 00 00 00 00 	movl   $0x0,0x8(%eax)
c0004f43:	5d                   	pop    %ebp
c0004f44:	c3                   	ret    

c0004f45 <task_switch_mmu>:
task_switch_mmu():
c0004f45:	55                   	push   %ebp
c0004f46:	89 e5                	mov    %esp,%ebp
c0004f48:	83 ec 1c             	sub    $0x1c,%esp
c0004f4b:	8b 45 08             	mov    0x8(%ebp),%eax
c0004f4e:	8b 80 6c 20 00 00    	mov    0x206c(%eax),%eax
c0004f54:	89 04 24             	mov    %eax,(%esp)
c0004f57:	e8 69 ff ff ff       	call   c0004ec5 <virtual_to_physical_address>
c0004f5c:	89 45 fc             	mov    %eax,-0x4(%ebp)
c0004f5f:	8b 45 0c             	mov    0xc(%ebp),%eax
c0004f62:	8b 80 6c 20 00 00    	mov    0x206c(%eax),%eax
c0004f68:	89 04 24             	mov    %eax,(%esp)
c0004f6b:	e8 55 ff ff ff       	call   c0004ec5 <virtual_to_physical_address>
c0004f70:	89 45 f8             	mov    %eax,-0x8(%ebp)
c0004f73:	8b 45 fc             	mov    -0x4(%ebp),%eax
c0004f76:	3b 45 f8             	cmp    -0x8(%ebp),%eax
c0004f79:	74 6e                	je     c0004fe9 <task_switch_mmu+0xa4>
c0004f7b:	8b 45 0c             	mov    0xc(%ebp),%eax
c0004f7e:	8b 90 70 20 00 00    	mov    0x2070(%eax),%edx
c0004f84:	8b 45 08             	mov    0x8(%ebp),%eax
c0004f87:	8b 80 70 20 00 00    	mov    0x2070(%eax),%eax
c0004f8d:	39 c2                	cmp    %eax,%edx
c0004f8f:	74 4d                	je     c0004fde <task_switch_mmu+0x99>
c0004f91:	9c                   	pushf  
c0004f92:	58                   	pop    %eax
c0004f93:	fa                   	cli    
c0004f94:	89 45 f4             	mov    %eax,-0xc(%ebp)
c0004f97:	8b 45 08             	mov    0x8(%ebp),%eax
c0004f9a:	8b 80 6c 20 00 00    	mov    0x206c(%eax),%eax
c0004fa0:	8d 90 00 0c 00 00    	lea    0xc00(%eax),%edx
c0004fa6:	8b 45 0c             	mov    0xc(%ebp),%eax
c0004fa9:	8b 80 6c 20 00 00    	mov    0x206c(%eax),%eax
c0004faf:	05 00 0c 00 00       	add    $0xc00,%eax
c0004fb4:	c7 44 24 08 fc 03 00 	movl   $0x3fc,0x8(%esp)
c0004fbb:	00 
c0004fbc:	89 54 24 04          	mov    %edx,0x4(%esp)
c0004fc0:	89 04 24             	mov    %eax,(%esp)
c0004fc3:	e8 e4 fe ff ff       	call   c0004eac <memcpy08>
c0004fc8:	8b 45 08             	mov    0x8(%ebp),%eax
c0004fcb:	8b 90 70 20 00 00    	mov    0x2070(%eax),%edx
c0004fd1:	8b 45 0c             	mov    0xc(%ebp),%eax
c0004fd4:	89 90 70 20 00 00    	mov    %edx,0x2070(%eax)
c0004fda:	ff 75 f4             	pushl  -0xc(%ebp)
c0004fdd:	9d                   	popf   
c0004fde:	8b 45 f8             	mov    -0x8(%ebp),%eax
c0004fe1:	89 04 24             	mov    %eax,(%esp)
c0004fe4:	e8 2f ff ff ff       	call   c0004f18 <switch_mmu>
c0004fe9:	c9                   	leave  
c0004fea:	c3                   	ret    

c0004feb <get_thread_father>:
get_thread_father():
c0004feb:	55                   	push   %ebp
c0004fec:	89 e5                	mov    %esp,%ebp
c0004fee:	83 ec 10             	sub    $0x10,%esp
c0004ff1:	8b 45 08             	mov    0x8(%ebp),%eax
c0004ff4:	89 45 fc             	mov    %eax,-0x4(%ebp)
c0004ff7:	eb 19                	jmp    c0005012 <get_thread_father+0x27>
c0004ff9:	8b 45 fc             	mov    -0x4(%ebp),%eax
c0004ffc:	8b 80 a8 20 00 00    	mov    0x20a8(%eax),%eax
c0005002:	89 45 fc             	mov    %eax,-0x4(%ebp)
c0005005:	83 7d fc 00          	cmpl   $0x0,-0x4(%ebp)
c0005009:	75 07                	jne    c0005012 <get_thread_father+0x27>
c000500b:	b8 00 00 00 00       	mov    $0x0,%eax
c0005010:	eb 14                	jmp    c0005026 <get_thread_father+0x3b>
c0005012:	8b 45 fc             	mov    -0x4(%ebp),%eax
c0005015:	0f b6 80 b0 20 00 00 	movzbl 0x20b0(%eax),%eax
c000501c:	83 e0 01             	and    $0x1,%eax
c000501f:	84 c0                	test   %al,%al
c0005021:	74 d6                	je     c0004ff9 <get_thread_father+0xe>
c0005023:	8b 45 fc             	mov    -0x4(%ebp),%eax
c0005026:	c9                   	leave  
c0005027:	c3                   	ret    

c0005028 <lock_heap_region>:
lock_heap_region():
c0005028:	55                   	push   %ebp
c0005029:	89 e5                	mov    %esp,%ebp
c000502b:	83 ec 18             	sub    $0x18,%esp
c000502e:	c7 44 24 0c 24 00 00 	movl   $0x24,0xc(%esp)
c0005035:	00 
c0005036:	c7 44 24 08 e4 88 00 	movl   $0xc00088e4,0x8(%esp)
c000503d:	c0 
c000503e:	c7 44 24 04 f8 88 00 	movl   $0xc00088f8,0x4(%esp)
c0005045:	c0 
c0005046:	c7 04 24 1c 89 00 c0 	movl   $0xc000891c,(%esp)
c000504d:	e8 4d c2 ff ff       	call   c000129f <kprintf>
c0005052:	fa                   	cli    
c0005053:	eb fe                	jmp    c0005053 <lock_heap_region+0x2b>

c0005055 <unlock_heap_region>:
unlock_heap_region():
c0005055:	55                   	push   %ebp
c0005056:	89 e5                	mov    %esp,%ebp
c0005058:	83 ec 18             	sub    $0x18,%esp
c000505b:	c7 44 24 0c 2b 00 00 	movl   $0x2b,0xc(%esp)
c0005062:	00 
c0005063:	c7 44 24 08 e4 88 00 	movl   $0xc00088e4,0x8(%esp)
c000506a:	c0 
c000506b:	c7 44 24 04 f8 88 00 	movl   $0xc00088f8,0x4(%esp)
c0005072:	c0 
c0005073:	c7 04 24 1c 89 00 c0 	movl   $0xc000891c,(%esp)
c000507a:	e8 20 c2 ff ff       	call   c000129f <kprintf>
c000507f:	fa                   	cli    
c0005080:	eb fe                	jmp    c0005080 <unlock_heap_region+0x2b>

c0005082 <umalloc_init>:
umalloc_init():
c0005082:	55                   	push   %ebp
c0005083:	89 e5                	mov    %esp,%ebp
c0005085:	83 ec 28             	sub    $0x28,%esp
c0005088:	83 7d 08 00          	cmpl   $0x0,0x8(%ebp)
c000508c:	75 02                	jne    c0005090 <umalloc_init+0xe>
c000508e:	eb 7e                	jmp    c000510e <umalloc_init+0x8c>
c0005090:	8b 45 08             	mov    0x8(%ebp),%eax
c0005093:	0f b6 80 b0 20 00 00 	movzbl 0x20b0(%eax),%eax
c000509a:	83 e0 01             	and    $0x1,%eax
c000509d:	84 c0                	test   %al,%al
c000509f:	75 16                	jne    c00050b7 <umalloc_init+0x35>
c00050a1:	c7 44 24 04 87 89 00 	movl   $0xc0008987,0x4(%esp)
c00050a8:	c0 
c00050a9:	c7 04 24 44 89 00 c0 	movl   $0xc0008944,(%esp)
c00050b0:	e8 ea c1 ff ff       	call   c000129f <kprintf>
c00050b5:	eb 57                	jmp    c000510e <umalloc_init+0x8c>
c00050b7:	8b 45 08             	mov    0x8(%ebp),%eax
c00050ba:	8b 55 0c             	mov    0xc(%ebp),%edx
c00050bd:	89 90 90 20 00 00    	mov    %edx,0x2090(%eax)
c00050c3:	8b 45 08             	mov    0x8(%ebp),%eax
c00050c6:	8b 55 10             	mov    0x10(%ebp),%edx
c00050c9:	89 90 94 20 00 00    	mov    %edx,0x2094(%eax)
c00050cf:	8b 45 08             	mov    0x8(%ebp),%eax
c00050d2:	05 98 20 00 00       	add    $0x2098,%eax
c00050d7:	89 04 24             	mov    %eax,(%esp)
c00050da:	e8 44 fe ff ff       	call   c0004f23 <initialize_MUTEX>
c00050df:	8b 45 0c             	mov    0xc(%ebp),%eax
c00050e2:	89 45 f4             	mov    %eax,-0xc(%ebp)
c00050e5:	8b 45 f4             	mov    -0xc(%ebp),%eax
c00050e8:	c7 00 ef be ad de    	movl   $0xdeadbeef,(%eax)
c00050ee:	8b 45 f4             	mov    -0xc(%ebp),%eax
c00050f1:	c7 40 04 00 00 00 00 	movl   $0x0,0x4(%eax)
c00050f8:	8b 45 10             	mov    0x10(%ebp),%eax
c00050fb:	8d 50 f0             	lea    -0x10(%eax),%edx
c00050fe:	8b 45 f4             	mov    -0xc(%ebp),%eax
c0005101:	89 50 08             	mov    %edx,0x8(%eax)
c0005104:	8b 45 f4             	mov    -0xc(%ebp),%eax
c0005107:	c7 40 0c 00 00 00 00 	movl   $0x0,0xc(%eax)
c000510e:	c9                   	leave  
c000510f:	c3                   	ret    

c0005110 <do_umalloc>:
do_umalloc():
c0005110:	55                   	push   %ebp
c0005111:	89 e5                	mov    %esp,%ebp
c0005113:	83 ec 28             	sub    $0x28,%esp
c0005116:	c7 45 f0 00 00 00 00 	movl   $0x0,-0x10(%ebp)
c000511d:	c7 45 ec 00 00 00 00 	movl   $0x0,-0x14(%ebp)
c0005124:	83 7d 08 00          	cmpl   $0x0,0x8(%ebp)
c0005128:	75 0a                	jne    c0005134 <do_umalloc+0x24>
c000512a:	b8 00 00 00 00       	mov    $0x0,%eax
c000512f:	e9 e4 01 00 00       	jmp    c0005318 <do_umalloc+0x208>
c0005134:	83 7d 0c 00          	cmpl   $0x0,0xc(%ebp)
c0005138:	75 0a                	jne    c0005144 <do_umalloc+0x34>
c000513a:	b8 00 00 00 00       	mov    $0x0,%eax
c000513f:	e9 d4 01 00 00       	jmp    c0005318 <do_umalloc+0x208>
c0005144:	8b 45 0c             	mov    0xc(%ebp),%eax
c0005147:	83 e0 f0             	and    $0xfffffff0,%eax
c000514a:	83 c0 10             	add    $0x10,%eax
c000514d:	89 45 0c             	mov    %eax,0xc(%ebp)
c0005150:	8b 45 08             	mov    0x8(%ebp),%eax
c0005153:	89 04 24             	mov    %eax,(%esp)
c0005156:	e8 90 fe ff ff       	call   c0004feb <get_thread_father>
c000515b:	89 45 e8             	mov    %eax,-0x18(%ebp)
c000515e:	83 7d e8 00          	cmpl   $0x0,-0x18(%ebp)
c0005162:	75 0a                	jne    c000516e <do_umalloc+0x5e>
c0005164:	b8 00 00 00 00       	mov    $0x0,%eax
c0005169:	e9 aa 01 00 00       	jmp    c0005318 <do_umalloc+0x208>
c000516e:	e8 48 e6 ff ff       	call   c00037bb <sched_is_disabled>
c0005173:	85 c0                	test   %eax,%eax
c0005175:	75 12                	jne    c0005189 <do_umalloc+0x79>
c0005177:	8b 45 e8             	mov    -0x18(%ebp),%eax
c000517a:	89 04 24             	mov    %eax,(%esp)
c000517d:	e8 a6 fe ff ff       	call   c0005028 <lock_heap_region>
c0005182:	c7 45 ec 01 00 00 00 	movl   $0x1,-0x14(%ebp)
c0005189:	8b 45 e8             	mov    -0x18(%ebp),%eax
c000518c:	8b 90 6c 20 00 00    	mov    0x206c(%eax),%edx
c0005192:	a1 30 b5 01 c0       	mov    0xc001b530,%eax
c0005197:	8b 80 6c 20 00 00    	mov    0x206c(%eax),%eax
c000519d:	39 c2                	cmp    %eax,%edx
c000519f:	74 1f                	je     c00051c0 <do_umalloc+0xb0>
c00051a1:	83 7d ec 00          	cmpl   $0x0,-0x14(%ebp)
c00051a5:	74 05                	je     c00051ac <do_umalloc+0x9c>
c00051a7:	e8 36 fb ff ff       	call   c0004ce2 <sched_enter_critical_region>
c00051ac:	a1 30 b5 01 c0       	mov    0xc001b530,%eax
c00051b1:	8b 55 e8             	mov    -0x18(%ebp),%edx
c00051b4:	89 54 24 04          	mov    %edx,0x4(%esp)
c00051b8:	89 04 24             	mov    %eax,(%esp)
c00051bb:	e8 85 fd ff ff       	call   c0004f45 <task_switch_mmu>
c00051c0:	8b 45 e8             	mov    -0x18(%ebp),%eax
c00051c3:	8b 80 90 20 00 00    	mov    0x2090(%eax),%eax
c00051c9:	89 45 f4             	mov    %eax,-0xc(%ebp)
c00051cc:	83 7d f4 00          	cmpl   $0x0,-0xc(%ebp)
c00051d0:	75 05                	jne    c00051d7 <do_umalloc+0xc7>
c00051d2:	e9 f6 00 00 00       	jmp    c00052cd <do_umalloc+0x1bd>
c00051d7:	eb 58                	jmp    c0005231 <do_umalloc+0x121>
c00051d9:	8b 45 f4             	mov    -0xc(%ebp),%eax
c00051dc:	8b 40 04             	mov    0x4(%eax),%eax
c00051df:	85 c0                	test   %eax,%eax
c00051e1:	75 42                	jne    c0005225 <do_umalloc+0x115>
c00051e3:	8b 45 f4             	mov    -0xc(%ebp),%eax
c00051e6:	8b 40 08             	mov    0x8(%eax),%eax
c00051e9:	3b 45 0c             	cmp    0xc(%ebp),%eax
c00051ec:	75 08                	jne    c00051f6 <do_umalloc+0xe6>
c00051ee:	8b 45 f4             	mov    -0xc(%ebp),%eax
c00051f1:	89 45 f0             	mov    %eax,-0x10(%ebp)
c00051f4:	eb 54                	jmp    c000524a <do_umalloc+0x13a>
c00051f6:	8b 45 f4             	mov    -0xc(%ebp),%eax
c00051f9:	8b 40 08             	mov    0x8(%eax),%eax
c00051fc:	3b 45 0c             	cmp    0xc(%ebp),%eax
c00051ff:	76 24                	jbe    c0005225 <do_umalloc+0x115>
c0005201:	83 7d f0 00          	cmpl   $0x0,-0x10(%ebp)
c0005205:	75 08                	jne    c000520f <do_umalloc+0xff>
c0005207:	8b 45 f4             	mov    -0xc(%ebp),%eax
c000520a:	89 45 f0             	mov    %eax,-0x10(%ebp)
c000520d:	eb 16                	jmp    c0005225 <do_umalloc+0x115>
c000520f:	8b 45 f0             	mov    -0x10(%ebp),%eax
c0005212:	8b 50 08             	mov    0x8(%eax),%edx
c0005215:	8b 45 f4             	mov    -0xc(%ebp),%eax
c0005218:	8b 40 08             	mov    0x8(%eax),%eax
c000521b:	39 c2                	cmp    %eax,%edx
c000521d:	76 06                	jbe    c0005225 <do_umalloc+0x115>
c000521f:	8b 45 f4             	mov    -0xc(%ebp),%eax
c0005222:	89 45 f0             	mov    %eax,-0x10(%ebp)
c0005225:	8b 45 f4             	mov    -0xc(%ebp),%eax
c0005228:	8b 40 08             	mov    0x8(%eax),%eax
c000522b:	83 c0 10             	add    $0x10,%eax
c000522e:	01 45 f4             	add    %eax,-0xc(%ebp)
c0005231:	8b 45 e8             	mov    -0x18(%ebp),%eax
c0005234:	8b 90 90 20 00 00    	mov    0x2090(%eax),%edx
c000523a:	8b 45 e8             	mov    -0x18(%ebp),%eax
c000523d:	8b 80 94 20 00 00    	mov    0x2094(%eax),%eax
c0005243:	01 d0                	add    %edx,%eax
c0005245:	3b 45 f4             	cmp    -0xc(%ebp),%eax
c0005248:	77 8f                	ja     c00051d9 <do_umalloc+0xc9>
c000524a:	83 7d f0 00          	cmpl   $0x0,-0x10(%ebp)
c000524e:	75 02                	jne    c0005252 <do_umalloc+0x142>
c0005250:	eb 7b                	jmp    c00052cd <do_umalloc+0x1bd>
c0005252:	8b 45 f0             	mov    -0x10(%ebp),%eax
c0005255:	c7 00 ef be ad de    	movl   $0xdeadbeef,(%eax)
c000525b:	8b 45 f0             	mov    -0x10(%ebp),%eax
c000525e:	c7 40 04 01 00 00 00 	movl   $0x1,0x4(%eax)
c0005265:	e8 05 ed ff ff       	call   c0003f6f <get_pid>
c000526a:	89 c2                	mov    %eax,%edx
c000526c:	8b 45 f0             	mov    -0x10(%ebp),%eax
c000526f:	89 50 0c             	mov    %edx,0xc(%eax)
c0005272:	8b 45 f0             	mov    -0x10(%ebp),%eax
c0005275:	8b 40 08             	mov    0x8(%eax),%eax
c0005278:	3b 45 0c             	cmp    0xc(%ebp),%eax
c000527b:	75 06                	jne    c0005283 <do_umalloc+0x173>
c000527d:	83 45 f0 10          	addl   $0x10,-0x10(%ebp)
c0005281:	eb 4a                	jmp    c00052cd <do_umalloc+0x1bd>
c0005283:	8b 45 0c             	mov    0xc(%ebp),%eax
c0005286:	8d 50 10             	lea    0x10(%eax),%edx
c0005289:	8b 45 f0             	mov    -0x10(%ebp),%eax
c000528c:	01 d0                	add    %edx,%eax
c000528e:	89 45 f4             	mov    %eax,-0xc(%ebp)
c0005291:	8b 45 f4             	mov    -0xc(%ebp),%eax
c0005294:	c7 00 ef be ad de    	movl   $0xdeadbeef,(%eax)
c000529a:	8b 45 f4             	mov    -0xc(%ebp),%eax
c000529d:	c7 40 04 00 00 00 00 	movl   $0x0,0x4(%eax)
c00052a4:	8b 45 f0             	mov    -0x10(%ebp),%eax
c00052a7:	8b 40 08             	mov    0x8(%eax),%eax
c00052aa:	2b 45 0c             	sub    0xc(%ebp),%eax
c00052ad:	8d 50 f0             	lea    -0x10(%eax),%edx
c00052b0:	8b 45 f4             	mov    -0xc(%ebp),%eax
c00052b3:	89 50 08             	mov    %edx,0x8(%eax)
c00052b6:	8b 45 f4             	mov    -0xc(%ebp),%eax
c00052b9:	c7 40 0c 00 00 00 00 	movl   $0x0,0xc(%eax)
c00052c0:	8b 45 f0             	mov    -0x10(%ebp),%eax
c00052c3:	8b 55 0c             	mov    0xc(%ebp),%edx
c00052c6:	89 50 08             	mov    %edx,0x8(%eax)
c00052c9:	83 45 f0 10          	addl   $0x10,-0x10(%ebp)
c00052cd:	8b 45 e8             	mov    -0x18(%ebp),%eax
c00052d0:	8b 90 6c 20 00 00    	mov    0x206c(%eax),%edx
c00052d6:	a1 30 b5 01 c0       	mov    0xc001b530,%eax
c00052db:	8b 80 6c 20 00 00    	mov    0x206c(%eax),%eax
c00052e1:	39 c2                	cmp    %eax,%edx
c00052e3:	74 1f                	je     c0005304 <do_umalloc+0x1f4>
c00052e5:	a1 30 b5 01 c0       	mov    0xc001b530,%eax
c00052ea:	89 44 24 04          	mov    %eax,0x4(%esp)
c00052ee:	8b 45 e8             	mov    -0x18(%ebp),%eax
c00052f1:	89 04 24             	mov    %eax,(%esp)
c00052f4:	e8 4c fc ff ff       	call   c0004f45 <task_switch_mmu>
c00052f9:	83 7d ec 00          	cmpl   $0x0,-0x14(%ebp)
c00052fd:	74 05                	je     c0005304 <do_umalloc+0x1f4>
c00052ff:	e8 ed f9 ff ff       	call   c0004cf1 <sched_leave_critical_region>
c0005304:	83 7d ec 00          	cmpl   $0x0,-0x14(%ebp)
c0005308:	74 0b                	je     c0005315 <do_umalloc+0x205>
c000530a:	8b 45 e8             	mov    -0x18(%ebp),%eax
c000530d:	89 04 24             	mov    %eax,(%esp)
c0005310:	e8 40 fd ff ff       	call   c0005055 <unlock_heap_region>
c0005315:	8b 45 f0             	mov    -0x10(%ebp),%eax
c0005318:	c9                   	leave  
c0005319:	c3                   	ret    

c000531a <deallocate>:
deallocate():
c000531a:	55                   	push   %ebp
c000531b:	89 e5                	mov    %esp,%ebp
c000531d:	83 ec 28             	sub    $0x28,%esp
c0005320:	8b 45 08             	mov    0x8(%ebp),%eax
c0005323:	83 c0 10             	add    $0x10,%eax
c0005326:	05 ff 0f 00 00       	add    $0xfff,%eax
c000532b:	25 00 f0 ff ff       	and    $0xfffff000,%eax
c0005330:	89 45 f4             	mov    %eax,-0xc(%ebp)
c0005333:	8b 45 08             	mov    0x8(%ebp),%eax
c0005336:	8b 40 08             	mov    0x8(%eax),%eax
c0005339:	8d 50 10             	lea    0x10(%eax),%edx
c000533c:	8b 45 08             	mov    0x8(%ebp),%eax
c000533f:	01 d0                	add    %edx,%eax
c0005341:	25 00 f0 ff ff       	and    $0xfffff000,%eax
c0005346:	89 45 f0             	mov    %eax,-0x10(%ebp)
c0005349:	eb 38                	jmp    c0005383 <deallocate+0x69>
c000534b:	8b 45 f4             	mov    -0xc(%ebp),%eax
c000534e:	c1 e8 16             	shr    $0x16,%eax
c0005351:	05 00 fc ff 3f       	add    $0x3ffffc00,%eax
c0005356:	c1 e0 02             	shl    $0x2,%eax
c0005359:	8b 00                	mov    (%eax),%eax
c000535b:	85 c0                	test   %eax,%eax
c000535d:	74 14                	je     c0005373 <deallocate+0x59>
c000535f:	8b 45 f4             	mov    -0xc(%ebp),%eax
c0005362:	89 04 24             	mov    %eax,(%esp)
c0005365:	e8 28 dc ff ff       	call   c0002f92 <delete_page>
c000536a:	81 45 f4 00 10 00 00 	addl   $0x1000,-0xc(%ebp)
c0005371:	eb 10                	jmp    c0005383 <deallocate+0x69>
c0005373:	8b 45 f4             	mov    -0xc(%ebp),%eax
c0005376:	25 00 00 c0 ff       	and    $0xffc00000,%eax
c000537b:	05 00 00 40 00       	add    $0x400000,%eax
c0005380:	89 45 f4             	mov    %eax,-0xc(%ebp)
c0005383:	8b 45 f4             	mov    -0xc(%ebp),%eax
c0005386:	3b 45 f0             	cmp    -0x10(%ebp),%eax
c0005389:	72 c0                	jb     c000534b <deallocate+0x31>
c000538b:	c9                   	leave  
c000538c:	c3                   	ret    

c000538d <do_ufree>:
do_ufree():
c000538d:	55                   	push   %ebp
c000538e:	89 e5                	mov    %esp,%ebp
c0005390:	83 ec 28             	sub    $0x28,%esp
c0005393:	c7 45 ec 00 00 00 00 	movl   $0x0,-0x14(%ebp)
c000539a:	83 7d 08 00          	cmpl   $0x0,0x8(%ebp)
c000539e:	75 05                	jne    c00053a5 <do_ufree+0x18>
c00053a0:	e9 ca 01 00 00       	jmp    c000556f <do_ufree+0x1e2>
c00053a5:	83 7d 0c 00          	cmpl   $0x0,0xc(%ebp)
c00053a9:	75 05                	jne    c00053b0 <do_ufree+0x23>
c00053ab:	e9 bf 01 00 00       	jmp    c000556f <do_ufree+0x1e2>
c00053b0:	8b 45 0c             	mov    0xc(%ebp),%eax
c00053b3:	83 e8 10             	sub    $0x10,%eax
c00053b6:	89 45 f4             	mov    %eax,-0xc(%ebp)
c00053b9:	8b 45 08             	mov    0x8(%ebp),%eax
c00053bc:	89 04 24             	mov    %eax,(%esp)
c00053bf:	e8 27 fc ff ff       	call   c0004feb <get_thread_father>
c00053c4:	89 45 e8             	mov    %eax,-0x18(%ebp)
c00053c7:	83 7d e8 00          	cmpl   $0x0,-0x18(%ebp)
c00053cb:	75 05                	jne    c00053d2 <do_ufree+0x45>
c00053cd:	e9 9d 01 00 00       	jmp    c000556f <do_ufree+0x1e2>
c00053d2:	e8 e4 e3 ff ff       	call   c00037bb <sched_is_disabled>
c00053d7:	85 c0                	test   %eax,%eax
c00053d9:	75 12                	jne    c00053ed <do_ufree+0x60>
c00053db:	8b 45 e8             	mov    -0x18(%ebp),%eax
c00053de:	89 04 24             	mov    %eax,(%esp)
c00053e1:	e8 42 fc ff ff       	call   c0005028 <lock_heap_region>
c00053e6:	c7 45 ec 01 00 00 00 	movl   $0x1,-0x14(%ebp)
c00053ed:	8b 45 e8             	mov    -0x18(%ebp),%eax
c00053f0:	8b 90 6c 20 00 00    	mov    0x206c(%eax),%edx
c00053f6:	a1 30 b5 01 c0       	mov    0xc001b530,%eax
c00053fb:	8b 80 6c 20 00 00    	mov    0x206c(%eax),%eax
c0005401:	39 c2                	cmp    %eax,%edx
c0005403:	74 1f                	je     c0005424 <do_ufree+0x97>
c0005405:	83 7d ec 00          	cmpl   $0x0,-0x14(%ebp)
c0005409:	74 05                	je     c0005410 <do_ufree+0x83>
c000540b:	e8 d2 f8 ff ff       	call   c0004ce2 <sched_enter_critical_region>
c0005410:	a1 30 b5 01 c0       	mov    0xc001b530,%eax
c0005415:	8b 55 e8             	mov    -0x18(%ebp),%edx
c0005418:	89 54 24 04          	mov    %edx,0x4(%esp)
c000541c:	89 04 24             	mov    %eax,(%esp)
c000541f:	e8 21 fb ff ff       	call   c0004f45 <task_switch_mmu>
c0005424:	8b 45 f4             	mov    -0xc(%ebp),%eax
c0005427:	8b 00                	mov    (%eax),%eax
c0005429:	3d ef be ad de       	cmp    $0xdeadbeef,%eax
c000542e:	74 05                	je     c0005435 <do_ufree+0xa8>
c0005430:	e9 f2 00 00 00       	jmp    c0005527 <do_ufree+0x19a>
c0005435:	8b 45 f4             	mov    -0xc(%ebp),%eax
c0005438:	8b 40 04             	mov    0x4(%eax),%eax
c000543b:	83 f8 01             	cmp    $0x1,%eax
c000543e:	74 05                	je     c0005445 <do_ufree+0xb8>
c0005440:	e9 e2 00 00 00       	jmp    c0005527 <do_ufree+0x19a>
c0005445:	8b 45 f4             	mov    -0xc(%ebp),%eax
c0005448:	c7 40 04 00 00 00 00 	movl   $0x0,0x4(%eax)
c000544f:	8b 45 f4             	mov    -0xc(%ebp),%eax
c0005452:	c7 40 0c 00 00 00 00 	movl   $0x0,0xc(%eax)
c0005459:	8b 45 f4             	mov    -0xc(%ebp),%eax
c000545c:	8b 40 08             	mov    0x8(%eax),%eax
c000545f:	8d 50 10             	lea    0x10(%eax),%edx
c0005462:	8b 45 f4             	mov    -0xc(%ebp),%eax
c0005465:	01 d0                	add    %edx,%eax
c0005467:	89 45 f0             	mov    %eax,-0x10(%ebp)
c000546a:	8b 45 e8             	mov    -0x18(%ebp),%eax
c000546d:	8b 90 90 20 00 00    	mov    0x2090(%eax),%edx
c0005473:	8b 45 e8             	mov    -0x18(%ebp),%eax
c0005476:	8b 80 94 20 00 00    	mov    0x2094(%eax),%eax
c000547c:	01 d0                	add    %edx,%eax
c000547e:	3b 45 f0             	cmp    -0x10(%ebp),%eax
c0005481:	76 2a                	jbe    c00054ad <do_ufree+0x120>
c0005483:	8b 45 f0             	mov    -0x10(%ebp),%eax
c0005486:	8b 40 04             	mov    0x4(%eax),%eax
c0005489:	85 c0                	test   %eax,%eax
c000548b:	75 20                	jne    c00054ad <do_ufree+0x120>
c000548d:	8b 45 f4             	mov    -0xc(%ebp),%eax
c0005490:	8b 50 08             	mov    0x8(%eax),%edx
c0005493:	8b 45 f0             	mov    -0x10(%ebp),%eax
c0005496:	8b 40 08             	mov    0x8(%eax),%eax
c0005499:	01 d0                	add    %edx,%eax
c000549b:	8d 50 10             	lea    0x10(%eax),%edx
c000549e:	8b 45 f4             	mov    -0xc(%ebp),%eax
c00054a1:	89 50 08             	mov    %edx,0x8(%eax)
c00054a4:	8b 45 f0             	mov    -0x10(%ebp),%eax
c00054a7:	c7 00 00 00 00 00    	movl   $0x0,(%eax)
c00054ad:	8b 45 e8             	mov    -0x18(%ebp),%eax
c00054b0:	8b 80 90 20 00 00    	mov    0x2090(%eax),%eax
c00054b6:	3b 45 f4             	cmp    -0xc(%ebp),%eax
c00054b9:	74 61                	je     c000551c <do_ufree+0x18f>
c00054bb:	8b 45 e8             	mov    -0x18(%ebp),%eax
c00054be:	8b 80 90 20 00 00    	mov    0x2090(%eax),%eax
c00054c4:	89 45 f0             	mov    %eax,-0x10(%ebp)
c00054c7:	8b 45 f0             	mov    -0x10(%ebp),%eax
c00054ca:	8b 40 08             	mov    0x8(%eax),%eax
c00054cd:	8d 50 10             	lea    0x10(%eax),%edx
c00054d0:	8b 45 f0             	mov    -0x10(%ebp),%eax
c00054d3:	01 d0                	add    %edx,%eax
c00054d5:	3b 45 f4             	cmp    -0xc(%ebp),%eax
c00054d8:	75 34                	jne    c000550e <do_ufree+0x181>
c00054da:	8b 45 f0             	mov    -0x10(%ebp),%eax
c00054dd:	8b 40 04             	mov    0x4(%eax),%eax
c00054e0:	85 c0                	test   %eax,%eax
c00054e2:	75 28                	jne    c000550c <do_ufree+0x17f>
c00054e4:	8b 45 f0             	mov    -0x10(%ebp),%eax
c00054e7:	8b 50 08             	mov    0x8(%eax),%edx
c00054ea:	8b 45 f4             	mov    -0xc(%ebp),%eax
c00054ed:	8b 40 08             	mov    0x8(%eax),%eax
c00054f0:	01 d0                	add    %edx,%eax
c00054f2:	8d 50 10             	lea    0x10(%eax),%edx
c00054f5:	8b 45 f0             	mov    -0x10(%ebp),%eax
c00054f8:	89 50 08             	mov    %edx,0x8(%eax)
c00054fb:	8b 45 f4             	mov    -0xc(%ebp),%eax
c00054fe:	c7 00 00 00 00 00    	movl   $0x0,(%eax)
c0005504:	8b 45 f0             	mov    -0x10(%ebp),%eax
c0005507:	89 45 f4             	mov    %eax,-0xc(%ebp)
c000550a:	eb 10                	jmp    c000551c <do_ufree+0x18f>
c000550c:	eb 0e                	jmp    c000551c <do_ufree+0x18f>
c000550e:	8b 45 f0             	mov    -0x10(%ebp),%eax
c0005511:	8b 40 08             	mov    0x8(%eax),%eax
c0005514:	83 c0 10             	add    $0x10,%eax
c0005517:	01 45 f0             	add    %eax,-0x10(%ebp)
c000551a:	eb ab                	jmp    c00054c7 <do_ufree+0x13a>
c000551c:	8b 45 f4             	mov    -0xc(%ebp),%eax
c000551f:	89 04 24             	mov    %eax,(%esp)
c0005522:	e8 f3 fd ff ff       	call   c000531a <deallocate>
c0005527:	8b 45 e8             	mov    -0x18(%ebp),%eax
c000552a:	8b 90 6c 20 00 00    	mov    0x206c(%eax),%edx
c0005530:	a1 30 b5 01 c0       	mov    0xc001b530,%eax
c0005535:	8b 80 6c 20 00 00    	mov    0x206c(%eax),%eax
c000553b:	39 c2                	cmp    %eax,%edx
c000553d:	74 1f                	je     c000555e <do_ufree+0x1d1>
c000553f:	a1 30 b5 01 c0       	mov    0xc001b530,%eax
c0005544:	89 44 24 04          	mov    %eax,0x4(%esp)
c0005548:	8b 45 e8             	mov    -0x18(%ebp),%eax
c000554b:	89 04 24             	mov    %eax,(%esp)
c000554e:	e8 f2 f9 ff ff       	call   c0004f45 <task_switch_mmu>
c0005553:	83 7d ec 00          	cmpl   $0x0,-0x14(%ebp)
c0005557:	74 05                	je     c000555e <do_ufree+0x1d1>
c0005559:	e8 93 f7 ff ff       	call   c0004cf1 <sched_leave_critical_region>
c000555e:	83 7d ec 00          	cmpl   $0x0,-0x14(%ebp)
c0005562:	74 0b                	je     c000556f <do_ufree+0x1e2>
c0005564:	8b 45 e8             	mov    -0x18(%ebp),%eax
c0005567:	89 04 24             	mov    %eax,(%esp)
c000556a:	e8 e6 fa ff ff       	call   c0005055 <unlock_heap_region>
c000556f:	c9                   	leave  
c0005570:	c3                   	ret    

c0005571 <umalloc>:
umalloc():
c0005571:	55                   	push   %ebp
c0005572:	89 e5                	mov    %esp,%ebp
c0005574:	83 ec 18             	sub    $0x18,%esp
c0005577:	c7 44 24 0c 3f 01 00 	movl   $0x13f,0xc(%esp)
c000557e:	00 
c000557f:	c7 44 24 08 e4 88 00 	movl   $0xc00088e4,0x8(%esp)
c0005586:	c0 
c0005587:	c7 44 24 04 6c 89 00 	movl   $0xc000896c,0x4(%esp)
c000558e:	c0 
c000558f:	c7 04 24 1c 89 00 c0 	movl   $0xc000891c,(%esp)
c0005596:	e8 04 bd ff ff       	call   c000129f <kprintf>
c000559b:	fa                   	cli    
c000559c:	eb fe                	jmp    c000559c <umalloc+0x2b>

c000559e <ufree>:
ufree():
c000559e:	55                   	push   %ebp
c000559f:	89 e5                	mov    %esp,%ebp
c00055a1:	83 ec 18             	sub    $0x18,%esp
c00055a4:	c7 44 24 0c 49 01 00 	movl   $0x149,0xc(%esp)
c00055ab:	00 
c00055ac:	c7 44 24 08 e4 88 00 	movl   $0xc00088e4,0x8(%esp)
c00055b3:	c0 
c00055b4:	c7 44 24 04 6c 89 00 	movl   $0xc000896c,0x4(%esp)
c00055bb:	c0 
c00055bc:	c7 04 24 1c 89 00 c0 	movl   $0xc000891c,(%esp)
c00055c3:	e8 d7 bc ff ff       	call   c000129f <kprintf>
c00055c8:	fa                   	cli    
c00055c9:	eb fe                	jmp    c00055c9 <ufree+0x2b>

c00055cb <outport08>:
outport08():
c00055cb:	55                   	push   %ebp
c00055cc:	89 e5                	mov    %esp,%ebp
c00055ce:	83 ec 08             	sub    $0x8,%esp
c00055d1:	8b 55 08             	mov    0x8(%ebp),%edx
c00055d4:	8b 45 0c             	mov    0xc(%ebp),%eax
c00055d7:	66 89 55 fc          	mov    %dx,-0x4(%ebp)
c00055db:	88 45 f8             	mov    %al,-0x8(%ebp)
c00055de:	0f b7 55 fc          	movzwl -0x4(%ebp),%edx
c00055e2:	0f b6 45 f8          	movzbl -0x8(%ebp),%eax
c00055e6:	ee                   	out    %al,(%dx)
c00055e7:	c9                   	leave  
c00055e8:	c3                   	ret    

c00055e9 <dma_xfer>:
dma_xfer():
c00055e9:	55                   	push   %ebp
c00055ea:	89 e5                	mov    %esp,%ebp
c00055ec:	83 ec 18             	sub    $0x18,%esp
c00055ef:	83 7d 08 03          	cmpl   $0x3,0x8(%ebp)
c00055f3:	76 05                	jbe    c00055fa <dma_xfer+0x11>
c00055f5:	e9 53 01 00 00       	jmp    c000574d <dma_xfer+0x164>
c00055fa:	9c                   	pushf  
c00055fb:	58                   	pop    %eax
c00055fc:	fa                   	cli    
c00055fd:	89 45 fc             	mov    %eax,-0x4(%ebp)
c0005600:	8b 45 0c             	mov    0xc(%ebp),%eax
c0005603:	c1 e8 10             	shr    $0x10,%eax
c0005606:	89 45 f8             	mov    %eax,-0x8(%ebp)
c0005609:	8b 45 0c             	mov    0xc(%ebp),%eax
c000560c:	25 ff ff 00 00       	and    $0xffff,%eax
c0005611:	89 45 f4             	mov    %eax,-0xc(%ebp)
c0005614:	83 6d 10 01          	subl   $0x1,0x10(%ebp)
c0005618:	8b 45 08             	mov    0x8(%ebp),%eax
c000561b:	83 c8 04             	or     $0x4,%eax
c000561e:	0f b6 c0             	movzbl %al,%eax
c0005621:	89 44 24 04          	mov    %eax,0x4(%esp)
c0005625:	c7 04 24 0a 00 00 00 	movl   $0xa,(%esp)
c000562c:	e8 9a ff ff ff       	call   c00055cb <outport08>
c0005631:	c7 44 24 04 00 00 00 	movl   $0x0,0x4(%esp)
c0005638:	00 
c0005639:	c7 04 24 0c 00 00 00 	movl   $0xc,(%esp)
c0005640:	e8 86 ff ff ff       	call   c00055cb <outport08>
c0005645:	83 7d 14 00          	cmpl   $0x0,0x14(%ebp)
c0005649:	74 07                	je     c0005652 <dma_xfer+0x69>
c000564b:	b8 48 00 00 00       	mov    $0x48,%eax
c0005650:	eb 05                	jmp    c0005657 <dma_xfer+0x6e>
c0005652:	b8 44 00 00 00       	mov    $0x44,%eax
c0005657:	8b 55 08             	mov    0x8(%ebp),%edx
c000565a:	01 d0                	add    %edx,%eax
c000565c:	0f b6 c0             	movzbl %al,%eax
c000565f:	89 44 24 04          	mov    %eax,0x4(%esp)
c0005663:	c7 04 24 0b 00 00 00 	movl   $0xb,(%esp)
c000566a:	e8 5c ff ff ff       	call   c00055cb <outport08>
c000566f:	8b 45 f8             	mov    -0x8(%ebp),%eax
c0005672:	0f b6 c8             	movzbl %al,%ecx
c0005675:	8b 55 08             	mov    0x8(%ebp),%edx
c0005678:	89 d0                	mov    %edx,%eax
c000567a:	01 c0                	add    %eax,%eax
c000567c:	01 d0                	add    %edx,%eax
c000567e:	05 90 a5 00 c0       	add    $0xc000a590,%eax
c0005683:	0f b6 00             	movzbl (%eax),%eax
c0005686:	0f b6 c0             	movzbl %al,%eax
c0005689:	89 4c 24 04          	mov    %ecx,0x4(%esp)
c000568d:	89 04 24             	mov    %eax,(%esp)
c0005690:	e8 36 ff ff ff       	call   c00055cb <outport08>
c0005695:	8b 45 f4             	mov    -0xc(%ebp),%eax
c0005698:	0f b6 c8             	movzbl %al,%ecx
c000569b:	8b 55 08             	mov    0x8(%ebp),%edx
c000569e:	89 d0                	mov    %edx,%eax
c00056a0:	01 c0                	add    %eax,%eax
c00056a2:	01 d0                	add    %edx,%eax
c00056a4:	05 91 a5 00 c0       	add    $0xc000a591,%eax
c00056a9:	0f b6 00             	movzbl (%eax),%eax
c00056ac:	0f b6 c0             	movzbl %al,%eax
c00056af:	89 4c 24 04          	mov    %ecx,0x4(%esp)
c00056b3:	89 04 24             	mov    %eax,(%esp)
c00056b6:	e8 10 ff ff ff       	call   c00055cb <outport08>
c00056bb:	8b 45 f4             	mov    -0xc(%ebp),%eax
c00056be:	c1 f8 08             	sar    $0x8,%eax
c00056c1:	0f b6 c8             	movzbl %al,%ecx
c00056c4:	8b 55 08             	mov    0x8(%ebp),%edx
c00056c7:	89 d0                	mov    %edx,%eax
c00056c9:	01 c0                	add    %eax,%eax
c00056cb:	01 d0                	add    %edx,%eax
c00056cd:	05 91 a5 00 c0       	add    $0xc000a591,%eax
c00056d2:	0f b6 00             	movzbl (%eax),%eax
c00056d5:	0f b6 c0             	movzbl %al,%eax
c00056d8:	89 4c 24 04          	mov    %ecx,0x4(%esp)
c00056dc:	89 04 24             	mov    %eax,(%esp)
c00056df:	e8 e7 fe ff ff       	call   c00055cb <outport08>
c00056e4:	8b 45 10             	mov    0x10(%ebp),%eax
c00056e7:	0f b6 c8             	movzbl %al,%ecx
c00056ea:	8b 55 08             	mov    0x8(%ebp),%edx
c00056ed:	89 d0                	mov    %edx,%eax
c00056ef:	01 c0                	add    %eax,%eax
c00056f1:	01 d0                	add    %edx,%eax
c00056f3:	05 92 a5 00 c0       	add    $0xc000a592,%eax
c00056f8:	0f b6 00             	movzbl (%eax),%eax
c00056fb:	0f b6 c0             	movzbl %al,%eax
c00056fe:	89 4c 24 04          	mov    %ecx,0x4(%esp)
c0005702:	89 04 24             	mov    %eax,(%esp)
c0005705:	e8 c1 fe ff ff       	call   c00055cb <outport08>
c000570a:	8b 45 10             	mov    0x10(%ebp),%eax
c000570d:	c1 f8 08             	sar    $0x8,%eax
c0005710:	0f b6 c8             	movzbl %al,%ecx
c0005713:	8b 55 08             	mov    0x8(%ebp),%edx
c0005716:	89 d0                	mov    %edx,%eax
c0005718:	01 c0                	add    %eax,%eax
c000571a:	01 d0                	add    %edx,%eax
c000571c:	05 92 a5 00 c0       	add    $0xc000a592,%eax
c0005721:	0f b6 00             	movzbl (%eax),%eax
c0005724:	0f b6 c0             	movzbl %al,%eax
c0005727:	89 4c 24 04          	mov    %ecx,0x4(%esp)
c000572b:	89 04 24             	mov    %eax,(%esp)
c000572e:	e8 98 fe ff ff       	call   c00055cb <outport08>
c0005733:	8b 45 08             	mov    0x8(%ebp),%eax
c0005736:	0f b6 c0             	movzbl %al,%eax
c0005739:	89 44 24 04          	mov    %eax,0x4(%esp)
c000573d:	c7 04 24 0a 00 00 00 	movl   $0xa,(%esp)
c0005744:	e8 82 fe ff ff       	call   c00055cb <outport08>
c0005749:	ff 75 fc             	pushl  -0x4(%ebp)
c000574c:	9d                   	popf   
c000574d:	c9                   	leave  
c000574e:	c3                   	ret    

c000574f <dma_pop_frame>:
dma_pop_frame():
c000574f:	55                   	push   %ebp
c0005750:	89 e5                	mov    %esp,%ebp
c0005752:	83 ec 10             	sub    $0x10,%esp
c0005755:	9c                   	pushf  
c0005756:	58                   	pop    %eax
c0005757:	fa                   	cli    
c0005758:	89 45 fc             	mov    %eax,-0x4(%ebp)
c000575b:	a1 b0 dd 02 c0       	mov    0xc002ddb0,%eax
c0005760:	3d fc 0f 00 00       	cmp    $0xffc,%eax
c0005765:	77 2b                	ja     c0005792 <dma_pop_frame+0x43>
c0005767:	a1 ac dd 02 c0       	mov    0xc002ddac,%eax
c000576c:	8b 15 b0 dd 02 c0    	mov    0xc002ddb0,%edx
c0005772:	c1 e2 02             	shl    $0x2,%edx
c0005775:	01 d0                	add    %edx,%eax
c0005777:	8b 00                	mov    (%eax),%eax
c0005779:	89 45 f8             	mov    %eax,-0x8(%ebp)
c000577c:	a1 b0 dd 02 c0       	mov    0xc002ddb0,%eax
c0005781:	83 c0 01             	add    $0x1,%eax
c0005784:	a3 b0 dd 02 c0       	mov    %eax,0xc002ddb0
c0005789:	ff 75 fc             	pushl  -0x4(%ebp)
c000578c:	9d                   	popf   
c000578d:	8b 45 f8             	mov    -0x8(%ebp),%eax
c0005790:	eb 09                	jmp    c000579b <dma_pop_frame+0x4c>
c0005792:	ff 75 fc             	pushl  -0x4(%ebp)
c0005795:	9d                   	popf   
c0005796:	b8 00 00 00 00       	mov    $0x0,%eax
c000579b:	c9                   	leave  
c000579c:	c3                   	ret    

c000579d <initialize_DMA>:
initialize_DMA():
c000579d:	55                   	push   %ebp
c000579e:	89 e5                	mov    %esp,%ebp
c00057a0:	83 ec 28             	sub    $0x28,%esp
c00057a3:	c7 05 b0 dd 02 c0 00 	movl   $0x0,0xc002ddb0
c00057aa:	00 00 00 
c00057ad:	c7 44 24 04 01 00 00 	movl   $0x1,0x4(%esp)
c00057b4:	00 
c00057b5:	c7 04 24 00 40 00 00 	movl   $0x4000,(%esp)
c00057bc:	e8 65 ca ff ff       	call   c0002226 <kmalloc>
c00057c1:	a3 ac dd 02 c0       	mov    %eax,0xc002ddac
c00057c6:	c7 45 f4 00 00 00 00 	movl   $0x0,-0xc(%ebp)
c00057cd:	eb 17                	jmp    c00057e6 <initialize_DMA+0x49>
c00057cf:	a1 ac dd 02 c0       	mov    0xc002ddac,%eax
c00057d4:	8b 55 f4             	mov    -0xc(%ebp),%edx
c00057d7:	c1 e2 02             	shl    $0x2,%edx
c00057da:	01 d0                	add    %edx,%eax
c00057dc:	c7 00 00 00 00 00    	movl   $0x0,(%eax)
c00057e2:	83 45 f4 01          	addl   $0x1,-0xc(%ebp)
c00057e6:	8b 45 f4             	mov    -0xc(%ebp),%eax
c00057e9:	3d fe 0f 00 00       	cmp    $0xffe,%eax
c00057ee:	76 df                	jbe    c00057cf <initialize_DMA+0x32>
c00057f0:	c7 45 f4 00 00 00 00 	movl   $0x0,-0xc(%ebp)
c00057f7:	eb 17                	jmp    c0005810 <initialize_DMA+0x73>
c00057f9:	a1 ac dd 02 c0       	mov    0xc002ddac,%eax
c00057fe:	8b 55 f4             	mov    -0xc(%ebp),%edx
c0005801:	c1 e2 02             	shl    $0x2,%edx
c0005804:	01 d0                	add    %edx,%eax
c0005806:	c7 00 02 00 00 00    	movl   $0x2,(%eax)
c000580c:	83 45 f4 01          	addl   $0x1,-0xc(%ebp)
c0005810:	8b 45 f4             	mov    -0xc(%ebp),%eax
c0005813:	83 f8 01             	cmp    $0x1,%eax
c0005816:	76 e1                	jbe    c00057f9 <initialize_DMA+0x5c>
c0005818:	c7 45 f4 a0 00 00 00 	movl   $0xa0,-0xc(%ebp)
c000581f:	eb 17                	jmp    c0005838 <initialize_DMA+0x9b>
c0005821:	a1 ac dd 02 c0       	mov    0xc002ddac,%eax
c0005826:	8b 55 f4             	mov    -0xc(%ebp),%edx
c0005829:	c1 e2 02             	shl    $0x2,%edx
c000582c:	01 d0                	add    %edx,%eax
c000582e:	c7 00 02 00 00 00    	movl   $0x2,(%eax)
c0005834:	83 45 f4 01          	addl   $0x1,-0xc(%ebp)
c0005838:	8b 45 f4             	mov    -0xc(%ebp),%eax
c000583b:	3d be 00 00 00       	cmp    $0xbe,%eax
c0005840:	76 df                	jbe    c0005821 <initialize_DMA+0x84>
c0005842:	c7 45 f4 c0 00 00 00 	movl   $0xc0,-0xc(%ebp)
c0005849:	eb 17                	jmp    c0005862 <initialize_DMA+0xc5>
c000584b:	a1 ac dd 02 c0       	mov    0xc002ddac,%eax
c0005850:	8b 55 f4             	mov    -0xc(%ebp),%edx
c0005853:	c1 e2 02             	shl    $0x2,%edx
c0005856:	01 d0                	add    %edx,%eax
c0005858:	c7 00 02 00 00 00    	movl   $0x2,(%eax)
c000585e:	83 45 f4 01          	addl   $0x1,-0xc(%ebp)
c0005862:	8b 45 f4             	mov    -0xc(%ebp),%eax
c0005865:	3d fe 00 00 00       	cmp    $0xfe,%eax
c000586a:	76 df                	jbe    c000584b <initialize_DMA+0xae>
c000586c:	b8 00 e0 02 c0       	mov    $0xc002e000,%eax
c0005871:	05 00 00 00 40       	add    $0x40000000,%eax
c0005876:	c1 e8 0c             	shr    $0xc,%eax
c0005879:	89 45 f0             	mov    %eax,-0x10(%ebp)
c000587c:	c7 45 f4 00 00 00 00 	movl   $0x0,-0xc(%ebp)
c0005883:	eb 1d                	jmp    c00058a2 <initialize_DMA+0x105>
c0005885:	a1 ac dd 02 c0       	mov    0xc002ddac,%eax
c000588a:	8b 55 f4             	mov    -0xc(%ebp),%edx
c000588d:	81 c2 00 01 00 00    	add    $0x100,%edx
c0005893:	c1 e2 02             	shl    $0x2,%edx
c0005896:	01 d0                	add    %edx,%eax
c0005898:	c7 00 02 00 00 00    	movl   $0x2,(%eax)
c000589e:	83 45 f4 01          	addl   $0x1,-0xc(%ebp)
c00058a2:	8b 45 f4             	mov    -0xc(%ebp),%eax
c00058a5:	8b 55 f0             	mov    -0x10(%ebp),%edx
c00058a8:	83 ea 01             	sub    $0x1,%edx
c00058ab:	39 d0                	cmp    %edx,%eax
c00058ad:	76 d6                	jbe    c0005885 <initialize_DMA+0xe8>
c00058af:	c9                   	leave  
c00058b0:	c3                   	ret    

c00058b1 <inport08>:
inport08():
c00058b1:	55                   	push   %ebp
c00058b2:	89 e5                	mov    %esp,%ebp
c00058b4:	83 ec 14             	sub    $0x14,%esp
c00058b7:	8b 45 08             	mov    0x8(%ebp),%eax
c00058ba:	66 89 45 ec          	mov    %ax,-0x14(%ebp)
c00058be:	0f b7 45 ec          	movzwl -0x14(%ebp),%eax
c00058c2:	89 c2                	mov    %eax,%edx
c00058c4:	ec                   	in     (%dx),%al
c00058c5:	88 45 ff             	mov    %al,-0x1(%ebp)
c00058c8:	0f b6 45 ff          	movzbl -0x1(%ebp),%eax
c00058cc:	c9                   	leave  
c00058cd:	c3                   	ret    

c00058ce <outport08>:
outport08():
c00058ce:	55                   	push   %ebp
c00058cf:	89 e5                	mov    %esp,%ebp
c00058d1:	83 ec 08             	sub    $0x8,%esp
c00058d4:	8b 55 08             	mov    0x8(%ebp),%edx
c00058d7:	8b 45 0c             	mov    0xc(%ebp),%eax
c00058da:	66 89 55 fc          	mov    %dx,-0x4(%ebp)
c00058de:	88 45 f8             	mov    %al,-0x8(%ebp)
c00058e1:	0f b7 55 fc          	movzwl -0x4(%ebp),%edx
c00058e5:	0f b6 45 f8          	movzbl -0x8(%ebp),%eax
c00058e9:	ee                   	out    %al,(%dx)
c00058ea:	c9                   	leave  
c00058eb:	c3                   	ret    

c00058ec <keyboard_wait_controller>:
keyboard_wait_controller():
c00058ec:	55                   	push   %ebp
c00058ed:	89 e5                	mov    %esp,%ebp
c00058ef:	83 ec 14             	sub    $0x14,%esp
c00058f2:	c7 45 fc 20 a1 07 00 	movl   $0x7a120,-0x4(%ebp)
c00058f9:	eb 04                	jmp    c00058ff <keyboard_wait_controller+0x13>
c00058fb:	83 6d fc 01          	subl   $0x1,-0x4(%ebp)
c00058ff:	c7 04 24 64 00 00 00 	movl   $0x64,(%esp)
c0005906:	e8 a6 ff ff ff       	call   c00058b1 <inport08>
c000590b:	0f b6 c0             	movzbl %al,%eax
c000590e:	83 e0 02             	and    $0x2,%eax
c0005911:	85 c0                	test   %eax,%eax
c0005913:	74 06                	je     c000591b <keyboard_wait_controller+0x2f>
c0005915:	83 7d fc 00          	cmpl   $0x0,-0x4(%ebp)
c0005919:	75 e0                	jne    c00058fb <keyboard_wait_controller+0xf>
c000591b:	c9                   	leave  
c000591c:	c3                   	ret    

c000591d <update_leds>:
update_leds():
c000591d:	55                   	push   %ebp
c000591e:	89 e5                	mov    %esp,%ebp
c0005920:	83 ec 28             	sub    $0x28,%esp
c0005923:	e8 2d ba ff ff       	call   c0001355 <get_curr_console>
c0005928:	89 04 24             	mov    %eax,(%esp)
c000592b:	e8 fb b9 ff ff       	call   c000132b <get_console_addr>
c0005930:	89 45 f4             	mov    %eax,-0xc(%ebp)
c0005933:	8b 45 f4             	mov    -0xc(%ebp),%eax
c0005936:	0f b6 40 09          	movzbl 0x9(%eax),%eax
c000593a:	0f b6 d0             	movzbl %al,%edx
c000593d:	8b 45 f4             	mov    -0xc(%ebp),%eax
c0005940:	0f b6 40 07          	movzbl 0x7(%eax),%eax
c0005944:	0f b6 c0             	movzbl %al,%eax
c0005947:	01 c0                	add    %eax,%eax
c0005949:	09 c2                	or     %eax,%edx
c000594b:	8b 45 f4             	mov    -0xc(%ebp),%eax
c000594e:	0f b6 40 08          	movzbl 0x8(%eax),%eax
c0005952:	0f b6 c0             	movzbl %al,%eax
c0005955:	c1 e0 02             	shl    $0x2,%eax
c0005958:	09 d0                	or     %edx,%eax
c000595a:	89 45 f0             	mov    %eax,-0x10(%ebp)
c000595d:	9c                   	pushf  
c000595e:	58                   	pop    %eax
c000595f:	fa                   	cli    
c0005960:	89 45 ec             	mov    %eax,-0x14(%ebp)
c0005963:	e8 84 ff ff ff       	call   c00058ec <keyboard_wait_controller>
c0005968:	c7 44 24 04 ed 00 00 	movl   $0xed,0x4(%esp)
c000596f:	00 
c0005970:	c7 04 24 60 00 00 00 	movl   $0x60,(%esp)
c0005977:	e8 52 ff ff ff       	call   c00058ce <outport08>
c000597c:	e8 6b ff ff ff       	call   c00058ec <keyboard_wait_controller>
c0005981:	8b 45 f0             	mov    -0x10(%ebp),%eax
c0005984:	0f b6 c0             	movzbl %al,%eax
c0005987:	89 44 24 04          	mov    %eax,0x4(%esp)
c000598b:	c7 04 24 60 00 00 00 	movl   $0x60,(%esp)
c0005992:	e8 37 ff ff ff       	call   c00058ce <outport08>
c0005997:	ff 75 ec             	pushl  -0x14(%ebp)
c000599a:	9d                   	popf   
c000599b:	c9                   	leave  
c000599c:	c3                   	ret    

c000599d <scan_key>:
scan_key():
c000599d:	55                   	push   %ebp
c000599e:	89 e5                	mov    %esp,%ebp
c00059a0:	83 ec 18             	sub    $0x18,%esp
c00059a3:	9c                   	pushf  
c00059a4:	58                   	pop    %eax
c00059a5:	fa                   	cli    
c00059a6:	89 45 fc             	mov    %eax,-0x4(%ebp)
c00059a9:	c7 04 24 60 00 00 00 	movl   $0x60,(%esp)
c00059b0:	e8 fc fe ff ff       	call   c00058b1 <inport08>
c00059b5:	0f b6 c0             	movzbl %al,%eax
c00059b8:	a3 4c b5 01 c0       	mov    %eax,0xc001b54c
c00059bd:	c7 04 24 61 00 00 00 	movl   $0x61,(%esp)
c00059c4:	e8 e8 fe ff ff       	call   c00058b1 <inport08>
c00059c9:	0f b6 c0             	movzbl %al,%eax
c00059cc:	a3 50 b5 01 c0       	mov    %eax,0xc001b550
c00059d1:	a1 50 b5 01 c0       	mov    0xc001b550,%eax
c00059d6:	83 c8 80             	or     $0xffffff80,%eax
c00059d9:	0f b6 c0             	movzbl %al,%eax
c00059dc:	89 44 24 04          	mov    %eax,0x4(%esp)
c00059e0:	c7 04 24 61 00 00 00 	movl   $0x61,(%esp)
c00059e7:	e8 e2 fe ff ff       	call   c00058ce <outport08>
c00059ec:	a1 50 b5 01 c0       	mov    0xc001b550,%eax
c00059f1:	0f b6 c0             	movzbl %al,%eax
c00059f4:	89 44 24 04          	mov    %eax,0x4(%esp)
c00059f8:	c7 04 24 61 00 00 00 	movl   $0x61,(%esp)
c00059ff:	e8 ca fe ff ff       	call   c00058ce <outport08>
c0005a04:	ff 75 fc             	pushl  -0x4(%ebp)
c0005a07:	9d                   	popf   
c0005a08:	a1 4c b5 01 c0       	mov    0xc001b54c,%eax
c0005a0d:	c9                   	leave  
c0005a0e:	c3                   	ret    

c0005a0f <keyboard_handler>:
keyboard_handler():
c0005a0f:	55                   	push   %ebp
c0005a10:	89 e5                	mov    %esp,%ebp
c0005a12:	83 ec 28             	sub    $0x28,%esp
c0005a15:	e8 83 ff ff ff       	call   c000599d <scan_key>
c0005a1a:	66 89 45 f4          	mov    %ax,-0xc(%ebp)
c0005a1e:	e8 32 b9 ff ff       	call   c0001355 <get_curr_console>
c0005a23:	89 04 24             	mov    %eax,(%esp)
c0005a26:	e8 00 b9 ff ff       	call   c000132b <get_console_addr>
c0005a2b:	89 45 f0             	mov    %eax,-0x10(%ebp)
c0005a2e:	0f b6 05 49 b5 01 c0 	movzbl 0xc001b549,%eax
c0005a35:	3c 01                	cmp    $0x1,%al
c0005a37:	75 17                	jne    c0005a50 <keyboard_handler+0x41>
c0005a39:	0f b6 05 4a b5 01 c0 	movzbl 0xc001b54a,%eax
c0005a40:	3c 01                	cmp    $0x1,%al
c0005a42:	75 0c                	jne    c0005a50 <keyboard_handler+0x41>
c0005a44:	66 83 7d f4 53       	cmpw   $0x53,-0xc(%ebp)
c0005a49:	75 05                	jne    c0005a50 <keyboard_handler+0x41>
c0005a4b:	e8 08 c7 ff ff       	call   c0002158 <reboot>
c0005a50:	0f b6 05 4a b5 01 c0 	movzbl 0xc001b54a,%eax
c0005a57:	3c 01                	cmp    $0x1,%al
c0005a59:	75 15                	jne    c0005a70 <keyboard_handler+0x61>
c0005a5b:	0f b7 45 f4          	movzwl -0xc(%ebp),%eax
c0005a5f:	0f b7 84 00 a0 a7 00 	movzwl -0x3fff5860(%eax,%eax,1),%eax
c0005a66:	c0 
c0005a67:	66 89 45 f6          	mov    %ax,-0xa(%ebp)
c0005a6b:	e9 1c 01 00 00       	jmp    c0005b8c <keyboard_handler+0x17d>
c0005a70:	0f b6 05 49 b5 01 c0 	movzbl 0xc001b549,%eax
c0005a77:	3c 01                	cmp    $0x1,%al
c0005a79:	75 15                	jne    c0005a90 <keyboard_handler+0x81>
c0005a7b:	0f b7 45 f4          	movzwl -0xc(%ebp),%eax
c0005a7f:	0f b7 84 00 a0 a8 00 	movzwl -0x3fff5760(%eax,%eax,1),%eax
c0005a86:	c0 
c0005a87:	66 89 45 f6          	mov    %ax,-0xa(%ebp)
c0005a8b:	e9 fc 00 00 00       	jmp    c0005b8c <keyboard_handler+0x17d>
c0005a90:	8b 45 f0             	mov    -0x10(%ebp),%eax
c0005a93:	0f b6 40 08          	movzbl 0x8(%eax),%eax
c0005a97:	84 c0                	test   %al,%al
c0005a99:	75 20                	jne    c0005abb <keyboard_handler+0xac>
c0005a9b:	0f b6 05 48 b5 01 c0 	movzbl 0xc001b548,%eax
c0005aa2:	84 c0                	test   %al,%al
c0005aa4:	75 15                	jne    c0005abb <keyboard_handler+0xac>
c0005aa6:	0f b7 45 f4          	movzwl -0xc(%ebp),%eax
c0005aaa:	0f b7 84 00 a0 a5 00 	movzwl -0x3fff5a60(%eax,%eax,1),%eax
c0005ab1:	c0 
c0005ab2:	66 89 45 f6          	mov    %ax,-0xa(%ebp)
c0005ab6:	e9 9c 00 00 00       	jmp    c0005b57 <keyboard_handler+0x148>
c0005abb:	8b 45 f0             	mov    -0x10(%ebp),%eax
c0005abe:	0f b6 40 08          	movzbl 0x8(%eax),%eax
c0005ac2:	84 c0                	test   %al,%al
c0005ac4:	75 1d                	jne    c0005ae3 <keyboard_handler+0xd4>
c0005ac6:	0f b6 05 48 b5 01 c0 	movzbl 0xc001b548,%eax
c0005acd:	3c 01                	cmp    $0x1,%al
c0005acf:	75 12                	jne    c0005ae3 <keyboard_handler+0xd4>
c0005ad1:	0f b7 45 f4          	movzwl -0xc(%ebp),%eax
c0005ad5:	0f b7 84 00 a0 a6 00 	movzwl -0x3fff5960(%eax,%eax,1),%eax
c0005adc:	c0 
c0005add:	66 89 45 f6          	mov    %ax,-0xa(%ebp)
c0005ae1:	eb 74                	jmp    c0005b57 <keyboard_handler+0x148>
c0005ae3:	8b 45 f0             	mov    -0x10(%ebp),%eax
c0005ae6:	0f b6 40 08          	movzbl 0x8(%eax),%eax
c0005aea:	3c 01                	cmp    $0x1,%al
c0005aec:	75 3c                	jne    c0005b2a <keyboard_handler+0x11b>
c0005aee:	0f b6 05 48 b5 01 c0 	movzbl 0xc001b548,%eax
c0005af5:	84 c0                	test   %al,%al
c0005af7:	75 31                	jne    c0005b2a <keyboard_handler+0x11b>
c0005af9:	0f b7 45 f4          	movzwl -0xc(%ebp),%eax
c0005afd:	0f b7 84 00 a0 a5 00 	movzwl -0x3fff5a60(%eax,%eax,1),%eax
c0005b04:	c0 
c0005b05:	66 89 45 f6          	mov    %ax,-0xa(%ebp)
c0005b09:	0f b7 45 f6          	movzwl -0xa(%ebp),%eax
c0005b0d:	0f b6 c0             	movzbl %al,%eax
c0005b10:	83 f8 60             	cmp    $0x60,%eax
c0005b13:	7e 13                	jle    c0005b28 <keyboard_handler+0x119>
c0005b15:	0f b7 45 f6          	movzwl -0xa(%ebp),%eax
c0005b19:	0f b6 c0             	movzbl %al,%eax
c0005b1c:	83 f8 7a             	cmp    $0x7a,%eax
c0005b1f:	7f 07                	jg     c0005b28 <keyboard_handler+0x119>
c0005b21:	66 83 6d f6 20       	subw   $0x20,-0xa(%ebp)
c0005b26:	eb 2f                	jmp    c0005b57 <keyboard_handler+0x148>
c0005b28:	eb 2d                	jmp    c0005b57 <keyboard_handler+0x148>
c0005b2a:	0f b7 45 f4          	movzwl -0xc(%ebp),%eax
c0005b2e:	0f b7 84 00 a0 a6 00 	movzwl -0x3fff5960(%eax,%eax,1),%eax
c0005b35:	c0 
c0005b36:	66 89 45 f6          	mov    %ax,-0xa(%ebp)
c0005b3a:	0f b7 45 f6          	movzwl -0xa(%ebp),%eax
c0005b3e:	0f b6 c0             	movzbl %al,%eax
c0005b41:	83 f8 40             	cmp    $0x40,%eax
c0005b44:	7e 11                	jle    c0005b57 <keyboard_handler+0x148>
c0005b46:	0f b7 45 f6          	movzwl -0xa(%ebp),%eax
c0005b4a:	0f b6 c0             	movzbl %al,%eax
c0005b4d:	83 f8 5a             	cmp    $0x5a,%eax
c0005b50:	7f 05                	jg     c0005b57 <keyboard_handler+0x148>
c0005b52:	66 83 45 f6 20       	addw   $0x20,-0xa(%ebp)
c0005b57:	8b 45 f0             	mov    -0x10(%ebp),%eax
c0005b5a:	0f b6 50 07          	movzbl 0x7(%eax),%edx
c0005b5e:	0f b6 05 48 b5 01 c0 	movzbl 0xc001b548,%eax
c0005b65:	38 c2                	cmp    %al,%dl
c0005b67:	74 23                	je     c0005b8c <keyboard_handler+0x17d>
c0005b69:	66 83 7d f4 46       	cmpw   $0x46,-0xc(%ebp)
c0005b6e:	76 1c                	jbe    c0005b8c <keyboard_handler+0x17d>
c0005b70:	66 83 7d f4 53       	cmpw   $0x53,-0xc(%ebp)
c0005b75:	77 15                	ja     c0005b8c <keyboard_handler+0x17d>
c0005b77:	0f b7 45 f4          	movzwl -0xc(%ebp),%eax
c0005b7b:	83 e8 47             	sub    $0x47,%eax
c0005b7e:	0f b6 80 a0 a9 00 c0 	movzbl -0x3fff5660(%eax),%eax
c0005b85:	0f b6 c0             	movzbl %al,%eax
c0005b88:	66 89 45 f6          	mov    %ax,-0xa(%ebp)
c0005b8c:	0f b7 45 f4          	movzwl -0xc(%ebp),%eax
c0005b90:	83 f8 45             	cmp    $0x45,%eax
c0005b93:	0f 84 e7 00 00 00    	je     c0005c80 <keyboard_handler+0x271>
c0005b99:	83 f8 45             	cmp    $0x45,%eax
c0005b9c:	7f 30                	jg     c0005bce <keyboard_handler+0x1bf>
c0005b9e:	83 f8 36             	cmp    $0x36,%eax
c0005ba1:	74 79                	je     c0005c1c <keyboard_handler+0x20d>
c0005ba3:	83 f8 36             	cmp    $0x36,%eax
c0005ba6:	7f 13                	jg     c0005bbb <keyboard_handler+0x1ac>
c0005ba8:	83 f8 1d             	cmp    $0x1d,%eax
c0005bab:	0f 84 9b 00 00 00    	je     c0005c4c <keyboard_handler+0x23d>
c0005bb1:	83 f8 2a             	cmp    $0x2a,%eax
c0005bb4:	74 4e                	je     c0005c04 <keyboard_handler+0x1f5>
c0005bb6:	e9 fd 00 00 00       	jmp    c0005cb8 <keyboard_handler+0x2a9>
c0005bbb:	83 f8 38             	cmp    $0x38,%eax
c0005bbe:	74 74                	je     c0005c34 <keyboard_handler+0x225>
c0005bc0:	83 f8 3a             	cmp    $0x3a,%eax
c0005bc3:	0f 84 9b 00 00 00    	je     c0005c64 <keyboard_handler+0x255>
c0005bc9:	e9 ea 00 00 00       	jmp    c0005cb8 <keyboard_handler+0x2a9>
c0005bce:	3d aa 00 00 00       	cmp    $0xaa,%eax
c0005bd3:	74 3b                	je     c0005c10 <keyboard_handler+0x201>
c0005bd5:	3d aa 00 00 00       	cmp    $0xaa,%eax
c0005bda:	7f 15                	jg     c0005bf1 <keyboard_handler+0x1e2>
c0005bdc:	83 f8 46             	cmp    $0x46,%eax
c0005bdf:	0f 84 b7 00 00 00    	je     c0005c9c <keyboard_handler+0x28d>
c0005be5:	3d 9d 00 00 00       	cmp    $0x9d,%eax
c0005bea:	74 6c                	je     c0005c58 <keyboard_handler+0x249>
c0005bec:	e9 c7 00 00 00       	jmp    c0005cb8 <keyboard_handler+0x2a9>
c0005bf1:	3d b6 00 00 00       	cmp    $0xb6,%eax
c0005bf6:	74 30                	je     c0005c28 <keyboard_handler+0x219>
c0005bf8:	3d b8 00 00 00       	cmp    $0xb8,%eax
c0005bfd:	74 41                	je     c0005c40 <keyboard_handler+0x231>
c0005bff:	e9 b4 00 00 00       	jmp    c0005cb8 <keyboard_handler+0x2a9>
c0005c04:	c6 05 48 b5 01 c0 01 	movb   $0x1,0xc001b548
c0005c0b:	e9 40 01 00 00       	jmp    c0005d50 <keyboard_handler+0x341>
c0005c10:	c6 05 48 b5 01 c0 00 	movb   $0x0,0xc001b548
c0005c17:	e9 34 01 00 00       	jmp    c0005d50 <keyboard_handler+0x341>
c0005c1c:	c6 05 48 b5 01 c0 01 	movb   $0x1,0xc001b548
c0005c23:	e9 28 01 00 00       	jmp    c0005d50 <keyboard_handler+0x341>
c0005c28:	c6 05 48 b5 01 c0 00 	movb   $0x0,0xc001b548
c0005c2f:	e9 1c 01 00 00       	jmp    c0005d50 <keyboard_handler+0x341>
c0005c34:	c6 05 4a b5 01 c0 01 	movb   $0x1,0xc001b54a
c0005c3b:	e9 10 01 00 00       	jmp    c0005d50 <keyboard_handler+0x341>
c0005c40:	c6 05 4a b5 01 c0 00 	movb   $0x0,0xc001b54a
c0005c47:	e9 04 01 00 00       	jmp    c0005d50 <keyboard_handler+0x341>
c0005c4c:	c6 05 49 b5 01 c0 01 	movb   $0x1,0xc001b549
c0005c53:	e9 f8 00 00 00       	jmp    c0005d50 <keyboard_handler+0x341>
c0005c58:	c6 05 49 b5 01 c0 00 	movb   $0x0,0xc001b549
c0005c5f:	e9 ec 00 00 00       	jmp    c0005d50 <keyboard_handler+0x341>
c0005c64:	8b 45 f0             	mov    -0x10(%ebp),%eax
c0005c67:	0f b6 40 08          	movzbl 0x8(%eax),%eax
c0005c6b:	83 f0 01             	xor    $0x1,%eax
c0005c6e:	89 c2                	mov    %eax,%edx
c0005c70:	8b 45 f0             	mov    -0x10(%ebp),%eax
c0005c73:	88 50 08             	mov    %dl,0x8(%eax)
c0005c76:	e8 a2 fc ff ff       	call   c000591d <update_leds>
c0005c7b:	e9 d0 00 00 00       	jmp    c0005d50 <keyboard_handler+0x341>
c0005c80:	8b 45 f0             	mov    -0x10(%ebp),%eax
c0005c83:	0f b6 40 07          	movzbl 0x7(%eax),%eax
c0005c87:	83 f0 01             	xor    $0x1,%eax
c0005c8a:	89 c2                	mov    %eax,%edx
c0005c8c:	8b 45 f0             	mov    -0x10(%ebp),%eax
c0005c8f:	88 50 07             	mov    %dl,0x7(%eax)
c0005c92:	e8 86 fc ff ff       	call   c000591d <update_leds>
c0005c97:	e9 b4 00 00 00       	jmp    c0005d50 <keyboard_handler+0x341>
c0005c9c:	8b 45 f0             	mov    -0x10(%ebp),%eax
c0005c9f:	0f b6 40 09          	movzbl 0x9(%eax),%eax
c0005ca3:	83 f0 01             	xor    $0x1,%eax
c0005ca6:	89 c2                	mov    %eax,%edx
c0005ca8:	8b 45 f0             	mov    -0x10(%ebp),%eax
c0005cab:	88 50 09             	mov    %dl,0x9(%eax)
c0005cae:	e8 6a fc ff ff       	call   c000591d <update_leds>
c0005cb3:	e9 98 00 00 00       	jmp    c0005d50 <keyboard_handler+0x341>
c0005cb8:	0f b7 45 f4          	movzwl -0xc(%ebp),%eax
c0005cbc:	25 80 00 00 00       	and    $0x80,%eax
c0005cc1:	85 c0                	test   %eax,%eax
c0005cc3:	0f 85 86 00 00 00    	jne    c0005d4f <keyboard_handler+0x340>
c0005cc9:	8b 45 f0             	mov    -0x10(%ebp),%eax
c0005ccc:	0f b7 40 0e          	movzwl 0xe(%eax),%eax
c0005cd0:	66 83 f8 1f          	cmp    $0x1f,%ax
c0005cd4:	77 52                	ja     c0005d28 <keyboard_handler+0x319>
c0005cd6:	8b 45 f0             	mov    -0x10(%ebp),%eax
c0005cd9:	0f b7 40 0e          	movzwl 0xe(%eax),%eax
c0005cdd:	8d 50 01             	lea    0x1(%eax),%edx
c0005ce0:	8b 45 f0             	mov    -0x10(%ebp),%eax
c0005ce3:	66 89 50 0e          	mov    %dx,0xe(%eax)
c0005ce7:	8b 45 f0             	mov    -0x10(%ebp),%eax
c0005cea:	0f b7 40 0c          	movzwl 0xc(%eax),%eax
c0005cee:	8d 50 01             	lea    0x1(%eax),%edx
c0005cf1:	8b 45 f0             	mov    -0x10(%ebp),%eax
c0005cf4:	66 89 50 0c          	mov    %dx,0xc(%eax)
c0005cf8:	8b 45 f0             	mov    -0x10(%ebp),%eax
c0005cfb:	0f b7 40 0c          	movzwl 0xc(%eax),%eax
c0005cff:	66 83 f8 1f          	cmp    $0x1f,%ax
c0005d03:	76 09                	jbe    c0005d0e <keyboard_handler+0x2ff>
c0005d05:	8b 45 f0             	mov    -0x10(%ebp),%eax
c0005d08:	66 c7 40 0c 00 00    	movw   $0x0,0xc(%eax)
c0005d0e:	8b 45 f0             	mov    -0x10(%ebp),%eax
c0005d11:	0f b7 40 0c          	movzwl 0xc(%eax),%eax
c0005d15:	0f b7 d0             	movzwl %ax,%edx
c0005d18:	8b 45 f0             	mov    -0x10(%ebp),%eax
c0005d1b:	8d 4a 08             	lea    0x8(%edx),%ecx
c0005d1e:	0f b7 55 f6          	movzwl -0xa(%ebp),%edx
c0005d22:	66 89 14 48          	mov    %dx,(%eax,%ecx,2)
c0005d26:	eb 27                	jmp    c0005d4f <keyboard_handler+0x340>
c0005d28:	c7 44 24 0c e1 00 00 	movl   $0xe1,0xc(%esp)
c0005d2f:	00 
c0005d30:	c7 44 24 08 94 89 00 	movl   $0xc0008994,0x8(%esp)
c0005d37:	c0 
c0005d38:	c7 44 24 04 b7 89 00 	movl   $0xc00089b7,0x4(%esp)
c0005d3f:	c0 
c0005d40:	c7 04 24 d4 89 00 c0 	movl   $0xc00089d4,(%esp)
c0005d47:	e8 53 b5 ff ff       	call   c000129f <kprintf>
c0005d4c:	fa                   	cli    
c0005d4d:	eb fe                	jmp    c0005d4d <keyboard_handler+0x33e>
c0005d4f:	90                   	nop
c0005d50:	8b 45 08             	mov    0x8(%ebp),%eax
c0005d53:	8b 40 30             	mov    0x30(%eax),%eax
c0005d56:	0f b6 c0             	movzbl %al,%eax
c0005d59:	89 04 24             	mov    %eax,(%esp)
c0005d5c:	e8 ff c1 ff ff       	call   c0001f60 <enable_IRQ>
c0005d61:	c9                   	leave  
c0005d62:	c3                   	ret    

c0005d63 <kgetchar>:
kgetchar():
c0005d63:	55                   	push   %ebp
c0005d64:	89 e5                	mov    %esp,%ebp
c0005d66:	83 ec 28             	sub    $0x28,%esp
c0005d69:	9c                   	pushf  
c0005d6a:	58                   	pop    %eax
c0005d6b:	fa                   	cli    
c0005d6c:	89 45 f4             	mov    %eax,-0xc(%ebp)
c0005d6f:	e8 e1 b5 ff ff       	call   c0001355 <get_curr_console>
c0005d74:	89 04 24             	mov    %eax,(%esp)
c0005d77:	e8 af b5 ff ff       	call   c000132b <get_console_addr>
c0005d7c:	89 45 f0             	mov    %eax,-0x10(%ebp)
c0005d7f:	8b 45 f0             	mov    -0x10(%ebp),%eax
c0005d82:	0f b7 40 0e          	movzwl 0xe(%eax),%eax
c0005d86:	66 85 c0             	test   %ax,%ax
c0005d89:	75 03                	jne    c0005d8e <kgetchar+0x2b>
c0005d8b:	fb                   	sti    
c0005d8c:	eb 03                	jmp    c0005d91 <kgetchar+0x2e>
c0005d8e:	eb 01                	jmp    c0005d91 <kgetchar+0x2e>
c0005d90:	f4                   	hlt    
c0005d91:	8b 45 f0             	mov    -0x10(%ebp),%eax
c0005d94:	0f b7 40 0e          	movzwl 0xe(%eax),%eax
c0005d98:	66 85 c0             	test   %ax,%ax
c0005d9b:	74 f3                	je     c0005d90 <kgetchar+0x2d>
c0005d9d:	fa                   	cli    
c0005d9e:	8b 45 f0             	mov    -0x10(%ebp),%eax
c0005da1:	0f b7 40 0e          	movzwl 0xe(%eax),%eax
c0005da5:	8d 50 ff             	lea    -0x1(%eax),%edx
c0005da8:	8b 45 f0             	mov    -0x10(%ebp),%eax
c0005dab:	66 89 50 0e          	mov    %dx,0xe(%eax)
c0005daf:	8b 45 f0             	mov    -0x10(%ebp),%eax
c0005db2:	0f b7 40 0a          	movzwl 0xa(%eax),%eax
c0005db6:	8d 50 01             	lea    0x1(%eax),%edx
c0005db9:	8b 45 f0             	mov    -0x10(%ebp),%eax
c0005dbc:	66 89 50 0a          	mov    %dx,0xa(%eax)
c0005dc0:	8b 45 f0             	mov    -0x10(%ebp),%eax
c0005dc3:	0f b7 40 0a          	movzwl 0xa(%eax),%eax
c0005dc7:	66 83 f8 1f          	cmp    $0x1f,%ax
c0005dcb:	76 09                	jbe    c0005dd6 <kgetchar+0x73>
c0005dcd:	8b 45 f0             	mov    -0x10(%ebp),%eax
c0005dd0:	66 c7 40 0a 00 00    	movw   $0x0,0xa(%eax)
c0005dd6:	8b 45 f0             	mov    -0x10(%ebp),%eax
c0005dd9:	0f b7 40 0a          	movzwl 0xa(%eax),%eax
c0005ddd:	0f b7 d0             	movzwl %ax,%edx
c0005de0:	8b 45 f0             	mov    -0x10(%ebp),%eax
c0005de3:	83 c2 08             	add    $0x8,%edx
c0005de6:	0f b7 04 50          	movzwl (%eax,%edx,2),%eax
c0005dea:	66 89 45 ee          	mov    %ax,-0x12(%ebp)
c0005dee:	ff 75 f4             	pushl  -0xc(%ebp)
c0005df1:	9d                   	popf   
c0005df2:	0f b7 45 ee          	movzwl -0x12(%ebp),%eax
c0005df6:	c9                   	leave  
c0005df7:	c3                   	ret    

c0005df8 <initialize_keyboard>:
initialize_keyboard():
c0005df8:	55                   	push   %ebp
c0005df9:	89 e5                	mov    %esp,%ebp
c0005dfb:	83 ec 18             	sub    $0x18,%esp
c0005dfe:	e8 1a fb ff ff       	call   c000591d <update_leds>
c0005e03:	c7 44 24 04 0f 5a 00 	movl   $0xc0005a0f,0x4(%esp)
c0005e0a:	c0 
c0005e0b:	c7 04 24 01 00 00 00 	movl   $0x1,(%esp)
c0005e12:	e8 05 c2 ff ff       	call   c000201c <register_interrupt_handler>
c0005e17:	c9                   	leave  
c0005e18:	c3                   	ret    

c0005e19 <outport08>:
outport08():
c0005e19:	55                   	push   %ebp
c0005e1a:	89 e5                	mov    %esp,%ebp
c0005e1c:	83 ec 08             	sub    $0x8,%esp
c0005e1f:	8b 55 08             	mov    0x8(%ebp),%edx
c0005e22:	8b 45 0c             	mov    0xc(%ebp),%eax
c0005e25:	66 89 55 fc          	mov    %dx,-0x4(%ebp)
c0005e29:	88 45 f8             	mov    %al,-0x8(%ebp)
c0005e2c:	0f b7 55 fc          	movzwl -0x4(%ebp),%edx
c0005e30:	0f b6 45 f8          	movzbl -0x8(%ebp),%eax
c0005e34:	ee                   	out    %al,(%dx)
c0005e35:	c9                   	leave  
c0005e36:	c3                   	ret    

c0005e37 <memset16>:
memset16():
c0005e37:	55                   	push   %ebp
c0005e38:	89 e5                	mov    %esp,%ebp
c0005e3a:	57                   	push   %edi
c0005e3b:	83 ec 04             	sub    $0x4,%esp
c0005e3e:	8b 45 0c             	mov    0xc(%ebp),%eax
c0005e41:	66 89 45 f8          	mov    %ax,-0x8(%ebp)
c0005e45:	8b 55 08             	mov    0x8(%ebp),%edx
c0005e48:	8b 4d 10             	mov    0x10(%ebp),%ecx
c0005e4b:	0f b7 45 f8          	movzwl -0x8(%ebp),%eax
c0005e4f:	89 d7                	mov    %edx,%edi
c0005e51:	fc                   	cld    
c0005e52:	66 f3 ab             	rep stos %ax,%es:(%edi)
c0005e55:	83 c4 04             	add    $0x4,%esp
c0005e58:	5f                   	pop    %edi
c0005e59:	5d                   	pop    %ebp
c0005e5a:	c3                   	ret    

c0005e5b <video_move_cursor>:
video_move_cursor():
c0005e5b:	55                   	push   %ebp
c0005e5c:	89 e5                	mov    %esp,%ebp
c0005e5e:	83 ec 20             	sub    $0x20,%esp
c0005e61:	8b 55 08             	mov    0x8(%ebp),%edx
c0005e64:	8b 45 0c             	mov    0xc(%ebp),%eax
c0005e67:	88 55 ec             	mov    %dl,-0x14(%ebp)
c0005e6a:	88 45 e8             	mov    %al,-0x18(%ebp)
c0005e6d:	0f b6 55 e8          	movzbl -0x18(%ebp),%edx
c0005e71:	0f b7 05 ae a9 00 c0 	movzwl 0xc000a9ae,%eax
c0005e78:	0f af d0             	imul   %eax,%edx
c0005e7b:	0f b6 45 ec          	movzbl -0x14(%ebp),%eax
c0005e7f:	01 d0                	add    %edx,%eax
c0005e81:	66 89 45 fe          	mov    %ax,-0x2(%ebp)
c0005e85:	c7 44 24 04 0e 00 00 	movl   $0xe,0x4(%esp)
c0005e8c:	00 
c0005e8d:	c7 04 24 d4 03 00 00 	movl   $0x3d4,(%esp)
c0005e94:	e8 80 ff ff ff       	call   c0005e19 <outport08>
c0005e99:	0f b7 45 fe          	movzwl -0x2(%ebp),%eax
c0005e9d:	66 c1 e8 08          	shr    $0x8,%ax
c0005ea1:	0f b6 c0             	movzbl %al,%eax
c0005ea4:	89 44 24 04          	mov    %eax,0x4(%esp)
c0005ea8:	c7 04 24 d5 03 00 00 	movl   $0x3d5,(%esp)
c0005eaf:	e8 65 ff ff ff       	call   c0005e19 <outport08>
c0005eb4:	c7 44 24 04 0f 00 00 	movl   $0xf,0x4(%esp)
c0005ebb:	00 
c0005ebc:	c7 04 24 d4 03 00 00 	movl   $0x3d4,(%esp)
c0005ec3:	e8 51 ff ff ff       	call   c0005e19 <outport08>
c0005ec8:	0f b7 45 fe          	movzwl -0x2(%ebp),%eax
c0005ecc:	0f b6 c0             	movzbl %al,%eax
c0005ecf:	89 44 24 04          	mov    %eax,0x4(%esp)
c0005ed3:	c7 04 24 d5 03 00 00 	movl   $0x3d5,(%esp)
c0005eda:	e8 3a ff ff ff       	call   c0005e19 <outport08>
c0005edf:	c9                   	leave  
c0005ee0:	c3                   	ret    

c0005ee1 <video_set_color>:
video_set_color():
c0005ee1:	55                   	push   %ebp
c0005ee2:	89 e5                	mov    %esp,%ebp
c0005ee4:	83 ec 04             	sub    $0x4,%esp
c0005ee7:	8b 45 0c             	mov    0xc(%ebp),%eax
c0005eea:	88 45 fc             	mov    %al,-0x4(%ebp)
c0005eed:	8b 45 08             	mov    0x8(%ebp),%eax
c0005ef0:	0f b6 55 fc          	movzbl -0x4(%ebp),%edx
c0005ef4:	88 50 06             	mov    %dl,0x6(%eax)
c0005ef7:	c9                   	leave  
c0005ef8:	c3                   	ret    

c0005ef9 <video_clrscr>:
video_clrscr():
c0005ef9:	55                   	push   %ebp
c0005efa:	89 e5                	mov    %esp,%ebp
c0005efc:	83 ec 28             	sub    $0x28,%esp
c0005eff:	9c                   	pushf  
c0005f00:	58                   	pop    %eax
c0005f01:	fa                   	cli    
c0005f02:	89 45 f4             	mov    %eax,-0xc(%ebp)
c0005f05:	0f b7 05 ae a9 00 c0 	movzwl 0xc000a9ae,%eax
c0005f0c:	0f b7 d0             	movzwl %ax,%edx
c0005f0f:	0f b7 05 b0 a9 00 c0 	movzwl 0xc000a9b0,%eax
c0005f16:	0f b7 c0             	movzwl %ax,%eax
c0005f19:	0f af c2             	imul   %edx,%eax
c0005f1c:	01 c0                	add    %eax,%eax
c0005f1e:	89 c2                	mov    %eax,%edx
c0005f20:	8b 45 08             	mov    0x8(%ebp),%eax
c0005f23:	8b 00                	mov    (%eax),%eax
c0005f25:	89 54 24 08          	mov    %edx,0x8(%esp)
c0005f29:	c7 44 24 04 20 0f 00 	movl   $0xf20,0x4(%esp)
c0005f30:	00 
c0005f31:	89 04 24             	mov    %eax,(%esp)
c0005f34:	e8 fe fe ff ff       	call   c0005e37 <memset16>
c0005f39:	8b 45 08             	mov    0x8(%ebp),%eax
c0005f3c:	c6 40 04 00          	movb   $0x0,0x4(%eax)
c0005f40:	8b 45 08             	mov    0x8(%ebp),%eax
c0005f43:	c6 40 05 00          	movb   $0x0,0x5(%eax)
c0005f47:	c7 04 24 00 00 00 00 	movl   $0x0,(%esp)
c0005f4e:	e8 d8 b3 ff ff       	call   c000132b <get_console_addr>
c0005f53:	3b 45 08             	cmp    0x8(%ebp),%eax
c0005f56:	75 20                	jne    c0005f78 <video_clrscr+0x7f>
c0005f58:	8b 45 08             	mov    0x8(%ebp),%eax
c0005f5b:	0f b6 40 05          	movzbl 0x5(%eax),%eax
c0005f5f:	0f b6 d0             	movzbl %al,%edx
c0005f62:	8b 45 08             	mov    0x8(%ebp),%eax
c0005f65:	0f b6 40 04          	movzbl 0x4(%eax),%eax
c0005f69:	0f b6 c0             	movzbl %al,%eax
c0005f6c:	89 54 24 04          	mov    %edx,0x4(%esp)
c0005f70:	89 04 24             	mov    %eax,(%esp)
c0005f73:	e8 e3 fe ff ff       	call   c0005e5b <video_move_cursor>
c0005f78:	ff 75 f4             	pushl  -0xc(%ebp)
c0005f7b:	9d                   	popf   
c0005f7c:	c9                   	leave  
c0005f7d:	c3                   	ret    

c0005f7e <video_scroll_console>:
video_scroll_console():
c0005f7e:	55                   	push   %ebp
c0005f7f:	89 e5                	mov    %esp,%ebp
c0005f81:	53                   	push   %ebx
c0005f82:	83 ec 24             	sub    $0x24,%esp
c0005f85:	9c                   	pushf  
c0005f86:	58                   	pop    %eax
c0005f87:	fa                   	cli    
c0005f88:	89 45 f0             	mov    %eax,-0x10(%ebp)
c0005f8b:	8b 45 08             	mov    0x8(%ebp),%eax
c0005f8e:	0f b6 40 05          	movzbl 0x5(%eax),%eax
c0005f92:	0f b6 d0             	movzbl %al,%edx
c0005f95:	0f b7 05 b0 a9 00 c0 	movzwl 0xc000a9b0,%eax
c0005f9c:	66 39 c2             	cmp    %ax,%dx
c0005f9f:	0f 82 ad 00 00 00    	jb     c0006052 <video_scroll_console+0xd4>
c0005fa5:	c7 45 f4 00 00 00 00 	movl   $0x0,-0xc(%ebp)
c0005fac:	eb 2e                	jmp    c0005fdc <video_scroll_console+0x5e>
c0005fae:	8b 45 08             	mov    0x8(%ebp),%eax
c0005fb1:	8b 00                	mov    (%eax),%eax
c0005fb3:	8b 55 f4             	mov    -0xc(%ebp),%edx
c0005fb6:	01 d2                	add    %edx,%edx
c0005fb8:	01 c2                	add    %eax,%edx
c0005fba:	8b 45 08             	mov    0x8(%ebp),%eax
c0005fbd:	8b 00                	mov    (%eax),%eax
c0005fbf:	0f b7 0d ae a9 00 c0 	movzwl 0xc000a9ae,%ecx
c0005fc6:	0f b7 d9             	movzwl %cx,%ebx
c0005fc9:	8b 4d f4             	mov    -0xc(%ebp),%ecx
c0005fcc:	01 d9                	add    %ebx,%ecx
c0005fce:	01 c9                	add    %ecx,%ecx
c0005fd0:	01 c8                	add    %ecx,%eax
c0005fd2:	0f b7 00             	movzwl (%eax),%eax
c0005fd5:	66 89 02             	mov    %ax,(%edx)
c0005fd8:	83 45 f4 01          	addl   $0x1,-0xc(%ebp)
c0005fdc:	0f b7 05 b0 a9 00 c0 	movzwl 0xc000a9b0,%eax
c0005fe3:	0f b7 c0             	movzwl %ax,%eax
c0005fe6:	8d 50 ff             	lea    -0x1(%eax),%edx
c0005fe9:	0f b7 05 ae a9 00 c0 	movzwl 0xc000a9ae,%eax
c0005ff0:	0f b7 c0             	movzwl %ax,%eax
c0005ff3:	0f af c2             	imul   %edx,%eax
c0005ff6:	3b 45 f4             	cmp    -0xc(%ebp),%eax
c0005ff9:	7f b3                	jg     c0005fae <video_scroll_console+0x30>
c0005ffb:	0f b7 05 b0 a9 00 c0 	movzwl 0xc000a9b0,%eax
c0006002:	8d 50 ff             	lea    -0x1(%eax),%edx
c0006005:	8b 45 08             	mov    0x8(%ebp),%eax
c0006008:	88 50 05             	mov    %dl,0x5(%eax)
c000600b:	c7 45 f4 00 00 00 00 	movl   $0x0,-0xc(%ebp)
c0006012:	eb 2f                	jmp    c0006043 <video_scroll_console+0xc5>
c0006014:	8b 45 08             	mov    0x8(%ebp),%eax
c0006017:	0f b6 40 05          	movzbl 0x5(%eax),%eax
c000601b:	0f b6 d0             	movzbl %al,%edx
c000601e:	8b 45 f4             	mov    -0xc(%ebp),%eax
c0006021:	0f b6 c0             	movzbl %al,%eax
c0006024:	8b 4d 08             	mov    0x8(%ebp),%ecx
c0006027:	89 4c 24 0c          	mov    %ecx,0xc(%esp)
c000602b:	c7 44 24 08 20 00 00 	movl   $0x20,0x8(%esp)
c0006032:	00 
c0006033:	89 54 24 04          	mov    %edx,0x4(%esp)
c0006037:	89 04 24             	mov    %eax,(%esp)
c000603a:	e8 1d 00 00 00       	call   c000605c <video_place_char>
c000603f:	83 45 f4 01          	addl   $0x1,-0xc(%ebp)
c0006043:	0f b7 05 ae a9 00 c0 	movzwl 0xc000a9ae,%eax
c000604a:	0f b7 c0             	movzwl %ax,%eax
c000604d:	3b 45 f4             	cmp    -0xc(%ebp),%eax
c0006050:	7f c2                	jg     c0006014 <video_scroll_console+0x96>
c0006052:	ff 75 f0             	pushl  -0x10(%ebp)
c0006055:	9d                   	popf   
c0006056:	83 c4 24             	add    $0x24,%esp
c0006059:	5b                   	pop    %ebx
c000605a:	5d                   	pop    %ebp
c000605b:	c3                   	ret    

c000605c <video_place_char>:
video_place_char():
c000605c:	55                   	push   %ebp
c000605d:	89 e5                	mov    %esp,%ebp
c000605f:	83 ec 1c             	sub    $0x1c,%esp
c0006062:	8b 4d 08             	mov    0x8(%ebp),%ecx
c0006065:	8b 55 0c             	mov    0xc(%ebp),%edx
c0006068:	8b 45 10             	mov    0x10(%ebp),%eax
c000606b:	88 4d ec             	mov    %cl,-0x14(%ebp)
c000606e:	88 55 e8             	mov    %dl,-0x18(%ebp)
c0006071:	88 45 e4             	mov    %al,-0x1c(%ebp)
c0006074:	0f b6 55 e8          	movzbl -0x18(%ebp),%edx
c0006078:	0f b7 05 ae a9 00 c0 	movzwl 0xc000a9ae,%eax
c000607f:	0f b7 c0             	movzwl %ax,%eax
c0006082:	0f af d0             	imul   %eax,%edx
c0006085:	0f b6 45 ec          	movzbl -0x14(%ebp),%eax
c0006089:	01 d0                	add    %edx,%eax
c000608b:	89 45 fc             	mov    %eax,-0x4(%ebp)
c000608e:	8b 45 14             	mov    0x14(%ebp),%eax
c0006091:	8b 00                	mov    (%eax),%eax
c0006093:	8b 55 fc             	mov    -0x4(%ebp),%edx
c0006096:	01 d2                	add    %edx,%edx
c0006098:	01 c2                	add    %eax,%edx
c000609a:	8b 45 14             	mov    0x14(%ebp),%eax
c000609d:	0f b6 40 06          	movzbl 0x6(%eax),%eax
c00060a1:	0f b6 c0             	movzbl %al,%eax
c00060a4:	c1 e0 08             	shl    $0x8,%eax
c00060a7:	89 c1                	mov    %eax,%ecx
c00060a9:	0f b6 45 e4          	movzbl -0x1c(%ebp),%eax
c00060ad:	09 c8                	or     %ecx,%eax
c00060af:	66 89 02             	mov    %ax,(%edx)
c00060b2:	c9                   	leave  
c00060b3:	c3                   	ret    

c00060b4 <video_put_char>:
video_put_char():
c00060b4:	55                   	push   %ebp
c00060b5:	89 e5                	mov    %esp,%ebp
c00060b7:	53                   	push   %ebx
c00060b8:	83 ec 34             	sub    $0x34,%esp
c00060bb:	8b 45 08             	mov    0x8(%ebp),%eax
c00060be:	88 45 e4             	mov    %al,-0x1c(%ebp)
c00060c1:	9c                   	pushf  
c00060c2:	58                   	pop    %eax
c00060c3:	fa                   	cli    
c00060c4:	89 45 f4             	mov    %eax,-0xc(%ebp)
c00060c7:	0f b6 45 e4          	movzbl -0x1c(%ebp),%eax
c00060cb:	83 e8 07             	sub    $0x7,%eax
c00060ce:	83 f8 06             	cmp    $0x6,%eax
c00060d1:	0f 87 c8 00 00 00    	ja     c000619f <video_put_char+0xeb>
c00060d7:	8b 04 85 fc 89 00 c0 	mov    -0x3fff7604(,%eax,4),%eax
c00060de:	ff e0                	jmp    *%eax
c00060e0:	8b 45 0c             	mov    0xc(%ebp),%eax
c00060e3:	0f b6 40 05          	movzbl 0x5(%eax),%eax
c00060e7:	8d 50 01             	lea    0x1(%eax),%edx
c00060ea:	8b 45 0c             	mov    0xc(%ebp),%eax
c00060ed:	88 50 05             	mov    %dl,0x5(%eax)
c00060f0:	8b 45 0c             	mov    0xc(%ebp),%eax
c00060f3:	c6 40 04 00          	movb   $0x0,0x4(%eax)
c00060f7:	e9 e3 00 00 00       	jmp    c00061df <video_put_char+0x12b>
c00060fc:	8b 45 0c             	mov    0xc(%ebp),%eax
c00060ff:	c6 40 04 00          	movb   $0x0,0x4(%eax)
c0006103:	e9 d7 00 00 00       	jmp    c00061df <video_put_char+0x12b>
c0006108:	8b 45 0c             	mov    0xc(%ebp),%eax
c000610b:	0f b6 40 04          	movzbl 0x4(%eax),%eax
c000610f:	84 c0                	test   %al,%al
c0006111:	75 34                	jne    c0006147 <video_put_char+0x93>
c0006113:	8b 45 0c             	mov    0xc(%ebp),%eax
c0006116:	0f b6 40 05          	movzbl 0x5(%eax),%eax
c000611a:	84 c0                	test   %al,%al
c000611c:	75 05                	jne    c0006123 <video_put_char+0x6f>
c000611e:	e9 2c 01 00 00       	jmp    c000624f <video_put_char+0x19b>
c0006123:	8b 45 0c             	mov    0xc(%ebp),%eax
c0006126:	0f b6 40 05          	movzbl 0x5(%eax),%eax
c000612a:	8d 50 ff             	lea    -0x1(%eax),%edx
c000612d:	8b 45 0c             	mov    0xc(%ebp),%eax
c0006130:	88 50 05             	mov    %dl,0x5(%eax)
c0006133:	0f b7 05 ae a9 00 c0 	movzwl 0xc000a9ae,%eax
c000613a:	89 c2                	mov    %eax,%edx
c000613c:	8b 45 0c             	mov    0xc(%ebp),%eax
c000613f:	88 50 04             	mov    %dl,0x4(%eax)
c0006142:	e9 98 00 00 00       	jmp    c00061df <video_put_char+0x12b>
c0006147:	8b 45 0c             	mov    0xc(%ebp),%eax
c000614a:	0f b6 40 04          	movzbl 0x4(%eax),%eax
c000614e:	8d 50 01             	lea    0x1(%eax),%edx
c0006151:	8b 45 0c             	mov    0xc(%ebp),%eax
c0006154:	88 50 04             	mov    %dl,0x4(%eax)
c0006157:	8b 45 0c             	mov    0xc(%ebp),%eax
c000615a:	0f b6 40 05          	movzbl 0x5(%eax),%eax
c000615e:	0f b6 d0             	movzbl %al,%edx
c0006161:	8b 45 0c             	mov    0xc(%ebp),%eax
c0006164:	0f b6 40 04          	movzbl 0x4(%eax),%eax
c0006168:	0f b6 c0             	movzbl %al,%eax
c000616b:	8b 4d 0c             	mov    0xc(%ebp),%ecx
c000616e:	89 4c 24 0c          	mov    %ecx,0xc(%esp)
c0006172:	c7 44 24 08 20 00 00 	movl   $0x20,0x8(%esp)
c0006179:	00 
c000617a:	89 54 24 04          	mov    %edx,0x4(%esp)
c000617e:	89 04 24             	mov    %eax,(%esp)
c0006181:	e8 d6 fe ff ff       	call   c000605c <video_place_char>
c0006186:	eb 57                	jmp    c00061df <video_put_char+0x12b>
c0006188:	8b 45 0c             	mov    0xc(%ebp),%eax
c000618b:	0f b6 40 04          	movzbl 0x4(%eax),%eax
c000618f:	83 c0 08             	add    $0x8,%eax
c0006192:	83 e0 f8             	and    $0xfffffff8,%eax
c0006195:	89 c2                	mov    %eax,%edx
c0006197:	8b 45 0c             	mov    0xc(%ebp),%eax
c000619a:	88 50 04             	mov    %dl,0x4(%eax)
c000619d:	eb 40                	jmp    c00061df <video_put_char+0x12b>
c000619f:	0f b6 4d e4          	movzbl -0x1c(%ebp),%ecx
c00061a3:	8b 45 0c             	mov    0xc(%ebp),%eax
c00061a6:	0f b6 40 05          	movzbl 0x5(%eax),%eax
c00061aa:	0f b6 d0             	movzbl %al,%edx
c00061ad:	8b 45 0c             	mov    0xc(%ebp),%eax
c00061b0:	0f b6 40 04          	movzbl 0x4(%eax),%eax
c00061b4:	0f b6 c0             	movzbl %al,%eax
c00061b7:	8b 5d 0c             	mov    0xc(%ebp),%ebx
c00061ba:	89 5c 24 0c          	mov    %ebx,0xc(%esp)
c00061be:	89 4c 24 08          	mov    %ecx,0x8(%esp)
c00061c2:	89 54 24 04          	mov    %edx,0x4(%esp)
c00061c6:	89 04 24             	mov    %eax,(%esp)
c00061c9:	e8 8e fe ff ff       	call   c000605c <video_place_char>
c00061ce:	8b 45 0c             	mov    0xc(%ebp),%eax
c00061d1:	0f b6 40 04          	movzbl 0x4(%eax),%eax
c00061d5:	8d 50 01             	lea    0x1(%eax),%edx
c00061d8:	8b 45 0c             	mov    0xc(%ebp),%eax
c00061db:	88 50 04             	mov    %dl,0x4(%eax)
c00061de:	90                   	nop
c00061df:	8b 45 0c             	mov    0xc(%ebp),%eax
c00061e2:	0f b6 40 04          	movzbl 0x4(%eax),%eax
c00061e6:	0f b6 d0             	movzbl %al,%edx
c00061e9:	0f b7 05 ae a9 00 c0 	movzwl 0xc000a9ae,%eax
c00061f0:	66 39 c2             	cmp    %ax,%dx
c00061f3:	72 17                	jb     c000620c <video_put_char+0x158>
c00061f5:	8b 45 0c             	mov    0xc(%ebp),%eax
c00061f8:	c6 40 04 00          	movb   $0x0,0x4(%eax)
c00061fc:	8b 45 0c             	mov    0xc(%ebp),%eax
c00061ff:	0f b6 40 05          	movzbl 0x5(%eax),%eax
c0006203:	8d 50 01             	lea    0x1(%eax),%edx
c0006206:	8b 45 0c             	mov    0xc(%ebp),%eax
c0006209:	88 50 05             	mov    %dl,0x5(%eax)
c000620c:	8b 45 0c             	mov    0xc(%ebp),%eax
c000620f:	89 04 24             	mov    %eax,(%esp)
c0006212:	e8 67 fd ff ff       	call   c0005f7e <video_scroll_console>
c0006217:	c7 04 24 00 00 00 00 	movl   $0x0,(%esp)
c000621e:	e8 08 b1 ff ff       	call   c000132b <get_console_addr>
c0006223:	3b 45 0c             	cmp    0xc(%ebp),%eax
c0006226:	75 20                	jne    c0006248 <video_put_char+0x194>
c0006228:	8b 45 0c             	mov    0xc(%ebp),%eax
c000622b:	0f b6 40 05          	movzbl 0x5(%eax),%eax
c000622f:	0f b6 d0             	movzbl %al,%edx
c0006232:	8b 45 0c             	mov    0xc(%ebp),%eax
c0006235:	0f b6 40 04          	movzbl 0x4(%eax),%eax
c0006239:	0f b6 c0             	movzbl %al,%eax
c000623c:	89 54 24 04          	mov    %edx,0x4(%esp)
c0006240:	89 04 24             	mov    %eax,(%esp)
c0006243:	e8 13 fc ff ff       	call   c0005e5b <video_move_cursor>
c0006248:	ff 75 f4             	pushl  -0xc(%ebp)
c000624b:	9d                   	popf   
c000624c:	eb 01                	jmp    c000624f <video_put_char+0x19b>
c000624e:	90                   	nop
c000624f:	83 c4 34             	add    $0x34,%esp
c0006252:	5b                   	pop    %ebx
c0006253:	5d                   	pop    %ebp
c0006254:	c3                   	ret    

c0006255 <initialize_video>:
initialize_video():
c0006255:	55                   	push   %ebp
c0006256:	89 e5                	mov    %esp,%ebp
c0006258:	66 c7 05 ae a9 00 c0 	movw   $0x50,0xc000a9ae
c000625f:	50 00 
c0006261:	66 c7 05 b0 a9 00 c0 	movw   $0x19,0xc000a9b0
c0006268:	19 00 
c000626a:	5d                   	pop    %ebp
c000626b:	c3                   	ret    

c000626c <k_getchar>:
k_getchar():
c000626c:	55                   	push   %ebp
c000626d:	89 e5                	mov    %esp,%ebp
c000626f:	83 ec 18             	sub    $0x18,%esp
c0006272:	e8 ec fa ff ff       	call   c0005d63 <kgetchar>
c0006277:	89 45 f4             	mov    %eax,-0xc(%ebp)
c000627a:	8b 45 f4             	mov    -0xc(%ebp),%eax
c000627d:	0f b6 c0             	movzbl %al,%eax
c0006280:	85 c0                	test   %eax,%eax
c0006282:	74 ee                	je     c0006272 <k_getchar+0x6>
c0006284:	8b 45 f4             	mov    -0xc(%ebp),%eax
c0006287:	c9                   	leave  
c0006288:	c3                   	ret    

c0006289 <scanf>:
scanf():
c0006289:	55                   	push   %ebp
c000628a:	89 e5                	mov    %esp,%ebp
c000628c:	83 ec 38             	sub    $0x38,%esp
c000628f:	8d 45 08             	lea    0x8(%ebp),%eax
c0006292:	89 45 f4             	mov    %eax,-0xc(%ebp)
c0006295:	e9 67 02 00 00       	jmp    c0006501 <scanf+0x278>
c000629a:	8b 45 08             	mov    0x8(%ebp),%eax
c000629d:	0f b6 00             	movzbl (%eax),%eax
c00062a0:	0f be c0             	movsbl %al,%eax
c00062a3:	83 f8 20             	cmp    $0x20,%eax
c00062a6:	74 1d                	je     c00062c5 <scanf+0x3c>
c00062a8:	83 f8 20             	cmp    $0x20,%eax
c00062ab:	7f 0e                	jg     c00062bb <scanf+0x32>
c00062ad:	83 e8 08             	sub    $0x8,%eax
c00062b0:	83 f8 05             	cmp    $0x5,%eax
c00062b3:	0f 87 38 02 00 00    	ja     c00064f1 <scanf+0x268>
c00062b9:	eb 0a                	jmp    c00062c5 <scanf+0x3c>
c00062bb:	83 f8 25             	cmp    $0x25,%eax
c00062be:	74 13                	je     c00062d3 <scanf+0x4a>
c00062c0:	e9 2c 02 00 00       	jmp    c00064f1 <scanf+0x268>
c00062c5:	8b 45 08             	mov    0x8(%ebp),%eax
c00062c8:	83 c0 01             	add    $0x1,%eax
c00062cb:	89 45 08             	mov    %eax,0x8(%ebp)
c00062ce:	e9 25 02 00 00       	jmp    c00064f8 <scanf+0x26f>
c00062d3:	8b 45 08             	mov    0x8(%ebp),%eax
c00062d6:	83 c0 01             	add    $0x1,%eax
c00062d9:	89 45 08             	mov    %eax,0x8(%ebp)
c00062dc:	8b 45 08             	mov    0x8(%ebp),%eax
c00062df:	0f b6 00             	movzbl (%eax),%eax
c00062e2:	0f be c0             	movsbl %al,%eax
c00062e5:	83 f8 69             	cmp    $0x69,%eax
c00062e8:	0f 84 d9 00 00 00    	je     c00063c7 <scanf+0x13e>
c00062ee:	83 f8 73             	cmp    $0x73,%eax
c00062f1:	0f 85 f1 01 00 00    	jne    c00064e8 <scanf+0x25f>
c00062f7:	c7 45 ec 00 00 00 00 	movl   $0x0,-0x14(%ebp)
c00062fe:	83 45 f4 04          	addl   $0x4,-0xc(%ebp)
c0006302:	8b 45 f4             	mov    -0xc(%ebp),%eax
c0006305:	8b 00                	mov    (%eax),%eax
c0006307:	89 45 f0             	mov    %eax,-0x10(%ebp)
c000630a:	e8 5d ff ff ff       	call   c000626c <k_getchar>
c000630f:	88 45 e3             	mov    %al,-0x1d(%ebp)
c0006312:	80 7d e3 0d          	cmpb   $0xd,-0x1d(%ebp)
c0006316:	75 30                	jne    c0006348 <scanf+0xbf>
c0006318:	c7 04 24 0a 00 00 00 	movl   $0xa,(%esp)
c000631f:	e8 e3 ae ff ff       	call   c0001207 <kputchar>
c0006324:	0f be 45 e3          	movsbl -0x1d(%ebp),%eax
c0006328:	89 04 24             	mov    %eax,(%esp)
c000632b:	e8 d7 ae ff ff       	call   c0001207 <kputchar>
c0006330:	90                   	nop
c0006331:	0f be 45 e3          	movsbl -0x1d(%ebp),%eax
c0006335:	89 04 24             	mov    %eax,(%esp)
c0006338:	e8 ca ae ff ff       	call   c0001207 <kputchar>
c000633d:	8b 45 f0             	mov    -0x10(%ebp),%eax
c0006340:	c6 00 00             	movb   $0x0,(%eax)
c0006343:	e9 a7 01 00 00       	jmp    c00064ef <scanf+0x266>
c0006348:	80 7d e3 09          	cmpb   $0x9,-0x1d(%ebp)
c000634c:	75 02                	jne    c0006350 <scanf+0xc7>
c000634e:	eb 72                	jmp    c00063c2 <scanf+0x139>
c0006350:	80 7d e3 1b          	cmpb   $0x1b,-0x1d(%ebp)
c0006354:	75 02                	jne    c0006358 <scanf+0xcf>
c0006356:	eb 6a                	jmp    c00063c2 <scanf+0x139>
c0006358:	80 7d e3 08          	cmpb   $0x8,-0x1d(%ebp)
c000635c:	75 37                	jne    c0006395 <scanf+0x10c>
c000635e:	83 7d ec 00          	cmpl   $0x0,-0x14(%ebp)
c0006362:	74 5e                	je     c00063c2 <scanf+0x139>
c0006364:	83 6d f0 01          	subl   $0x1,-0x10(%ebp)
c0006368:	83 6d ec 01          	subl   $0x1,-0x14(%ebp)
c000636c:	0f be 45 e3          	movsbl -0x1d(%ebp),%eax
c0006370:	89 04 24             	mov    %eax,(%esp)
c0006373:	e8 8f ae ff ff       	call   c0001207 <kputchar>
c0006378:	c7 04 24 20 00 00 00 	movl   $0x20,(%esp)
c000637f:	e8 83 ae ff ff       	call   c0001207 <kputchar>
c0006384:	0f be 45 e3          	movsbl -0x1d(%ebp),%eax
c0006388:	89 04 24             	mov    %eax,(%esp)
c000638b:	e8 77 ae ff ff       	call   c0001207 <kputchar>
c0006390:	e9 75 ff ff ff       	jmp    c000630a <scanf+0x81>
c0006395:	81 7d ec ff 00 00 00 	cmpl   $0xff,-0x14(%ebp)
c000639c:	7f 24                	jg     c00063c2 <scanf+0x139>
c000639e:	0f be 45 e3          	movsbl -0x1d(%ebp),%eax
c00063a2:	89 04 24             	mov    %eax,(%esp)
c00063a5:	e8 5d ae ff ff       	call   c0001207 <kputchar>
c00063aa:	8b 45 f0             	mov    -0x10(%ebp),%eax
c00063ad:	8d 50 01             	lea    0x1(%eax),%edx
c00063b0:	89 55 f0             	mov    %edx,-0x10(%ebp)
c00063b3:	0f b6 55 e3          	movzbl -0x1d(%ebp),%edx
c00063b7:	88 10                	mov    %dl,(%eax)
c00063b9:	83 45 ec 01          	addl   $0x1,-0x14(%ebp)
c00063bd:	e9 48 ff ff ff       	jmp    c000630a <scanf+0x81>
c00063c2:	e9 43 ff ff ff       	jmp    c000630a <scanf+0x81>
c00063c7:	83 45 f4 04          	addl   $0x4,-0xc(%ebp)
c00063cb:	8b 45 f4             	mov    -0xc(%ebp),%eax
c00063ce:	8b 00                	mov    (%eax),%eax
c00063d0:	89 45 dc             	mov    %eax,-0x24(%ebp)
c00063d3:	c7 45 e4 01 00 00 00 	movl   $0x1,-0x1c(%ebp)
c00063da:	c7 45 e8 00 00 00 00 	movl   $0x0,-0x18(%ebp)
c00063e1:	8b 45 dc             	mov    -0x24(%ebp),%eax
c00063e4:	c7 00 00 00 00 00    	movl   $0x0,(%eax)
c00063ea:	e8 7d fe ff ff       	call   c000626c <k_getchar>
c00063ef:	88 45 db             	mov    %al,-0x25(%ebp)
c00063f2:	80 7d db 0d          	cmpb   $0xd,-0x25(%ebp)
c00063f6:	75 16                	jne    c000640e <scanf+0x185>
c00063f8:	90                   	nop
c00063f9:	8b 45 dc             	mov    -0x24(%ebp),%eax
c00063fc:	8b 00                	mov    (%eax),%eax
c00063fe:	0f af 45 e4          	imul   -0x1c(%ebp),%eax
c0006402:	89 c2                	mov    %eax,%edx
c0006404:	8b 45 dc             	mov    -0x24(%ebp),%eax
c0006407:	89 10                	mov    %edx,(%eax)
c0006409:	e9 e1 00 00 00       	jmp    c00064ef <scanf+0x266>
c000640e:	83 7d e8 00          	cmpl   $0x0,-0x18(%ebp)
c0006412:	75 1d                	jne    c0006431 <scanf+0x1a8>
c0006414:	80 7d db 2d          	cmpb   $0x2d,-0x25(%ebp)
c0006418:	75 17                	jne    c0006431 <scanf+0x1a8>
c000641a:	83 45 e8 01          	addl   $0x1,-0x18(%ebp)
c000641e:	c7 45 e4 ff ff ff ff 	movl   $0xffffffff,-0x1c(%ebp)
c0006425:	c7 04 24 2d 00 00 00 	movl   $0x2d,(%esp)
c000642c:	e8 d6 ad ff ff       	call   c0001207 <kputchar>
c0006431:	83 7d e8 00          	cmpl   $0x0,-0x18(%ebp)
c0006435:	75 1d                	jne    c0006454 <scanf+0x1cb>
c0006437:	80 7d db 2b          	cmpb   $0x2b,-0x25(%ebp)
c000643b:	75 17                	jne    c0006454 <scanf+0x1cb>
c000643d:	83 45 e8 01          	addl   $0x1,-0x18(%ebp)
c0006441:	c7 45 e4 01 00 00 00 	movl   $0x1,-0x1c(%ebp)
c0006448:	c7 04 24 2b 00 00 00 	movl   $0x2b,(%esp)
c000644f:	e8 b3 ad ff ff       	call   c0001207 <kputchar>
c0006454:	80 7d db 08          	cmpb   $0x8,-0x25(%ebp)
c0006458:	75 4b                	jne    c00064a5 <scanf+0x21c>
c000645a:	83 7d e8 00          	cmpl   $0x0,-0x18(%ebp)
c000645e:	74 45                	je     c00064a5 <scanf+0x21c>
c0006460:	8b 45 dc             	mov    -0x24(%ebp),%eax
c0006463:	8b 08                	mov    (%eax),%ecx
c0006465:	ba 67 66 66 66       	mov    $0x66666667,%edx
c000646a:	89 c8                	mov    %ecx,%eax
c000646c:	f7 ea                	imul   %edx
c000646e:	c1 fa 02             	sar    $0x2,%edx
c0006471:	89 c8                	mov    %ecx,%eax
c0006473:	c1 f8 1f             	sar    $0x1f,%eax
c0006476:	29 c2                	sub    %eax,%edx
c0006478:	8b 45 dc             	mov    -0x24(%ebp),%eax
c000647b:	89 10                	mov    %edx,(%eax)
c000647d:	83 6d e8 01          	subl   $0x1,-0x18(%ebp)
c0006481:	0f be 45 db          	movsbl -0x25(%ebp),%eax
c0006485:	89 04 24             	mov    %eax,(%esp)
c0006488:	e8 7a ad ff ff       	call   c0001207 <kputchar>
c000648d:	c7 04 24 20 00 00 00 	movl   $0x20,(%esp)
c0006494:	e8 6e ad ff ff       	call   c0001207 <kputchar>
c0006499:	0f be 45 db          	movsbl -0x25(%ebp),%eax
c000649d:	89 04 24             	mov    %eax,(%esp)
c00064a0:	e8 62 ad ff ff       	call   c0001207 <kputchar>
c00064a5:	80 7d db 2f          	cmpb   $0x2f,-0x25(%ebp)
c00064a9:	7e 06                	jle    c00064b1 <scanf+0x228>
c00064ab:	80 7d db 39          	cmpb   $0x39,-0x25(%ebp)
c00064af:	7e 06                	jle    c00064b7 <scanf+0x22e>
c00064b1:	90                   	nop
c00064b2:	e9 33 ff ff ff       	jmp    c00063ea <scanf+0x161>
c00064b7:	0f be 45 db          	movsbl -0x25(%ebp),%eax
c00064bb:	89 04 24             	mov    %eax,(%esp)
c00064be:	e8 44 ad ff ff       	call   c0001207 <kputchar>
c00064c3:	83 45 e8 01          	addl   $0x1,-0x18(%ebp)
c00064c7:	8b 45 dc             	mov    -0x24(%ebp),%eax
c00064ca:	8b 10                	mov    (%eax),%edx
c00064cc:	89 d0                	mov    %edx,%eax
c00064ce:	c1 e0 02             	shl    $0x2,%eax
c00064d1:	01 d0                	add    %edx,%eax
c00064d3:	01 c0                	add    %eax,%eax
c00064d5:	0f be 55 db          	movsbl -0x25(%ebp),%edx
c00064d9:	83 ea 30             	sub    $0x30,%edx
c00064dc:	01 c2                	add    %eax,%edx
c00064de:	8b 45 dc             	mov    -0x24(%ebp),%eax
c00064e1:	89 10                	mov    %edx,(%eax)
c00064e3:	e9 02 ff ff ff       	jmp    c00063ea <scanf+0x161>
c00064e8:	b8 ff ff ff ff       	mov    $0xffffffff,%eax
c00064ed:	eb 25                	jmp    c0006514 <scanf+0x28b>
c00064ef:	eb 07                	jmp    c00064f8 <scanf+0x26f>
c00064f1:	b8 ff ff ff ff       	mov    $0xffffffff,%eax
c00064f6:	eb 1c                	jmp    c0006514 <scanf+0x28b>
c00064f8:	8b 45 08             	mov    0x8(%ebp),%eax
c00064fb:	83 c0 01             	add    $0x1,%eax
c00064fe:	89 45 08             	mov    %eax,0x8(%ebp)
c0006501:	8b 45 08             	mov    0x8(%ebp),%eax
c0006504:	0f b6 00             	movzbl (%eax),%eax
c0006507:	84 c0                	test   %al,%al
c0006509:	0f 85 8b fd ff ff    	jne    c000629a <scanf+0x11>
c000650f:	b8 00 00 00 00       	mov    $0x0,%eax
c0006514:	c9                   	leave  
c0006515:	c3                   	ret    

c0006516 <__toupper>:
__toupper():
c0006516:	55                   	push   %ebp
c0006517:	89 e5                	mov    %esp,%ebp
c0006519:	83 ec 04             	sub    $0x4,%esp
c000651c:	8b 45 08             	mov    0x8(%ebp),%eax
c000651f:	88 45 fc             	mov    %al,-0x4(%ebp)
c0006522:	0f b6 45 fc          	movzbl -0x4(%ebp),%eax
c0006526:	0f b6 80 c0 a9 00 c0 	movzbl -0x3fff5640(%eax),%eax
c000652d:	0f b6 c0             	movzbl %al,%eax
c0006530:	83 e0 02             	and    $0x2,%eax
c0006533:	85 c0                	test   %eax,%eax
c0006535:	74 04                	je     c000653b <__toupper+0x25>
c0006537:	80 6d fc 20          	subb   $0x20,-0x4(%ebp)
c000653b:	0f b6 45 fc          	movzbl -0x4(%ebp),%eax
c000653f:	c9                   	leave  
c0006540:	c3                   	ret    

c0006541 <strlen>:
strlen():
c0006541:	55                   	push   %ebp
c0006542:	89 e5                	mov    %esp,%ebp
c0006544:	83 ec 10             	sub    $0x10,%esp
c0006547:	83 7d 08 00          	cmpl   $0x0,0x8(%ebp)
c000654b:	75 07                	jne    c0006554 <strlen+0x13>
c000654d:	b8 00 00 00 00       	mov    $0x0,%eax
c0006552:	eb 20                	jmp    c0006574 <strlen+0x33>
c0006554:	8b 45 08             	mov    0x8(%ebp),%eax
c0006557:	89 45 fc             	mov    %eax,-0x4(%ebp)
c000655a:	eb 04                	jmp    c0006560 <strlen+0x1f>
c000655c:	83 45 fc 01          	addl   $0x1,-0x4(%ebp)
c0006560:	8b 45 fc             	mov    -0x4(%ebp),%eax
c0006563:	0f b6 00             	movzbl (%eax),%eax
c0006566:	84 c0                	test   %al,%al
c0006568:	75 f2                	jne    c000655c <strlen+0x1b>
c000656a:	8b 55 fc             	mov    -0x4(%ebp),%edx
c000656d:	8b 45 08             	mov    0x8(%ebp),%eax
c0006570:	29 c2                	sub    %eax,%edx
c0006572:	89 d0                	mov    %edx,%eax
c0006574:	c9                   	leave  
c0006575:	c3                   	ret    

c0006576 <strnlen>:
strnlen():
c0006576:	55                   	push   %ebp
c0006577:	89 e5                	mov    %esp,%ebp
c0006579:	83 ec 10             	sub    $0x10,%esp
c000657c:	83 7d 08 00          	cmpl   $0x0,0x8(%ebp)
c0006580:	75 07                	jne    c0006589 <strnlen+0x13>
c0006582:	b8 00 00 00 00       	mov    $0x0,%eax
c0006587:	eb 2d                	jmp    c00065b6 <strnlen+0x40>
c0006589:	8b 45 08             	mov    0x8(%ebp),%eax
c000658c:	89 45 fc             	mov    %eax,-0x4(%ebp)
c000658f:	eb 04                	jmp    c0006595 <strnlen+0x1f>
c0006591:	83 45 fc 01          	addl   $0x1,-0x4(%ebp)
c0006595:	8b 45 0c             	mov    0xc(%ebp),%eax
c0006598:	8d 50 ff             	lea    -0x1(%eax),%edx
c000659b:	89 55 0c             	mov    %edx,0xc(%ebp)
c000659e:	85 c0                	test   %eax,%eax
c00065a0:	74 0a                	je     c00065ac <strnlen+0x36>
c00065a2:	8b 45 fc             	mov    -0x4(%ebp),%eax
c00065a5:	0f b6 00             	movzbl (%eax),%eax
c00065a8:	84 c0                	test   %al,%al
c00065aa:	75 e5                	jne    c0006591 <strnlen+0x1b>
c00065ac:	8b 55 fc             	mov    -0x4(%ebp),%edx
c00065af:	8b 45 08             	mov    0x8(%ebp),%eax
c00065b2:	29 c2                	sub    %eax,%edx
c00065b4:	89 d0                	mov    %edx,%eax
c00065b6:	c9                   	leave  
c00065b7:	c3                   	ret    

c00065b8 <strcmp>:
strcmp():
c00065b8:	55                   	push   %ebp
c00065b9:	89 e5                	mov    %esp,%ebp
c00065bb:	eb 08                	jmp    c00065c5 <strcmp+0xd>
c00065bd:	83 45 08 01          	addl   $0x1,0x8(%ebp)
c00065c1:	83 45 0c 01          	addl   $0x1,0xc(%ebp)
c00065c5:	8b 45 0c             	mov    0xc(%ebp),%eax
c00065c8:	0f b6 00             	movzbl (%eax),%eax
c00065cb:	84 c0                	test   %al,%al
c00065cd:	74 10                	je     c00065df <strcmp+0x27>
c00065cf:	8b 45 0c             	mov    0xc(%ebp),%eax
c00065d2:	0f b6 10             	movzbl (%eax),%edx
c00065d5:	8b 45 08             	mov    0x8(%ebp),%eax
c00065d8:	0f b6 00             	movzbl (%eax),%eax
c00065db:	38 c2                	cmp    %al,%dl
c00065dd:	74 de                	je     c00065bd <strcmp+0x5>
c00065df:	8b 45 08             	mov    0x8(%ebp),%eax
c00065e2:	0f b6 00             	movzbl (%eax),%eax
c00065e5:	0f be d0             	movsbl %al,%edx
c00065e8:	8b 45 0c             	mov    0xc(%ebp),%eax
c00065eb:	0f b6 00             	movzbl (%eax),%eax
c00065ee:	0f be c0             	movsbl %al,%eax
c00065f1:	29 c2                	sub    %eax,%edx
c00065f3:	89 d0                	mov    %edx,%eax
c00065f5:	5d                   	pop    %ebp
c00065f6:	c3                   	ret    

c00065f7 <strtoupper>:
strtoupper():
c00065f7:	55                   	push   %ebp
c00065f8:	89 e5                	mov    %esp,%ebp
c00065fa:	83 ec 14             	sub    $0x14,%esp
c00065fd:	8b 45 08             	mov    0x8(%ebp),%eax
c0006600:	89 45 fc             	mov    %eax,-0x4(%ebp)
c0006603:	eb 1c                	jmp    c0006621 <strtoupper+0x2a>
c0006605:	8b 45 fc             	mov    -0x4(%ebp),%eax
c0006608:	0f b6 00             	movzbl (%eax),%eax
c000660b:	0f b6 c0             	movzbl %al,%eax
c000660e:	89 04 24             	mov    %eax,(%esp)
c0006611:	e8 00 ff ff ff       	call   c0006516 <__toupper>
c0006616:	89 c2                	mov    %eax,%edx
c0006618:	8b 45 fc             	mov    -0x4(%ebp),%eax
c000661b:	88 10                	mov    %dl,(%eax)
c000661d:	83 45 fc 01          	addl   $0x1,-0x4(%ebp)
c0006621:	8b 45 fc             	mov    -0x4(%ebp),%eax
c0006624:	0f b6 00             	movzbl (%eax),%eax
c0006627:	84 c0                	test   %al,%al
c0006629:	75 da                	jne    c0006605 <strtoupper+0xe>
c000662b:	c9                   	leave  
c000662c:	c3                   	ret    

c000662d <strncmp>:
strncmp():
c000662d:	55                   	push   %ebp
c000662e:	89 e5                	mov    %esp,%ebp
c0006630:	83 7d 10 00          	cmpl   $0x0,0x10(%ebp)
c0006634:	75 07                	jne    c000663d <strncmp+0x10>
c0006636:	b8 00 00 00 00       	mov    $0x0,%eax
c000663b:	eb 53                	jmp    c0006690 <strncmp+0x63>
c000663d:	8b 45 08             	mov    0x8(%ebp),%eax
c0006640:	0f b6 08             	movzbl (%eax),%ecx
c0006643:	8b 45 0c             	mov    0xc(%ebp),%eax
c0006646:	8d 50 01             	lea    0x1(%eax),%edx
c0006649:	89 55 0c             	mov    %edx,0xc(%ebp)
c000664c:	0f b6 00             	movzbl (%eax),%eax
c000664f:	38 c1                	cmp    %al,%cl
c0006651:	74 1c                	je     c000666f <strncmp+0x42>
c0006653:	8b 45 08             	mov    0x8(%ebp),%eax
c0006656:	0f b6 00             	movzbl (%eax),%eax
c0006659:	0f b6 d0             	movzbl %al,%edx
c000665c:	83 6d 0c 01          	subl   $0x1,0xc(%ebp)
c0006660:	8b 45 0c             	mov    0xc(%ebp),%eax
c0006663:	0f b6 00             	movzbl (%eax),%eax
c0006666:	0f b6 c0             	movzbl %al,%eax
c0006669:	29 c2                	sub    %eax,%edx
c000666b:	89 d0                	mov    %edx,%eax
c000666d:	eb 21                	jmp    c0006690 <strncmp+0x63>
c000666f:	8b 45 08             	mov    0x8(%ebp),%eax
c0006672:	8d 50 01             	lea    0x1(%eax),%edx
c0006675:	89 55 08             	mov    %edx,0x8(%ebp)
c0006678:	0f b6 00             	movzbl (%eax),%eax
c000667b:	84 c0                	test   %al,%al
c000667d:	75 02                	jne    c0006681 <strncmp+0x54>
c000667f:	eb 0a                	jmp    c000668b <strncmp+0x5e>
c0006681:	83 6d 10 01          	subl   $0x1,0x10(%ebp)
c0006685:	83 7d 10 00          	cmpl   $0x0,0x10(%ebp)
c0006689:	75 b2                	jne    c000663d <strncmp+0x10>
c000668b:	b8 00 00 00 00       	mov    $0x0,%eax
c0006690:	5d                   	pop    %ebp
c0006691:	c3                   	ret    

c0006692 <skip_atoi>:
skip_atoi():
c0006692:	55                   	push   %ebp
c0006693:	89 e5                	mov    %esp,%ebp
c0006695:	53                   	push   %ebx
c0006696:	83 ec 10             	sub    $0x10,%esp
c0006699:	c7 45 f8 00 00 00 00 	movl   $0x0,-0x8(%ebp)
c00066a0:	eb 29                	jmp    c00066cb <skip_atoi+0x39>
c00066a2:	8b 55 f8             	mov    -0x8(%ebp),%edx
c00066a5:	89 d0                	mov    %edx,%eax
c00066a7:	c1 e0 02             	shl    $0x2,%eax
c00066aa:	01 d0                	add    %edx,%eax
c00066ac:	01 c0                	add    %eax,%eax
c00066ae:	89 c3                	mov    %eax,%ebx
c00066b0:	8b 45 08             	mov    0x8(%ebp),%eax
c00066b3:	8b 00                	mov    (%eax),%eax
c00066b5:	8d 48 01             	lea    0x1(%eax),%ecx
c00066b8:	8b 55 08             	mov    0x8(%ebp),%edx
c00066bb:	89 0a                	mov    %ecx,(%edx)
c00066bd:	0f b6 00             	movzbl (%eax),%eax
c00066c0:	0f be c0             	movsbl %al,%eax
c00066c3:	01 d8                	add    %ebx,%eax
c00066c5:	83 e8 30             	sub    $0x30,%eax
c00066c8:	89 45 f8             	mov    %eax,-0x8(%ebp)
c00066cb:	8b 45 08             	mov    0x8(%ebp),%eax
c00066ce:	8b 00                	mov    (%eax),%eax
c00066d0:	0f b6 00             	movzbl (%eax),%eax
c00066d3:	0f b6 c0             	movzbl %al,%eax
c00066d6:	0f b6 80 c0 a9 00 c0 	movzbl -0x3fff5640(%eax),%eax
c00066dd:	0f b6 c0             	movzbl %al,%eax
c00066e0:	83 e0 04             	and    $0x4,%eax
c00066e3:	85 c0                	test   %eax,%eax
c00066e5:	75 bb                	jne    c00066a2 <skip_atoi+0x10>
c00066e7:	8b 45 f8             	mov    -0x8(%ebp),%eax
c00066ea:	83 c4 10             	add    $0x10,%esp
c00066ed:	5b                   	pop    %ebx
c00066ee:	5d                   	pop    %ebp
c00066ef:	c3                   	ret    

c00066f0 <number>:
number():
c00066f0:	55                   	push   %ebp
c00066f1:	89 e5                	mov    %esp,%ebp
c00066f3:	81 ec b8 00 00 00    	sub    $0xb8,%esp
c00066f9:	8b 45 10             	mov    0x10(%ebp),%eax
c00066fc:	89 85 48 ff ff ff    	mov    %eax,-0xb8(%ebp)
c0006702:	8b 45 14             	mov    0x14(%ebp),%eax
c0006705:	89 85 4c ff ff ff    	mov    %eax,-0xb4(%ebp)
c000670b:	c7 85 75 ff ff ff 30 	movl   $0x33323130,-0x8b(%ebp)
c0006712:	31 32 33 
c0006715:	c7 85 79 ff ff ff 34 	movl   $0x37363534,-0x87(%ebp)
c000671c:	35 36 37 
c000671f:	c7 85 7d ff ff ff 38 	movl   $0x62613938,-0x83(%ebp)
c0006726:	39 61 62 
c0006729:	c7 45 81 63 64 65 66 	movl   $0x66656463,-0x7f(%ebp)
c0006730:	c7 45 85 67 68 69 6a 	movl   $0x6a696867,-0x7b(%ebp)
c0006737:	c7 45 89 6b 6c 6d 6e 	movl   $0x6e6d6c6b,-0x77(%ebp)
c000673e:	c7 45 8d 6f 70 71 72 	movl   $0x7271706f,-0x73(%ebp)
c0006745:	c7 45 91 73 74 75 76 	movl   $0x76757473,-0x6f(%ebp)
c000674c:	c7 45 95 77 78 79 7a 	movl   $0x7a797877,-0x6b(%ebp)
c0006753:	c6 45 99 00          	movb   $0x0,-0x67(%ebp)
c0006757:	c7 85 50 ff ff ff 30 	movl   $0x33323130,-0xb0(%ebp)
c000675e:	31 32 33 
c0006761:	c7 85 54 ff ff ff 34 	movl   $0x37363534,-0xac(%ebp)
c0006768:	35 36 37 
c000676b:	c7 85 58 ff ff ff 38 	movl   $0x42413938,-0xa8(%ebp)
c0006772:	39 41 42 
c0006775:	c7 85 5c ff ff ff 43 	movl   $0x46454443,-0xa4(%ebp)
c000677c:	44 45 46 
c000677f:	c7 85 60 ff ff ff 47 	movl   $0x4a494847,-0xa0(%ebp)
c0006786:	48 49 4a 
c0006789:	c7 85 64 ff ff ff 4b 	movl   $0x4e4d4c4b,-0x9c(%ebp)
c0006790:	4c 4d 4e 
c0006793:	c7 85 68 ff ff ff 4f 	movl   $0x5251504f,-0x98(%ebp)
c000679a:	50 51 52 
c000679d:	c7 85 6c ff ff ff 53 	movl   $0x56555453,-0x94(%ebp)
c00067a4:	54 55 56 
c00067a7:	c7 85 70 ff ff ff 57 	movl   $0x5a595857,-0x90(%ebp)
c00067ae:	58 59 5a 
c00067b1:	c6 85 74 ff ff ff 00 	movb   $0x0,-0x8c(%ebp)
c00067b8:	8b 45 24             	mov    0x24(%ebp),%eax
c00067bb:	83 e0 40             	and    $0x40,%eax
c00067be:	85 c0                	test   %eax,%eax
c00067c0:	74 08                	je     c00067ca <number+0xda>
c00067c2:	8d 85 50 ff ff ff    	lea    -0xb0(%ebp),%eax
c00067c8:	eb 06                	jmp    c00067d0 <number+0xe0>
c00067ca:	8d 85 75 ff ff ff    	lea    -0x8b(%ebp),%eax
c00067d0:	89 45 ec             	mov    %eax,-0x14(%ebp)
c00067d3:	8b 45 24             	mov    0x24(%ebp),%eax
c00067d6:	83 e0 10             	and    $0x10,%eax
c00067d9:	85 c0                	test   %eax,%eax
c00067db:	74 04                	je     c00067e1 <number+0xf1>
c00067dd:	83 65 24 fe          	andl   $0xfffffffe,0x24(%ebp)
c00067e1:	83 7d 18 01          	cmpl   $0x1,0x18(%ebp)
c00067e5:	7e 06                	jle    c00067ed <number+0xfd>
c00067e7:	83 7d 18 24          	cmpl   $0x24,0x18(%ebp)
c00067eb:	7e 0a                	jle    c00067f7 <number+0x107>
c00067ed:	b8 00 00 00 00       	mov    $0x0,%eax
c00067f2:	e9 9d 02 00 00       	jmp    c0006a94 <number+0x3a4>
c00067f7:	8b 45 24             	mov    0x24(%ebp),%eax
c00067fa:	83 e0 01             	and    $0x1,%eax
c00067fd:	85 c0                	test   %eax,%eax
c00067ff:	74 07                	je     c0006808 <number+0x118>
c0006801:	b8 30 00 00 00       	mov    $0x30,%eax
c0006806:	eb 05                	jmp    c000680d <number+0x11d>
c0006808:	b8 20 00 00 00       	mov    $0x20,%eax
c000680d:	88 45 eb             	mov    %al,-0x15(%ebp)
c0006810:	c6 45 ff 00          	movb   $0x0,-0x1(%ebp)
c0006814:	8b 45 24             	mov    0x24(%ebp),%eax
c0006817:	83 e0 02             	and    $0x2,%eax
c000681a:	85 c0                	test   %eax,%eax
c000681c:	74 4c                	je     c000686a <number+0x17a>
c000681e:	83 bd 4c ff ff ff 00 	cmpl   $0x0,-0xb4(%ebp)
c0006825:	79 1d                	jns    c0006844 <number+0x154>
c0006827:	c6 45 ff 2d          	movb   $0x2d,-0x1(%ebp)
c000682b:	f7 9d 48 ff ff ff    	negl   -0xb8(%ebp)
c0006831:	83 95 4c ff ff ff 00 	adcl   $0x0,-0xb4(%ebp)
c0006838:	f7 9d 4c ff ff ff    	negl   -0xb4(%ebp)
c000683e:	83 6d 1c 01          	subl   $0x1,0x1c(%ebp)
c0006842:	eb 26                	jmp    c000686a <number+0x17a>
c0006844:	8b 45 24             	mov    0x24(%ebp),%eax
c0006847:	83 e0 04             	and    $0x4,%eax
c000684a:	85 c0                	test   %eax,%eax
c000684c:	74 0a                	je     c0006858 <number+0x168>
c000684e:	c6 45 ff 2b          	movb   $0x2b,-0x1(%ebp)
c0006852:	83 6d 1c 01          	subl   $0x1,0x1c(%ebp)
c0006856:	eb 12                	jmp    c000686a <number+0x17a>
c0006858:	8b 45 24             	mov    0x24(%ebp),%eax
c000685b:	83 e0 08             	and    $0x8,%eax
c000685e:	85 c0                	test   %eax,%eax
c0006860:	74 08                	je     c000686a <number+0x17a>
c0006862:	c6 45 ff 20          	movb   $0x20,-0x1(%ebp)
c0006866:	83 6d 1c 01          	subl   $0x1,0x1c(%ebp)
c000686a:	8b 45 24             	mov    0x24(%ebp),%eax
c000686d:	83 e0 20             	and    $0x20,%eax
c0006870:	85 c0                	test   %eax,%eax
c0006872:	74 16                	je     c000688a <number+0x19a>
c0006874:	83 7d 18 10          	cmpl   $0x10,0x18(%ebp)
c0006878:	75 06                	jne    c0006880 <number+0x190>
c000687a:	83 6d 1c 02          	subl   $0x2,0x1c(%ebp)
c000687e:	eb 0a                	jmp    c000688a <number+0x19a>
c0006880:	83 7d 18 08          	cmpl   $0x8,0x18(%ebp)
c0006884:	75 04                	jne    c000688a <number+0x19a>
c0006886:	83 6d 1c 01          	subl   $0x1,0x1c(%ebp)
c000688a:	c7 45 f8 00 00 00 00 	movl   $0x0,-0x8(%ebp)
c0006891:	8b 85 48 ff ff ff    	mov    -0xb8(%ebp),%eax
c0006897:	8b 95 4c ff ff ff    	mov    -0xb4(%ebp),%edx
c000689d:	09 d0                	or     %edx,%eax
c000689f:	85 c0                	test   %eax,%eax
c00068a1:	75 13                	jne    c00068b6 <number+0x1c6>
c00068a3:	8b 45 f8             	mov    -0x8(%ebp),%eax
c00068a6:	8d 50 01             	lea    0x1(%eax),%edx
c00068a9:	89 55 f8             	mov    %edx,-0x8(%ebp)
c00068ac:	c6 44 05 9a 30       	movb   $0x30,-0x66(%ebp,%eax,1)
c00068b1:	e9 91 00 00 00       	jmp    c0006947 <number+0x257>
c00068b6:	eb 79                	jmp    c0006931 <number+0x241>
c00068b8:	8b 4d f8             	mov    -0x8(%ebp),%ecx
c00068bb:	8d 41 01             	lea    0x1(%ecx),%eax
c00068be:	89 45 f8             	mov    %eax,-0x8(%ebp)
c00068c1:	8b 45 18             	mov    0x18(%ebp),%eax
c00068c4:	89 45 e4             	mov    %eax,-0x1c(%ebp)
c00068c7:	8b 85 48 ff ff ff    	mov    -0xb8(%ebp),%eax
c00068cd:	8b 95 4c ff ff ff    	mov    -0xb4(%ebp),%edx
c00068d3:	89 45 e0             	mov    %eax,-0x20(%ebp)
c00068d6:	89 55 f0             	mov    %edx,-0x10(%ebp)
c00068d9:	8b 45 f0             	mov    -0x10(%ebp),%eax
c00068dc:	89 45 f4             	mov    %eax,-0xc(%ebp)
c00068df:	83 7d f0 00          	cmpl   $0x0,-0x10(%ebp)
c00068e3:	74 1c                	je     c0006901 <number+0x211>
c00068e5:	8b 45 f0             	mov    -0x10(%ebp),%eax
c00068e8:	ba 00 00 00 00       	mov    $0x0,%edx
c00068ed:	f7 75 e4             	divl   -0x1c(%ebp)
c00068f0:	89 55 f4             	mov    %edx,-0xc(%ebp)
c00068f3:	8b 45 f0             	mov    -0x10(%ebp),%eax
c00068f6:	ba 00 00 00 00       	mov    $0x0,%edx
c00068fb:	f7 75 e4             	divl   -0x1c(%ebp)
c00068fe:	89 45 f0             	mov    %eax,-0x10(%ebp)
c0006901:	8b 45 e0             	mov    -0x20(%ebp),%eax
c0006904:	8b 55 f4             	mov    -0xc(%ebp),%edx
c0006907:	f7 75 e4             	divl   -0x1c(%ebp)
c000690a:	89 45 e0             	mov    %eax,-0x20(%ebp)
c000690d:	89 55 dc             	mov    %edx,-0x24(%ebp)
c0006910:	8b 45 e0             	mov    -0x20(%ebp),%eax
c0006913:	8b 55 f0             	mov    -0x10(%ebp),%edx
c0006916:	89 85 48 ff ff ff    	mov    %eax,-0xb8(%ebp)
c000691c:	89 95 4c ff ff ff    	mov    %edx,-0xb4(%ebp)
c0006922:	8b 55 dc             	mov    -0x24(%ebp),%edx
c0006925:	8b 45 ec             	mov    -0x14(%ebp),%eax
c0006928:	01 d0                	add    %edx,%eax
c000692a:	0f b6 00             	movzbl (%eax),%eax
c000692d:	88 44 0d 9a          	mov    %al,-0x66(%ebp,%ecx,1)
c0006931:	8b 85 48 ff ff ff    	mov    -0xb8(%ebp),%eax
c0006937:	8b 95 4c ff ff ff    	mov    -0xb4(%ebp),%edx
c000693d:	09 d0                	or     %edx,%eax
c000693f:	85 c0                	test   %eax,%eax
c0006941:	0f 85 71 ff ff ff    	jne    c00068b8 <number+0x1c8>
c0006947:	8b 45 f8             	mov    -0x8(%ebp),%eax
c000694a:	3b 45 20             	cmp    0x20(%ebp),%eax
c000694d:	7e 06                	jle    c0006955 <number+0x265>
c000694f:	8b 45 f8             	mov    -0x8(%ebp),%eax
c0006952:	89 45 20             	mov    %eax,0x20(%ebp)
c0006955:	8b 45 20             	mov    0x20(%ebp),%eax
c0006958:	29 45 1c             	sub    %eax,0x1c(%ebp)
c000695b:	8b 45 24             	mov    0x24(%ebp),%eax
c000695e:	83 e0 11             	and    $0x11,%eax
c0006961:	85 c0                	test   %eax,%eax
c0006963:	75 21                	jne    c0006986 <number+0x296>
c0006965:	eb 12                	jmp    c0006979 <number+0x289>
c0006967:	8b 45 08             	mov    0x8(%ebp),%eax
c000696a:	3b 45 0c             	cmp    0xc(%ebp),%eax
c000696d:	77 06                	ja     c0006975 <number+0x285>
c000696f:	8b 45 08             	mov    0x8(%ebp),%eax
c0006972:	c6 00 20             	movb   $0x20,(%eax)
c0006975:	83 45 08 01          	addl   $0x1,0x8(%ebp)
c0006979:	8b 45 1c             	mov    0x1c(%ebp),%eax
c000697c:	8d 50 ff             	lea    -0x1(%eax),%edx
c000697f:	89 55 1c             	mov    %edx,0x1c(%ebp)
c0006982:	85 c0                	test   %eax,%eax
c0006984:	7f e1                	jg     c0006967 <number+0x277>
c0006986:	80 7d ff 00          	cmpb   $0x0,-0x1(%ebp)
c000698a:	74 15                	je     c00069a1 <number+0x2b1>
c000698c:	8b 45 08             	mov    0x8(%ebp),%eax
c000698f:	3b 45 0c             	cmp    0xc(%ebp),%eax
c0006992:	77 09                	ja     c000699d <number+0x2ad>
c0006994:	8b 45 08             	mov    0x8(%ebp),%eax
c0006997:	0f b6 55 ff          	movzbl -0x1(%ebp),%edx
c000699b:	88 10                	mov    %dl,(%eax)
c000699d:	83 45 08 01          	addl   $0x1,0x8(%ebp)
c00069a1:	8b 45 24             	mov    0x24(%ebp),%eax
c00069a4:	83 e0 20             	and    $0x20,%eax
c00069a7:	85 c0                	test   %eax,%eax
c00069a9:	74 4a                	je     c00069f5 <number+0x305>
c00069ab:	83 7d 18 08          	cmpl   $0x8,0x18(%ebp)
c00069af:	75 14                	jne    c00069c5 <number+0x2d5>
c00069b1:	8b 45 08             	mov    0x8(%ebp),%eax
c00069b4:	3b 45 0c             	cmp    0xc(%ebp),%eax
c00069b7:	77 06                	ja     c00069bf <number+0x2cf>
c00069b9:	8b 45 08             	mov    0x8(%ebp),%eax
c00069bc:	c6 00 30             	movb   $0x30,(%eax)
c00069bf:	83 45 08 01          	addl   $0x1,0x8(%ebp)
c00069c3:	eb 30                	jmp    c00069f5 <number+0x305>
c00069c5:	83 7d 18 10          	cmpl   $0x10,0x18(%ebp)
c00069c9:	75 2a                	jne    c00069f5 <number+0x305>
c00069cb:	8b 45 08             	mov    0x8(%ebp),%eax
c00069ce:	3b 45 0c             	cmp    0xc(%ebp),%eax
c00069d1:	77 06                	ja     c00069d9 <number+0x2e9>
c00069d3:	8b 45 08             	mov    0x8(%ebp),%eax
c00069d6:	c6 00 30             	movb   $0x30,(%eax)
c00069d9:	83 45 08 01          	addl   $0x1,0x8(%ebp)
c00069dd:	8b 45 08             	mov    0x8(%ebp),%eax
c00069e0:	3b 45 0c             	cmp    0xc(%ebp),%eax
c00069e3:	77 0c                	ja     c00069f1 <number+0x301>
c00069e5:	8b 45 ec             	mov    -0x14(%ebp),%eax
c00069e8:	0f b6 50 21          	movzbl 0x21(%eax),%edx
c00069ec:	8b 45 08             	mov    0x8(%ebp),%eax
c00069ef:	88 10                	mov    %dl,(%eax)
c00069f1:	83 45 08 01          	addl   $0x1,0x8(%ebp)
c00069f5:	8b 45 24             	mov    0x24(%ebp),%eax
c00069f8:	83 e0 10             	and    $0x10,%eax
c00069fb:	85 c0                	test   %eax,%eax
c00069fd:	75 24                	jne    c0006a23 <number+0x333>
c00069ff:	eb 15                	jmp    c0006a16 <number+0x326>
c0006a01:	8b 45 08             	mov    0x8(%ebp),%eax
c0006a04:	3b 45 0c             	cmp    0xc(%ebp),%eax
c0006a07:	77 09                	ja     c0006a12 <number+0x322>
c0006a09:	8b 45 08             	mov    0x8(%ebp),%eax
c0006a0c:	0f b6 55 eb          	movzbl -0x15(%ebp),%edx
c0006a10:	88 10                	mov    %dl,(%eax)
c0006a12:	83 45 08 01          	addl   $0x1,0x8(%ebp)
c0006a16:	8b 45 1c             	mov    0x1c(%ebp),%eax
c0006a19:	8d 50 ff             	lea    -0x1(%eax),%edx
c0006a1c:	89 55 1c             	mov    %edx,0x1c(%ebp)
c0006a1f:	85 c0                	test   %eax,%eax
c0006a21:	7f de                	jg     c0006a01 <number+0x311>
c0006a23:	eb 12                	jmp    c0006a37 <number+0x347>
c0006a25:	8b 45 08             	mov    0x8(%ebp),%eax
c0006a28:	3b 45 0c             	cmp    0xc(%ebp),%eax
c0006a2b:	77 06                	ja     c0006a33 <number+0x343>
c0006a2d:	8b 45 08             	mov    0x8(%ebp),%eax
c0006a30:	c6 00 30             	movb   $0x30,(%eax)
c0006a33:	83 45 08 01          	addl   $0x1,0x8(%ebp)
c0006a37:	8b 45 20             	mov    0x20(%ebp),%eax
c0006a3a:	8d 50 ff             	lea    -0x1(%eax),%edx
c0006a3d:	89 55 20             	mov    %edx,0x20(%ebp)
c0006a40:	3b 45 f8             	cmp    -0x8(%ebp),%eax
c0006a43:	7f e0                	jg     c0006a25 <number+0x335>
c0006a45:	eb 1c                	jmp    c0006a63 <number+0x373>
c0006a47:	8b 45 08             	mov    0x8(%ebp),%eax
c0006a4a:	3b 45 0c             	cmp    0xc(%ebp),%eax
c0006a4d:	77 10                	ja     c0006a5f <number+0x36f>
c0006a4f:	8d 55 9a             	lea    -0x66(%ebp),%edx
c0006a52:	8b 45 f8             	mov    -0x8(%ebp),%eax
c0006a55:	01 d0                	add    %edx,%eax
c0006a57:	0f b6 10             	movzbl (%eax),%edx
c0006a5a:	8b 45 08             	mov    0x8(%ebp),%eax
c0006a5d:	88 10                	mov    %dl,(%eax)
c0006a5f:	83 45 08 01          	addl   $0x1,0x8(%ebp)
c0006a63:	8b 45 f8             	mov    -0x8(%ebp),%eax
c0006a66:	8d 50 ff             	lea    -0x1(%eax),%edx
c0006a69:	89 55 f8             	mov    %edx,-0x8(%ebp)
c0006a6c:	85 c0                	test   %eax,%eax
c0006a6e:	7f d7                	jg     c0006a47 <number+0x357>
c0006a70:	eb 12                	jmp    c0006a84 <number+0x394>
c0006a72:	8b 45 08             	mov    0x8(%ebp),%eax
c0006a75:	3b 45 0c             	cmp    0xc(%ebp),%eax
c0006a78:	77 06                	ja     c0006a80 <number+0x390>
c0006a7a:	8b 45 08             	mov    0x8(%ebp),%eax
c0006a7d:	c6 00 20             	movb   $0x20,(%eax)
c0006a80:	83 45 08 01          	addl   $0x1,0x8(%ebp)
c0006a84:	8b 45 1c             	mov    0x1c(%ebp),%eax
c0006a87:	8d 50 ff             	lea    -0x1(%eax),%edx
c0006a8a:	89 55 1c             	mov    %edx,0x1c(%ebp)
c0006a8d:	85 c0                	test   %eax,%eax
c0006a8f:	7f e1                	jg     c0006a72 <number+0x382>
c0006a91:	8b 45 08             	mov    0x8(%ebp),%eax
c0006a94:	c9                   	leave  
c0006a95:	c3                   	ret    

c0006a96 <vsnprintf>:
vsnprintf():
c0006a96:	55                   	push   %ebp
c0006a97:	89 e5                	mov    %esp,%ebp
c0006a99:	83 ec 68             	sub    $0x68,%esp
c0006a9c:	8b 45 08             	mov    0x8(%ebp),%eax
c0006a9f:	89 45 e4             	mov    %eax,-0x1c(%ebp)
c0006aa2:	8b 45 0c             	mov    0xc(%ebp),%eax
c0006aa5:	8d 50 ff             	lea    -0x1(%eax),%edx
c0006aa8:	8b 45 08             	mov    0x8(%ebp),%eax
c0006aab:	01 d0                	add    %edx,%eax
c0006aad:	89 45 e0             	mov    %eax,-0x20(%ebp)
c0006ab0:	8b 45 08             	mov    0x8(%ebp),%eax
c0006ab3:	83 e8 01             	sub    $0x1,%eax
c0006ab6:	3b 45 e0             	cmp    -0x20(%ebp),%eax
c0006ab9:	76 1c                	jbe    c0006ad7 <vsnprintf+0x41>
c0006abb:	c7 45 e0 ff ff ff ff 	movl   $0xffffffff,-0x20(%ebp)
c0006ac2:	8b 55 e0             	mov    -0x20(%ebp),%edx
c0006ac5:	8b 45 08             	mov    0x8(%ebp),%eax
c0006ac8:	29 c2                	sub    %eax,%edx
c0006aca:	89 d0                	mov    %edx,%eax
c0006acc:	83 c0 01             	add    $0x1,%eax
c0006acf:	89 45 0c             	mov    %eax,0xc(%ebp)
c0006ad2:	e9 58 05 00 00       	jmp    c000702f <vsnprintf+0x599>
c0006ad7:	e9 53 05 00 00       	jmp    c000702f <vsnprintf+0x599>
c0006adc:	8b 45 10             	mov    0x10(%ebp),%eax
c0006adf:	0f b6 00             	movzbl (%eax),%eax
c0006ae2:	3c 25                	cmp    $0x25,%al
c0006ae4:	74 1c                	je     c0006b02 <vsnprintf+0x6c>
c0006ae6:	8b 45 e4             	mov    -0x1c(%ebp),%eax
c0006ae9:	3b 45 e0             	cmp    -0x20(%ebp),%eax
c0006aec:	77 0b                	ja     c0006af9 <vsnprintf+0x63>
c0006aee:	8b 45 10             	mov    0x10(%ebp),%eax
c0006af1:	0f b6 10             	movzbl (%eax),%edx
c0006af4:	8b 45 e4             	mov    -0x1c(%ebp),%eax
c0006af7:	88 10                	mov    %dl,(%eax)
c0006af9:	83 45 e4 01          	addl   $0x1,-0x1c(%ebp)
c0006afd:	e9 24 05 00 00       	jmp    c0007026 <vsnprintf+0x590>
c0006b02:	c7 45 d8 00 00 00 00 	movl   $0x0,-0x28(%ebp)
c0006b09:	8b 45 10             	mov    0x10(%ebp),%eax
c0006b0c:	83 c0 01             	add    $0x1,%eax
c0006b0f:	89 45 10             	mov    %eax,0x10(%ebp)
c0006b12:	8b 45 10             	mov    0x10(%ebp),%eax
c0006b15:	0f b6 00             	movzbl (%eax),%eax
c0006b18:	0f be c0             	movsbl %al,%eax
c0006b1b:	83 e8 20             	sub    $0x20,%eax
c0006b1e:	83 f8 10             	cmp    $0x10,%eax
c0006b21:	77 27                	ja     c0006b4a <vsnprintf+0xb4>
c0006b23:	8b 04 85 20 8a 00 c0 	mov    -0x3fff75e0(,%eax,4),%eax
c0006b2a:	ff e0                	jmp    *%eax
c0006b2c:	83 4d d8 10          	orl    $0x10,-0x28(%ebp)
c0006b30:	eb d7                	jmp    c0006b09 <vsnprintf+0x73>
c0006b32:	83 4d d8 04          	orl    $0x4,-0x28(%ebp)
c0006b36:	eb d1                	jmp    c0006b09 <vsnprintf+0x73>
c0006b38:	83 4d d8 08          	orl    $0x8,-0x28(%ebp)
c0006b3c:	eb cb                	jmp    c0006b09 <vsnprintf+0x73>
c0006b3e:	83 4d d8 20          	orl    $0x20,-0x28(%ebp)
c0006b42:	eb c5                	jmp    c0006b09 <vsnprintf+0x73>
c0006b44:	83 4d d8 01          	orl    $0x1,-0x28(%ebp)
c0006b48:	eb bf                	jmp    c0006b09 <vsnprintf+0x73>
c0006b4a:	c7 45 d4 ff ff ff ff 	movl   $0xffffffff,-0x2c(%ebp)
c0006b51:	8b 45 10             	mov    0x10(%ebp),%eax
c0006b54:	0f b6 00             	movzbl (%eax),%eax
c0006b57:	0f b6 c0             	movzbl %al,%eax
c0006b5a:	0f b6 80 c0 a9 00 c0 	movzbl -0x3fff5640(%eax),%eax
c0006b61:	0f b6 c0             	movzbl %al,%eax
c0006b64:	83 e0 04             	and    $0x4,%eax
c0006b67:	85 c0                	test   %eax,%eax
c0006b69:	74 10                	je     c0006b7b <vsnprintf+0xe5>
c0006b6b:	8d 45 10             	lea    0x10(%ebp),%eax
c0006b6e:	89 04 24             	mov    %eax,(%esp)
c0006b71:	e8 1c fb ff ff       	call   c0006692 <skip_atoi>
c0006b76:	89 45 d4             	mov    %eax,-0x2c(%ebp)
c0006b79:	eb 2d                	jmp    c0006ba8 <vsnprintf+0x112>
c0006b7b:	8b 45 10             	mov    0x10(%ebp),%eax
c0006b7e:	0f b6 00             	movzbl (%eax),%eax
c0006b81:	3c 2a                	cmp    $0x2a,%al
c0006b83:	75 23                	jne    c0006ba8 <vsnprintf+0x112>
c0006b85:	8b 45 10             	mov    0x10(%ebp),%eax
c0006b88:	83 c0 01             	add    $0x1,%eax
c0006b8b:	89 45 10             	mov    %eax,0x10(%ebp)
c0006b8e:	83 45 14 04          	addl   $0x4,0x14(%ebp)
c0006b92:	8b 45 14             	mov    0x14(%ebp),%eax
c0006b95:	8b 40 fc             	mov    -0x4(%eax),%eax
c0006b98:	89 45 d4             	mov    %eax,-0x2c(%ebp)
c0006b9b:	83 7d d4 00          	cmpl   $0x0,-0x2c(%ebp)
c0006b9f:	79 07                	jns    c0006ba8 <vsnprintf+0x112>
c0006ba1:	f7 5d d4             	negl   -0x2c(%ebp)
c0006ba4:	83 4d d8 10          	orl    $0x10,-0x28(%ebp)
c0006ba8:	c7 45 d0 ff ff ff ff 	movl   $0xffffffff,-0x30(%ebp)
c0006baf:	8b 45 10             	mov    0x10(%ebp),%eax
c0006bb2:	0f b6 00             	movzbl (%eax),%eax
c0006bb5:	3c 2e                	cmp    $0x2e,%al
c0006bb7:	75 60                	jne    c0006c19 <vsnprintf+0x183>
c0006bb9:	8b 45 10             	mov    0x10(%ebp),%eax
c0006bbc:	83 c0 01             	add    $0x1,%eax
c0006bbf:	89 45 10             	mov    %eax,0x10(%ebp)
c0006bc2:	8b 45 10             	mov    0x10(%ebp),%eax
c0006bc5:	0f b6 00             	movzbl (%eax),%eax
c0006bc8:	0f b6 c0             	movzbl %al,%eax
c0006bcb:	0f b6 80 c0 a9 00 c0 	movzbl -0x3fff5640(%eax),%eax
c0006bd2:	0f b6 c0             	movzbl %al,%eax
c0006bd5:	83 e0 04             	and    $0x4,%eax
c0006bd8:	85 c0                	test   %eax,%eax
c0006bda:	74 10                	je     c0006bec <vsnprintf+0x156>
c0006bdc:	8d 45 10             	lea    0x10(%ebp),%eax
c0006bdf:	89 04 24             	mov    %eax,(%esp)
c0006be2:	e8 ab fa ff ff       	call   c0006692 <skip_atoi>
c0006be7:	89 45 d0             	mov    %eax,-0x30(%ebp)
c0006bea:	eb 20                	jmp    c0006c0c <vsnprintf+0x176>
c0006bec:	8b 45 10             	mov    0x10(%ebp),%eax
c0006bef:	0f b6 00             	movzbl (%eax),%eax
c0006bf2:	3c 2a                	cmp    $0x2a,%al
c0006bf4:	75 16                	jne    c0006c0c <vsnprintf+0x176>
c0006bf6:	8b 45 10             	mov    0x10(%ebp),%eax
c0006bf9:	83 c0 01             	add    $0x1,%eax
c0006bfc:	89 45 10             	mov    %eax,0x10(%ebp)
c0006bff:	83 45 14 04          	addl   $0x4,0x14(%ebp)
c0006c03:	8b 45 14             	mov    0x14(%ebp),%eax
c0006c06:	8b 40 fc             	mov    -0x4(%eax),%eax
c0006c09:	89 45 d0             	mov    %eax,-0x30(%ebp)
c0006c0c:	83 7d d0 00          	cmpl   $0x0,-0x30(%ebp)
c0006c10:	79 07                	jns    c0006c19 <vsnprintf+0x183>
c0006c12:	c7 45 d0 00 00 00 00 	movl   $0x0,-0x30(%ebp)
c0006c19:	c7 45 cc ff ff ff ff 	movl   $0xffffffff,-0x34(%ebp)
c0006c20:	8b 45 10             	mov    0x10(%ebp),%eax
c0006c23:	0f b6 00             	movzbl (%eax),%eax
c0006c26:	3c 68                	cmp    $0x68,%al
c0006c28:	74 1e                	je     c0006c48 <vsnprintf+0x1b2>
c0006c2a:	8b 45 10             	mov    0x10(%ebp),%eax
c0006c2d:	0f b6 00             	movzbl (%eax),%eax
c0006c30:	3c 6c                	cmp    $0x6c,%al
c0006c32:	74 14                	je     c0006c48 <vsnprintf+0x1b2>
c0006c34:	8b 45 10             	mov    0x10(%ebp),%eax
c0006c37:	0f b6 00             	movzbl (%eax),%eax
c0006c3a:	3c 4c                	cmp    $0x4c,%al
c0006c3c:	74 0a                	je     c0006c48 <vsnprintf+0x1b2>
c0006c3e:	8b 45 10             	mov    0x10(%ebp),%eax
c0006c41:	0f b6 00             	movzbl (%eax),%eax
c0006c44:	3c 5a                	cmp    $0x5a,%al
c0006c46:	75 35                	jne    c0006c7d <vsnprintf+0x1e7>
c0006c48:	8b 45 10             	mov    0x10(%ebp),%eax
c0006c4b:	0f b6 00             	movzbl (%eax),%eax
c0006c4e:	0f be c0             	movsbl %al,%eax
c0006c51:	89 45 cc             	mov    %eax,-0x34(%ebp)
c0006c54:	8b 45 10             	mov    0x10(%ebp),%eax
c0006c57:	83 c0 01             	add    $0x1,%eax
c0006c5a:	89 45 10             	mov    %eax,0x10(%ebp)
c0006c5d:	83 7d cc 6c          	cmpl   $0x6c,-0x34(%ebp)
c0006c61:	75 1a                	jne    c0006c7d <vsnprintf+0x1e7>
c0006c63:	8b 45 10             	mov    0x10(%ebp),%eax
c0006c66:	0f b6 00             	movzbl (%eax),%eax
c0006c69:	3c 6c                	cmp    $0x6c,%al
c0006c6b:	75 10                	jne    c0006c7d <vsnprintf+0x1e7>
c0006c6d:	c7 45 cc 4c 00 00 00 	movl   $0x4c,-0x34(%ebp)
c0006c74:	8b 45 10             	mov    0x10(%ebp),%eax
c0006c77:	83 c0 01             	add    $0x1,%eax
c0006c7a:	89 45 10             	mov    %eax,0x10(%ebp)
c0006c7d:	c7 45 e8 0a 00 00 00 	movl   $0xa,-0x18(%ebp)
c0006c84:	8b 45 10             	mov    0x10(%ebp),%eax
c0006c87:	0f b6 00             	movzbl (%eax),%eax
c0006c8a:	0f be c0             	movsbl %al,%eax
c0006c8d:	83 e8 25             	sub    $0x25,%eax
c0006c90:	83 f8 53             	cmp    $0x53,%eax
c0006c93:	0f 87 33 02 00 00    	ja     c0006ecc <vsnprintf+0x436>
c0006c99:	8b 04 85 64 8a 00 c0 	mov    -0x3fff759c(,%eax,4),%eax
c0006ca0:	ff e0                	jmp    *%eax
c0006ca2:	8b 45 d8             	mov    -0x28(%ebp),%eax
c0006ca5:	83 e0 10             	and    $0x10,%eax
c0006ca8:	85 c0                	test   %eax,%eax
c0006caa:	75 1e                	jne    c0006cca <vsnprintf+0x234>
c0006cac:	eb 12                	jmp    c0006cc0 <vsnprintf+0x22a>
c0006cae:	8b 45 e4             	mov    -0x1c(%ebp),%eax
c0006cb1:	3b 45 e0             	cmp    -0x20(%ebp),%eax
c0006cb4:	77 06                	ja     c0006cbc <vsnprintf+0x226>
c0006cb6:	8b 45 e4             	mov    -0x1c(%ebp),%eax
c0006cb9:	c6 00 20             	movb   $0x20,(%eax)
c0006cbc:	83 45 e4 01          	addl   $0x1,-0x1c(%ebp)
c0006cc0:	83 6d d4 01          	subl   $0x1,-0x2c(%ebp)
c0006cc4:	83 7d d4 00          	cmpl   $0x0,-0x2c(%ebp)
c0006cc8:	7f e4                	jg     c0006cae <vsnprintf+0x218>
c0006cca:	83 45 14 04          	addl   $0x4,0x14(%ebp)
c0006cce:	8b 45 14             	mov    0x14(%ebp),%eax
c0006cd1:	83 e8 04             	sub    $0x4,%eax
c0006cd4:	8b 00                	mov    (%eax),%eax
c0006cd6:	88 45 cb             	mov    %al,-0x35(%ebp)
c0006cd9:	8b 45 e4             	mov    -0x1c(%ebp),%eax
c0006cdc:	3b 45 e0             	cmp    -0x20(%ebp),%eax
c0006cdf:	77 09                	ja     c0006cea <vsnprintf+0x254>
c0006ce1:	8b 45 e4             	mov    -0x1c(%ebp),%eax
c0006ce4:	0f b6 55 cb          	movzbl -0x35(%ebp),%edx
c0006ce8:	88 10                	mov    %dl,(%eax)
c0006cea:	83 45 e4 01          	addl   $0x1,-0x1c(%ebp)
c0006cee:	eb 12                	jmp    c0006d02 <vsnprintf+0x26c>
c0006cf0:	8b 45 e4             	mov    -0x1c(%ebp),%eax
c0006cf3:	3b 45 e0             	cmp    -0x20(%ebp),%eax
c0006cf6:	77 06                	ja     c0006cfe <vsnprintf+0x268>
c0006cf8:	8b 45 e4             	mov    -0x1c(%ebp),%eax
c0006cfb:	c6 00 20             	movb   $0x20,(%eax)
c0006cfe:	83 45 e4 01          	addl   $0x1,-0x1c(%ebp)
c0006d02:	83 6d d4 01          	subl   $0x1,-0x2c(%ebp)
c0006d06:	83 7d d4 00          	cmpl   $0x0,-0x2c(%ebp)
c0006d0a:	7f e4                	jg     c0006cf0 <vsnprintf+0x25a>
c0006d0c:	e9 15 03 00 00       	jmp    c0007026 <vsnprintf+0x590>
c0006d11:	83 45 14 04          	addl   $0x4,0x14(%ebp)
c0006d15:	8b 45 14             	mov    0x14(%ebp),%eax
c0006d18:	8b 40 fc             	mov    -0x4(%eax),%eax
c0006d1b:	89 45 dc             	mov    %eax,-0x24(%ebp)
c0006d1e:	83 7d dc 00          	cmpl   $0x0,-0x24(%ebp)
c0006d22:	75 07                	jne    c0006d2b <vsnprintf+0x295>
c0006d24:	c7 45 dc 18 8a 00 c0 	movl   $0xc0008a18,-0x24(%ebp)
c0006d2b:	8b 45 d0             	mov    -0x30(%ebp),%eax
c0006d2e:	89 44 24 04          	mov    %eax,0x4(%esp)
c0006d32:	8b 45 dc             	mov    -0x24(%ebp),%eax
c0006d35:	89 04 24             	mov    %eax,(%esp)
c0006d38:	e8 39 f8 ff ff       	call   c0006576 <strnlen>
c0006d3d:	89 45 c4             	mov    %eax,-0x3c(%ebp)
c0006d40:	8b 45 d8             	mov    -0x28(%ebp),%eax
c0006d43:	83 e0 10             	and    $0x10,%eax
c0006d46:	85 c0                	test   %eax,%eax
c0006d48:	75 22                	jne    c0006d6c <vsnprintf+0x2d6>
c0006d4a:	eb 12                	jmp    c0006d5e <vsnprintf+0x2c8>
c0006d4c:	8b 45 e4             	mov    -0x1c(%ebp),%eax
c0006d4f:	3b 45 e0             	cmp    -0x20(%ebp),%eax
c0006d52:	77 06                	ja     c0006d5a <vsnprintf+0x2c4>
c0006d54:	8b 45 e4             	mov    -0x1c(%ebp),%eax
c0006d57:	c6 00 20             	movb   $0x20,(%eax)
c0006d5a:	83 45 e4 01          	addl   $0x1,-0x1c(%ebp)
c0006d5e:	8b 45 d4             	mov    -0x2c(%ebp),%eax
c0006d61:	8d 50 ff             	lea    -0x1(%eax),%edx
c0006d64:	89 55 d4             	mov    %edx,-0x2c(%ebp)
c0006d67:	3b 45 c4             	cmp    -0x3c(%ebp),%eax
c0006d6a:	7f e0                	jg     c0006d4c <vsnprintf+0x2b6>
c0006d6c:	c7 45 ec 00 00 00 00 	movl   $0x0,-0x14(%ebp)
c0006d73:	eb 1f                	jmp    c0006d94 <vsnprintf+0x2fe>
c0006d75:	8b 45 e4             	mov    -0x1c(%ebp),%eax
c0006d78:	3b 45 e0             	cmp    -0x20(%ebp),%eax
c0006d7b:	77 0b                	ja     c0006d88 <vsnprintf+0x2f2>
c0006d7d:	8b 45 dc             	mov    -0x24(%ebp),%eax
c0006d80:	0f b6 10             	movzbl (%eax),%edx
c0006d83:	8b 45 e4             	mov    -0x1c(%ebp),%eax
c0006d86:	88 10                	mov    %dl,(%eax)
c0006d88:	83 45 e4 01          	addl   $0x1,-0x1c(%ebp)
c0006d8c:	83 45 dc 01          	addl   $0x1,-0x24(%ebp)
c0006d90:	83 45 ec 01          	addl   $0x1,-0x14(%ebp)
c0006d94:	8b 45 ec             	mov    -0x14(%ebp),%eax
c0006d97:	3b 45 c4             	cmp    -0x3c(%ebp),%eax
c0006d9a:	7c d9                	jl     c0006d75 <vsnprintf+0x2df>
c0006d9c:	eb 12                	jmp    c0006db0 <vsnprintf+0x31a>
c0006d9e:	8b 45 e4             	mov    -0x1c(%ebp),%eax
c0006da1:	3b 45 e0             	cmp    -0x20(%ebp),%eax
c0006da4:	77 06                	ja     c0006dac <vsnprintf+0x316>
c0006da6:	8b 45 e4             	mov    -0x1c(%ebp),%eax
c0006da9:	c6 00 20             	movb   $0x20,(%eax)
c0006dac:	83 45 e4 01          	addl   $0x1,-0x1c(%ebp)
c0006db0:	8b 45 d4             	mov    -0x2c(%ebp),%eax
c0006db3:	8d 50 ff             	lea    -0x1(%eax),%edx
c0006db6:	89 55 d4             	mov    %edx,-0x2c(%ebp)
c0006db9:	3b 45 c4             	cmp    -0x3c(%ebp),%eax
c0006dbc:	7f e0                	jg     c0006d9e <vsnprintf+0x308>
c0006dbe:	e9 63 02 00 00       	jmp    c0007026 <vsnprintf+0x590>
c0006dc3:	83 7d d4 ff          	cmpl   $0xffffffff,-0x2c(%ebp)
c0006dc7:	75 0b                	jne    c0006dd4 <vsnprintf+0x33e>
c0006dc9:	c7 45 d4 08 00 00 00 	movl   $0x8,-0x2c(%ebp)
c0006dd0:	83 4d d8 01          	orl    $0x1,-0x28(%ebp)
c0006dd4:	83 45 14 04          	addl   $0x4,0x14(%ebp)
c0006dd8:	8b 45 14             	mov    0x14(%ebp),%eax
c0006ddb:	83 e8 04             	sub    $0x4,%eax
c0006dde:	8b 00                	mov    (%eax),%eax
c0006de0:	ba 00 00 00 00       	mov    $0x0,%edx
c0006de5:	8b 4d d8             	mov    -0x28(%ebp),%ecx
c0006de8:	89 4c 24 1c          	mov    %ecx,0x1c(%esp)
c0006dec:	8b 4d d0             	mov    -0x30(%ebp),%ecx
c0006def:	89 4c 24 18          	mov    %ecx,0x18(%esp)
c0006df3:	8b 4d d4             	mov    -0x2c(%ebp),%ecx
c0006df6:	89 4c 24 14          	mov    %ecx,0x14(%esp)
c0006dfa:	c7 44 24 10 10 00 00 	movl   $0x10,0x10(%esp)
c0006e01:	00 
c0006e02:	89 44 24 08          	mov    %eax,0x8(%esp)
c0006e06:	89 54 24 0c          	mov    %edx,0xc(%esp)
c0006e0a:	8b 45 e0             	mov    -0x20(%ebp),%eax
c0006e0d:	89 44 24 04          	mov    %eax,0x4(%esp)
c0006e11:	8b 45 e4             	mov    -0x1c(%ebp),%eax
c0006e14:	89 04 24             	mov    %eax,(%esp)
c0006e17:	e8 d4 f8 ff ff       	call   c00066f0 <number>
c0006e1c:	89 45 e4             	mov    %eax,-0x1c(%ebp)
c0006e1f:	e9 02 02 00 00       	jmp    c0007026 <vsnprintf+0x590>
c0006e24:	83 7d cc 6c          	cmpl   $0x6c,-0x34(%ebp)
c0006e28:	75 1c                	jne    c0006e46 <vsnprintf+0x3b0>
c0006e2a:	83 45 14 04          	addl   $0x4,0x14(%ebp)
c0006e2e:	8b 45 14             	mov    0x14(%ebp),%eax
c0006e31:	8b 40 fc             	mov    -0x4(%eax),%eax
c0006e34:	89 45 c0             	mov    %eax,-0x40(%ebp)
c0006e37:	8b 55 e4             	mov    -0x1c(%ebp),%edx
c0006e3a:	8b 45 08             	mov    0x8(%ebp),%eax
c0006e3d:	29 c2                	sub    %eax,%edx
c0006e3f:	8b 45 c0             	mov    -0x40(%ebp),%eax
c0006e42:	89 10                	mov    %edx,(%eax)
c0006e44:	eb 45                	jmp    c0006e8b <vsnprintf+0x3f5>
c0006e46:	83 7d cc 5a          	cmpl   $0x5a,-0x34(%ebp)
c0006e4a:	75 20                	jne    c0006e6c <vsnprintf+0x3d6>
c0006e4c:	83 45 14 04          	addl   $0x4,0x14(%ebp)
c0006e50:	8b 45 14             	mov    0x14(%ebp),%eax
c0006e53:	8b 40 fc             	mov    -0x4(%eax),%eax
c0006e56:	89 45 bc             	mov    %eax,-0x44(%ebp)
c0006e59:	8b 55 e4             	mov    -0x1c(%ebp),%edx
c0006e5c:	8b 45 08             	mov    0x8(%ebp),%eax
c0006e5f:	29 c2                	sub    %eax,%edx
c0006e61:	89 d0                	mov    %edx,%eax
c0006e63:	89 c2                	mov    %eax,%edx
c0006e65:	8b 45 bc             	mov    -0x44(%ebp),%eax
c0006e68:	89 10                	mov    %edx,(%eax)
c0006e6a:	eb 1f                	jmp    c0006e8b <vsnprintf+0x3f5>
c0006e6c:	83 45 14 04          	addl   $0x4,0x14(%ebp)
c0006e70:	8b 45 14             	mov    0x14(%ebp),%eax
c0006e73:	8b 40 fc             	mov    -0x4(%eax),%eax
c0006e76:	89 45 b8             	mov    %eax,-0x48(%ebp)
c0006e79:	8b 55 e4             	mov    -0x1c(%ebp),%edx
c0006e7c:	8b 45 08             	mov    0x8(%ebp),%eax
c0006e7f:	29 c2                	sub    %eax,%edx
c0006e81:	8b 45 b8             	mov    -0x48(%ebp),%eax
c0006e84:	89 10                	mov    %edx,(%eax)
c0006e86:	e9 9b 01 00 00       	jmp    c0007026 <vsnprintf+0x590>
c0006e8b:	e9 96 01 00 00       	jmp    c0007026 <vsnprintf+0x590>
c0006e90:	8b 45 e4             	mov    -0x1c(%ebp),%eax
c0006e93:	3b 45 e0             	cmp    -0x20(%ebp),%eax
c0006e96:	77 06                	ja     c0006e9e <vsnprintf+0x408>
c0006e98:	8b 45 e4             	mov    -0x1c(%ebp),%eax
c0006e9b:	c6 00 25             	movb   $0x25,(%eax)
c0006e9e:	83 45 e4 01          	addl   $0x1,-0x1c(%ebp)
c0006ea2:	e9 7f 01 00 00       	jmp    c0007026 <vsnprintf+0x590>
c0006ea7:	c7 45 e8 08 00 00 00 	movl   $0x8,-0x18(%ebp)
c0006eae:	eb 63                	jmp    c0006f13 <vsnprintf+0x47d>
c0006eb0:	83 4d d8 40          	orl    $0x40,-0x28(%ebp)
c0006eb4:	c7 45 e8 10 00 00 00 	movl   $0x10,-0x18(%ebp)
c0006ebb:	eb 56                	jmp    c0006f13 <vsnprintf+0x47d>
c0006ebd:	c7 45 e8 10 00 00 00 	movl   $0x10,-0x18(%ebp)
c0006ec4:	eb 4d                	jmp    c0006f13 <vsnprintf+0x47d>
c0006ec6:	83 4d d8 02          	orl    $0x2,-0x28(%ebp)
c0006eca:	eb 47                	jmp    c0006f13 <vsnprintf+0x47d>
c0006ecc:	8b 45 e4             	mov    -0x1c(%ebp),%eax
c0006ecf:	3b 45 e0             	cmp    -0x20(%ebp),%eax
c0006ed2:	77 06                	ja     c0006eda <vsnprintf+0x444>
c0006ed4:	8b 45 e4             	mov    -0x1c(%ebp),%eax
c0006ed7:	c6 00 25             	movb   $0x25,(%eax)
c0006eda:	83 45 e4 01          	addl   $0x1,-0x1c(%ebp)
c0006ede:	8b 45 10             	mov    0x10(%ebp),%eax
c0006ee1:	0f b6 00             	movzbl (%eax),%eax
c0006ee4:	84 c0                	test   %al,%al
c0006ee6:	74 1c                	je     c0006f04 <vsnprintf+0x46e>
c0006ee8:	8b 45 e4             	mov    -0x1c(%ebp),%eax
c0006eeb:	3b 45 e0             	cmp    -0x20(%ebp),%eax
c0006eee:	77 0b                	ja     c0006efb <vsnprintf+0x465>
c0006ef0:	8b 45 10             	mov    0x10(%ebp),%eax
c0006ef3:	0f b6 10             	movzbl (%eax),%edx
c0006ef6:	8b 45 e4             	mov    -0x1c(%ebp),%eax
c0006ef9:	88 10                	mov    %dl,(%eax)
c0006efb:	83 45 e4 01          	addl   $0x1,-0x1c(%ebp)
c0006eff:	e9 22 01 00 00       	jmp    c0007026 <vsnprintf+0x590>
c0006f04:	8b 45 10             	mov    0x10(%ebp),%eax
c0006f07:	83 e8 01             	sub    $0x1,%eax
c0006f0a:	89 45 10             	mov    %eax,0x10(%ebp)
c0006f0d:	e9 14 01 00 00       	jmp    c0007026 <vsnprintf+0x590>
c0006f12:	90                   	nop
c0006f13:	83 7d cc 4c          	cmpl   $0x4c,-0x34(%ebp)
c0006f17:	75 1a                	jne    c0006f33 <vsnprintf+0x49d>
c0006f19:	83 45 14 08          	addl   $0x8,0x14(%ebp)
c0006f1d:	8b 45 14             	mov    0x14(%ebp),%eax
c0006f20:	83 e8 08             	sub    $0x8,%eax
c0006f23:	8b 50 04             	mov    0x4(%eax),%edx
c0006f26:	8b 00                	mov    (%eax),%eax
c0006f28:	89 45 f0             	mov    %eax,-0x10(%ebp)
c0006f2b:	89 55 f4             	mov    %edx,-0xc(%ebp)
c0006f2e:	e9 b4 00 00 00       	jmp    c0006fe7 <vsnprintf+0x551>
c0006f33:	83 7d cc 6c          	cmpl   $0x6c,-0x34(%ebp)
c0006f37:	75 30                	jne    c0006f69 <vsnprintf+0x4d3>
c0006f39:	83 45 14 04          	addl   $0x4,0x14(%ebp)
c0006f3d:	8b 45 14             	mov    0x14(%ebp),%eax
c0006f40:	83 e8 04             	sub    $0x4,%eax
c0006f43:	8b 00                	mov    (%eax),%eax
c0006f45:	89 45 f0             	mov    %eax,-0x10(%ebp)
c0006f48:	c7 45 f4 00 00 00 00 	movl   $0x0,-0xc(%ebp)
c0006f4f:	8b 45 d8             	mov    -0x28(%ebp),%eax
c0006f52:	83 e0 02             	and    $0x2,%eax
c0006f55:	85 c0                	test   %eax,%eax
c0006f57:	0f 84 8a 00 00 00    	je     c0006fe7 <vsnprintf+0x551>
c0006f5d:	8b 45 f0             	mov    -0x10(%ebp),%eax
c0006f60:	99                   	cltd   
c0006f61:	89 45 f0             	mov    %eax,-0x10(%ebp)
c0006f64:	89 55 f4             	mov    %edx,-0xc(%ebp)
c0006f67:	eb 7e                	jmp    c0006fe7 <vsnprintf+0x551>
c0006f69:	83 7d cc 5a          	cmpl   $0x5a,-0x34(%ebp)
c0006f6d:	75 18                	jne    c0006f87 <vsnprintf+0x4f1>
c0006f6f:	83 45 14 04          	addl   $0x4,0x14(%ebp)
c0006f73:	8b 45 14             	mov    0x14(%ebp),%eax
c0006f76:	83 e8 04             	sub    $0x4,%eax
c0006f79:	8b 00                	mov    (%eax),%eax
c0006f7b:	89 45 f0             	mov    %eax,-0x10(%ebp)
c0006f7e:	c7 45 f4 00 00 00 00 	movl   $0x0,-0xc(%ebp)
c0006f85:	eb 60                	jmp    c0006fe7 <vsnprintf+0x551>
c0006f87:	83 7d cc 68          	cmpl   $0x68,-0x34(%ebp)
c0006f8b:	75 30                	jne    c0006fbd <vsnprintf+0x527>
c0006f8d:	83 45 14 04          	addl   $0x4,0x14(%ebp)
c0006f91:	8b 45 14             	mov    0x14(%ebp),%eax
c0006f94:	83 e8 04             	sub    $0x4,%eax
c0006f97:	8b 00                	mov    (%eax),%eax
c0006f99:	0f b7 c0             	movzwl %ax,%eax
c0006f9c:	89 45 f0             	mov    %eax,-0x10(%ebp)
c0006f9f:	c7 45 f4 00 00 00 00 	movl   $0x0,-0xc(%ebp)
c0006fa6:	8b 45 d8             	mov    -0x28(%ebp),%eax
c0006fa9:	83 e0 02             	and    $0x2,%eax
c0006fac:	85 c0                	test   %eax,%eax
c0006fae:	74 37                	je     c0006fe7 <vsnprintf+0x551>
c0006fb0:	8b 45 f0             	mov    -0x10(%ebp),%eax
c0006fb3:	98                   	cwtl   
c0006fb4:	99                   	cltd   
c0006fb5:	89 45 f0             	mov    %eax,-0x10(%ebp)
c0006fb8:	89 55 f4             	mov    %edx,-0xc(%ebp)
c0006fbb:	eb 2a                	jmp    c0006fe7 <vsnprintf+0x551>
c0006fbd:	83 45 14 04          	addl   $0x4,0x14(%ebp)
c0006fc1:	8b 45 14             	mov    0x14(%ebp),%eax
c0006fc4:	83 e8 04             	sub    $0x4,%eax
c0006fc7:	8b 00                	mov    (%eax),%eax
c0006fc9:	89 45 f0             	mov    %eax,-0x10(%ebp)
c0006fcc:	c7 45 f4 00 00 00 00 	movl   $0x0,-0xc(%ebp)
c0006fd3:	8b 45 d8             	mov    -0x28(%ebp),%eax
c0006fd6:	83 e0 02             	and    $0x2,%eax
c0006fd9:	85 c0                	test   %eax,%eax
c0006fdb:	74 0a                	je     c0006fe7 <vsnprintf+0x551>
c0006fdd:	8b 45 f0             	mov    -0x10(%ebp),%eax
c0006fe0:	99                   	cltd   
c0006fe1:	89 45 f0             	mov    %eax,-0x10(%ebp)
c0006fe4:	89 55 f4             	mov    %edx,-0xc(%ebp)
c0006fe7:	8b 45 f0             	mov    -0x10(%ebp),%eax
c0006fea:	8b 55 f4             	mov    -0xc(%ebp),%edx
c0006fed:	8b 4d d8             	mov    -0x28(%ebp),%ecx
c0006ff0:	89 4c 24 1c          	mov    %ecx,0x1c(%esp)
c0006ff4:	8b 4d d0             	mov    -0x30(%ebp),%ecx
c0006ff7:	89 4c 24 18          	mov    %ecx,0x18(%esp)
c0006ffb:	8b 4d d4             	mov    -0x2c(%ebp),%ecx
c0006ffe:	89 4c 24 14          	mov    %ecx,0x14(%esp)
c0007002:	8b 4d e8             	mov    -0x18(%ebp),%ecx
c0007005:	89 4c 24 10          	mov    %ecx,0x10(%esp)
c0007009:	89 44 24 08          	mov    %eax,0x8(%esp)
c000700d:	89 54 24 0c          	mov    %edx,0xc(%esp)
c0007011:	8b 45 e0             	mov    -0x20(%ebp),%eax
c0007014:	89 44 24 04          	mov    %eax,0x4(%esp)
c0007018:	8b 45 e4             	mov    -0x1c(%ebp),%eax
c000701b:	89 04 24             	mov    %eax,(%esp)
c000701e:	e8 cd f6 ff ff       	call   c00066f0 <number>
c0007023:	89 45 e4             	mov    %eax,-0x1c(%ebp)
c0007026:	8b 45 10             	mov    0x10(%ebp),%eax
c0007029:	83 c0 01             	add    $0x1,%eax
c000702c:	89 45 10             	mov    %eax,0x10(%ebp)
c000702f:	8b 45 10             	mov    0x10(%ebp),%eax
c0007032:	0f b6 00             	movzbl (%eax),%eax
c0007035:	84 c0                	test   %al,%al
c0007037:	0f 85 9f fa ff ff    	jne    c0006adc <vsnprintf+0x46>
c000703d:	8b 45 e4             	mov    -0x1c(%ebp),%eax
c0007040:	3b 45 e0             	cmp    -0x20(%ebp),%eax
c0007043:	77 08                	ja     c000704d <vsnprintf+0x5b7>
c0007045:	8b 45 e4             	mov    -0x1c(%ebp),%eax
c0007048:	c6 00 00             	movb   $0x0,(%eax)
c000704b:	eb 0c                	jmp    c0007059 <vsnprintf+0x5c3>
c000704d:	83 7d 0c 00          	cmpl   $0x0,0xc(%ebp)
c0007051:	74 06                	je     c0007059 <vsnprintf+0x5c3>
c0007053:	8b 45 e0             	mov    -0x20(%ebp),%eax
c0007056:	c6 00 00             	movb   $0x0,(%eax)
c0007059:	8b 55 e4             	mov    -0x1c(%ebp),%edx
c000705c:	8b 45 08             	mov    0x8(%ebp),%eax
c000705f:	29 c2                	sub    %eax,%edx
c0007061:	89 d0                	mov    %edx,%eax
c0007063:	c9                   	leave  
c0007064:	c3                   	ret    

c0007065 <inport08>:
inport08():
c0007065:	55                   	push   %ebp
c0007066:	89 e5                	mov    %esp,%ebp
c0007068:	83 ec 14             	sub    $0x14,%esp
c000706b:	8b 45 08             	mov    0x8(%ebp),%eax
c000706e:	66 89 45 ec          	mov    %ax,-0x14(%ebp)
c0007072:	0f b7 45 ec          	movzwl -0x14(%ebp),%eax
c0007076:	89 c2                	mov    %eax,%edx
c0007078:	ec                   	in     (%dx),%al
c0007079:	88 45 ff             	mov    %al,-0x1(%ebp)
c000707c:	0f b6 45 ff          	movzbl -0x1(%ebp),%eax
c0007080:	c9                   	leave  
c0007081:	c3                   	ret    

c0007082 <outport08>:
outport08():
c0007082:	55                   	push   %ebp
c0007083:	89 e5                	mov    %esp,%ebp
c0007085:	83 ec 08             	sub    $0x8,%esp
c0007088:	8b 55 08             	mov    0x8(%ebp),%edx
c000708b:	8b 45 0c             	mov    0xc(%ebp),%eax
c000708e:	66 89 55 fc          	mov    %dx,-0x4(%ebp)
c0007092:	88 45 f8             	mov    %al,-0x8(%ebp)
c0007095:	0f b7 55 fc          	movzwl -0x4(%ebp),%edx
c0007099:	0f b6 45 f8          	movzbl -0x8(%ebp),%eax
c000709d:	ee                   	out    %al,(%dx)
c000709e:	c9                   	leave  
c000709f:	c3                   	ret    

c00070a0 <memcpy08>:
memcpy08():
c00070a0:	55                   	push   %ebp
c00070a1:	89 e5                	mov    %esp,%ebp
c00070a3:	57                   	push   %edi
c00070a4:	56                   	push   %esi
c00070a5:	8b 45 08             	mov    0x8(%ebp),%eax
c00070a8:	8b 55 0c             	mov    0xc(%ebp),%edx
c00070ab:	8b 4d 10             	mov    0x10(%ebp),%ecx
c00070ae:	89 c7                	mov    %eax,%edi
c00070b0:	89 d6                	mov    %edx,%esi
c00070b2:	fc                   	cld    
c00070b3:	f3 a4                	rep movsb %ds:(%esi),%es:(%edi)
c00070b5:	5e                   	pop    %esi
c00070b6:	5f                   	pop    %edi
c00070b7:	5d                   	pop    %ebp
c00070b8:	c3                   	ret    

c00070b9 <fdc_sendbyte>:
fdc_sendbyte():
c00070b9:	55                   	push   %ebp
c00070ba:	89 e5                	mov    %esp,%ebp
c00070bc:	83 ec 1c             	sub    $0x1c,%esp
c00070bf:	8b 45 08             	mov    0x8(%ebp),%eax
c00070c2:	88 45 ec             	mov    %al,-0x14(%ebp)
c00070c5:	c7 45 fc 00 00 00 00 	movl   $0x0,-0x4(%ebp)
c00070cc:	eb 47                	jmp    c0007115 <fdc_sendbyte+0x5c>
c00070ce:	c7 04 24 f4 03 00 00 	movl   $0x3f4,(%esp)
c00070d5:	e8 8b ff ff ff       	call   c0007065 <inport08>
c00070da:	0f b6 c0             	movzbl %al,%eax
c00070dd:	89 45 f8             	mov    %eax,-0x8(%ebp)
c00070e0:	8b 45 f8             	mov    -0x8(%ebp),%eax
c00070e3:	25 c0 00 00 00       	and    $0xc0,%eax
c00070e8:	3d 80 00 00 00       	cmp    $0x80,%eax
c00070ed:	75 16                	jne    c0007105 <fdc_sendbyte+0x4c>
c00070ef:	0f b6 45 ec          	movzbl -0x14(%ebp),%eax
c00070f3:	89 44 24 04          	mov    %eax,0x4(%esp)
c00070f7:	c7 04 24 f5 03 00 00 	movl   $0x3f5,(%esp)
c00070fe:	e8 7f ff ff ff       	call   c0007082 <outport08>
c0007103:	eb 16                	jmp    c000711b <fdc_sendbyte+0x62>
c0007105:	c7 04 24 80 00 00 00 	movl   $0x80,(%esp)
c000710c:	e8 54 ff ff ff       	call   c0007065 <inport08>
c0007111:	83 45 fc 01          	addl   $0x1,-0x4(%ebp)
c0007115:	83 7d fc 7f          	cmpl   $0x7f,-0x4(%ebp)
c0007119:	7e b3                	jle    c00070ce <fdc_sendbyte+0x15>
c000711b:	c9                   	leave  
c000711c:	c3                   	ret    

c000711d <fdc_getbyte>:
fdc_getbyte():
c000711d:	55                   	push   %ebp
c000711e:	89 e5                	mov    %esp,%ebp
c0007120:	83 ec 14             	sub    $0x14,%esp
c0007123:	c7 45 fc 00 00 00 00 	movl   $0x0,-0x4(%ebp)
c000712a:	eb 42                	jmp    c000716e <fdc_getbyte+0x51>
c000712c:	c7 04 24 f4 03 00 00 	movl   $0x3f4,(%esp)
c0007133:	e8 2d ff ff ff       	call   c0007065 <inport08>
c0007138:	0f b6 c0             	movzbl %al,%eax
c000713b:	89 45 f8             	mov    %eax,-0x8(%ebp)
c000713e:	8b 45 f8             	mov    -0x8(%ebp),%eax
c0007141:	25 d0 00 00 00       	and    $0xd0,%eax
c0007146:	3d d0 00 00 00       	cmp    $0xd0,%eax
c000714b:	75 11                	jne    c000715e <fdc_getbyte+0x41>
c000714d:	c7 04 24 f5 03 00 00 	movl   $0x3f5,(%esp)
c0007154:	e8 0c ff ff ff       	call   c0007065 <inport08>
c0007159:	0f b6 c0             	movzbl %al,%eax
c000715c:	eb 1b                	jmp    c0007179 <fdc_getbyte+0x5c>
c000715e:	c7 04 24 80 00 00 00 	movl   $0x80,(%esp)
c0007165:	e8 fb fe ff ff       	call   c0007065 <inport08>
c000716a:	83 45 fc 01          	addl   $0x1,-0x4(%ebp)
c000716e:	83 7d fc 7f          	cmpl   $0x7f,-0x4(%ebp)
c0007172:	7e b8                	jle    c000712c <fdc_getbyte+0xf>
c0007174:	b8 ff ff ff ff       	mov    $0xffffffff,%eax
c0007179:	c9                   	leave  
c000717a:	c3                   	ret    

c000717b <fdc_motor_on>:
fdc_motor_on():
c000717b:	55                   	push   %ebp
c000717c:	89 e5                	mov    %esp,%ebp
c000717e:	83 ec 18             	sub    $0x18,%esp
c0007181:	a1 54 b5 01 c0       	mov    0xc001b554,%eax
c0007186:	85 c0                	test   %eax,%eax
c0007188:	75 2a                	jne    c00071b4 <fdc_motor_on+0x39>
c000718a:	c7 44 24 04 1c 00 00 	movl   $0x1c,0x4(%esp)
c0007191:	00 
c0007192:	c7 04 24 f2 03 00 00 	movl   $0x3f2,(%esp)
c0007199:	e8 e4 fe ff ff       	call   c0007082 <outport08>
c000719e:	c7 04 24 f4 01 00 00 	movl   $0x1f4,(%esp)
c00071a5:	e8 f2 9e ff ff       	call   c000109c <delay>
c00071aa:	c7 05 54 b5 01 c0 01 	movl   $0x1,0xc001b554
c00071b1:	00 00 00 
c00071b4:	c7 05 5c b5 01 c0 ff 	movl   $0xffffffff,0xc001b55c
c00071bb:	ff ff ff 
c00071be:	c9                   	leave  
c00071bf:	c3                   	ret    

c00071c0 <fdc_motor_off>:
fdc_motor_off():
c00071c0:	55                   	push   %ebp
c00071c1:	89 e5                	mov    %esp,%ebp
c00071c3:	a1 54 b5 01 c0       	mov    0xc001b554,%eax
c00071c8:	85 c0                	test   %eax,%eax
c00071ca:	74 14                	je     c00071e0 <fdc_motor_off+0x20>
c00071cc:	a1 5c b5 01 c0       	mov    0xc001b55c,%eax
c00071d1:	83 f8 ff             	cmp    $0xffffffff,%eax
c00071d4:	75 0a                	jne    c00071e0 <fdc_motor_off+0x20>
c00071d6:	c7 05 5c b5 01 c0 58 	movl   $0x258,0xc001b55c
c00071dd:	02 00 00 
c00071e0:	5d                   	pop    %ebp
c00071e1:	c3                   	ret    

c00071e2 <fdc_wait>:
fdc_wait():
c00071e2:	55                   	push   %ebp
c00071e3:	89 e5                	mov    %esp,%ebp
c00071e5:	53                   	push   %ebx
c00071e6:	83 ec 14             	sub    $0x14,%esp
c00071e9:	c7 05 58 b5 01 c0 c8 	movl   $0xc8,0xc001b558
c00071f0:	00 00 00 
c00071f3:	eb 02                	jmp    c00071f7 <fdc_wait+0x15>
c00071f5:	fb                   	sti    
c00071f6:	f4                   	hlt    
c00071f7:	a1 60 b5 01 c0       	mov    0xc001b560,%eax
c00071fc:	85 c0                	test   %eax,%eax
c00071fe:	75 09                	jne    c0007209 <fdc_wait+0x27>
c0007200:	a1 58 b5 01 c0       	mov    0xc001b558,%eax
c0007205:	85 c0                	test   %eax,%eax
c0007207:	75 ec                	jne    c00071f5 <fdc_wait+0x13>
c0007209:	c7 45 f8 00 00 00 00 	movl   $0x0,-0x8(%ebp)
c0007210:	eb 14                	jmp    c0007226 <fdc_wait+0x44>
c0007212:	8b 5d f8             	mov    -0x8(%ebp),%ebx
c0007215:	8d 43 01             	lea    0x1(%ebx),%eax
c0007218:	89 45 f8             	mov    %eax,-0x8(%ebp)
c000721b:	e8 fd fe ff ff       	call   c000711d <fdc_getbyte>
c0007220:	88 83 68 b5 01 c0    	mov    %al,-0x3ffe4a98(%ebx)
c0007226:	83 7d f8 06          	cmpl   $0x6,-0x8(%ebp)
c000722a:	7f 16                	jg     c0007242 <fdc_wait+0x60>
c000722c:	c7 04 24 f4 03 00 00 	movl   $0x3f4,(%esp)
c0007233:	e8 2d fe ff ff       	call   c0007065 <inport08>
c0007238:	0f b6 c0             	movzbl %al,%eax
c000723b:	83 e0 10             	and    $0x10,%eax
c000723e:	85 c0                	test   %eax,%eax
c0007240:	75 d0                	jne    c0007212 <fdc_wait+0x30>
c0007242:	83 7d 08 00          	cmpl   $0x0,0x8(%ebp)
c0007246:	74 20                	je     c0007268 <fdc_wait+0x86>
c0007248:	c7 04 24 08 00 00 00 	movl   $0x8,(%esp)
c000724f:	e8 65 fe ff ff       	call   c00070b9 <fdc_sendbyte>
c0007254:	e8 c4 fe ff ff       	call   c000711d <fdc_getbyte>
c0007259:	a2 6f b5 01 c0       	mov    %al,0xc001b56f
c000725e:	e8 ba fe ff ff       	call   c000711d <fdc_getbyte>
c0007263:	a2 c0 aa 00 c0       	mov    %al,0xc000aac0
c0007268:	a1 60 b5 01 c0       	mov    0xc001b560,%eax
c000726d:	85 c0                	test   %eax,%eax
c000726f:	75 21                	jne    c0007292 <fdc_wait+0xb0>
c0007271:	c7 04 24 f7 03 00 00 	movl   $0x3f7,(%esp)
c0007278:	e8 e8 fd ff ff       	call   c0007065 <inport08>
c000727d:	84 c0                	test   %al,%al
c000727f:	79 0a                	jns    c000728b <fdc_wait+0xa9>
c0007281:	c7 05 64 b5 01 c0 01 	movl   $0x1,0xc001b564
c0007288:	00 00 00 
c000728b:	b8 00 00 00 00       	mov    $0x0,%eax
c0007290:	eb 0f                	jmp    c00072a1 <fdc_wait+0xbf>
c0007292:	c7 05 60 b5 01 c0 00 	movl   $0x0,0xc001b560
c0007299:	00 00 00 
c000729c:	b8 01 00 00 00       	mov    $0x1,%eax
c00072a1:	83 c4 14             	add    $0x14,%esp
c00072a4:	5b                   	pop    %ebx
c00072a5:	5d                   	pop    %ebp
c00072a6:	c3                   	ret    

c00072a7 <fdc_recalibrate>:
fdc_recalibrate():
c00072a7:	55                   	push   %ebp
c00072a8:	89 e5                	mov    %esp,%ebp
c00072aa:	83 ec 18             	sub    $0x18,%esp
c00072ad:	e8 c9 fe ff ff       	call   c000717b <fdc_motor_on>
c00072b2:	c7 04 24 07 00 00 00 	movl   $0x7,(%esp)
c00072b9:	e8 fb fd ff ff       	call   c00070b9 <fdc_sendbyte>
c00072be:	c7 04 24 00 00 00 00 	movl   $0x0,(%esp)
c00072c5:	e8 ef fd ff ff       	call   c00070b9 <fdc_sendbyte>
c00072ca:	c7 04 24 01 00 00 00 	movl   $0x1,(%esp)
c00072d1:	e8 0c ff ff ff       	call   c00071e2 <fdc_wait>
c00072d6:	e8 e5 fe ff ff       	call   c00071c0 <fdc_motor_off>
c00072db:	c9                   	leave  
c00072dc:	c3                   	ret    

c00072dd <fdc_seek>:
fdc_seek():
c00072dd:	55                   	push   %ebp
c00072de:	89 e5                	mov    %esp,%ebp
c00072e0:	83 ec 18             	sub    $0x18,%esp
c00072e3:	0f b6 05 c0 aa 00 c0 	movzbl 0xc000aac0,%eax
c00072ea:	0f b6 c0             	movzbl %al,%eax
c00072ed:	3b 45 08             	cmp    0x8(%ebp),%eax
c00072f0:	75 07                	jne    c00072f9 <fdc_seek+0x1c>
c00072f2:	b8 01 00 00 00       	mov    $0x1,%eax
c00072f7:	eb 7e                	jmp    c0007377 <fdc_seek+0x9a>
c00072f9:	e8 7d fe ff ff       	call   c000717b <fdc_motor_on>
c00072fe:	c7 04 24 0f 00 00 00 	movl   $0xf,(%esp)
c0007305:	e8 af fd ff ff       	call   c00070b9 <fdc_sendbyte>
c000730a:	c7 04 24 00 00 00 00 	movl   $0x0,(%esp)
c0007311:	e8 a3 fd ff ff       	call   c00070b9 <fdc_sendbyte>
c0007316:	8b 45 08             	mov    0x8(%ebp),%eax
c0007319:	0f b6 c0             	movzbl %al,%eax
c000731c:	89 04 24             	mov    %eax,(%esp)
c000731f:	e8 95 fd ff ff       	call   c00070b9 <fdc_sendbyte>
c0007324:	c7 04 24 01 00 00 00 	movl   $0x1,(%esp)
c000732b:	e8 b2 fe ff ff       	call   c00071e2 <fdc_wait>
c0007330:	85 c0                	test   %eax,%eax
c0007332:	75 0c                	jne    c0007340 <fdc_seek+0x63>
c0007334:	e8 87 fe ff ff       	call   c00071c0 <fdc_motor_off>
c0007339:	b8 00 00 00 00       	mov    $0x0,%eax
c000733e:	eb 37                	jmp    c0007377 <fdc_seek+0x9a>
c0007340:	c7 04 24 0f 00 00 00 	movl   $0xf,(%esp)
c0007347:	e8 50 9d ff ff       	call   c000109c <delay>
c000734c:	e8 6f fe ff ff       	call   c00071c0 <fdc_motor_off>
c0007351:	0f b6 05 6f b5 01 c0 	movzbl 0xc001b56f,%eax
c0007358:	3c 20                	cmp    $0x20,%al
c000735a:	75 0f                	jne    c000736b <fdc_seek+0x8e>
c000735c:	0f b6 05 c0 aa 00 c0 	movzbl 0xc000aac0,%eax
c0007363:	0f b6 c0             	movzbl %al,%eax
c0007366:	3b 45 08             	cmp    0x8(%ebp),%eax
c0007369:	74 07                	je     c0007372 <fdc_seek+0x95>
c000736b:	b8 00 00 00 00       	mov    $0x0,%eax
c0007370:	eb 05                	jmp    c0007377 <fdc_seek+0x9a>
c0007372:	b8 01 00 00 00       	mov    $0x1,%eax
c0007377:	c9                   	leave  
c0007378:	c3                   	ret    

c0007379 <fdc_reset>:
fdc_reset():
c0007379:	55                   	push   %ebp
c000737a:	89 e5                	mov    %esp,%ebp
c000737c:	83 ec 18             	sub    $0x18,%esp
c000737f:	c7 44 24 04 00 00 00 	movl   $0x0,0x4(%esp)
c0007386:	00 
c0007387:	c7 04 24 f2 03 00 00 	movl   $0x3f2,(%esp)
c000738e:	e8 ef fc ff ff       	call   c0007082 <outport08>
c0007393:	c7 44 24 04 00 00 00 	movl   $0x0,0x4(%esp)
c000739a:	00 
c000739b:	c7 04 24 f4 03 00 00 	movl   $0x3f4,(%esp)
c00073a2:	e8 db fc ff ff       	call   c0007082 <outport08>
c00073a7:	c7 44 24 04 0c 00 00 	movl   $0xc,0x4(%esp)
c00073ae:	00 
c00073af:	c7 04 24 f2 03 00 00 	movl   $0x3f2,(%esp)
c00073b6:	e8 c7 fc ff ff       	call   c0007082 <outport08>
c00073bb:	c7 05 60 b5 01 c0 01 	movl   $0x1,0xc001b560
c00073c2:	00 00 00 
c00073c5:	c7 04 24 01 00 00 00 	movl   $0x1,(%esp)
c00073cc:	e8 11 fe ff ff       	call   c00071e2 <fdc_wait>
c00073d1:	c7 04 24 03 00 00 00 	movl   $0x3,(%esp)
c00073d8:	e8 dc fc ff ff       	call   c00070b9 <fdc_sendbyte>
c00073dd:	c7 04 24 df 00 00 00 	movl   $0xdf,(%esp)
c00073e4:	e8 d0 fc ff ff       	call   c00070b9 <fdc_sendbyte>
c00073e9:	c7 04 24 02 00 00 00 	movl   $0x2,(%esp)
c00073f0:	e8 c4 fc ff ff       	call   c00070b9 <fdc_sendbyte>
c00073f5:	c7 04 24 01 00 00 00 	movl   $0x1,(%esp)
c00073fc:	e8 dc fe ff ff       	call   c00072dd <fdc_seek>
c0007401:	e8 a1 fe ff ff       	call   c00072a7 <fdc_recalibrate>
c0007406:	c7 05 64 b5 01 c0 00 	movl   $0x0,0xc001b564
c000740d:	00 00 00 
c0007410:	c9                   	leave  
c0007411:	c3                   	ret    

c0007412 <lba2chs>:
lba2chs():
c0007412:	55                   	push   %ebp
c0007413:	89 e5                	mov    %esp,%ebp
c0007415:	57                   	push   %edi
c0007416:	56                   	push   %esi
c0007417:	53                   	push   %ebx
c0007418:	8b 4d 08             	mov    0x8(%ebp),%ecx
c000741b:	0f b6 05 70 b5 01 c0 	movzbl 0xc001b570,%eax
c0007422:	0f b6 d0             	movzbl %al,%edx
c0007425:	89 d0                	mov    %edx,%eax
c0007427:	01 c0                	add    %eax,%eax
c0007429:	01 d0                	add    %edx,%eax
c000742b:	c1 e0 03             	shl    $0x3,%eax
c000742e:	05 e0 aa 00 c0       	add    $0xc000aae0,%eax
c0007433:	8b 58 04             	mov    0x4(%eax),%ebx
c0007436:	0f b6 05 70 b5 01 c0 	movzbl 0xc001b570,%eax
c000743d:	0f b6 d0             	movzbl %al,%edx
c0007440:	89 d0                	mov    %edx,%eax
c0007442:	01 c0                	add    %eax,%eax
c0007444:	01 d0                	add    %edx,%eax
c0007446:	c1 e0 03             	shl    $0x3,%eax
c0007449:	05 e0 aa 00 c0       	add    $0xc000aae0,%eax
c000744e:	8b 40 08             	mov    0x8(%eax),%eax
c0007451:	0f af d8             	imul   %eax,%ebx
c0007454:	89 de                	mov    %ebx,%esi
c0007456:	89 c8                	mov    %ecx,%eax
c0007458:	ba 00 00 00 00       	mov    $0x0,%edx
c000745d:	f7 f6                	div    %esi
c000745f:	89 c2                	mov    %eax,%edx
c0007461:	8b 45 0c             	mov    0xc(%ebp),%eax
c0007464:	89 10                	mov    %edx,(%eax)
c0007466:	8b 4d 08             	mov    0x8(%ebp),%ecx
c0007469:	0f b6 05 70 b5 01 c0 	movzbl 0xc001b570,%eax
c0007470:	0f b6 d0             	movzbl %al,%edx
c0007473:	89 d0                	mov    %edx,%eax
c0007475:	01 c0                	add    %eax,%eax
c0007477:	01 d0                	add    %edx,%eax
c0007479:	c1 e0 03             	shl    $0x3,%eax
c000747c:	05 e0 aa 00 c0       	add    $0xc000aae0,%eax
c0007481:	8b 78 04             	mov    0x4(%eax),%edi
c0007484:	89 c8                	mov    %ecx,%eax
c0007486:	ba 00 00 00 00       	mov    $0x0,%edx
c000748b:	f7 f7                	div    %edi
c000748d:	89 c1                	mov    %eax,%ecx
c000748f:	0f b6 05 70 b5 01 c0 	movzbl 0xc001b570,%eax
c0007496:	0f b6 d0             	movzbl %al,%edx
c0007499:	89 d0                	mov    %edx,%eax
c000749b:	01 c0                	add    %eax,%eax
c000749d:	01 d0                	add    %edx,%eax
c000749f:	c1 e0 03             	shl    $0x3,%eax
c00074a2:	05 e0 aa 00 c0       	add    $0xc000aae0,%eax
c00074a7:	8b 58 08             	mov    0x8(%eax),%ebx
c00074aa:	89 c8                	mov    %ecx,%eax
c00074ac:	ba 00 00 00 00       	mov    $0x0,%edx
c00074b1:	f7 f3                	div    %ebx
c00074b3:	89 d0                	mov    %edx,%eax
c00074b5:	89 c2                	mov    %eax,%edx
c00074b7:	8b 45 10             	mov    0x10(%ebp),%eax
c00074ba:	89 10                	mov    %edx,(%eax)
c00074bc:	8b 4d 08             	mov    0x8(%ebp),%ecx
c00074bf:	0f b6 05 70 b5 01 c0 	movzbl 0xc001b570,%eax
c00074c6:	0f b6 d0             	movzbl %al,%edx
c00074c9:	89 d0                	mov    %edx,%eax
c00074cb:	01 c0                	add    %eax,%eax
c00074cd:	01 d0                	add    %edx,%eax
c00074cf:	c1 e0 03             	shl    $0x3,%eax
c00074d2:	05 e0 aa 00 c0       	add    $0xc000aae0,%eax
c00074d7:	8b 58 04             	mov    0x4(%eax),%ebx
c00074da:	89 c8                	mov    %ecx,%eax
c00074dc:	ba 00 00 00 00       	mov    $0x0,%edx
c00074e1:	f7 f3                	div    %ebx
c00074e3:	89 d0                	mov    %edx,%eax
c00074e5:	83 c0 01             	add    $0x1,%eax
c00074e8:	89 c2                	mov    %eax,%edx
c00074ea:	8b 45 14             	mov    0x14(%ebp),%eax
c00074ed:	89 10                	mov    %edx,(%eax)
c00074ef:	5b                   	pop    %ebx
c00074f0:	5e                   	pop    %esi
c00074f1:	5f                   	pop    %edi
c00074f2:	5d                   	pop    %ebp
c00074f3:	c3                   	ret    

c00074f4 <fdc_rw>:
fdc_rw():
c00074f4:	55                   	push   %ebp
c00074f5:	89 e5                	mov    %esp,%ebp
c00074f7:	83 ec 28             	sub    $0x28,%esp
c00074fa:	8d 45 e8             	lea    -0x18(%ebp),%eax
c00074fd:	89 44 24 0c          	mov    %eax,0xc(%esp)
c0007501:	8d 45 ec             	lea    -0x14(%ebp),%eax
c0007504:	89 44 24 08          	mov    %eax,0x8(%esp)
c0007508:	8d 45 f0             	lea    -0x10(%ebp),%eax
c000750b:	89 44 24 04          	mov    %eax,0x4(%esp)
c000750f:	8b 45 08             	mov    0x8(%ebp),%eax
c0007512:	89 04 24             	mov    %eax,(%esp)
c0007515:	e8 f8 fe ff ff       	call   c0007412 <lba2chs>
c000751a:	e8 5c fc ff ff       	call   c000717b <fdc_motor_on>
c000751f:	83 7d 10 00          	cmpl   $0x0,0x10(%ebp)
c0007523:	75 1c                	jne    c0007541 <fdc_rw+0x4d>
c0007525:	a1 b4 dd 02 c0       	mov    0xc002ddb4,%eax
c000752a:	c7 44 24 08 00 02 00 	movl   $0x200,0x8(%esp)
c0007531:	00 
c0007532:	8b 55 0c             	mov    0xc(%ebp),%edx
c0007535:	89 54 24 04          	mov    %edx,0x4(%esp)
c0007539:	89 04 24             	mov    %eax,(%esp)
c000753c:	e8 5f fb ff ff       	call   c00070a0 <memcpy08>
c0007541:	c7 45 f4 00 00 00 00 	movl   $0x0,-0xc(%ebp)
c0007548:	e9 c6 01 00 00       	jmp    c0007713 <fdc_rw+0x21f>
c000754d:	c7 04 24 f7 03 00 00 	movl   $0x3f7,(%esp)
c0007554:	e8 0c fb ff ff       	call   c0007065 <inport08>
c0007559:	84 c0                	test   %al,%al
c000755b:	79 2a                	jns    c0007587 <fdc_rw+0x93>
c000755d:	c7 05 64 b5 01 c0 01 	movl   $0x1,0xc001b564
c0007564:	00 00 00 
c0007567:	c7 04 24 01 00 00 00 	movl   $0x1,(%esp)
c000756e:	e8 6a fd ff ff       	call   c00072dd <fdc_seek>
c0007573:	e8 2f fd ff ff       	call   c00072a7 <fdc_recalibrate>
c0007578:	e8 43 fc ff ff       	call   c00071c0 <fdc_motor_off>
c000757d:	b8 00 00 00 00       	mov    $0x0,%eax
c0007582:	e9 c7 01 00 00       	jmp    c000774e <fdc_rw+0x25a>
c0007587:	8b 45 f0             	mov    -0x10(%ebp),%eax
c000758a:	89 04 24             	mov    %eax,(%esp)
c000758d:	e8 4b fd ff ff       	call   c00072dd <fdc_seek>
c0007592:	85 c0                	test   %eax,%eax
c0007594:	75 0f                	jne    c00075a5 <fdc_rw+0xb1>
c0007596:	e8 25 fc ff ff       	call   c00071c0 <fdc_motor_off>
c000759b:	b8 00 00 00 00       	mov    $0x0,%eax
c00075a0:	e9 a9 01 00 00       	jmp    c000774e <fdc_rw+0x25a>
c00075a5:	0f b6 05 70 b5 01 c0 	movzbl 0xc001b570,%eax
c00075ac:	0f b6 d0             	movzbl %al,%edx
c00075af:	89 d0                	mov    %edx,%eax
c00075b1:	01 c0                	add    %eax,%eax
c00075b3:	01 d0                	add    %edx,%eax
c00075b5:	c1 e0 03             	shl    $0x3,%eax
c00075b8:	05 f0 aa 00 c0       	add    $0xc000aaf0,%eax
c00075bd:	0f b6 40 02          	movzbl 0x2(%eax),%eax
c00075c1:	0f b6 c0             	movzbl %al,%eax
c00075c4:	89 44 24 04          	mov    %eax,0x4(%esp)
c00075c8:	c7 04 24 f7 03 00 00 	movl   $0x3f7,(%esp)
c00075cf:	e8 ae fa ff ff       	call   c0007082 <outport08>
c00075d4:	83 7d 10 00          	cmpl   $0x0,0x10(%ebp)
c00075d8:	74 33                	je     c000760d <fdc_rw+0x119>
c00075da:	a1 b4 dd 02 c0       	mov    0xc002ddb4,%eax
c00075df:	c7 44 24 0c 00 00 00 	movl   $0x0,0xc(%esp)
c00075e6:	00 
c00075e7:	c7 44 24 08 00 02 00 	movl   $0x200,0x8(%esp)
c00075ee:	00 
c00075ef:	89 44 24 04          	mov    %eax,0x4(%esp)
c00075f3:	c7 04 24 02 00 00 00 	movl   $0x2,(%esp)
c00075fa:	e8 ea df ff ff       	call   c00055e9 <dma_xfer>
c00075ff:	c7 04 24 e6 00 00 00 	movl   $0xe6,(%esp)
c0007606:	e8 ae fa ff ff       	call   c00070b9 <fdc_sendbyte>
c000760b:	eb 31                	jmp    c000763e <fdc_rw+0x14a>
c000760d:	a1 b4 dd 02 c0       	mov    0xc002ddb4,%eax
c0007612:	c7 44 24 0c 01 00 00 	movl   $0x1,0xc(%esp)
c0007619:	00 
c000761a:	c7 44 24 08 00 02 00 	movl   $0x200,0x8(%esp)
c0007621:	00 
c0007622:	89 44 24 04          	mov    %eax,0x4(%esp)
c0007626:	c7 04 24 02 00 00 00 	movl   $0x2,(%esp)
c000762d:	e8 b7 df ff ff       	call   c00055e9 <dma_xfer>
c0007632:	c7 04 24 c5 00 00 00 	movl   $0xc5,(%esp)
c0007639:	e8 7b fa ff ff       	call   c00070b9 <fdc_sendbyte>
c000763e:	8b 45 ec             	mov    -0x14(%ebp),%eax
c0007641:	c1 e0 02             	shl    $0x2,%eax
c0007644:	0f b6 c0             	movzbl %al,%eax
c0007647:	89 04 24             	mov    %eax,(%esp)
c000764a:	e8 6a fa ff ff       	call   c00070b9 <fdc_sendbyte>
c000764f:	8b 45 f0             	mov    -0x10(%ebp),%eax
c0007652:	0f b6 c0             	movzbl %al,%eax
c0007655:	89 04 24             	mov    %eax,(%esp)
c0007658:	e8 5c fa ff ff       	call   c00070b9 <fdc_sendbyte>
c000765d:	8b 45 ec             	mov    -0x14(%ebp),%eax
c0007660:	0f b6 c0             	movzbl %al,%eax
c0007663:	89 04 24             	mov    %eax,(%esp)
c0007666:	e8 4e fa ff ff       	call   c00070b9 <fdc_sendbyte>
c000766b:	8b 45 e8             	mov    -0x18(%ebp),%eax
c000766e:	0f b6 c0             	movzbl %al,%eax
c0007671:	89 04 24             	mov    %eax,(%esp)
c0007674:	e8 40 fa ff ff       	call   c00070b9 <fdc_sendbyte>
c0007679:	c7 04 24 02 00 00 00 	movl   $0x2,(%esp)
c0007680:	e8 34 fa ff ff       	call   c00070b9 <fdc_sendbyte>
c0007685:	0f b6 05 70 b5 01 c0 	movzbl 0xc001b570,%eax
c000768c:	0f b6 d0             	movzbl %al,%edx
c000768f:	89 d0                	mov    %edx,%eax
c0007691:	01 c0                	add    %eax,%eax
c0007693:	01 d0                	add    %edx,%eax
c0007695:	c1 e0 03             	shl    $0x3,%eax
c0007698:	05 e0 aa 00 c0       	add    $0xc000aae0,%eax
c000769d:	8b 40 04             	mov    0x4(%eax),%eax
c00076a0:	0f b6 c0             	movzbl %al,%eax
c00076a3:	89 04 24             	mov    %eax,(%esp)
c00076a6:	e8 0e fa ff ff       	call   c00070b9 <fdc_sendbyte>
c00076ab:	0f b6 05 70 b5 01 c0 	movzbl 0xc001b570,%eax
c00076b2:	0f b6 d0             	movzbl %al,%edx
c00076b5:	89 d0                	mov    %edx,%eax
c00076b7:	01 c0                	add    %eax,%eax
c00076b9:	01 d0                	add    %edx,%eax
c00076bb:	c1 e0 03             	shl    $0x3,%eax
c00076be:	05 f0 aa 00 c0       	add    $0xc000aaf0,%eax
c00076c3:	0f b6 40 01          	movzbl 0x1(%eax),%eax
c00076c7:	0f b6 c0             	movzbl %al,%eax
c00076ca:	89 04 24             	mov    %eax,(%esp)
c00076cd:	e8 e7 f9 ff ff       	call   c00070b9 <fdc_sendbyte>
c00076d2:	c7 04 24 ff 00 00 00 	movl   $0xff,(%esp)
c00076d9:	e8 db f9 ff ff       	call   c00070b9 <fdc_sendbyte>
c00076de:	c7 04 24 00 00 00 00 	movl   $0x0,(%esp)
c00076e5:	e8 f8 fa ff ff       	call   c00071e2 <fdc_wait>
c00076ea:	85 c0                	test   %eax,%eax
c00076ec:	75 07                	jne    c00076f5 <fdc_rw+0x201>
c00076ee:	b8 00 00 00 00       	mov    $0x0,%eax
c00076f3:	eb 59                	jmp    c000774e <fdc_rw+0x25a>
c00076f5:	0f b6 05 68 b5 01 c0 	movzbl 0xc001b568,%eax
c00076fc:	0f b6 c0             	movzbl %al,%eax
c00076ff:	25 c0 00 00 00       	and    $0xc0,%eax
c0007704:	85 c0                	test   %eax,%eax
c0007706:	75 02                	jne    c000770a <fdc_rw+0x216>
c0007708:	eb 13                	jmp    c000771d <fdc_rw+0x229>
c000770a:	e8 98 fb ff ff       	call   c00072a7 <fdc_recalibrate>
c000770f:	83 45 f4 01          	addl   $0x1,-0xc(%ebp)
c0007713:	83 7d f4 02          	cmpl   $0x2,-0xc(%ebp)
c0007717:	0f 8e 30 fe ff ff    	jle    c000754d <fdc_rw+0x59>
c000771d:	e8 9e fa ff ff       	call   c00071c0 <fdc_motor_off>
c0007722:	83 7d 10 00          	cmpl   $0x0,0x10(%ebp)
c0007726:	74 1c                	je     c0007744 <fdc_rw+0x250>
c0007728:	a1 b4 dd 02 c0       	mov    0xc002ddb4,%eax
c000772d:	c7 44 24 08 00 02 00 	movl   $0x200,0x8(%esp)
c0007734:	00 
c0007735:	89 44 24 04          	mov    %eax,0x4(%esp)
c0007739:	8b 45 0c             	mov    0xc(%ebp),%eax
c000773c:	89 04 24             	mov    %eax,(%esp)
c000773f:	e8 5c f9 ff ff       	call   c00070a0 <memcpy08>
c0007744:	83 7d f4 03          	cmpl   $0x3,-0xc(%ebp)
c0007748:	0f 95 c0             	setne  %al
c000774b:	0f b6 c0             	movzbl %al,%eax
c000774e:	c9                   	leave  
c000774f:	c3                   	ret    

c0007750 <fdc_read>:
fdc_read():
c0007750:	55                   	push   %ebp
c0007751:	89 e5                	mov    %esp,%ebp
c0007753:	53                   	push   %ebx
c0007754:	83 ec 14             	sub    $0x14,%esp
c0007757:	bb 00 00 00 00       	mov    $0x0,%ebx
c000775c:	eb 31                	jmp    c000778f <fdc_read+0x3f>
c000775e:	89 d8                	mov    %ebx,%eax
c0007760:	c1 e0 09             	shl    $0x9,%eax
c0007763:	89 c2                	mov    %eax,%edx
c0007765:	8b 45 0c             	mov    0xc(%ebp),%eax
c0007768:	01 d0                	add    %edx,%eax
c000776a:	c7 44 24 08 01 00 00 	movl   $0x1,0x8(%esp)
c0007771:	00 
c0007772:	89 44 24 04          	mov    %eax,0x4(%esp)
c0007776:	8b 45 08             	mov    0x8(%ebp),%eax
c0007779:	89 04 24             	mov    %eax,(%esp)
c000777c:	e8 73 fd ff ff       	call   c00074f4 <fdc_rw>
c0007781:	85 c0                	test   %eax,%eax
c0007783:	75 07                	jne    c000778c <fdc_read+0x3c>
c0007785:	b8 00 00 00 00       	mov    $0x0,%eax
c000778a:	eb 0f                	jmp    c000779b <fdc_read+0x4b>
c000778c:	83 c3 01             	add    $0x1,%ebx
c000778f:	89 d8                	mov    %ebx,%eax
c0007791:	3b 45 10             	cmp    0x10(%ebp),%eax
c0007794:	72 c8                	jb     c000775e <fdc_read+0xe>
c0007796:	b8 01 00 00 00       	mov    $0x1,%eax
c000779b:	83 c4 14             	add    $0x14,%esp
c000779e:	5b                   	pop    %ebx
c000779f:	5d                   	pop    %ebp
c00077a0:	c3                   	ret    

c00077a1 <fdc_write>:
fdc_write():
c00077a1:	55                   	push   %ebp
c00077a2:	89 e5                	mov    %esp,%ebp
c00077a4:	53                   	push   %ebx
c00077a5:	83 ec 14             	sub    $0x14,%esp
c00077a8:	bb 00 00 00 00       	mov    $0x0,%ebx
c00077ad:	eb 31                	jmp    c00077e0 <fdc_write+0x3f>
c00077af:	89 d8                	mov    %ebx,%eax
c00077b1:	c1 e0 09             	shl    $0x9,%eax
c00077b4:	89 c2                	mov    %eax,%edx
c00077b6:	8b 45 0c             	mov    0xc(%ebp),%eax
c00077b9:	01 d0                	add    %edx,%eax
c00077bb:	c7 44 24 08 00 00 00 	movl   $0x0,0x8(%esp)
c00077c2:	00 
c00077c3:	89 44 24 04          	mov    %eax,0x4(%esp)
c00077c7:	8b 45 08             	mov    0x8(%ebp),%eax
c00077ca:	89 04 24             	mov    %eax,(%esp)
c00077cd:	e8 22 fd ff ff       	call   c00074f4 <fdc_rw>
c00077d2:	85 c0                	test   %eax,%eax
c00077d4:	75 07                	jne    c00077dd <fdc_write+0x3c>
c00077d6:	b8 00 00 00 00       	mov    $0x0,%eax
c00077db:	eb 0f                	jmp    c00077ec <fdc_write+0x4b>
c00077dd:	83 c3 01             	add    $0x1,%ebx
c00077e0:	89 d8                	mov    %ebx,%eax
c00077e2:	3b 45 10             	cmp    0x10(%ebp),%eax
c00077e5:	72 c8                	jb     c00077af <fdc_write+0xe>
c00077e7:	b8 01 00 00 00       	mov    $0x1,%eax
c00077ec:	83 c4 14             	add    $0x14,%esp
c00077ef:	5b                   	pop    %ebx
c00077f0:	5d                   	pop    %ebp
c00077f1:	c3                   	ret    

c00077f2 <floppy_handler>:
floppy_handler():
c00077f2:	55                   	push   %ebp
c00077f3:	89 e5                	mov    %esp,%ebp
c00077f5:	83 ec 18             	sub    $0x18,%esp
c00077f8:	c7 05 60 b5 01 c0 01 	movl   $0x1,0xc001b560
c00077ff:	00 00 00 
c0007802:	8b 45 08             	mov    0x8(%ebp),%eax
c0007805:	8b 40 30             	mov    0x30(%eax),%eax
c0007808:	0f b6 c0             	movzbl %al,%eax
c000780b:	89 04 24             	mov    %eax,(%esp)
c000780e:	e8 4d a7 ff ff       	call   c0001f60 <enable_IRQ>
c0007813:	c9                   	leave  
c0007814:	c3                   	ret    

c0007815 <floppy_thread>:
floppy_thread():
c0007815:	55                   	push   %ebp
c0007816:	89 e5                	mov    %esp,%ebp
c0007818:	83 ec 08             	sub    $0x8,%esp
c000781b:	a1 58 b5 01 c0       	mov    0xc001b558,%eax
c0007820:	85 c0                	test   %eax,%eax
c0007822:	7e 0d                	jle    c0007831 <floppy_thread+0x1c>
c0007824:	a1 58 b5 01 c0       	mov    0xc001b558,%eax
c0007829:	83 e8 01             	sub    $0x1,%eax
c000782c:	a3 58 b5 01 c0       	mov    %eax,0xc001b558
c0007831:	a1 5c b5 01 c0       	mov    0xc001b55c,%eax
c0007836:	85 c0                	test   %eax,%eax
c0007838:	7e 0f                	jle    c0007849 <floppy_thread+0x34>
c000783a:	a1 5c b5 01 c0       	mov    0xc001b55c,%eax
c000783f:	83 e8 01             	sub    $0x1,%eax
c0007842:	a3 5c b5 01 c0       	mov    %eax,0xc001b55c
c0007847:	eb 30                	jmp    c0007879 <floppy_thread+0x64>
c0007849:	a1 54 b5 01 c0       	mov    0xc001b554,%eax
c000784e:	85 c0                	test   %eax,%eax
c0007850:	74 27                	je     c0007879 <floppy_thread+0x64>
c0007852:	a1 5c b5 01 c0       	mov    0xc001b55c,%eax
c0007857:	85 c0                	test   %eax,%eax
c0007859:	75 1e                	jne    c0007879 <floppy_thread+0x64>
c000785b:	c7 44 24 04 0c 00 00 	movl   $0xc,0x4(%esp)
c0007862:	00 
c0007863:	c7 04 24 f2 03 00 00 	movl   $0x3f2,(%esp)
c000786a:	e8 13 f8 ff ff       	call   c0007082 <outport08>
c000786f:	c7 05 54 b5 01 c0 00 	movl   $0x0,0xc001b554
c0007876:	00 00 00 
c0007879:	c9                   	leave  
c000787a:	c3                   	ret    

c000787b <initialize_floppy>:
initialize_floppy():
c000787b:	55                   	push   %ebp
c000787c:	89 e5                	mov    %esp,%ebp
c000787e:	83 ec 18             	sub    $0x18,%esp
c0007881:	c7 04 24 c0 8b 00 c0 	movl   $0xc0008bc0,(%esp)
c0007888:	e8 12 9a ff ff       	call   c000129f <kprintf>
c000788d:	c9                   	leave  
c000788e:	c3                   	ret    

c000788f <memset08>:
memset08():
c000788f:	55                   	push   %ebp
c0007890:	89 e5                	mov    %esp,%ebp
c0007892:	57                   	push   %edi
c0007893:	83 ec 04             	sub    $0x4,%esp
c0007896:	8b 45 0c             	mov    0xc(%ebp),%eax
c0007899:	88 45 f8             	mov    %al,-0x8(%ebp)
c000789c:	8b 55 08             	mov    0x8(%ebp),%edx
c000789f:	8b 4d 10             	mov    0x10(%ebp),%ecx
c00078a2:	0f b6 45 f8          	movzbl -0x8(%ebp),%eax
c00078a6:	89 d7                	mov    %edx,%edi
c00078a8:	fc                   	cld    
c00078a9:	f3 aa                	rep stos %al,%es:(%edi)
c00078ab:	83 c4 04             	add    $0x4,%esp
c00078ae:	5f                   	pop    %edi
c00078af:	5d                   	pop    %ebp
c00078b0:	c3                   	ret    

c00078b1 <shell>:
shell():
c00078b1:	55                   	push   %ebp
c00078b2:	89 e5                	mov    %esp,%ebp
c00078b4:	81 ec 28 01 00 00    	sub    $0x128,%esp
c00078ba:	c7 44 24 08 00 01 00 	movl   $0x100,0x8(%esp)
c00078c1:	00 
c00078c2:	c7 44 24 04 00 00 00 	movl   $0x0,0x4(%esp)
c00078c9:	00 
c00078ca:	8d 85 f4 fe ff ff    	lea    -0x10c(%ebp),%eax
c00078d0:	89 04 24             	mov    %eax,(%esp)
c00078d3:	e8 b7 ff ff ff       	call   c000788f <memset08>
c00078d8:	eb 01                	jmp    c00078db <shell+0x2a>
c00078da:	90                   	nop
c00078db:	c7 04 24 c4 8e 00 c0 	movl   $0xc0008ec4,(%esp)
c00078e2:	e8 b8 99 ff ff       	call   c000129f <kprintf>
c00078e7:	8d 85 f4 fe ff ff    	lea    -0x10c(%ebp),%eax
c00078ed:	89 44 24 04          	mov    %eax,0x4(%esp)
c00078f1:	c7 04 24 da 8e 00 c0 	movl   $0xc0008eda,(%esp)
c00078f8:	e8 8c e9 ff ff       	call   c0006289 <scanf>
c00078fd:	c7 45 f4 00 00 00 00 	movl   $0x0,-0xc(%ebp)
c0007904:	e9 d8 00 00 00       	jmp    c00079e1 <shell+0x130>
c0007909:	8b 55 f4             	mov    -0xc(%ebp),%edx
c000790c:	89 d0                	mov    %edx,%eax
c000790e:	01 c0                	add    %eax,%eax
c0007910:	01 d0                	add    %edx,%eax
c0007912:	c1 e0 02             	shl    $0x2,%eax
c0007915:	05 20 ab 00 c0       	add    $0xc000ab20,%eax
c000791a:	8b 40 04             	mov    0x4(%eax),%eax
c000791d:	89 04 24             	mov    %eax,(%esp)
c0007920:	e8 1c ec ff ff       	call   c0006541 <strlen>
c0007925:	89 c1                	mov    %eax,%ecx
c0007927:	8b 55 f4             	mov    -0xc(%ebp),%edx
c000792a:	89 d0                	mov    %edx,%eax
c000792c:	01 c0                	add    %eax,%eax
c000792e:	01 d0                	add    %edx,%eax
c0007930:	c1 e0 02             	shl    $0x2,%eax
c0007933:	05 20 ab 00 c0       	add    $0xc000ab20,%eax
c0007938:	8b 40 04             	mov    0x4(%eax),%eax
c000793b:	89 4c 24 08          	mov    %ecx,0x8(%esp)
c000793f:	89 44 24 04          	mov    %eax,0x4(%esp)
c0007943:	8d 85 f4 fe ff ff    	lea    -0x10c(%ebp),%eax
c0007949:	89 04 24             	mov    %eax,(%esp)
c000794c:	e8 dc ec ff ff       	call   c000662d <strncmp>
c0007951:	85 c0                	test   %eax,%eax
c0007953:	0f 85 84 00 00 00    	jne    c00079dd <shell+0x12c>
c0007959:	8b 55 f4             	mov    -0xc(%ebp),%edx
c000795c:	89 d0                	mov    %edx,%eax
c000795e:	01 c0                	add    %eax,%eax
c0007960:	01 d0                	add    %edx,%eax
c0007962:	c1 e0 02             	shl    $0x2,%eax
c0007965:	05 20 ab 00 c0       	add    $0xc000ab20,%eax
c000796a:	8b 40 04             	mov    0x4(%eax),%eax
c000796d:	89 04 24             	mov    %eax,(%esp)
c0007970:	e8 cc eb ff ff       	call   c0006541 <strlen>
c0007975:	8d 95 f4 fe ff ff    	lea    -0x10c(%ebp),%edx
c000797b:	01 d0                	add    %edx,%eax
c000797d:	0f b6 00             	movzbl (%eax),%eax
c0007980:	84 c0                	test   %al,%al
c0007982:	75 2c                	jne    c00079b0 <shell+0xff>
c0007984:	8b 55 f4             	mov    -0xc(%ebp),%edx
c0007987:	89 d0                	mov    %edx,%eax
c0007989:	01 c0                	add    %eax,%eax
c000798b:	01 d0                	add    %edx,%eax
c000798d:	c1 e0 02             	shl    $0x2,%eax
c0007990:	05 20 ab 00 c0       	add    $0xc000ab20,%eax
c0007995:	8b 40 04             	mov    0x4(%eax),%eax
c0007998:	89 04 24             	mov    %eax,(%esp)
c000799b:	e8 a1 eb ff ff       	call   c0006541 <strlen>
c00079a0:	8d 50 01             	lea    0x1(%eax),%edx
c00079a3:	8d 85 f4 fe ff ff    	lea    -0x10c(%ebp),%eax
c00079a9:	01 d0                	add    %edx,%eax
c00079ab:	c6 00 00             	movb   $0x0,(%eax)
c00079ae:	eb 3d                	jmp    c00079ed <shell+0x13c>
c00079b0:	8b 55 f4             	mov    -0xc(%ebp),%edx
c00079b3:	89 d0                	mov    %edx,%eax
c00079b5:	01 c0                	add    %eax,%eax
c00079b7:	01 d0                	add    %edx,%eax
c00079b9:	c1 e0 02             	shl    $0x2,%eax
c00079bc:	05 20 ab 00 c0       	add    $0xc000ab20,%eax
c00079c1:	8b 40 04             	mov    0x4(%eax),%eax
c00079c4:	89 04 24             	mov    %eax,(%esp)
c00079c7:	e8 75 eb ff ff       	call   c0006541 <strlen>
c00079cc:	8d 95 f4 fe ff ff    	lea    -0x10c(%ebp),%edx
c00079d2:	01 d0                	add    %edx,%eax
c00079d4:	0f b6 00             	movzbl (%eax),%eax
c00079d7:	3c 20                	cmp    $0x20,%al
c00079d9:	75 02                	jne    c00079dd <shell+0x12c>
c00079db:	eb 10                	jmp    c00079ed <shell+0x13c>
c00079dd:	83 45 f4 01          	addl   $0x1,-0xc(%ebp)
c00079e1:	8b 45 f4             	mov    -0xc(%ebp),%eax
c00079e4:	83 f8 15             	cmp    $0x15,%eax
c00079e7:	0f 86 1c ff ff ff    	jbe    c0007909 <shell+0x58>
c00079ed:	83 7d f4 16          	cmpl   $0x16,-0xc(%ebp)
c00079f1:	75 2b                	jne    c0007a1e <shell+0x16d>
c00079f3:	0f b6 85 f4 fe ff ff 	movzbl -0x10c(%ebp),%eax
c00079fa:	84 c0                	test   %al,%al
c00079fc:	74 1b                	je     c0007a19 <shell+0x168>
c00079fe:	8d 85 f4 fe ff ff    	lea    -0x10c(%ebp),%eax
c0007a04:	89 44 24 04          	mov    %eax,0x4(%esp)
c0007a08:	c7 04 24 dd 8e 00 c0 	movl   $0xc0008edd,(%esp)
c0007a0f:	e8 8b 98 ff ff       	call   c000129f <kprintf>
c0007a14:	e9 42 02 00 00       	jmp    c0007c5b <shell+0x3aa>
c0007a19:	e9 3d 02 00 00       	jmp    c0007c5b <shell+0x3aa>
c0007a1e:	8b 55 f4             	mov    -0xc(%ebp),%edx
c0007a21:	89 d0                	mov    %edx,%eax
c0007a23:	01 c0                	add    %eax,%eax
c0007a25:	01 d0                	add    %edx,%eax
c0007a27:	c1 e0 02             	shl    $0x2,%eax
c0007a2a:	05 20 ab 00 c0       	add    $0xc000ab20,%eax
c0007a2f:	0f b6 00             	movzbl (%eax),%eax
c0007a32:	0f b6 c0             	movzbl %al,%eax
c0007a35:	83 f8 15             	cmp    $0x15,%eax
c0007a38:	0f 87 9c fe ff ff    	ja     c00078da <shell+0x29>
c0007a3e:	8b 04 85 8c 8f 00 c0 	mov    -0x3fff7074(,%eax,4),%eax
c0007a45:	ff e0                	jmp    *%eax
c0007a47:	c7 04 24 fc 8e 00 c0 	movl   $0xc0008efc,(%esp)
c0007a4e:	e8 4c 98 ff ff       	call   c000129f <kprintf>
c0007a53:	c7 45 f4 00 00 00 00 	movl   $0x0,-0xc(%ebp)
c0007a5a:	eb 40                	jmp    c0007a9c <shell+0x1eb>
c0007a5c:	8b 55 f4             	mov    -0xc(%ebp),%edx
c0007a5f:	89 d0                	mov    %edx,%eax
c0007a61:	01 c0                	add    %eax,%eax
c0007a63:	01 d0                	add    %edx,%eax
c0007a65:	c1 e0 02             	shl    $0x2,%eax
c0007a68:	05 20 ab 00 c0       	add    $0xc000ab20,%eax
c0007a6d:	8b 48 08             	mov    0x8(%eax),%ecx
c0007a70:	8b 55 f4             	mov    -0xc(%ebp),%edx
c0007a73:	89 d0                	mov    %edx,%eax
c0007a75:	01 c0                	add    %eax,%eax
c0007a77:	01 d0                	add    %edx,%eax
c0007a79:	c1 e0 02             	shl    $0x2,%eax
c0007a7c:	05 20 ab 00 c0       	add    $0xc000ab20,%eax
c0007a81:	8b 40 04             	mov    0x4(%eax),%eax
c0007a84:	89 4c 24 08          	mov    %ecx,0x8(%esp)
c0007a88:	89 44 24 04          	mov    %eax,0x4(%esp)
c0007a8c:	c7 04 24 28 8f 00 c0 	movl   $0xc0008f28,(%esp)
c0007a93:	e8 07 98 ff ff       	call   c000129f <kprintf>
c0007a98:	83 45 f4 01          	addl   $0x1,-0xc(%ebp)
c0007a9c:	8b 45 f4             	mov    -0xc(%ebp),%eax
c0007a9f:	83 f8 15             	cmp    $0x15,%eax
c0007aa2:	76 b8                	jbe    c0007a5c <shell+0x1ab>
c0007aa4:	c7 04 24 33 8f 00 c0 	movl   $0xc0008f33,(%esp)
c0007aab:	e8 ef 97 ff ff       	call   c000129f <kprintf>
c0007ab0:	e9 a6 01 00 00       	jmp    c0007c5b <shell+0x3aa>
c0007ab5:	c7 44 24 08 36 8f 00 	movl   $0xc0008f36,0x8(%esp)
c0007abc:	c0 
c0007abd:	c7 44 24 04 3f 8f 00 	movl   $0xc0008f3f,0x4(%esp)
c0007ac4:	c0 
c0007ac5:	c7 04 24 51 8f 00 c0 	movl   $0xc0008f51,(%esp)
c0007acc:	e8 ce 97 ff ff       	call   c000129f <kprintf>
c0007ad1:	e9 85 01 00 00       	jmp    c0007c5b <shell+0x3aa>
c0007ad6:	e8 18 97 ff ff       	call   c00011f3 <kclrscr>
c0007adb:	e9 7b 01 00 00       	jmp    c0007c5b <shell+0x3aa>
c0007ae0:	e8 73 a6 ff ff       	call   c0002158 <reboot>
c0007ae5:	e9 71 01 00 00       	jmp    c0007c5b <shell+0x3aa>
c0007aea:	8d 85 f4 fe ff ff    	lea    -0x10c(%ebp),%eax
c0007af0:	89 44 24 04          	mov    %eax,0x4(%esp)
c0007af4:	c7 04 24 68 8f 00 c0 	movl   $0xc0008f68,(%esp)
c0007afb:	e8 9f 97 ff ff       	call   c000129f <kprintf>
c0007b00:	e9 56 01 00 00       	jmp    c0007c5b <shell+0x3aa>
c0007b05:	8d 85 f4 fe ff ff    	lea    -0x10c(%ebp),%eax
c0007b0b:	89 44 24 04          	mov    %eax,0x4(%esp)
c0007b0f:	c7 04 24 68 8f 00 c0 	movl   $0xc0008f68,(%esp)
c0007b16:	e8 84 97 ff ff       	call   c000129f <kprintf>
c0007b1b:	e9 3b 01 00 00       	jmp    c0007c5b <shell+0x3aa>
c0007b20:	e8 a9 b9 ff ff       	call   c00034ce <dump_dirty_pages>
c0007b25:	e9 31 01 00 00       	jmp    c0007c5b <shell+0x3aa>
c0007b2a:	e8 cf aa ff ff       	call   c00025fe <dump_memory_map>
c0007b2f:	e9 27 01 00 00       	jmp    c0007c5b <shell+0x3aa>
c0007b34:	8d 85 f4 fe ff ff    	lea    -0x10c(%ebp),%eax
c0007b3a:	89 44 24 04          	mov    %eax,0x4(%esp)
c0007b3e:	c7 04 24 68 8f 00 c0 	movl   $0xc0008f68,(%esp)
c0007b45:	e8 55 97 ff ff       	call   c000129f <kprintf>
c0007b4a:	e9 0c 01 00 00       	jmp    c0007c5b <shell+0x3aa>
c0007b4f:	e8 59 ba ff ff       	call   c00035ad <dump_free_frames>
c0007b54:	e9 02 01 00 00       	jmp    c0007c5b <shell+0x3aa>
c0007b59:	8d 85 f4 fe ff ff    	lea    -0x10c(%ebp),%eax
c0007b5f:	89 44 24 04          	mov    %eax,0x4(%esp)
c0007b63:	c7 04 24 68 8f 00 c0 	movl   $0xc0008f68,(%esp)
c0007b6a:	e8 30 97 ff ff       	call   c000129f <kprintf>
c0007b6f:	e9 e7 00 00 00       	jmp    c0007c5b <shell+0x3aa>
c0007b74:	8d 85 f4 fe ff ff    	lea    -0x10c(%ebp),%eax
c0007b7a:	89 44 24 04          	mov    %eax,0x4(%esp)
c0007b7e:	c7 04 24 68 8f 00 c0 	movl   $0xc0008f68,(%esp)
c0007b85:	e8 15 97 ff ff       	call   c000129f <kprintf>
c0007b8a:	e9 cc 00 00 00       	jmp    c0007c5b <shell+0x3aa>
c0007b8f:	8d 85 f4 fe ff ff    	lea    -0x10c(%ebp),%eax
c0007b95:	89 44 24 04          	mov    %eax,0x4(%esp)
c0007b99:	c7 04 24 68 8f 00 c0 	movl   $0xc0008f68,(%esp)
c0007ba0:	e8 fa 96 ff ff       	call   c000129f <kprintf>
c0007ba5:	e9 b1 00 00 00       	jmp    c0007c5b <shell+0x3aa>
c0007baa:	8d 85 f4 fe ff ff    	lea    -0x10c(%ebp),%eax
c0007bb0:	89 44 24 04          	mov    %eax,0x4(%esp)
c0007bb4:	c7 04 24 68 8f 00 c0 	movl   $0xc0008f68,(%esp)
c0007bbb:	e8 df 96 ff ff       	call   c000129f <kprintf>
c0007bc0:	e9 96 00 00 00       	jmp    c0007c5b <shell+0x3aa>
c0007bc5:	8d 85 f4 fe ff ff    	lea    -0x10c(%ebp),%eax
c0007bcb:	89 44 24 04          	mov    %eax,0x4(%esp)
c0007bcf:	c7 04 24 68 8f 00 c0 	movl   $0xc0008f68,(%esp)
c0007bd6:	e8 c4 96 ff ff       	call   c000129f <kprintf>
c0007bdb:	eb 7e                	jmp    c0007c5b <shell+0x3aa>
c0007bdd:	8d 85 f4 fe ff ff    	lea    -0x10c(%ebp),%eax
c0007be3:	89 44 24 04          	mov    %eax,0x4(%esp)
c0007be7:	c7 04 24 68 8f 00 c0 	movl   $0xc0008f68,(%esp)
c0007bee:	e8 ac 96 ff ff       	call   c000129f <kprintf>
c0007bf3:	eb 66                	jmp    c0007c5b <shell+0x3aa>
c0007bf5:	8d 85 f4 fe ff ff    	lea    -0x10c(%ebp),%eax
c0007bfb:	89 44 24 04          	mov    %eax,0x4(%esp)
c0007bff:	c7 04 24 68 8f 00 c0 	movl   $0xc0008f68,(%esp)
c0007c06:	e8 94 96 ff ff       	call   c000129f <kprintf>
c0007c0b:	eb 4e                	jmp    c0007c5b <shell+0x3aa>
c0007c0d:	8d 85 f4 fe ff ff    	lea    -0x10c(%ebp),%eax
c0007c13:	89 44 24 04          	mov    %eax,0x4(%esp)
c0007c17:	c7 04 24 68 8f 00 c0 	movl   $0xc0008f68,(%esp)
c0007c1e:	e8 7c 96 ff ff       	call   c000129f <kprintf>
c0007c23:	eb 36                	jmp    c0007c5b <shell+0x3aa>
c0007c25:	e8 37 d1 ff ff       	call   c0004d61 <ps>
c0007c2a:	eb 2f                	jmp    c0007c5b <shell+0x3aa>
c0007c2c:	8d 85 f4 fe ff ff    	lea    -0x10c(%ebp),%eax
c0007c32:	89 44 24 04          	mov    %eax,0x4(%esp)
c0007c36:	c7 04 24 68 8f 00 c0 	movl   $0xc0008f68,(%esp)
c0007c3d:	e8 5d 96 ff ff       	call   c000129f <kprintf>
c0007c42:	eb 17                	jmp    c0007c5b <shell+0x3aa>
c0007c44:	8d 85 f4 fe ff ff    	lea    -0x10c(%ebp),%eax
c0007c4a:	89 44 24 04          	mov    %eax,0x4(%esp)
c0007c4e:	c7 04 24 68 8f 00 c0 	movl   $0xc0008f68,(%esp)
c0007c55:	e8 45 96 ff ff       	call   c000129f <kprintf>
c0007c5a:	90                   	nop
c0007c5b:	e9 7a fc ff ff       	jmp    c00078da <shell+0x29>
c0007c60:	73 74                	jae    c0007cd6 <shell+0x425>
c0007c62:	61                   	popa   
c0007c63:	63 6b 64             	arpl   %bp,0x64(%ebx)
c0007c66:	75 6d                	jne    c0007cd5 <shell+0x424>
c0007c68:	70 20                	jo     c0007c8a <shell+0x3d9>
c0007c6a:	6e                   	outsb  %ds:(%esi),(%dx)
c0007c6b:	6f                   	outsl  %ds:(%esi),(%dx)
c0007c6c:	74 20                	je     c0007c8e <shell+0x3dd>
c0007c6e:	79 65                	jns    c0007cd5 <shell+0x424>
c0007c70:	74 20                	je     c0007c92 <shell+0x3e1>
c0007c72:	69 6d 70 6c 65 6d 65 	imul   $0x656d656c,0x70(%ebp),%ebp
c0007c79:	6e                   	outsb  %ds:(%esi),(%dx)
c0007c7a:	74 65                	je     c0007ce1 <shell+0x430>
c0007c7c:	64 00 2e             	add    %ch,%fs:(%esi)
c0007c7f:	2f                   	das    
c0007c80:	69 6e 63 6c 75 64 65 	imul   $0x6564756c,0x63(%esi),%ebp
c0007c87:	2f                   	das    
c0007c88:	65                   	gs
c0007c89:	78 63                	js     c0007cee <shell+0x43d>
c0007c8b:	65                   	gs
c0007c8c:	70 74                	jo     c0007d02 <shell+0x451>
c0007c8e:	69 6f 6e 5f 68 61 6e 	imul   $0x6e61685f,0x6e(%edi),%ebp
c0007c95:	64                   	fs
c0007c96:	6c                   	insb   (%dx),%es:(%edi)
c0007c97:	65                   	gs
c0007c98:	72 2e                	jb     c0007cc8 <shell+0x417>
c0007c9a:	68 00 0a 20 61       	push   $0x61200a00
c0007c9f:	74 20                	je     c0007cc1 <shell+0x410>
c0007ca1:	6c                   	insb   (%dx),%es:(%edi)
c0007ca2:	69 6e 65 20 25 64 20 	imul   $0x20642520,0x65(%esi),%ebp
c0007ca9:	69 6e 20 25 73 20 22 	imul   $0x22207325,0x20(%esi),%ebp
c0007cb0:	73 74                	jae    c0007d26 <shell+0x475>
c0007cb2:	61                   	popa   
c0007cb3:	63 6b 64             	arpl   %bp,0x64(%ebx)
c0007cb6:	75 6d                	jne    c0007d25 <shell+0x474>
c0007cb8:	70 20                	jo     c0007cda <shell+0x429>
c0007cba:	6e                   	outsb  %ds:(%esi),(%dx)
c0007cbb:	6f                   	outsl  %ds:(%esi),(%dx)
c0007cbc:	74 20                	je     c0007cde <shell+0x42d>
c0007cbe:	79 65                	jns    c0007d25 <shell+0x474>
c0007cc0:	74 20                	je     c0007ce2 <shell+0x431>
c0007cc2:	69 6d 70 6c 65 6d 65 	imul   $0x656d656c,0x70(%ebp),%ebp
c0007cc9:	6e                   	outsb  %ds:(%esi),(%dx)
c0007cca:	74 65                	je     c0007d31 <shell+0x480>
c0007ccc:	64 22 20             	and    %fs:(%eax),%ah
c0007ccf:	69 73 20 2d 3e 20 30 	imul   $0x30203e2d,0x20(%ebx),%esi
c0007cd6:	78 25                	js     c0007cfd <shell+0x44c>
c0007cd8:	78 0a                	js     c0007ce4 <shell+0x433>
c0007cda:	00 00                	add    %al,(%eax)
c0007cdc:	0a 65 61             	or     0x61(%ebp),%ah
c0007cdf:	78 20                	js     c0007d01 <shell+0x450>
c0007ce1:	3d 20 25 23 30       	cmp    $0x30232520,%eax
c0007ce6:	31 30                	xor    %esi,(%eax)
c0007ce8:	78 20                	js     c0007d0a <shell+0x459>
c0007cea:	20 64 73 20          	and    %ah,0x20(%ebx,%esi,2)
c0007cee:	3d 20 25 23 30       	cmp    $0x30232520,%eax
c0007cf3:	31 30                	xor    %esi,(%eax)
c0007cf5:	78 20                	js     c0007d17 <shell+0x466>
c0007cf7:	20 63 72             	and    %ah,0x72(%ebx)
c0007cfa:	30 20                	xor    %ah,(%eax)
c0007cfc:	3d 20 25 23 30       	cmp    $0x30232520,%eax
c0007d01:	31 30                	xor    %esi,(%eax)
c0007d03:	78 20                	js     c0007d25 <shell+0x474>
c0007d05:	20 65 73             	and    %ah,0x73(%ebp)
c0007d08:	70 20                	jo     c0007d2a <shell+0x479>
c0007d0a:	20 20                	and    %ah,(%eax)
c0007d0c:	20 3d 20 25 23 30    	and    %bh,0x30232520
c0007d12:	31 30                	xor    %esi,(%eax)
c0007d14:	78 00                	js     c0007d16 <shell+0x465>
c0007d16:	00 00                	add    %al,(%eax)
c0007d18:	0a 65 62             	or     0x62(%ebp),%ah
c0007d1b:	78 20                	js     c0007d3d <shell+0x48c>
c0007d1d:	3d 20 25 23 30       	cmp    $0x30232520,%eax
c0007d22:	31 30                	xor    %esi,(%eax)
c0007d24:	78 20                	js     c0007d46 <shell+0x495>
c0007d26:	20 65 73             	and    %ah,0x73(%ebp)
c0007d29:	20 3d 20 25 23 30    	and    %bh,0x30232520
c0007d2f:	31 30                	xor    %esi,(%eax)
c0007d31:	78 20                	js     c0007d53 <shell+0x4a2>
c0007d33:	20 63 72             	and    %ah,0x72(%ebx)
c0007d36:	32 20                	xor    (%eax),%ah
c0007d38:	3d 20 25 23 30       	cmp    $0x30232520,%eax
c0007d3d:	31 30                	xor    %esi,(%eax)
c0007d3f:	78 20                	js     c0007d61 <shell+0x4b0>
c0007d41:	20 65 62             	and    %ah,0x62(%ebp)
c0007d44:	70 20                	jo     c0007d66 <shell+0x4b5>
c0007d46:	20 20                	and    %ah,(%eax)
c0007d48:	20 3d 20 25 23 30    	and    %bh,0x30232520
c0007d4e:	31 30                	xor    %esi,(%eax)
c0007d50:	78 00                	js     c0007d52 <shell+0x4a1>
c0007d52:	00 00                	add    %al,(%eax)
c0007d54:	0a 65 63             	or     0x63(%ebp),%ah
c0007d57:	78 20                	js     c0007d79 <shell+0x4c8>
c0007d59:	3d 20 25 23 30       	cmp    $0x30232520,%eax
c0007d5e:	31 30                	xor    %esi,(%eax)
c0007d60:	78 20                	js     c0007d82 <shell+0x4d1>
c0007d62:	20 66 73             	and    %ah,0x73(%esi)
c0007d65:	20 3d 20 25 23 30    	and    %bh,0x30232520
c0007d6b:	31 30                	xor    %esi,(%eax)
c0007d6d:	78 20                	js     c0007d8f <shell+0x4de>
c0007d6f:	20 63 72             	and    %ah,0x72(%ebx)
c0007d72:	33 20                	xor    (%eax),%esp
c0007d74:	3d 20 25 23 30       	cmp    $0x30232520,%eax
c0007d79:	31 30                	xor    %esi,(%eax)
c0007d7b:	78 20                	js     c0007d9d <shell+0x4ec>
c0007d7d:	20 65 69             	and    %ah,0x69(%ebp)
c0007d80:	70 20                	jo     c0007da2 <shell+0x4f1>
c0007d82:	20 20                	and    %ah,(%eax)
c0007d84:	20 3d 20 25 23 30    	and    %bh,0x30232520
c0007d8a:	31 30                	xor    %esi,(%eax)
c0007d8c:	78 00                	js     c0007d8e <shell+0x4dd>
c0007d8e:	00 00                	add    %al,(%eax)
c0007d90:	0a 65 64             	or     0x64(%ebp),%ah
c0007d93:	78 20                	js     c0007db5 <shell+0x504>
c0007d95:	3d 20 25 23 30       	cmp    $0x30232520,%eax
c0007d9a:	31 30                	xor    %esi,(%eax)
c0007d9c:	78 20                	js     c0007dbe <shell+0x50d>
c0007d9e:	20 67 73             	and    %ah,0x73(%edi)
c0007da1:	20 3d 20 25 23 30    	and    %bh,0x30232520
c0007da7:	31 30                	xor    %esi,(%eax)
c0007da9:	78 20                	js     c0007dcb <shell+0x51a>
c0007dab:	20 63 72             	and    %ah,0x72(%ebx)
c0007dae:	34 20                	xor    $0x20,%al
c0007db0:	3d 20 25 23 30       	cmp    $0x30232520,%eax
c0007db5:	31 30                	xor    %esi,(%eax)
c0007db7:	78 20                	js     c0007dd9 <shell+0x528>
c0007db9:	20 65 66             	and    %ah,0x66(%ebp)
c0007dbc:	6c                   	insb   (%dx),%es:(%edi)
c0007dbd:	61                   	popa   
c0007dbe:	67 73 20             	addr16 jae c0007de1 <shell+0x530>
c0007dc1:	3d 20 25 23 30       	cmp    $0x30232520,%eax
c0007dc6:	31 30                	xor    %esi,(%eax)
c0007dc8:	78 00                	js     c0007dca <shell+0x519>
c0007dca:	00 00                	add    %al,(%eax)
c0007dcc:	0a 65 73             	or     0x73(%ebp),%ah
c0007dcf:	69 20 3d 20 25 23    	imul   $0x2325203d,(%eax),%esp
c0007dd5:	30 31                	xor    %dh,(%ecx)
c0007dd7:	30 78 20             	xor    %bh,0x20(%eax)
c0007dda:	20 73 73             	and    %dh,0x73(%ebx)
c0007ddd:	20 3d 20 25 23 30    	and    %bh,0x30232520
c0007de3:	31 30                	xor    %esi,(%eax)
c0007de5:	78 20                	js     c0007e07 <shell+0x556>
c0007de7:	20 65 78             	and    %ah,0x78(%ebp)
c0007dea:	63 20                	arpl   %sp,(%eax)
c0007dec:	3d 20 25 23 30       	cmp    $0x30232520,%eax
c0007df1:	31 30                	xor    %esi,(%eax)
c0007df3:	78 00                	js     c0007df5 <shell+0x544>
c0007df5:	00 00                	add    %al,(%eax)
c0007df7:	00 0a                	add    %cl,(%edx)
c0007df9:	65 64 69 20 3d 20 25 	gs imul $0x2325203d,%fs:%gs:(%eax),%esp
c0007e00:	23 
c0007e01:	30 31                	xor    %dh,(%ecx)
c0007e03:	30 78 20             	xor    %bh,0x20(%eax)
c0007e06:	20 63 73             	and    %ah,0x73(%ebx)
c0007e09:	20 3d 20 25 23 30    	and    %bh,0x30232520
c0007e0f:	31 30                	xor    %esi,(%eax)
c0007e11:	78 20                	js     c0007e33 <shell+0x582>
c0007e13:	20 65 72             	and    %ah,0x72(%ebp)
c0007e16:	72 20                	jb     c0007e38 <shell+0x587>
c0007e18:	3d 20 25 23 30       	cmp    $0x30232520,%eax
c0007e1d:	31 30                	xor    %esi,(%eax)
c0007e1f:	78 00                	js     c0007e21 <shell+0x570>
c0007e21:	00 00                	add    %al,(%eax)
c0007e23:	00 0a                	add    %cl,(%edx)
c0007e25:	45                   	inc    %ebp
c0007e26:	78 63                	js     c0007e8b <shell+0x5da>
c0007e28:	65                   	gs
c0007e29:	70 74                	jo     c0007e9f <shell+0x5ee>
c0007e2b:	69 6f 6e 20 30 30 3a 	imul   $0x3a303020,0x6e(%edi),%ebp
c0007e32:	20 44 49 56          	and    %al,0x56(%ecx,%ecx,2)
c0007e36:	49                   	dec    %ecx
c0007e37:	53                   	push   %ebx
c0007e38:	49                   	dec    %ecx
c0007e39:	4f                   	dec    %edi
c0007e3a:	4e                   	dec    %esi
c0007e3b:	20 42 59             	and    %al,0x59(%edx)
c0007e3e:	20 5a 45             	and    %bl,0x45(%edx)
c0007e41:	52                   	push   %edx
c0007e42:	4f                   	dec    %edi
c0007e43:	0a 00                	or     (%eax),%al
c0007e45:	00 00                	add    %al,(%eax)
c0007e47:	00 0a                	add    %cl,(%edx)
c0007e49:	45                   	inc    %ebp
c0007e4a:	78 63                	js     c0007eaf <shell+0x5fe>
c0007e4c:	65                   	gs
c0007e4d:	70 74                	jo     c0007ec3 <shell+0x612>
c0007e4f:	69 6f 6e 20 30 31 3a 	imul   $0x3a313020,0x6e(%edi),%ebp
c0007e56:	20 44 45 42          	and    %al,0x42(%ebp,%eax,2)
c0007e5a:	55                   	push   %ebp
c0007e5b:	47                   	inc    %edi
c0007e5c:	20 45 58             	and    %al,0x58(%ebp)
c0007e5f:	43                   	inc    %ebx
c0007e60:	45                   	inc    %ebp
c0007e61:	50                   	push   %eax
c0007e62:	54                   	push   %esp
c0007e63:	49                   	dec    %ecx
c0007e64:	4f                   	dec    %edi
c0007e65:	4e                   	dec    %esi
c0007e66:	20 44 45 54          	and    %al,0x54(%ebp,%eax,2)
c0007e6a:	45                   	inc    %ebp
c0007e6b:	43                   	inc    %ebx
c0007e6c:	54                   	push   %esp
c0007e6d:	45                   	inc    %ebp
c0007e6e:	44                   	inc    %esp
c0007e6f:	0a 00                	or     (%eax),%al
c0007e71:	00 00                	add    %al,(%eax)
c0007e73:	00 0a                	add    %cl,(%edx)
c0007e75:	45                   	inc    %ebp
c0007e76:	78 63                	js     c0007edb <shell+0x62a>
c0007e78:	65                   	gs
c0007e79:	70 74                	jo     c0007eef <shell+0x63e>
c0007e7b:	69 6f 6e 20 30 32 3a 	imul   $0x3a323020,0x6e(%edi),%ebp
c0007e82:	20 4e 4f             	and    %cl,0x4f(%esi)
c0007e85:	4e                   	dec    %esi
c0007e86:	20 4d 41             	and    %cl,0x41(%ebp)
c0007e89:	53                   	push   %ebx
c0007e8a:	4b                   	dec    %ebx
c0007e8b:	41                   	inc    %ecx
c0007e8c:	42                   	inc    %edx
c0007e8d:	4c                   	dec    %esp
c0007e8e:	45                   	inc    %ebp
c0007e8f:	20 49 4e             	and    %cl,0x4e(%ecx)
c0007e92:	54                   	push   %esp
c0007e93:	45                   	inc    %ebp
c0007e94:	52                   	push   %edx
c0007e95:	52                   	push   %edx
c0007e96:	55                   	push   %ebp
c0007e97:	50                   	push   %eax
c0007e98:	54                   	push   %esp
c0007e99:	0a 00                	or     (%eax),%al
c0007e9b:	00 0a                	add    %cl,(%edx)
c0007e9d:	45                   	inc    %ebp
c0007e9e:	78 63                	js     c0007f03 <shell+0x652>
c0007ea0:	65                   	gs
c0007ea1:	70 74                	jo     c0007f17 <shell+0x666>
c0007ea3:	69 6f 6e 20 30 33 3a 	imul   $0x3a333020,0x6e(%edi),%ebp
c0007eaa:	20 42 52             	and    %al,0x52(%edx)
c0007ead:	45                   	inc    %ebp
c0007eae:	41                   	inc    %ecx
c0007eaf:	4b                   	dec    %ebx
c0007eb0:	50                   	push   %eax
c0007eb1:	4f                   	dec    %edi
c0007eb2:	49                   	dec    %ecx
c0007eb3:	4e                   	dec    %esi
c0007eb4:	54                   	push   %esp
c0007eb5:	20 49 4e             	and    %cl,0x4e(%ecx)
c0007eb8:	53                   	push   %ebx
c0007eb9:	54                   	push   %esp
c0007eba:	52                   	push   %edx
c0007ebb:	55                   	push   %ebp
c0007ebc:	43                   	inc    %ebx
c0007ebd:	54                   	push   %esp
c0007ebe:	49                   	dec    %ecx
c0007ebf:	4f                   	dec    %edi
c0007ec0:	4e                   	dec    %esi
c0007ec1:	20 44 45 54          	and    %al,0x54(%ebp,%eax,2)
c0007ec5:	45                   	inc    %ebp
c0007ec6:	43                   	inc    %ebx
c0007ec7:	54                   	push   %esp
c0007ec8:	45                   	inc    %ebp
c0007ec9:	44                   	inc    %esp
c0007eca:	0a 00                	or     (%eax),%al
c0007ecc:	6b 65 72 6e          	imul   $0x6e,0x72(%ebp),%esp
c0007ed0:	65                   	gs
c0007ed1:	6c                   	insb   (%dx),%es:(%edi)
c0007ed2:	2f                   	das    
c0007ed3:	65                   	gs
c0007ed4:	78 63                	js     c0007f39 <shell+0x688>
c0007ed6:	65                   	gs
c0007ed7:	70 74                	jo     c0007f4d <shell+0x69c>
c0007ed9:	69 6f 6e 5f 68 61 6e 	imul   $0x6e61685f,0x6e(%edi),%ebp
c0007ee0:	64                   	fs
c0007ee1:	6c                   	insb   (%dx),%es:(%edi)
c0007ee2:	65                   	gs
c0007ee3:	72 2e                	jb     c0007f13 <shell+0x662>
c0007ee5:	63 00                	arpl   %ax,(%eax)
c0007ee7:	00 42 72             	add    %al,0x72(%edx)
c0007eea:	65                   	gs
c0007eeb:	61                   	popa   
c0007eec:	6b 70 6f 69          	imul   $0x69,0x6f(%eax),%esi
c0007ef0:	6e                   	outsb  %ds:(%esi),(%dx)
c0007ef1:	74 20                	je     c0007f13 <shell+0x662>
c0007ef3:	6e                   	outsb  %ds:(%esi),(%dx)
c0007ef4:	6f                   	outsl  %ds:(%esi),(%dx)
c0007ef5:	74 20                	je     c0007f17 <shell+0x666>
c0007ef7:	79 65                	jns    c0007f5e <shell+0x6ad>
c0007ef9:	74 20                	je     c0007f1b <shell+0x66a>
c0007efb:	69 6d 70 6c 65 6d 65 	imul   $0x656d656c,0x70(%ebp),%ebp
c0007f02:	6e                   	outsb  %ds:(%esi),(%dx)
c0007f03:	74 65                	je     c0007f6a <shell+0x6b9>
c0007f05:	64 00 00             	add    %al,%fs:(%eax)
c0007f08:	0a 4b 45             	or     0x45(%ebx),%cl
c0007f0b:	52                   	push   %edx
c0007f0c:	4e                   	dec    %esi
c0007f0d:	45                   	inc    %ebp
c0007f0e:	4c                   	dec    %esp
c0007f0f:	20 50 41             	and    %dl,0x41(%eax)
c0007f12:	4e                   	dec    %esi
c0007f13:	49                   	dec    %ecx
c0007f14:	43                   	inc    %ebx
c0007f15:	20 28                	and    %ch,(%eax)
c0007f17:	25 73 29 20 0a       	and    $0xa202973,%eax
c0007f1c:	09 69 6e             	or     %ebp,0x6e(%ecx)
c0007f1f:	20 25 73 20 61 74    	and    %ah,0x74612073
c0007f25:	20 6c 69 6e          	and    %ch,0x6e(%ecx,%ebp,2)
c0007f29:	65 20 25 64 00 00 00 	and    %ah,%gs:0x64
c0007f30:	0a 45 78             	or     0x78(%ebp),%al
c0007f33:	63 65 70             	arpl   %sp,0x70(%ebp)
c0007f36:	74 69                	je     c0007fa1 <shell+0x6f0>
c0007f38:	6f                   	outsl  %ds:(%esi),(%dx)
c0007f39:	6e                   	outsb  %ds:(%esi),(%dx)
c0007f3a:	20 30                	and    %dh,(%eax)
c0007f3c:	34 3a                	xor    $0x3a,%al
c0007f3e:	20 49 4e             	and    %cl,0x4e(%ecx)
c0007f41:	54                   	push   %esp
c0007f42:	4f                   	dec    %edi
c0007f43:	20 44 45 54          	and    %al,0x54(%ebp,%eax,2)
c0007f47:	45                   	inc    %ebp
c0007f48:	43                   	inc    %ebx
c0007f49:	54                   	push   %esp
c0007f4a:	45                   	inc    %ebp
c0007f4b:	44                   	inc    %esp
c0007f4c:	20 4f 56             	and    %cl,0x56(%edi)
c0007f4f:	45                   	inc    %ebp
c0007f50:	52                   	push   %edx
c0007f51:	46                   	inc    %esi
c0007f52:	4c                   	dec    %esp
c0007f53:	4f                   	dec    %edi
c0007f54:	57                   	push   %edi
c0007f55:	0a 00                	or     (%eax),%al
c0007f57:	00 0a                	add    %cl,(%edx)
c0007f59:	45                   	inc    %ebp
c0007f5a:	78 63                	js     c0007fbf <shell+0x70e>
c0007f5c:	65                   	gs
c0007f5d:	70 74                	jo     c0007fd3 <shell+0x722>
c0007f5f:	69 6f 6e 20 30 35 3a 	imul   $0x3a353020,0x6e(%edi),%ebp
c0007f66:	20 42 4f             	and    %al,0x4f(%edx)
c0007f69:	55                   	push   %ebp
c0007f6a:	4e                   	dec    %esi
c0007f6b:	44                   	inc    %esp
c0007f6c:	20 52 41             	and    %dl,0x41(%edx)
c0007f6f:	4e                   	dec    %esi
c0007f70:	47                   	inc    %edi
c0007f71:	45                   	inc    %ebp
c0007f72:	20 45 58             	and    %al,0x58(%ebp)
c0007f75:	43                   	inc    %ebx
c0007f76:	45                   	inc    %ebp
c0007f77:	45                   	inc    %ebp
c0007f78:	44                   	inc    %esp
c0007f79:	45                   	inc    %ebp
c0007f7a:	44                   	inc    %esp
c0007f7b:	0a 00                	or     (%eax),%al
c0007f7d:	00 00                	add    %al,(%eax)
c0007f7f:	00 0a                	add    %cl,(%edx)
c0007f81:	45                   	inc    %ebp
c0007f82:	78 63                	js     c0007fe7 <shell+0x736>
c0007f84:	65                   	gs
c0007f85:	70 74                	jo     c0007ffb <shell+0x74a>
c0007f87:	69 6f 6e 20 30 36 3a 	imul   $0x3a363020,0x6e(%edi),%ebp
c0007f8e:	20 49 4e             	and    %cl,0x4e(%ecx)
c0007f91:	56                   	push   %esi
c0007f92:	41                   	inc    %ecx
c0007f93:	4c                   	dec    %esp
c0007f94:	49                   	dec    %ecx
c0007f95:	44                   	inc    %esp
c0007f96:	20 4f 50             	and    %cl,0x50(%edi)
c0007f99:	43                   	inc    %ebx
c0007f9a:	4f                   	dec    %edi
c0007f9b:	44                   	inc    %esp
c0007f9c:	45                   	inc    %ebp
c0007f9d:	0a 00                	or     (%eax),%al
c0007f9f:	00 0a                	add    %cl,(%edx)
c0007fa1:	45                   	inc    %ebp
c0007fa2:	78 63                	js     c0008007 <shell+0x756>
c0007fa4:	65                   	gs
c0007fa5:	70 74                	jo     c000801b <shell+0x76a>
c0007fa7:	69 6f 6e 20 30 37 3a 	imul   $0x3a373020,0x6e(%edi),%ebp
c0007fae:	20 50 52             	and    %dl,0x52(%eax)
c0007fb1:	4f                   	dec    %edi
c0007fb2:	43                   	inc    %ebx
c0007fb3:	45                   	inc    %ebp
c0007fb4:	53                   	push   %ebx
c0007fb5:	53                   	push   %ebx
c0007fb6:	4f                   	dec    %edi
c0007fb7:	52                   	push   %edx
c0007fb8:	20 45 58             	and    %al,0x58(%ebp)
c0007fbb:	54                   	push   %esp
c0007fbc:	45                   	inc    %ebp
c0007fbd:	4e                   	dec    %esi
c0007fbe:	53                   	push   %ebx
c0007fbf:	49                   	dec    %ecx
c0007fc0:	4f                   	dec    %edi
c0007fc1:	4e                   	dec    %esi
c0007fc2:	20 4e 4f             	and    %cl,0x4f(%esi)
c0007fc5:	54                   	push   %esp
c0007fc6:	20 41 56             	and    %al,0x56(%ecx)
c0007fc9:	41                   	inc    %ecx
c0007fca:	49                   	dec    %ecx
c0007fcb:	4c                   	dec    %esp
c0007fcc:	41                   	inc    %ecx
c0007fcd:	42                   	inc    %edx
c0007fce:	4c                   	dec    %esp
c0007fcf:	45                   	inc    %ebp
c0007fd0:	0a 00                	or     (%eax),%al
c0007fd2:	00 00                	add    %al,(%eax)
c0007fd4:	0a 45 78             	or     0x78(%ebp),%al
c0007fd7:	63 65 70             	arpl   %sp,0x70(%ebp)
c0007fda:	74 69                	je     c0008045 <shell+0x794>
c0007fdc:	6f                   	outsl  %ds:(%esi),(%dx)
c0007fdd:	6e                   	outsb  %ds:(%esi),(%dx)
c0007fde:	20 30                	and    %dh,(%eax)
c0007fe0:	38 3a                	cmp    %bh,(%edx)
c0007fe2:	20 44 4f 55          	and    %al,0x55(%edi,%ecx,2)
c0007fe6:	42                   	inc    %edx
c0007fe7:	4c                   	dec    %esp
c0007fe8:	45                   	inc    %ebp
c0007fe9:	20 46 41             	and    %al,0x41(%esi)
c0007fec:	55                   	push   %ebp
c0007fed:	4c                   	dec    %esp
c0007fee:	54                   	push   %esp
c0007fef:	20 44 45 54          	and    %al,0x54(%ebp,%eax,2)
c0007ff3:	45                   	inc    %ebp
c0007ff4:	43                   	inc    %ebx
c0007ff5:	54                   	push   %esp
c0007ff6:	45                   	inc    %ebp
c0007ff7:	44                   	inc    %esp
c0007ff8:	0a 00                	or     (%eax),%al
c0007ffa:	00 00                	add    %al,(%eax)
c0007ffc:	0a 45 78             	or     0x78(%ebp),%al
c0007fff:	63 65 70             	arpl   %sp,0x70(%ebp)
c0008002:	74 69                	je     c000806d <shell+0x7bc>
c0008004:	6f                   	outsl  %ds:(%esi),(%dx)
c0008005:	6e                   	outsb  %ds:(%esi),(%dx)
c0008006:	20 30                	and    %dh,(%eax)
c0008008:	39 3a                	cmp    %edi,(%edx)
c000800a:	20 50 52             	and    %dl,0x52(%eax)
c000800d:	4f                   	dec    %edi
c000800e:	43                   	inc    %ebx
c000800f:	45                   	inc    %ebp
c0008010:	53                   	push   %ebx
c0008011:	53                   	push   %ebx
c0008012:	4f                   	dec    %edi
c0008013:	52                   	push   %edx
c0008014:	20 45 58             	and    %al,0x58(%ebp)
c0008017:	54                   	push   %esp
c0008018:	45                   	inc    %ebp
c0008019:	4e                   	dec    %esi
c000801a:	53                   	push   %ebx
c000801b:	49                   	dec    %ecx
c000801c:	4f                   	dec    %edi
c000801d:	4e                   	dec    %esi
c000801e:	20 50 52             	and    %dl,0x52(%eax)
c0008021:	4f                   	dec    %edi
c0008022:	54                   	push   %esp
c0008023:	45                   	inc    %ebp
c0008024:	43                   	inc    %ebx
c0008025:	54                   	push   %esp
c0008026:	49                   	dec    %ecx
c0008027:	4f                   	dec    %edi
c0008028:	4e                   	dec    %esi
c0008029:	20 46 41             	and    %al,0x41(%esi)
c000802c:	55                   	push   %ebp
c000802d:	4c                   	dec    %esp
c000802e:	54                   	push   %esp
c000802f:	0a 00                	or     (%eax),%al
c0008031:	00 00                	add    %al,(%eax)
c0008033:	00 0a                	add    %cl,(%edx)
c0008035:	45                   	inc    %ebp
c0008036:	78 63                	js     c000809b <shell+0x7ea>
c0008038:	65                   	gs
c0008039:	70 74                	jo     c00080af <shell+0x7fe>
c000803b:	69 6f 6e 20 30 41 3a 	imul   $0x3a413020,0x6e(%edi),%ebp
c0008042:	20 49 4e             	and    %cl,0x4e(%ecx)
c0008045:	56                   	push   %esi
c0008046:	41                   	inc    %ecx
c0008047:	4c                   	dec    %esp
c0008048:	49                   	dec    %ecx
c0008049:	44                   	inc    %esp
c000804a:	20 54 41 53          	and    %dl,0x53(%ecx,%eax,2)
c000804e:	4b                   	dec    %ebx
c000804f:	20 53 54             	and    %dl,0x54(%ebx)
c0008052:	41                   	inc    %ecx
c0008053:	54                   	push   %esp
c0008054:	45                   	inc    %ebp
c0008055:	20 53 45             	and    %dl,0x45(%ebx)
c0008058:	47                   	inc    %edi
c0008059:	4d                   	dec    %ebp
c000805a:	45                   	inc    %ebp
c000805b:	4e                   	dec    %esi
c000805c:	54                   	push   %esp
c000805d:	0a 00                	or     (%eax),%al
c000805f:	00 0a                	add    %cl,(%edx)
c0008061:	45                   	inc    %ebp
c0008062:	78 63                	js     c00080c7 <shell+0x816>
c0008064:	65                   	gs
c0008065:	70 74                	jo     c00080db <shell+0x82a>
c0008067:	69 6f 6e 20 30 42 3a 	imul   $0x3a423020,0x6e(%edi),%ebp
c000806e:	20 53 45             	and    %dl,0x45(%ebx)
c0008071:	47                   	inc    %edi
c0008072:	4d                   	dec    %ebp
c0008073:	45                   	inc    %ebp
c0008074:	4e                   	dec    %esi
c0008075:	54                   	push   %esp
c0008076:	20 4e 4f             	and    %cl,0x4f(%esi)
c0008079:	54                   	push   %esp
c000807a:	20 50 52             	and    %dl,0x52(%eax)
c000807d:	45                   	inc    %ebp
c000807e:	53                   	push   %ebx
c000807f:	45                   	inc    %ebp
c0008080:	4e                   	dec    %esi
c0008081:	54                   	push   %esp
c0008082:	0a 00                	or     (%eax),%al
c0008084:	0a 45 78             	or     0x78(%ebp),%al
c0008087:	63 65 70             	arpl   %sp,0x70(%ebp)
c000808a:	74 69                	je     c00080f5 <shell+0x844>
c000808c:	6f                   	outsl  %ds:(%esi),(%dx)
c000808d:	6e                   	outsb  %ds:(%esi),(%dx)
c000808e:	20 30                	and    %dh,(%eax)
c0008090:	43                   	inc    %ebx
c0008091:	3a 20                	cmp    (%eax),%ah
c0008093:	53                   	push   %ebx
c0008094:	54                   	push   %esp
c0008095:	41                   	inc    %ecx
c0008096:	43                   	inc    %ebx
c0008097:	4b                   	dec    %ebx
c0008098:	20 46 41             	and    %al,0x41(%esi)
c000809b:	55                   	push   %ebp
c000809c:	4c                   	dec    %esp
c000809d:	54                   	push   %esp
c000809e:	0a 00                	or     (%eax),%al
c00080a0:	76 38                	jbe    c00080da <shell+0x829>
c00080a2:	36                   	ss
c00080a3:	5f                   	pop    %edi
c00080a4:	6d                   	insl   (%dx),%es:(%edi)
c00080a5:	6f                   	outsl  %ds:(%esi),(%dx)
c00080a6:	64 65 20 6e 6f       	fs and %ch,%fs:%gs:0x6f(%esi)
c00080ab:	74 20                	je     c00080cd <shell+0x81c>
c00080ad:	73 75                	jae    c0008124 <shell+0x873>
c00080af:	70 70                	jo     c0008121 <shell+0x870>
c00080b1:	6f                   	outsl  %ds:(%esi),(%dx)
c00080b2:	72 74                	jb     c0008128 <shell+0x877>
c00080b4:	65 64 20 62 79       	gs and %ah,%fs:%gs:0x79(%edx)
c00080b9:	20 74 68 69          	and    %dh,0x69(%eax,%ebp,2)
c00080bd:	73 20                	jae    c00080df <shell+0x82e>
c00080bf:	4f                   	dec    %edi
c00080c0:	53                   	push   %ebx
c00080c1:	21 00                	and    %eax,(%eax)
c00080c3:	00 0a                	add    %cl,(%edx)
c00080c5:	45                   	inc    %ebp
c00080c6:	78 63                	js     c000812b <shell+0x87a>
c00080c8:	65                   	gs
c00080c9:	70 74                	jo     c000813f <shell+0x88e>
c00080cb:	69 6f 6e 20 30 44 3a 	imul   $0x3a443020,0x6e(%edi),%ebp
c00080d2:	20 47 45             	and    %al,0x45(%edi)
c00080d5:	4e                   	dec    %esi
c00080d6:	45                   	inc    %ebp
c00080d7:	52                   	push   %edx
c00080d8:	41                   	inc    %ecx
c00080d9:	4c                   	dec    %esp
c00080da:	20 50 52             	and    %dl,0x52(%eax)
c00080dd:	4f                   	dec    %edi
c00080de:	54                   	push   %esp
c00080df:	45                   	inc    %ebp
c00080e0:	43                   	inc    %ebx
c00080e1:	54                   	push   %esp
c00080e2:	49                   	dec    %ecx
c00080e3:	4f                   	dec    %edi
c00080e4:	4e                   	dec    %esi
c00080e5:	20 46 41             	and    %al,0x41(%esi)
c00080e8:	55                   	push   %ebp
c00080e9:	4c                   	dec    %esp
c00080ea:	54                   	push   %esp
c00080eb:	0a 00                	or     (%eax),%al
c00080ed:	00 00                	add    %al,(%eax)
c00080ef:	00 0a                	add    %cl,(%edx)
c00080f1:	45                   	inc    %ebp
c00080f2:	78 63                	js     c0008157 <shell+0x8a6>
c00080f4:	65                   	gs
c00080f5:	70 74                	jo     c000816b <shell+0x8ba>
c00080f7:	69 6f 6e 20 30 45 3a 	imul   $0x3a453020,0x6e(%edi),%ebp
c00080fe:	20 50 41             	and    %dl,0x41(%eax)
c0008101:	47                   	inc    %edi
c0008102:	45                   	inc    %ebp
c0008103:	20 46 41             	and    %al,0x41(%esi)
c0008106:	55                   	push   %ebp
c0008107:	4c                   	dec    %esp
c0008108:	54                   	push   %esp
c0008109:	20 28                	and    %ch,(%eax)
c000810b:	4f                   	dec    %edi
c000810c:	75 74                	jne    c0008182 <shell+0x8d1>
c000810e:	20 6f 66             	and    %ch,0x66(%edi)
c0008111:	20 6d 65             	and    %ch,0x65(%ebp)
c0008114:	6d                   	insl   (%dx),%es:(%edi)
c0008115:	6f                   	outsl  %ds:(%esi),(%dx)
c0008116:	72 79                	jb     c0008191 <shell+0x8e0>
c0008118:	29 21                	sub    %esp,(%ecx)
c000811a:	0a 00                	or     (%eax),%al
c000811c:	0a 45 78             	or     0x78(%ebp),%al
c000811f:	63 65 70             	arpl   %sp,0x70(%ebp)
c0008122:	74 69                	je     c000818d <shell+0x8dc>
c0008124:	6f                   	outsl  %ds:(%esi),(%dx)
c0008125:	6e                   	outsb  %ds:(%esi),(%dx)
c0008126:	20 30                	and    %dh,(%eax)
c0008128:	45                   	inc    %ebp
c0008129:	3a 20                	cmp    (%eax),%ah
c000812b:	50                   	push   %eax
c000812c:	41                   	inc    %ecx
c000812d:	47                   	inc    %edi
c000812e:	45                   	inc    %ebp
c000812f:	20 46 41             	and    %al,0x41(%esi)
c0008132:	55                   	push   %ebp
c0008133:	4c                   	dec    %esp
c0008134:	54                   	push   %esp
c0008135:	20 20                	and    %ah,(%eax)
c0008137:	28 70 61             	sub    %dh,0x61(%eax)
c000813a:	67 65 20 6c 65       	and    %ch,%gs:0x65(%si)
c000813f:	76 65                	jbe    c00081a6 <shell+0x8f5>
c0008141:	6c                   	insb   (%dx),%es:(%edi)
c0008142:	20 70 72             	and    %dh,0x72(%eax)
c0008145:	6f                   	outsl  %ds:(%esi),(%dx)
c0008146:	74 65                	je     c00081ad <shell+0x8fc>
c0008148:	63 74 69 6f          	arpl   %si,0x6f(%ecx,%ebp,2)
c000814c:	6e                   	outsb  %ds:(%esi),(%dx)
c000814d:	20 76 69             	and    %dh,0x69(%esi)
c0008150:	6f                   	outsl  %ds:(%esi),(%dx)
c0008151:	6c                   	insb   (%dx),%es:(%edi)
c0008152:	61                   	popa   
c0008153:	74 69                	je     c00081be <shell+0x90d>
c0008155:	6f                   	outsl  %ds:(%esi),(%dx)
c0008156:	6e                   	outsb  %ds:(%esi),(%dx)
c0008157:	29 21                	sub    %esp,(%ecx)
c0008159:	0a 00                	or     (%eax),%al
c000815b:	00 0a                	add    %cl,(%edx)
c000815d:	45                   	inc    %ebp
c000815e:	78 63                	js     c00081c3 <shell+0x912>
c0008160:	65                   	gs
c0008161:	70 74                	jo     c00081d7 <shell+0x926>
c0008163:	69 6f 6e 20 30 46 3a 	imul   $0x3a463020,0x6e(%edi),%ebp
c000816a:	20 55 4e             	and    %dl,0x4e(%ebp)
c000816d:	4b                   	dec    %ebx
c000816e:	4e                   	dec    %esi
c000816f:	4f                   	dec    %edi
c0008170:	57                   	push   %edi
c0008171:	4e                   	dec    %esi
c0008172:	20 45 58             	and    %al,0x58(%ebp)
c0008175:	43                   	inc    %ebx
c0008176:	45                   	inc    %ebp
c0008177:	50                   	push   %eax
c0008178:	54                   	push   %esp
c0008179:	49                   	dec    %ecx
c000817a:	4f                   	dec    %edi
c000817b:	4e                   	dec    %esi
c000817c:	0a 00                	or     (%eax),%al
c000817e:	00 00                	add    %al,(%eax)
c0008180:	0a 45 78             	or     0x78(%ebp),%al
c0008183:	63 65 70             	arpl   %sp,0x70(%ebp)
c0008186:	74 69                	je     c00081f1 <shell+0x940>
c0008188:	6f                   	outsl  %ds:(%esi),(%dx)
c0008189:	6e                   	outsb  %ds:(%esi),(%dx)
c000818a:	20 23                	and    %ah,(%ebx)
c000818c:	25 58 3a 20 55       	and    $0x55203a58,%eax
c0008191:	4e                   	dec    %esi
c0008192:	45                   	inc    %ebp
c0008193:	58                   	pop    %eax
c0008194:	50                   	push   %eax
c0008195:	45                   	inc    %ebp
c0008196:	43                   	inc    %ebx
c0008197:	54                   	push   %esp
c0008198:	45                   	inc    %ebp
c0008199:	44                   	inc    %esp
c000819a:	20 45 58             	and    %al,0x58(%ebp)
c000819d:	43                   	inc    %ebx
c000819e:	45                   	inc    %ebp
c000819f:	50                   	push   %eax
c00081a0:	54                   	push   %esp
c00081a1:	49                   	dec    %ecx
c00081a2:	4f                   	dec    %edi
c00081a3:	4e                   	dec    %esi
c00081a4:	20 21                	and    %ah,(%ecx)
c00081a6:	21 21                	and    %esp,(%ecx)
c00081a8:	0a 00                	or     (%eax),%al
c00081aa:	00 00                	add    %al,(%eax)
c00081ac:	45                   	inc    %ebp
c00081ad:	6e                   	outsb  %ds:(%esi),(%dx)
c00081ae:	64 20 6f 66          	and    %ch,%fs:0x66(%edi)
c00081b2:	20 64 65 66          	and    %ah,0x66(%ebp,%eiz,2)
c00081b6:	61                   	popa   
c00081b7:	75 6c                	jne    c0008225 <shell+0x974>
c00081b9:	74 5f                	je     c000821a <shell+0x969>
c00081bb:	65                   	gs
c00081bc:	78 63                	js     c0008221 <shell+0x970>
c00081be:	65                   	gs
c00081bf:	70 74                	jo     c0008235 <shell+0x984>
c00081c1:	69 6f 6e 28 29 20 72 	imul   $0x72202928,0x6e(%edi),%ebp
c00081c8:	65                   	gs
c00081c9:	61                   	popa   
c00081ca:	63 68 65             	arpl   %bp,0x65(%eax)
c00081cd:	64                   	fs
c00081ce:	2c 20                	sub    $0x20,%al
c00081d0:	74 68                	je     c000823a <shell+0x989>
c00081d2:	69 73 20 69 73 20 6e 	imul   $0x6e207369,0x20(%ebx),%esi
c00081d9:	6f                   	outsl  %ds:(%esi),(%dx)
c00081da:	74 20                	je     c00081fc <shell+0x94b>
c00081dc:	64 6f                	outsl  %fs:(%esi),(%dx)
c00081de:	6e                   	outsb  %ds:(%esi),(%dx)
c00081df:	65 20 69 6e          	and    %ch,%gs:0x6e(%ecx)
c00081e3:	20 74 68 69          	and    %dh,0x69(%eax,%ebp,2)
c00081e7:	73 20                	jae    c0008209 <shell+0x958>
c00081e9:	6e                   	outsb  %ds:(%esi),(%dx)
c00081ea:	61                   	popa   
c00081eb:	74 69                	je     c0008256 <shell+0x9a5>
c00081ed:	6f                   	outsl  %ds:(%esi),(%dx)
c00081ee:	6e                   	outsb  %ds:(%esi),(%dx)
c00081ef:	2e 00 00             	add    %al,%cs:(%eax)
c00081f2:	00 00                	add    %al,(%eax)
c00081f4:	eb 14                	jmp    c000820a <shell+0x959>
c00081f6:	00 c0                	add    %al,%al
c00081f8:	fc                   	cld    
c00081f9:	14 00                	adc    $0x0,%al
c00081fb:	c0 0d 15 00 c0 1e 15 	rorb   $0x15,0x1ec00015
c0008202:	00 c0                	add    %al,%al
c0008204:	5c                   	pop    %esp
c0008205:	15 00 c0 6d 15       	adc    $0x156dc000,%eax
c000820a:	00 c0                	add    %al,%al
c000820c:	7e 15                	jle    c0008223 <shell+0x972>
c000820e:	00 c0                	add    %al,%al
c0008210:	8f                   	(bad)  
c0008211:	15 00 c0 a0 15       	adc    $0x15a0c000,%eax
c0008216:	00 c0                	add    %al,%al
c0008218:	b1 15                	mov    $0x15,%cl
c000821a:	00 c0                	add    %al,%al
c000821c:	c2 15 00             	ret    $0x15
c000821f:	c0 d3 15             	rcl    $0x15,%bl
c0008222:	00 c0                	add    %al,%al
c0008224:	e4 15                	in     $0x15,%al
c0008226:	00 c0                	add    %al,%al
c0008228:	f5                   	cmc    
c0008229:	15 00 c0 39 16       	adc    $0x1639c000,%eax
c000822e:	00 c0                	add    %al,%al
c0008230:	83 16 00             	adcl   $0x0,(%esi)
c0008233:	c0 0a 53             	rorb   $0x53,(%edx)
c0008236:	70 75                	jo     c00082ad <shell+0x9fc>
c0008238:	72 69                	jb     c00082a3 <shell+0x9f2>
c000823a:	6f                   	outsl  %ds:(%esi),(%dx)
c000823b:	75 73                	jne    c00082b0 <shell+0x9ff>
c000823d:	20 69 6e             	and    %ch,0x6e(%ecx)
c0008240:	74 65                	je     c00082a7 <shell+0x9f6>
c0008242:	72 72                	jb     c00082b6 <shell+0xa05>
c0008244:	75 70                	jne    c00082b6 <shell+0xa05>
c0008246:	74 3a                	je     c0008282 <shell+0x9d1>
c0008248:	20 2d 3e 25 78 0a    	and    %ch,0xa78253e
c000824e:	00 90 55 6e 2d 68    	add    %dl,0x682d6e55(%eax)
c0008254:	61                   	popa   
c0008255:	6e                   	outsb  %ds:(%esi),(%dx)
c0008256:	64                   	fs
c0008257:	6c                   	insb   (%dx),%es:(%edi)
c0008258:	65 64 20 69 6e       	gs and %ch,%fs:%gs:0x6e(%ecx)
c000825d:	74 65                	je     c00082c4 <shell+0xa13>
c000825f:	72 72                	jb     c00082d3 <shell+0xa22>
c0008261:	75 70                	jne    c00082d3 <shell+0xa22>
c0008263:	74 3a                	je     c000829f <shell+0x9ee>
c0008265:	20 2d 3e 25 78 0a    	and    %ch,0xa78253e
c000826b:	00 6b 65             	add    %ch,0x65(%ebx)
c000826e:	72 6e                	jb     c00082de <shell+0xa2d>
c0008270:	65                   	gs
c0008271:	6c                   	insb   (%dx),%es:(%edi)
c0008272:	2f                   	das    
c0008273:	69 6e 74 65 72 72 75 	imul   $0x75727265,0x74(%esi),%ebp
c000827a:	70 74                	jo     c00082f0 <shell+0xa3f>
c000827c:	5f                   	pop    %edi
c000827d:	68 61 6e 64 6c       	push   $0x6c646e61
c0008282:	65                   	gs
c0008283:	72 2e                	jb     c00082b3 <shell+0xa02>
c0008285:	63 00                	arpl   %ax,(%eax)
c0008287:	55                   	push   %ebp
c0008288:	6e                   	outsb  %ds:(%esi),(%dx)
c0008289:	2d 68 61 6e 64       	sub    $0x646e6168,%eax
c000828e:	6c                   	insb   (%dx),%es:(%edi)
c000828f:	65 64 20 69 6e       	gs and %ch,%fs:%gs:0x6e(%ecx)
c0008294:	74 65                	je     c00082fb <shell+0xa4a>
c0008296:	72 72                	jb     c000830a <shell+0xa59>
c0008298:	75 70                	jne    c000830a <shell+0xa59>
c000829a:	74 00                	je     c000829c <shell+0x9eb>
c000829c:	0a 4b 45             	or     0x45(%ebx),%cl
c000829f:	52                   	push   %edx
c00082a0:	4e                   	dec    %esi
c00082a1:	45                   	inc    %ebp
c00082a2:	4c                   	dec    %esp
c00082a3:	20 50 41             	and    %dl,0x41(%eax)
c00082a6:	4e                   	dec    %esi
c00082a7:	49                   	dec    %ecx
c00082a8:	43                   	inc    %ebx
c00082a9:	20 28                	and    %ch,(%eax)
c00082ab:	25 73 29 20 0a       	and    $0xa202973,%eax
c00082b0:	09 69 6e             	or     %ebp,0x6e(%ecx)
c00082b3:	20 25 73 20 61 74    	and    %ah,0x74612073
c00082b9:	20 6c 69 6e          	and    %ch,0x6e(%ecx,%ebp,2)
c00082bd:	65 20 25 64 00 00 00 	and    %ah,%gs:0x64
c00082c4:	4d                   	dec    %ebp
c00082c5:	75 6c                	jne    c0008333 <shell+0xa82>
c00082c7:	74 69                	je     c0008332 <shell+0xa81>
c00082c9:	70 6c                	jo     c0008337 <shell+0xa86>
c00082cb:	65 20 49 52          	and    %cl,%gs:0x52(%ecx)
c00082cf:	51                   	push   %ecx
c00082d0:	27                   	daa    
c00082d1:	73 20                	jae    c00082f3 <shell+0xa42>
c00082d3:	6f                   	outsl  %ds:(%esi),(%dx)
c00082d4:	6e                   	outsb  %ds:(%esi),(%dx)
c00082d5:	20 74 68 65          	and    %dh,0x65(%eax,%ebp,2)
c00082d9:	20 73 61             	and    %dh,0x61(%ebx)
c00082dc:	6d                   	insl   (%dx),%es:(%edi)
c00082dd:	65 20 6c 69 6e       	and    %ch,%gs:0x6e(%ecx,%ebp,2)
c00082e2:	65 20 6e 6f          	and    %ch,%gs:0x6f(%esi)
c00082e6:	74 20                	je     c0008308 <shell+0xa57>
c00082e8:	79 65                	jns    c000834f <shell+0xa9e>
c00082ea:	74 20                	je     c000830c <shell+0xa5b>
c00082ec:	69 6d 70 6c 65 6d 65 	imul   $0x656d656c,0x70(%ebp),%ebp
c00082f3:	6e                   	outsb  %ds:(%esi),(%dx)
c00082f4:	74 65                	je     c000835b <shell+0xaaa>
c00082f6:	64 2e 00 0a          	fs add %cl,%cs:%fs:(%edx)
c00082fa:	0d 45 52 52 4f       	or     $0x4f525245,%eax
c00082ff:	52                   	push   %edx
c0008300:	3a 20                	cmp    (%eax),%ah
c0008302:	25 73 00 0a 0d       	and    $0xd0a0073,%eax
c0008307:	54                   	push   %esp
c0008308:	61                   	popa   
c0008309:	73 6b                	jae    c0008376 <shell+0xac5>
c000830b:	20 5b 25             	and    %bl,0x25(%ebx)
c000830e:	73 5d                	jae    c000836d <shell+0xabc>
c0008310:	20 28                	and    %ch,(%eax)
c0008312:	25 69 29 20 6b       	and    $0x6b202969,%eax
c0008317:	69 6c 6c 65 64 21 00 	imul   $0xa002164,0x65(%esp,%ebp,2),%ebp
c000831e:	0a 
c000831f:	0d 00 52 65 73       	or     $0x73655200,%eax
c0008324:	65                   	gs
c0008325:	74 20                	je     c0008347 <shell+0xa96>
c0008327:	73 79                	jae    c00083a2 <shell+0xaf1>
c0008329:	73 74                	jae    c000839f <shell+0xaee>
c000832b:	65                   	gs
c000832c:	6d                   	insl   (%dx),%es:(%edi)
c000832d:	20 63 6c             	and    %ah,0x6c(%ebx)
c0008330:	6f                   	outsl  %ds:(%esi),(%dx)
c0008331:	63 6b 2e             	arpl   %bp,0x2e(%ebx)
c0008334:	2e 2e 00 0a          	cs add %cl,%cs:(%edx)
c0008338:	09 09                	or     %ecx,(%ecx)
c000833a:	09 09                	or     %ecx,(%ecx)
c000833c:	09 5b 20             	or     %ebx,0x20(%ebx)
c000833f:	4f                   	dec    %edi
c0008340:	4b                   	dec    %ebx
c0008341:	20 5d 0a             	and    %bl,0xa(%ebp)
c0008344:	0d 00 0a 0d 52       	or     $0x520d0a00,%eax
c0008349:	65 62 6f 6f          	bound  %ebp,%gs:0x6f(%edi)
c000834d:	74 69                	je     c00083b8 <shell+0xb07>
c000834f:	6e                   	outsb  %ds:(%esi),(%dx)
c0008350:	67 20 73 79          	and    %dh,0x79(%bp,%di)
c0008354:	73 74                	jae    c00083ca <shell+0xb19>
c0008356:	65                   	gs
c0008357:	6d                   	insl   (%dx),%es:(%edi)
c0008358:	2e 2e 2e 00 0a       	cs cs add %cl,%cs:(%edx)
c000835d:	70 20                	jo     c000837f <shell+0xace>
c000835f:	20 20                	and    %ah,(%eax)
c0008361:	20 20                	and    %ah,(%eax)
c0008363:	20 20                	and    %ah,(%eax)
c0008365:	20 3d 20 25 23 30    	and    %bh,0x30232520
c000836b:	31 30                	xor    %esi,(%eax)
c000836d:	78 20                	js     c000838f <shell+0xade>
c000836f:	09 70 2d             	or     %esi,0x2d(%eax)
c0008372:	3e                   	ds
c0008373:	6d                   	insl   (%dx),%es:(%edi)
c0008374:	61                   	popa   
c0008375:	67 69 63 20 3d 20 25 	imul   $0x2325203d,0x20(%bp,%di),%esp
c000837c:	23 
c000837d:	30 31                	xor    %dh,(%ecx)
c000837f:	30 58 09             	xor    %bl,0x9(%eax)
c0008382:	70 2d                	jo     c00083b1 <shell+0xb00>
c0008384:	3e                   	ds
c0008385:	66                   	data16
c0008386:	6c                   	insb   (%dx),%es:(%edi)
c0008387:	61                   	popa   
c0008388:	67 73 20             	addr16 jae c00083ab <shell+0xafa>
c000838b:	3d 20 25 23 30       	cmp    $0x30232520,%eax
c0008390:	31 30                	xor    %esi,(%eax)
c0008392:	78 0a                	js     c000839e <shell+0xaed>
c0008394:	70 2d                	jo     c00083c3 <shell+0xb12>
c0008396:	3e 73 69             	jae,pt c0008402 <shell+0xb51>
c0008399:	7a 65                	jp     c0008400 <shell+0xb4f>
c000839b:	20 20                	and    %ah,(%eax)
c000839d:	3d 20 25 23 30       	cmp    $0x30232520,%eax
c00083a2:	31 30                	xor    %esi,(%eax)
c00083a4:	78 20                	js     c00083c6 <shell+0xb15>
c00083a6:	09 70 2d             	or     %esi,0x2d(%eax)
c00083a9:	3e 6f                	outsl  %ds:(%esi),(%dx)
c00083ab:	77 6e                	ja     c000841b <shell+0xb6a>
c00083ad:	65                   	gs
c00083ae:	72 20                	jb     c00083d0 <shell+0xb1f>
c00083b0:	3d 20 25 69 00       	cmp    $0x692520,%eax
c00083b5:	66 90                	xchg   %ax,%ax
c00083b7:	90                   	nop
c00083b8:	57                   	push   %edi
c00083b9:	65                   	gs
c00083ba:	6c                   	insb   (%dx),%es:(%edi)
c00083bb:	63 6f 6d             	arpl   %bp,0x6d(%edi)
c00083be:	65 20 54 6f 20       	and    %dl,%gs:0x20(%edi,%ebp,2)
c00083c3:	00 42 6c             	add    %al,0x6c(%edx)
c00083c6:	75 65                	jne    c000842d <shell+0xb7c>
c00083c8:	20 46 69             	and    %al,0x69(%esi)
c00083cb:	72 65                	jb     c0008432 <shell+0xb81>
c00083cd:	20 4f 53             	and    %cl,0x53(%edi)
c00083d0:	20 00                	and    %al,(%eax)
c00083d2:	30 30                	xor    %dh,(%eax)
c00083d4:	2e 30 30             	xor    %dh,%cs:(%eax)
c00083d7:	2e 31 30             	xor    %esi,%cs:(%eax)
c00083da:	00 42 4c             	add    %al,0x4c(%edx)
c00083dd:	55                   	push   %ebp
c00083de:	45                   	inc    %ebp
c00083df:	20 46 49             	and    %al,0x49(%esi)
c00083e2:	52                   	push   %edx
c00083e3:	45                   	inc    %ebp
c00083e4:	20 28                	and    %ch,(%eax)
c00083e6:	49                   	dec    %ecx
c00083e7:	41                   	inc    %ecx
c00083e8:	2d 33 32 29 00       	sub    $0x293233,%eax
c00083ed:	28 25 73 29 20 76    	sub    %ah,0x76202973
c00083f3:	65                   	gs
c00083f4:	72 73                	jb     c0008469 <shell+0xbb8>
c00083f6:	69 6f 6e 20 25 73 2e 	imul   $0x2e732520,0x6e(%edi),%ebp
c00083fd:	0a 00                	or     (%eax),%al
c00083ff:	00 4b 65             	add    %cl,0x65(%ebx)
c0008402:	72 6e                	jb     c0008472 <shell+0xbc1>
c0008404:	65                   	gs
c0008405:	6c                   	insb   (%dx),%es:(%edi)
c0008406:	20 69 73             	and    %ch,0x73(%ecx)
c0008409:	20 72 75             	and    %dh,0x75(%edx)
c000840c:	6e                   	outsb  %ds:(%esi),(%dx)
c000840d:	6e                   	outsb  %ds:(%esi),(%dx)
c000840e:	69 6e 67 20 61 74 20 	imul   $0x20746120,0x67(%esi),%ebp
c0008415:	76 69                	jbe    c0008480 <shell+0xbcf>
c0008417:	72 74                	jb     c000848d <shell+0xbdc>
c0008419:	75 61                	jne    c000847c <shell+0xbcb>
c000841b:	6c                   	insb   (%dx),%es:(%edi)
c000841c:	20 61 64             	and    %ah,0x64(%ecx)
c000841f:	64                   	fs
c0008420:	72 65                	jb     c0008487 <shell+0xbd6>
c0008422:	73 73                	jae    c0008497 <shell+0xbe6>
c0008424:	3a 20                	cmp    (%eax),%ah
c0008426:	25 23 30 31 30       	and    $0x30313023,%eax
c000842b:	78 0a                	js     c0008437 <shell+0xb86>
c000842d:	00 00                	add    %al,(%eax)
c000842f:	00 54 6f 74          	add    %dl,0x74(%edi,%ebp,2)
c0008433:	61                   	popa   
c0008434:	6c                   	insb   (%dx),%es:(%edi)
c0008435:	20 53 79             	and    %dl,0x79(%ebx)
c0008438:	73 74                	jae    c00084ae <shell+0xbfd>
c000843a:	65                   	gs
c000843b:	6d                   	insl   (%dx),%es:(%edi)
c000843c:	20 6d 65             	and    %ch,0x65(%ebp)
c000843f:	6d                   	insl   (%dx),%es:(%edi)
c0008440:	6f                   	outsl  %ds:(%esi),(%dx)
c0008441:	72 79                	jb     c00084bc <shell+0xc0b>
c0008443:	20 69 73             	and    %ch,0x73(%ecx)
c0008446:	3a 20                	cmp    (%eax),%ah
c0008448:	25 64 20 4d 42       	and    $0x424d2064,%eax
c000844d:	0a 0a                	or     (%edx),%cl
c000844f:	00 50 61             	add    %dl,0x61(%eax)
c0008452:	67 69 6e 67 20 61 6e 	imul   $0x646e6120,0x67(%bp),%ebp
c0008459:	64 
c000845a:	20 56 69             	and    %dl,0x69(%esi)
c000845d:	64 65 6f             	fs outsl %fs:%gs:(%esi),(%dx)
c0008460:	20 69 6e             	and    %ch,0x6e(%ecx)
c0008463:	69 74 69 61 6c 69 7a 	imul   $0x657a696c,0x61(%ecx,%ebp,2),%esi
c000846a:	65 
c000846b:	64 20 73 75          	and    %dh,%fs:0x75(%ebx)
c000846f:	63 63 65             	arpl   %sp,0x65(%ebx)
c0008472:	73 73                	jae    c00084e7 <shell+0xc36>
c0008474:	66                   	data16
c0008475:	75 6c                	jne    c00084e3 <shell+0xc32>
c0008477:	6c                   	insb   (%dx),%es:(%edi)
c0008478:	79 2e                	jns    c00084a8 <shell+0xbf7>
c000847a:	2e 2e 00 52 65       	cs add %dl,%cs:0x65(%edx)
c000847f:	70 72                	jo     c00084f3 <shell+0xc42>
c0008481:	6f                   	outsl  %ds:(%esi),(%dx)
c0008482:	67 72 61             	addr16 jb c00084e6 <shell+0xc35>
c0008485:	6d                   	insl   (%dx),%es:(%edi)
c0008486:	6d                   	insl   (%dx),%es:(%edi)
c0008487:	69 6e 67 20 50 49 43 	imul   $0x43495020,0x67(%esi),%ebp
c000848e:	20 38                	and    %bh,(%eax)
c0008490:	32 35 39 2e 2e 2e    	xor    0x2e2e2e39,%dh
c0008496:	00 49 6e             	add    %cl,0x6e(%ecx)
c0008499:	73 74                	jae    c000850f <shell+0xc5e>
c000849b:	61                   	popa   
c000849c:	6c                   	insb   (%dx),%es:(%edi)
c000849d:	6c                   	insb   (%dx),%es:(%edi)
c000849e:	69 6e 67 20 6b 65 72 	imul   $0x72656b20,0x67(%esi),%ebp
c00084a5:	6e                   	outsb  %ds:(%esi),(%dx)
c00084a6:	65                   	gs
c00084a7:	6c                   	insb   (%dx),%es:(%edi)
c00084a8:	20 47 44             	and    %al,0x44(%edi)
c00084ab:	54                   	push   %esp
c00084ac:	2e 2e 2e 00 49 6e    	cs cs add %cl,%cs:0x6e(%ecx)
c00084b2:	73 74                	jae    c0008528 <shell+0xc77>
c00084b4:	61                   	popa   
c00084b5:	6c                   	insb   (%dx),%es:(%edi)
c00084b6:	6c                   	insb   (%dx),%es:(%edi)
c00084b7:	69 6e 67 20 6b 65 72 	imul   $0x72656b20,0x67(%esi),%ebp
c00084be:	6e                   	outsb  %ds:(%esi),(%dx)
c00084bf:	65                   	gs
c00084c0:	6c                   	insb   (%dx),%es:(%edi)
c00084c1:	20 49 44             	and    %cl,0x44(%ecx)
c00084c4:	54                   	push   %esp
c00084c5:	2e 2e 2e 00 00       	cs cs add %al,%cs:(%eax)
c00084ca:	00 00                	add    %al,(%eax)
c00084cc:	49                   	dec    %ecx
c00084cd:	6e                   	outsb  %ds:(%esi),(%dx)
c00084ce:	69 74 69 61 6c 69 7a 	imul   $0x697a696c,0x61(%ecx,%ebp,2),%esi
c00084d5:	69 
c00084d6:	6e                   	outsb  %ds:(%esi),(%dx)
c00084d7:	67 20 6d 65          	and    %ch,0x65(%di)
c00084db:	6d                   	insl   (%dx),%es:(%edi)
c00084dc:	6f                   	outsl  %ds:(%esi),(%dx)
c00084dd:	72 79                	jb     c0008558 <shell+0xca7>
c00084df:	20 6d 61             	and    %ch,0x61(%ebp)
c00084e2:	6e                   	outsb  %ds:(%esi),(%dx)
c00084e3:	61                   	popa   
c00084e4:	67                   	addr16
c00084e5:	65                   	gs
c00084e6:	72 2e                	jb     c0008516 <shell+0xc65>
c00084e8:	2e 2e 00 00          	cs add %al,%cs:(%eax)
c00084ec:	49                   	dec    %ecx
c00084ed:	6e                   	outsb  %ds:(%esi),(%dx)
c00084ee:	69 74 69 61 6c 69 7a 	imul   $0x697a696c,0x61(%ecx,%ebp,2),%esi
c00084f5:	69 
c00084f6:	6e                   	outsb  %ds:(%esi),(%dx)
c00084f7:	67 20 44 69          	and    %al,0x69(%si)
c00084fb:	72 65                	jb     c0008562 <shell+0xcb1>
c00084fd:	63 74 20 4d          	arpl   %si,0x4d(%eax,%eiz,1)
c0008501:	65                   	gs
c0008502:	6d                   	insl   (%dx),%es:(%edi)
c0008503:	6f                   	outsl  %ds:(%esi),(%dx)
c0008504:	72 79                	jb     c000857f <shell+0xcce>
c0008506:	20 41 63             	and    %al,0x63(%ecx)
c0008509:	63 65 73             	arpl   %sp,0x73(%ebp)
c000850c:	73 2e                	jae    c000853c <shell+0xc8b>
c000850e:	2e 2e 00 49 6e       	cs add %cl,%cs:0x6e(%ecx)
c0008513:	69 74 69 61 6c 69 7a 	imul   $0x697a696c,0x61(%ecx,%ebp,2),%esi
c000851a:	69 
c000851b:	6e                   	outsb  %ds:(%esi),(%dx)
c000851c:	67 20 6d 75          	and    %ch,0x75(%di)
c0008520:	6c                   	insb   (%dx),%es:(%edi)
c0008521:	74 69                	je     c000858c <shell+0xcdb>
c0008523:	74 61                	je     c0008586 <shell+0xcd5>
c0008525:	73 6b                	jae    c0008592 <shell+0xce1>
c0008527:	69 6e 67 2e 2e 2e 00 	imul   $0x2e2e2e,0x67(%esi),%ebp
c000852e:	49                   	dec    %ecx
c000852f:	6e                   	outsb  %ds:(%esi),(%dx)
c0008530:	69 74 69 61 6c 69 7a 	imul   $0x697a696c,0x61(%ecx,%ebp,2),%esi
c0008537:	69 
c0008538:	6e                   	outsb  %ds:(%esi),(%dx)
c0008539:	67 20 73 79          	and    %dh,0x79(%bp,%di)
c000853d:	73 74                	jae    c00085b3 <shell+0xd02>
c000853f:	65                   	gs
c0008540:	6d                   	insl   (%dx),%es:(%edi)
c0008541:	20 63 6c             	and    %ah,0x6c(%ebx)
c0008544:	6f                   	outsl  %ds:(%esi),(%dx)
c0008545:	63 6b 2e             	arpl   %bp,0x2e(%ebx)
c0008548:	2e 2e 00 49 6e       	cs add %cl,%cs:0x6e(%ecx)
c000854d:	69 74 69 61 6c 69 7a 	imul   $0x697a696c,0x61(%ecx,%ebp,2),%esi
c0008554:	69 
c0008555:	6e                   	outsb  %ds:(%esi),(%dx)
c0008556:	67 20 6b 65          	and    %ch,0x65(%bp,%di)
c000855a:	79 62                	jns    c00085be <shell+0xd0d>
c000855c:	6f                   	outsl  %ds:(%esi),(%dx)
c000855d:	61                   	popa   
c000855e:	72 64                	jb     c00085c4 <shell+0xd13>
c0008560:	2e 2e 00 49 6e       	cs add %cl,%cs:0x6e(%ecx)
c0008565:	69 74 69 61 6c 69 7a 	imul   $0x697a696c,0x61(%ecx,%ebp,2),%esi
c000856c:	69 
c000856d:	6e                   	outsb  %ds:(%esi),(%dx)
c000856e:	67 20 00             	and    %al,(%bx,%si)
c0008571:	20 66 6c             	and    %ah,0x6c(%esi)
c0008574:	6f                   	outsl  %ds:(%esi),(%dx)
c0008575:	70 70                	jo     c00085e7 <shell+0xd36>
c0008577:	79 20                	jns    c0008599 <shell+0xce8>
c0008579:	63 6f 6e             	arpl   %bp,0x6e(%edi)
c000857c:	74 72                	je     c00085f0 <shell+0xd3f>
c000857e:	6f                   	outsl  %ds:(%esi),(%dx)
c000857f:	6c                   	insb   (%dx),%es:(%edi)
c0008580:	6c                   	insb   (%dx),%es:(%edi)
c0008581:	65                   	gs
c0008582:	72 2e                	jb     c00085b2 <shell+0xd01>
c0008584:	2e 2e 00 42 6c       	cs add %al,%cs:0x6c(%edx)
c0008589:	75 65                	jne    c00085f0 <shell+0xd3f>
c000858b:	53                   	push   %ebx
c000858c:	68 65 6c 6c 00       	push   $0x6c6c65
c0008591:	6b 65 72 6e          	imul   $0x6e,0x72(%ebp),%esp
c0008595:	65                   	gs
c0008596:	6c                   	insb   (%dx),%es:(%edi)
c0008597:	2f                   	das    
c0008598:	6d                   	insl   (%dx),%es:(%edi)
c0008599:	61                   	popa   
c000859a:	69 6e 2e 63 00 45 6e 	imul   $0x6e450063,0x2e(%esi),%ebp
c00085a1:	64 20 6f 66          	and    %ch,%fs:0x66(%edi)
c00085a5:	20 6b 5f             	and    %ch,0x5f(%ebx)
c00085a8:	6d                   	insl   (%dx),%es:(%edi)
c00085a9:	61                   	popa   
c00085aa:	69 6e 20 72 65 61 63 	imul   $0x63616572,0x20(%esi),%ebp
c00085b1:	68 65 64 2e 00       	push   $0x2e6465
c00085b6:	00 00                	add    %al,(%eax)
c00085b8:	0a 4b 45             	or     0x45(%ebx),%cl
c00085bb:	52                   	push   %edx
c00085bc:	4e                   	dec    %esi
c00085bd:	45                   	inc    %ebp
c00085be:	4c                   	dec    %esp
c00085bf:	20 50 41             	and    %dl,0x41(%eax)
c00085c2:	4e                   	dec    %esi
c00085c3:	49                   	dec    %ecx
c00085c4:	43                   	inc    %ebx
c00085c5:	20 28                	and    %ch,(%eax)
c00085c7:	25 73 29 20 0a       	and    $0xa202973,%eax
c00085cc:	09 69 6e             	or     %ebp,0x6e(%ecx)
c00085cf:	20 25 73 20 61 74    	and    %ah,0x74612073
c00085d5:	20 6c 69 6e          	and    %ch,0x6e(%ecx,%ebp,2)
c00085d9:	65 20 25 64 00 0d 09 	and    %ah,%gs:0x90d0064
c00085e0:	09 09                	or     %ecx,(%ecx)
c00085e2:	09 09                	or     %ecx,(%ecx)
c00085e4:	09 5b 20             	or     %ebx,0x20(%ebx)
c00085e7:	00 4f 4b             	add    %cl,0x4b(%edi)
c00085ea:	00 20                	add    %ah,(%eax)
c00085ec:	5d                   	pop    %ebp
c00085ed:	0a 00                	or     (%eax),%al
c00085ef:	46                   	inc    %esi
c00085f0:	61                   	popa   
c00085f1:	69 6c 65 64 00 66 90 	imul   $0x6b906600,0x64(%ebp,%eiz,2),%ebp
c00085f8:	6b 
c00085f9:	65                   	gs
c00085fa:	72 6e                	jb     c000866a <shell+0xdb9>
c00085fc:	65                   	gs
c00085fd:	6c                   	insb   (%dx),%es:(%edi)
c00085fe:	2f                   	das    
c00085ff:	6d                   	insl   (%dx),%es:(%edi)
c0008600:	65                   	gs
c0008601:	6d                   	insl   (%dx),%es:(%edi)
c0008602:	2e 63 00             	arpl   %ax,%cs:(%eax)
c0008605:	4f                   	dec    %edi
c0008606:	75 74                	jne    c000867c <shell+0xdcb>
c0008608:	20 6f 66             	and    %ch,0x66(%edi)
c000860b:	20 47 44             	and    %al,0x44(%edi)
c000860e:	54                   	push   %esp
c000860f:	20 65 6e             	and    %ah,0x6e(%ebp)
c0008612:	74 72                	je     c0008686 <shell+0xdd5>
c0008614:	69 65 73 21 21 21 00 	imul   $0x212121,0x73(%ebp),%esp
c000861b:	00 0a                	add    %cl,(%edx)
c000861d:	4b                   	dec    %ebx
c000861e:	45                   	inc    %ebp
c000861f:	52                   	push   %edx
c0008620:	4e                   	dec    %esi
c0008621:	45                   	inc    %ebp
c0008622:	4c                   	dec    %esp
c0008623:	20 50 41             	and    %dl,0x41(%eax)
c0008626:	4e                   	dec    %esi
c0008627:	49                   	dec    %ecx
c0008628:	43                   	inc    %ebx
c0008629:	20 28                	and    %ch,(%eax)
c000862b:	25 73 29 20 0a       	and    $0xa202973,%eax
c0008630:	09 69 6e             	or     %ebp,0x6e(%ecx)
c0008633:	20 25 73 20 61 74    	and    %ah,0x74612073
c0008639:	20 6c 69 6e          	and    %ch,0x6e(%ecx,%ebp,2)
c000863d:	65 20 25 64 00 66 90 	and    %ah,%gs:0x90660064
c0008644:	0a 0d 50 61 67 65    	or     0x65676150,%cl
c000864a:	20 66 61             	and    %ah,0x61(%esi)
c000864d:	75 6c                	jne    c00086bb <shell+0xe0a>
c000864f:	74 20                	je     c0008671 <shell+0xdc0>
c0008651:	68 61 6e 64 6c       	push   $0x6c646e61
c0008656:	65                   	gs
c0008657:	72 20                	jb     c0008679 <shell+0xdc8>
c0008659:	70 61                	jo     c00086bc <shell+0xe0b>
c000865b:	6e                   	outsb  %ds:(%esi),(%dx)
c000865c:	69 63 3a 20 4f 75 74 	imul   $0x74754f20,0x3a(%ebx),%esp
c0008663:	20 6f 66             	and    %ch,0x66(%edi)
c0008666:	20 6d 65             	and    %ch,0x65(%ebp)
c0008669:	6d                   	insl   (%dx),%es:(%edi)
c000866a:	6f                   	outsl  %ds:(%esi),(%dx)
c000866b:	72 79                	jb     c00086e6 <shell+0xe35>
c000866d:	21 21                	and    %esp,(%ecx)
c000866f:	21 00                	and    %eax,(%eax)
c0008671:	0a 44 69 72          	or     0x72(%ecx,%ebp,2),%al
c0008675:	74 79                	je     c00086f0 <shell+0xe3f>
c0008677:	20 70 61             	and    %dh,0x61(%eax)
c000867a:	67                   	addr16
c000867b:	65                   	gs
c000867c:	73 3a                	jae    c00086b8 <shell+0xe07>
c000867e:	0a 00                	or     (%eax),%al
c0008680:	0a 76 69             	or     0x69(%esi),%dh
c0008683:	72 5f                	jb     c00086e4 <shell+0xe33>
c0008685:	61                   	popa   
c0008686:	64                   	fs
c0008687:	64                   	fs
c0008688:	72 20                	jb     c00086aa <shell+0xdf9>
c000868a:	3d 20 25 58 09       	cmp    $0x9582520,%eax
c000868f:	70 61                	jo     c00086f2 <shell+0xe41>
c0008691:	67                   	addr16
c0008692:	65                   	gs
c0008693:	5f                   	pop    %edi
c0008694:	65 6e                	outsb  %gs:(%esi),(%dx)
c0008696:	74 72                	je     c000870a <shell+0xe59>
c0008698:	79 20                	jns    c00086ba <shell+0xe09>
c000869a:	3d 20 25 58 00       	cmp    $0x582520,%eax
c000869f:	0a 00                	or     (%eax),%al
c00086a1:	00 00                	add    %al,(%eax)
c00086a3:	00 0a                	add    %cl,(%edx)
c00086a5:	46                   	inc    %esi
c00086a6:	72 65                	jb     c000870d <shell+0xe5c>
c00086a8:	65 20 66 72          	and    %ah,%gs:0x72(%esi)
c00086ac:	61                   	popa   
c00086ad:	6d                   	insl   (%dx),%es:(%edi)
c00086ae:	65                   	gs
c00086af:	73 20                	jae    c00086d1 <shell+0xe20>
c00086b1:	6c                   	insb   (%dx),%es:(%edi)
c00086b2:	69 73 74 3a 20 28 4b 	imul   $0x4b28203a,0x74(%ebx),%esi
c00086b9:	45                   	inc    %ebp
c00086ba:	52                   	push   %edx
c00086bb:	4e                   	dec    %esi
c00086bc:	45                   	inc    %ebp
c00086bd:	4c                   	dec    %esp
c00086be:	5f                   	pop    %edi
c00086bf:	54                   	push   %esp
c00086c0:	4f                   	dec    %edi
c00086c1:	50                   	push   %eax
c00086c2:	3d 25 58 29 0a       	cmp    $0xa295825,%eax
c00086c7:	00 0a                	add    %cl,(%edx)
c00086c9:	66                   	data16
c00086ca:	72 61                	jb     c000872d <shell+0xe7c>
c00086cc:	6d                   	insl   (%dx),%es:(%edi)
c00086cd:	65 20 23             	and    %ah,%gs:(%ebx)
c00086d0:	25 58 20 26 66       	and    $0x66262058,%eax
c00086d5:	72 61                	jb     c0008738 <shell+0xe87>
c00086d7:	6d                   	insl   (%dx),%es:(%edi)
c00086d8:	65                   	gs
c00086d9:	3d 25 58 00 66       	cmp    $0x66005825,%eax
c00086de:	90                   	nop
c00086df:	90                   	nop
c00086e0:	6b 65 72 6e          	imul   $0x6e,0x72(%ebp),%esp
c00086e4:	65                   	gs
c00086e5:	6c                   	insb   (%dx),%es:(%edi)
c00086e6:	2f                   	das    
c00086e7:	73 63                	jae    c000874c <shell+0xe9b>
c00086e9:	68 65 64 2e 63       	push   $0x632e6465
c00086ee:	00 4e 4f             	add    %cl,0x4f(%esi)
c00086f1:	20 6b 70             	and    %ch,0x70(%ebx)
c00086f4:	61                   	popa   
c00086f5:	64 62 20             	bound  %esp,%fs:(%eax)
c00086f8:	79 65                	jns    c000875f <shell+0xeae>
c00086fa:	74 00                	je     c00086fc <shell+0xe4b>
c00086fc:	0a 4b 45             	or     0x45(%ebx),%cl
c00086ff:	52                   	push   %edx
c0008700:	4e                   	dec    %esi
c0008701:	45                   	inc    %ebp
c0008702:	4c                   	dec    %esp
c0008703:	20 50 41             	and    %dl,0x41(%eax)
c0008706:	4e                   	dec    %esi
c0008707:	49                   	dec    %ecx
c0008708:	43                   	inc    %ebx
c0008709:	20 28                	and    %ch,(%eax)
c000870b:	25 73 29 20 0a       	and    $0xa202973,%eax
c0008710:	09 69 6e             	or     %ebp,0x6e(%ecx)
c0008713:	20 25 73 20 61 74    	and    %ah,0x74612073
c0008719:	20 6c 69 6e          	and    %ch,0x6e(%ecx,%ebp,2)
c000871d:	65 20 25 64 00 66 90 	and    %ah,%gs:0x90660064
c0008724:	25 73 3a 4f 75       	and    $0x754f3a73,%eax
c0008729:	74 20                	je     c000874b <shell+0xe9a>
c000872b:	6f                   	outsl  %ds:(%esi),(%dx)
c000872c:	66                   	data16
c000872d:	20 76 69             	and    %dh,0x69(%esi)
c0008730:	72 74                	jb     c00087a6 <shell+0xef5>
c0008732:	75 61                	jne    c0008795 <shell+0xee4>
c0008734:	6c                   	insb   (%dx),%es:(%edi)
c0008735:	20 6d 65             	and    %ch,0x65(%ebp)
c0008738:	6d                   	insl   (%dx),%es:(%edi)
c0008739:	6f                   	outsl  %ds:(%esi),(%dx)
c000873a:	72 79                	jb     c00087b5 <shell+0xf04>
c000873c:	21 21                	and    %esp,(%ecx)
c000873e:	21 00                	and    %eax,(%eax)
c0008740:	25 73 3a 4f 75       	and    $0x754f3a73,%eax
c0008745:	74 20                	je     c0008767 <shell+0xeb6>
c0008747:	6f                   	outsl  %ds:(%esi),(%dx)
c0008748:	66                   	data16
c0008749:	20 76 69             	and    %dh,0x69(%esi)
c000874c:	72 74                	jb     c00087c2 <shell+0xf11>
c000874e:	75 61                	jne    c00087b1 <shell+0xf00>
c0008750:	6c                   	insb   (%dx),%es:(%edi)
c0008751:	20 6d 65             	and    %ch,0x65(%ebp)
c0008754:	6d                   	insl   (%dx),%es:(%edi)
c0008755:	6f                   	outsl  %ds:(%esi),(%dx)
c0008756:	72 79                	jb     c00087d1 <shell+0xf20>
c0008758:	21 21                	and    %esp,(%ecx)
c000875a:	21 20                	and    %esp,(%eax)
c000875c:	43                   	inc    %ebx
c000875d:	61                   	popa   
c000875e:	6e                   	outsb  %ds:(%esi),(%dx)
c000875f:	6e                   	outsb  %ds:(%esi),(%dx)
c0008760:	6f                   	outsl  %ds:(%esi),(%dx)
c0008761:	74 20                	je     c0008783 <shell+0xed2>
c0008763:	63 72 65             	arpl   %si,0x65(%edx)
c0008766:	61                   	popa   
c0008767:	74 65                	je     c00087ce <shell+0xf1d>
c0008769:	20 74 61 73          	and    %dh,0x73(%ecx,%eiz,2)
c000876d:	6b 20 5b             	imul   $0x5b,(%eax),%esp
c0008770:	25 73 5d 2e 00       	and    $0x2e5d73,%eax
c0008775:	00 00                	add    %al,(%eax)
c0008777:	00 25 73 3a 4f 75    	add    %ah,0x754f3a73
c000877d:	74 20                	je     c000879f <shell+0xeee>
c000877f:	6f                   	outsl  %ds:(%esi),(%dx)
c0008780:	66                   	data16
c0008781:	20 76 69             	and    %dh,0x69(%esi)
c0008784:	72 74                	jb     c00087fa <shell+0xf49>
c0008786:	75 61                	jne    c00087e9 <shell+0xf38>
c0008788:	6c                   	insb   (%dx),%es:(%edi)
c0008789:	20 6d 65             	and    %ch,0x65(%ebp)
c000878c:	6d                   	insl   (%dx),%es:(%edi)
c000878d:	6f                   	outsl  %ds:(%esi),(%dx)
c000878e:	72 79                	jb     c0008809 <shell+0xf58>
c0008790:	21 21                	and    %esp,(%ecx)
c0008792:	21 20                	and    %esp,(%eax)
c0008794:	43                   	inc    %ebx
c0008795:	61                   	popa   
c0008796:	6e                   	outsb  %ds:(%esi),(%dx)
c0008797:	6e                   	outsb  %ds:(%esi),(%dx)
c0008798:	6f                   	outsl  %ds:(%esi),(%dx)
c0008799:	74 20                	je     c00087bb <shell+0xf0a>
c000879b:	63 72 65             	arpl   %si,0x65(%edx)
c000879e:	61                   	popa   
c000879f:	74 65                	je     c0008806 <shell+0xf55>
c00087a1:	20 70 31             	and    %dh,0x31(%eax)
c00087a4:	30 20                	xor    %ah,(%eax)
c00087a6:	73 74                	jae    c000881c <shell+0xf6b>
c00087a8:	61                   	popa   
c00087a9:	63 6b 20             	arpl   %bp,0x20(%ebx)
c00087ac:	5b                   	pop    %ebx
c00087ad:	25 73 5d 2e 00       	and    $0x2e5d73,%eax
c00087b2:	00 00                	add    %al,(%eax)
c00087b4:	25 73 3a 4f 75       	and    $0x754f3a73,%eax
c00087b9:	74 20                	je     c00087db <shell+0xf2a>
c00087bb:	6f                   	outsl  %ds:(%esi),(%dx)
c00087bc:	66                   	data16
c00087bd:	20 76 69             	and    %dh,0x69(%esi)
c00087c0:	72 74                	jb     c0008836 <shell+0xf85>
c00087c2:	75 61                	jne    c0008825 <shell+0xf74>
c00087c4:	6c                   	insb   (%dx),%es:(%edi)
c00087c5:	20 6d 65             	and    %ch,0x65(%ebp)
c00087c8:	6d                   	insl   (%dx),%es:(%edi)
c00087c9:	6f                   	outsl  %ds:(%esi),(%dx)
c00087ca:	72 79                	jb     c0008845 <shell+0xf94>
c00087cc:	21 21                	and    %esp,(%ecx)
c00087ce:	21 20                	and    %esp,(%eax)
c00087d0:	43                   	inc    %ebx
c00087d1:	61                   	popa   
c00087d2:	6e                   	outsb  %ds:(%esi),(%dx)
c00087d3:	6e                   	outsb  %ds:(%esi),(%dx)
c00087d4:	6f                   	outsl  %ds:(%esi),(%dx)
c00087d5:	74 20                	je     c00087f7 <shell+0xf46>
c00087d7:	63 72 65             	arpl   %si,0x65(%edx)
c00087da:	61                   	popa   
c00087db:	74 65                	je     c0008842 <shell+0xf91>
c00087dd:	20 47 44             	and    %al,0x44(%edi)
c00087e0:	54                   	push   %esp
c00087e1:	20 65 6e             	and    %ah,0x6e(%ebp)
c00087e4:	74 72                	je     c0008858 <shell+0xfa7>
c00087e6:	79 20                	jns    c0008808 <shell+0xf57>
c00087e8:	5b                   	pop    %ebx
c00087e9:	25 73 5d 2e 00       	and    $0x2e5d73,%eax
c00087ee:	00 00                	add    %al,(%eax)
c00087f0:	25 73 3a 4f 75       	and    $0x754f3a73,%eax
c00087f5:	74 20                	je     c0008817 <shell+0xf66>
c00087f7:	6f                   	outsl  %ds:(%esi),(%dx)
c00087f8:	66                   	data16
c00087f9:	20 76 69             	and    %dh,0x69(%esi)
c00087fc:	72 74                	jb     c0008872 <shell+0xfc1>
c00087fe:	75 61                	jne    c0008861 <shell+0xfb0>
c0008800:	6c                   	insb   (%dx),%es:(%edi)
c0008801:	20 6d 65             	and    %ch,0x65(%ebp)
c0008804:	6d                   	insl   (%dx),%es:(%edi)
c0008805:	6f                   	outsl  %ds:(%esi),(%dx)
c0008806:	72 79                	jb     c0008881 <shell+0xfd0>
c0008808:	21 21                	and    %esp,(%ecx)
c000880a:	21 20                	and    %esp,(%eax)
c000880c:	43                   	inc    %ebx
c000880d:	61                   	popa   
c000880e:	6e                   	outsb  %ds:(%esi),(%dx)
c000880f:	6e                   	outsb  %ds:(%esi),(%dx)
c0008810:	6f                   	outsl  %ds:(%esi),(%dx)
c0008811:	74 20                	je     c0008833 <shell+0xf82>
c0008813:	63 72 65             	arpl   %si,0x65(%edx)
c0008816:	61                   	popa   
c0008817:	74 65                	je     c000887e <shell+0xfcd>
c0008819:	20 70 61             	and    %dh,0x61(%eax)
c000881c:	67 65 20 74 61       	and    %dh,%gs:0x61(%si)
c0008821:	62 6c 65 20          	bound  %ebp,0x20(%ebp,%eiz,2)
c0008825:	5b                   	pop    %ebx
c0008826:	25 73 5d 2e 00       	and    $0x2e5d73,%eax
c000882b:	6b 65 72 6e          	imul   $0x6e,0x72(%ebp),%esp
c000882f:	65                   	gs
c0008830:	6c                   	insb   (%dx),%es:(%edi)
c0008831:	2f                   	das    
c0008832:	74 61                	je     c0008895 <shell+0xfe4>
c0008834:	73 6b                	jae    c00088a1 <shell+0xff0>
c0008836:	2e 63 00             	arpl   %ax,%cs:(%eax)
c0008839:	55                   	push   %ebp
c000883a:	6d                   	insl   (%dx),%es:(%edi)
c000883b:	61                   	popa   
c000883c:	6c                   	insb   (%dx),%es:(%edi)
c000883d:	6c                   	insb   (%dx),%es:(%edi)
c000883e:	6f                   	outsl  %ds:(%esi),(%dx)
c000883f:	63 20                	arpl   %sp,(%eax)
c0008841:	6e                   	outsb  %ds:(%esi),(%dx)
c0008842:	6f                   	outsl  %ds:(%esi),(%dx)
c0008843:	74 20                	je     c0008865 <shell+0xfb4>
c0008845:	72 65                	jb     c00088ac <shell+0xffb>
c0008847:	61                   	popa   
c0008848:	64                   	fs
c0008849:	79 20                	jns    c000886b <shell+0xfba>
c000884b:	66 6f                	outsw  %ds:(%esi),(%dx)
c000884d:	72 20                	jb     c000886f <shell+0xfbe>
c000884f:	75 73                	jne    c00088c4 <__FUNCTION__.1490+0xa>
c0008851:	65 2e 00 0a          	gs add %cl,%cs:%gs:(%edx)
c0008855:	4b                   	dec    %ebx
c0008856:	45                   	inc    %ebp
c0008857:	52                   	push   %edx
c0008858:	4e                   	dec    %esi
c0008859:	45                   	inc    %ebp
c000885a:	4c                   	dec    %esp
c000885b:	20 50 41             	and    %dl,0x41(%eax)
c000885e:	4e                   	dec    %esi
c000885f:	49                   	dec    %ecx
c0008860:	43                   	inc    %ebx
c0008861:	20 28                	and    %ch,(%eax)
c0008863:	25 73 29 20 0a       	and    $0xa202973,%eax
c0008868:	09 69 6e             	or     %ebp,0x6e(%ecx)
c000886b:	20 25 73 20 61 74    	and    %ah,0x74612073
c0008871:	20 6c 69 6e          	and    %ch,0x6e(%ecx,%ebp,2)
c0008875:	65 20 25 64 00 69 6e 	and    %ah,%gs:0x6e690064
c000887c:	69 74 00 0a 50 49 44 	imul   $0x9444950,0xa(%eax,%eax,1),%esi
c0008883:	09 
c0008884:	53                   	push   %ebx
c0008885:	54                   	push   %esp
c0008886:	41                   	inc    %ecx
c0008887:	54                   	push   %esp
c0008888:	45                   	inc    %ebp
c0008889:	09 43 4f             	or     %eax,0x4f(%ebx)
c000888c:	4d                   	dec    %ebp
c000888d:	4d                   	dec    %ebp
c000888e:	41                   	inc    %ecx
c000888f:	4e                   	dec    %esi
c0008890:	44                   	inc    %esp
c0008891:	0a 00                	or     (%eax),%al
c0008893:	25 64 09 52 65       	and    $0x65520964,%eax
c0008898:	61                   	popa   
c0008899:	64                   	fs
c000889a:	79 09                	jns    c00088a5 <shell+0xff4>
c000889c:	25 73 0a 00 25       	and    $0x25000a73,%eax
c00088a1:	64 09 57 61          	or     %edx,%fs:0x61(%edi)
c00088a5:	69 74 09 25 73 0a 00 	imul   $0x25000a73,0x25(%ecx,%ecx,1),%esi
c00088ac:	25 
c00088ad:	64 09 5a 6f          	or     %ebx,%fs:0x6f(%edx)
c00088b1:	6d                   	insl   (%dx),%es:(%edi)
c00088b2:	62 69 65             	bound  %ebp,0x65(%ecx)
c00088b5:	09 25 73 0a 00 6e    	or     %esp,0x6e000a73

c00088ba <__FUNCTION__.1490>:
c00088ba:	6e                   	outsb  %ds:(%esi),(%dx)
c00088bb:	65                   	gs
c00088bc:	77 5f                	ja     c000891d <__FUNCTION__.1529+0x49>
c00088be:	76 73                	jbe    c0008933 <__FUNCTION__.1529+0x5f>
c00088c0:	70 61                	jo     c0008923 <__FUNCTION__.1529+0x4f>
c00088c2:	63 65 00             	arpl   %sp,0x0(%ebp)

c00088c5 <__FUNCTION__.1519>:
c00088c5:	63 72 65             	arpl   %si,0x65(%edx)
c00088c8:	61                   	popa   
c00088c9:	74 65                	je     c0008930 <__FUNCTION__.1529+0x5c>
c00088cb:	5f                   	pop    %edi
c00088cc:	70 72                	jo     c0008940 <__FUNCTION__.1529+0x6c>
c00088ce:	6f                   	outsl  %ds:(%esi),(%dx)
c00088cf:	63 65 73             	arpl   %sp,0x73(%ebp)
c00088d2:	73 00                	jae    c00088d4 <__FUNCTION__.1529>

c00088d4 <__FUNCTION__.1529>:
c00088d4:	63 72 65             	arpl   %si,0x65(%edx)
c00088d7:	61                   	popa   
c00088d8:	74 65                	je     c000893f <__FUNCTION__.1529+0x6b>
c00088da:	5f                   	pop    %edi
c00088db:	74 68                	je     c0008945 <__FUNCTION__.1529+0x71>
c00088dd:	72 65                	jb     c0008944 <__FUNCTION__.1529+0x70>
c00088df:	61                   	popa   
c00088e0:	64 00 66 90          	add    %ah,%fs:-0x70(%esi)
c00088e4:	6b 65 72 6e          	imul   $0x6e,0x72(%ebp),%esp
c00088e8:	65                   	gs
c00088e9:	6c                   	insb   (%dx),%es:(%edi)
c00088ea:	2f                   	das    
c00088eb:	75 6d                	jne    c000895a <__FUNCTION__.1529+0x86>
c00088ed:	61                   	popa   
c00088ee:	6c                   	insb   (%dx),%es:(%edi)
c00088ef:	6c                   	insb   (%dx),%es:(%edi)
c00088f0:	6f                   	outsl  %ds:(%esi),(%dx)
c00088f1:	63 2e                	arpl   %bp,(%esi)
c00088f3:	63 00                	arpl   %ax,(%eax)
c00088f5:	00 00                	add    %al,(%eax)
c00088f7:	00 48 65             	add    %cl,0x65(%eax)
c00088fa:	61                   	popa   
c00088fb:	70 20                	jo     c000891d <__FUNCTION__.1529+0x49>
c00088fd:	6c                   	insb   (%dx),%es:(%edi)
c00088fe:	6f                   	outsl  %ds:(%esi),(%dx)
c00088ff:	63 6b 69             	arpl   %bp,0x69(%ebx)
c0008902:	6e                   	outsb  %ds:(%esi),(%dx)
c0008903:	67 20 6e 6f          	and    %ch,0x6f(%bp)
c0008907:	74 20                	je     c0008929 <__FUNCTION__.1529+0x55>
c0008909:	79 65                	jns    c0008970 <__FUNCTION__.1529+0x9c>
c000890b:	74 20                	je     c000892d <__FUNCTION__.1529+0x59>
c000890d:	69 6d 70 6c 65 6d 65 	imul   $0x656d656c,0x70(%ebp),%ebp
c0008914:	6e                   	outsb  %ds:(%esi),(%dx)
c0008915:	74 65                	je     c000897c <__FUNCTION__.1529+0xa8>
c0008917:	64 2e 00 00          	fs add %al,%cs:%fs:(%eax)
c000891b:	00 0a                	add    %cl,(%edx)
c000891d:	4b                   	dec    %ebx
c000891e:	45                   	inc    %ebp
c000891f:	52                   	push   %edx
c0008920:	4e                   	dec    %esi
c0008921:	45                   	inc    %ebp
c0008922:	4c                   	dec    %esp
c0008923:	20 50 41             	and    %dl,0x41(%eax)
c0008926:	4e                   	dec    %esi
c0008927:	49                   	dec    %ecx
c0008928:	43                   	inc    %ebx
c0008929:	20 28                	and    %ch,(%eax)
c000892b:	25 73 29 20 0a       	and    $0xa202973,%eax
c0008930:	09 69 6e             	or     %ebp,0x6e(%ecx)
c0008933:	20 25 73 20 61 74    	and    %ah,0x74612073
c0008939:	20 6c 69 6e          	and    %ch,0x6e(%ecx,%ebp,2)
c000893d:	65 20 25 64 00 00 00 	and    %ah,%gs:0x64
c0008944:	25 73 28 29 3a       	and    $0x3a292873,%eax
c0008949:	20 74 68 72          	and    %dh,0x72(%eax,%ebp,2)
c000894d:	65                   	gs
c000894e:	61                   	popa   
c000894f:	64                   	fs
c0008950:	73 20                	jae    c0008972 <__FUNCTION__.1529+0x9e>
c0008952:	73 68                	jae    c00089bc <__FUNCTION__.1495+0x35>
c0008954:	61                   	popa   
c0008955:	72 65                	jb     c00089bc <__FUNCTION__.1495+0x35>
c0008957:	20 74 68 65          	and    %dh,0x65(%eax,%ebp,2)
c000895b:	20 66 61             	and    %ah,0x61(%esi)
c000895e:	74 68                	je     c00089c8 <__FUNCTION__.1495+0x41>
c0008960:	65                   	gs
c0008961:	72 27                	jb     c000898a <__FUNCTION__.1495+0x3>
c0008963:	73 20                	jae    c0008985 <__FUNCTION__.1529+0xb1>
c0008965:	68 65 61 70 2e       	push   $0x2e706165
c000896a:	0a 00                	or     (%eax),%al
c000896c:	55                   	push   %ebp
c000896d:	6d                   	insl   (%dx),%es:(%edi)
c000896e:	61                   	popa   
c000896f:	6c                   	insb   (%dx),%es:(%edi)
c0008970:	6c                   	insb   (%dx),%es:(%edi)
c0008971:	6f                   	outsl  %ds:(%esi),(%dx)
c0008972:	63 20                	arpl   %sp,(%eax)
c0008974:	6e                   	outsb  %ds:(%esi),(%dx)
c0008975:	6f                   	outsl  %ds:(%esi),(%dx)
c0008976:	74 20                	je     c0008998 <__FUNCTION__.1495+0x11>
c0008978:	72 65                	jb     c00089df <__FUNCTION__.1495+0x58>
c000897a:	61                   	popa   
c000897b:	64                   	fs
c000897c:	79 20                	jns    c000899e <__FUNCTION__.1495+0x17>
c000897e:	66 6f                	outsw  %ds:(%esi),(%dx)
c0008980:	72 20                	jb     c00089a2 <__FUNCTION__.1495+0x1b>
c0008982:	75 73                	jne    c00089f7 <__FUNCTION__.1495+0x70>
c0008984:	65 2e 00 75 6d       	gs add %dh,%cs:%gs:0x6d(%ebp)

c0008987 <__FUNCTION__.1495>:
c0008987:	75 6d                	jne    c00089f6 <__FUNCTION__.1495+0x6f>
c0008989:	61                   	popa   
c000898a:	6c                   	insb   (%dx),%es:(%edi)
c000898b:	6c                   	insb   (%dx),%es:(%edi)
c000898c:	6f                   	outsl  %ds:(%esi),(%dx)
c000898d:	63 5f 69             	arpl   %bx,0x69(%edi)
c0008990:	6e                   	outsb  %ds:(%esi),(%dx)
c0008991:	69 74 00 6b 65 72 6e 	imul   $0x656e7265,0x6b(%eax,%eax,1),%esi
c0008998:	65 
c0008999:	6c                   	insb   (%dx),%es:(%edi)
c000899a:	2f                   	das    
c000899b:	64                   	fs
c000899c:	72 69                	jb     c0008a07 <__FUNCTION__.1495+0x80>
c000899e:	76 65                	jbe    c0008a05 <__FUNCTION__.1495+0x7e>
c00089a0:	72 73                	jb     c0008a15 <__FUNCTION__.1495+0x8e>
c00089a2:	2f                   	das    
c00089a3:	6b 65 79 62          	imul   $0x62,0x79(%ebp),%esp
c00089a7:	6f                   	outsl  %ds:(%esi),(%dx)
c00089a8:	61                   	popa   
c00089a9:	72 64                	jb     c0008a0f <__FUNCTION__.1495+0x88>
c00089ab:	2f                   	das    
c00089ac:	6b 65 79 62          	imul   $0x62,0x79(%ebp),%esp
c00089b0:	6f                   	outsl  %ds:(%esi),(%dx)
c00089b1:	61                   	popa   
c00089b2:	72 64                	jb     c0008a18 <__FUNCTION__.1495+0x91>
c00089b4:	2e 63 00             	arpl   %ax,%cs:(%eax)
c00089b7:	53                   	push   %ebx
c00089b8:	70 65                	jo     c0008a1f <__FUNCTION__.1495+0x98>
c00089ba:	61                   	popa   
c00089bb:	6b 65 72 20          	imul   $0x20,0x72(%ebp),%esp
c00089bf:	6e                   	outsb  %ds:(%esi),(%dx)
c00089c0:	6f                   	outsl  %ds:(%esi),(%dx)
c00089c1:	74 20                	je     c00089e3 <__FUNCTION__.1495+0x5c>
c00089c3:	79 65                	jns    c0008a2a <__FUNCTION__.1495+0xa3>
c00089c5:	74 20                	je     c00089e7 <__FUNCTION__.1495+0x60>
c00089c7:	69 6d 70 6c 65 6d 65 	imul   $0x656d656c,0x70(%ebp),%ebp
c00089ce:	6e                   	outsb  %ds:(%esi),(%dx)
c00089cf:	74 65                	je     c0008a36 <__FUNCTION__.1495+0xaf>
c00089d1:	64 00 00             	add    %al,%fs:(%eax)
c00089d4:	0a 4b 45             	or     0x45(%ebx),%cl
c00089d7:	52                   	push   %edx
c00089d8:	4e                   	dec    %esi
c00089d9:	45                   	inc    %ebp
c00089da:	4c                   	dec    %esp
c00089db:	20 50 41             	and    %dl,0x41(%eax)
c00089de:	4e                   	dec    %esi
c00089df:	49                   	dec    %ecx
c00089e0:	43                   	inc    %ebx
c00089e1:	20 28                	and    %ch,(%eax)
c00089e3:	25 73 29 20 0a       	and    $0xa202973,%eax
c00089e8:	09 69 6e             	or     %ebp,0x6e(%ecx)
c00089eb:	20 25 73 20 61 74    	and    %ah,0x74612073
c00089f1:	20 6c 69 6e          	and    %ch,0x6e(%ecx,%ebp,2)
c00089f5:	65 20 25 64 00 66 90 	and    %ah,%gs:0x90660064
c00089fc:	4e                   	dec    %esi
c00089fd:	62 00                	bound  %eax,(%eax)
c00089ff:	c0 08 61             	rorb   $0x61,(%eax)
c0008a02:	00 c0                	add    %al,%al
c0008a04:	88 61 00             	mov    %ah,0x0(%ecx)
c0008a07:	c0 e0 60             	shl    $0x60,%al
c0008a0a:	00 c0                	add    %al,%al
c0008a0c:	9f                   	lahf   
c0008a0d:	61                   	popa   
c0008a0e:	00 c0                	add    %al,%al
c0008a10:	9f                   	lahf   
c0008a11:	61                   	popa   
c0008a12:	00 c0                	add    %al,%al
c0008a14:	fc                   	cld    
c0008a15:	60                   	pusha  
c0008a16:	00 c0                	add    %al,%al
c0008a18:	3c 4e                	cmp    $0x4e,%al
c0008a1a:	55                   	push   %ebp
c0008a1b:	4c                   	dec    %esp
c0008a1c:	4c                   	dec    %esp
c0008a1d:	3e 00 00             	add    %al,%ds:(%eax)
c0008a20:	38 6b 00             	cmp    %ch,0x0(%ebx)
c0008a23:	c0 4a 6b 00          	rorb   $0x0,0x6b(%edx)
c0008a27:	c0 4a 6b 00          	rorb   $0x0,0x6b(%edx)
c0008a2b:	c0 3e 6b             	sarb   $0x6b,(%esi)
c0008a2e:	00 c0                	add    %al,%al
c0008a30:	4a                   	dec    %edx
c0008a31:	6b 00 c0             	imul   $0xffffffc0,(%eax),%eax
c0008a34:	4a                   	dec    %edx
c0008a35:	6b 00 c0             	imul   $0xffffffc0,(%eax),%eax
c0008a38:	4a                   	dec    %edx
c0008a39:	6b 00 c0             	imul   $0xffffffc0,(%eax),%eax
c0008a3c:	4a                   	dec    %edx
c0008a3d:	6b 00 c0             	imul   $0xffffffc0,(%eax),%eax
c0008a40:	4a                   	dec    %edx
c0008a41:	6b 00 c0             	imul   $0xffffffc0,(%eax),%eax
c0008a44:	4a                   	dec    %edx
c0008a45:	6b 00 c0             	imul   $0xffffffc0,(%eax),%eax
c0008a48:	4a                   	dec    %edx
c0008a49:	6b 00 c0             	imul   $0xffffffc0,(%eax),%eax
c0008a4c:	32 6b 00             	xor    0x0(%ebx),%ch
c0008a4f:	c0 4a 6b 00          	rorb   $0x0,0x6b(%edx)
c0008a53:	c0 2c 6b 00          	shrb   $0x0,(%ebx,%ebp,2)
c0008a57:	c0 4a 6b 00          	rorb   $0x0,0x6b(%edx)
c0008a5b:	c0 4a 6b 00          	rorb   $0x0,0x6b(%edx)
c0008a5f:	c0 44 6b 00 c0       	rolb   $0xc0,0x0(%ebx,%ebp,2)
c0008a64:	90                   	nop
c0008a65:	6e                   	outsb  %ds:(%esi),(%dx)
c0008a66:	00 c0                	add    %al,%al
c0008a68:	cc                   	int3   
c0008a69:	6e                   	outsb  %ds:(%esi),(%dx)
c0008a6a:	00 c0                	add    %al,%al
c0008a6c:	cc                   	int3   
c0008a6d:	6e                   	outsb  %ds:(%esi),(%dx)
c0008a6e:	00 c0                	add    %al,%al
c0008a70:	cc                   	int3   
c0008a71:	6e                   	outsb  %ds:(%esi),(%dx)
c0008a72:	00 c0                	add    %al,%al
c0008a74:	cc                   	int3   
c0008a75:	6e                   	outsb  %ds:(%esi),(%dx)
c0008a76:	00 c0                	add    %al,%al
c0008a78:	cc                   	int3   
c0008a79:	6e                   	outsb  %ds:(%esi),(%dx)
c0008a7a:	00 c0                	add    %al,%al
c0008a7c:	cc                   	int3   
c0008a7d:	6e                   	outsb  %ds:(%esi),(%dx)
c0008a7e:	00 c0                	add    %al,%al
c0008a80:	cc                   	int3   
c0008a81:	6e                   	outsb  %ds:(%esi),(%dx)
c0008a82:	00 c0                	add    %al,%al
c0008a84:	cc                   	int3   
c0008a85:	6e                   	outsb  %ds:(%esi),(%dx)
c0008a86:	00 c0                	add    %al,%al
c0008a88:	cc                   	int3   
c0008a89:	6e                   	outsb  %ds:(%esi),(%dx)
c0008a8a:	00 c0                	add    %al,%al
c0008a8c:	cc                   	int3   
c0008a8d:	6e                   	outsb  %ds:(%esi),(%dx)
c0008a8e:	00 c0                	add    %al,%al
c0008a90:	cc                   	int3   
c0008a91:	6e                   	outsb  %ds:(%esi),(%dx)
c0008a92:	00 c0                	add    %al,%al
c0008a94:	cc                   	int3   
c0008a95:	6e                   	outsb  %ds:(%esi),(%dx)
c0008a96:	00 c0                	add    %al,%al
c0008a98:	cc                   	int3   
c0008a99:	6e                   	outsb  %ds:(%esi),(%dx)
c0008a9a:	00 c0                	add    %al,%al
c0008a9c:	cc                   	int3   
c0008a9d:	6e                   	outsb  %ds:(%esi),(%dx)
c0008a9e:	00 c0                	add    %al,%al
c0008aa0:	cc                   	int3   
c0008aa1:	6e                   	outsb  %ds:(%esi),(%dx)
c0008aa2:	00 c0                	add    %al,%al
c0008aa4:	cc                   	int3   
c0008aa5:	6e                   	outsb  %ds:(%esi),(%dx)
c0008aa6:	00 c0                	add    %al,%al
c0008aa8:	cc                   	int3   
c0008aa9:	6e                   	outsb  %ds:(%esi),(%dx)
c0008aaa:	00 c0                	add    %al,%al
c0008aac:	cc                   	int3   
c0008aad:	6e                   	outsb  %ds:(%esi),(%dx)
c0008aae:	00 c0                	add    %al,%al
c0008ab0:	cc                   	int3   
c0008ab1:	6e                   	outsb  %ds:(%esi),(%dx)
c0008ab2:	00 c0                	add    %al,%al
c0008ab4:	cc                   	int3   
c0008ab5:	6e                   	outsb  %ds:(%esi),(%dx)
c0008ab6:	00 c0                	add    %al,%al
c0008ab8:	cc                   	int3   
c0008ab9:	6e                   	outsb  %ds:(%esi),(%dx)
c0008aba:	00 c0                	add    %al,%al
c0008abc:	cc                   	int3   
c0008abd:	6e                   	outsb  %ds:(%esi),(%dx)
c0008abe:	00 c0                	add    %al,%al
c0008ac0:	cc                   	int3   
c0008ac1:	6e                   	outsb  %ds:(%esi),(%dx)
c0008ac2:	00 c0                	add    %al,%al
c0008ac4:	cc                   	int3   
c0008ac5:	6e                   	outsb  %ds:(%esi),(%dx)
c0008ac6:	00 c0                	add    %al,%al
c0008ac8:	cc                   	int3   
c0008ac9:	6e                   	outsb  %ds:(%esi),(%dx)
c0008aca:	00 c0                	add    %al,%al
c0008acc:	cc                   	int3   
c0008acd:	6e                   	outsb  %ds:(%esi),(%dx)
c0008ace:	00 c0                	add    %al,%al
c0008ad0:	cc                   	int3   
c0008ad1:	6e                   	outsb  %ds:(%esi),(%dx)
c0008ad2:	00 c0                	add    %al,%al
c0008ad4:	cc                   	int3   
c0008ad5:	6e                   	outsb  %ds:(%esi),(%dx)
c0008ad6:	00 c0                	add    %al,%al
c0008ad8:	cc                   	int3   
c0008ad9:	6e                   	outsb  %ds:(%esi),(%dx)
c0008ada:	00 c0                	add    %al,%al
c0008adc:	cc                   	int3   
c0008add:	6e                   	outsb  %ds:(%esi),(%dx)
c0008ade:	00 c0                	add    %al,%al
c0008ae0:	cc                   	int3   
c0008ae1:	6e                   	outsb  %ds:(%esi),(%dx)
c0008ae2:	00 c0                	add    %al,%al
c0008ae4:	cc                   	int3   
c0008ae5:	6e                   	outsb  %ds:(%esi),(%dx)
c0008ae6:	00 c0                	add    %al,%al
c0008ae8:	cc                   	int3   
c0008ae9:	6e                   	outsb  %ds:(%esi),(%dx)
c0008aea:	00 c0                	add    %al,%al
c0008aec:	cc                   	int3   
c0008aed:	6e                   	outsb  %ds:(%esi),(%dx)
c0008aee:	00 c0                	add    %al,%al
c0008af0:	cc                   	int3   
c0008af1:	6e                   	outsb  %ds:(%esi),(%dx)
c0008af2:	00 c0                	add    %al,%al
c0008af4:	cc                   	int3   
c0008af5:	6e                   	outsb  %ds:(%esi),(%dx)
c0008af6:	00 c0                	add    %al,%al
c0008af8:	cc                   	int3   
c0008af9:	6e                   	outsb  %ds:(%esi),(%dx)
c0008afa:	00 c0                	add    %al,%al
c0008afc:	cc                   	int3   
c0008afd:	6e                   	outsb  %ds:(%esi),(%dx)
c0008afe:	00 c0                	add    %al,%al
c0008b00:	cc                   	int3   
c0008b01:	6e                   	outsb  %ds:(%esi),(%dx)
c0008b02:	00 c0                	add    %al,%al
c0008b04:	cc                   	int3   
c0008b05:	6e                   	outsb  %ds:(%esi),(%dx)
c0008b06:	00 c0                	add    %al,%al
c0008b08:	cc                   	int3   
c0008b09:	6e                   	outsb  %ds:(%esi),(%dx)
c0008b0a:	00 c0                	add    %al,%al
c0008b0c:	cc                   	int3   
c0008b0d:	6e                   	outsb  %ds:(%esi),(%dx)
c0008b0e:	00 c0                	add    %al,%al
c0008b10:	cc                   	int3   
c0008b11:	6e                   	outsb  %ds:(%esi),(%dx)
c0008b12:	00 c0                	add    %al,%al
c0008b14:	cc                   	int3   
c0008b15:	6e                   	outsb  %ds:(%esi),(%dx)
c0008b16:	00 c0                	add    %al,%al
c0008b18:	cc                   	int3   
c0008b19:	6e                   	outsb  %ds:(%esi),(%dx)
c0008b1a:	00 c0                	add    %al,%al
c0008b1c:	cc                   	int3   
c0008b1d:	6e                   	outsb  %ds:(%esi),(%dx)
c0008b1e:	00 c0                	add    %al,%al
c0008b20:	cc                   	int3   
c0008b21:	6e                   	outsb  %ds:(%esi),(%dx)
c0008b22:	00 c0                	add    %al,%al
c0008b24:	cc                   	int3   
c0008b25:	6e                   	outsb  %ds:(%esi),(%dx)
c0008b26:	00 c0                	add    %al,%al
c0008b28:	cc                   	int3   
c0008b29:	6e                   	outsb  %ds:(%esi),(%dx)
c0008b2a:	00 c0                	add    %al,%al
c0008b2c:	cc                   	int3   
c0008b2d:	6e                   	outsb  %ds:(%esi),(%dx)
c0008b2e:	00 c0                	add    %al,%al
c0008b30:	b0 6e                	mov    $0x6e,%al
c0008b32:	00 c0                	add    %al,%al
c0008b34:	cc                   	int3   
c0008b35:	6e                   	outsb  %ds:(%esi),(%dx)
c0008b36:	00 c0                	add    %al,%al
c0008b38:	cc                   	int3   
c0008b39:	6e                   	outsb  %ds:(%esi),(%dx)
c0008b3a:	00 c0                	add    %al,%al
c0008b3c:	cc                   	int3   
c0008b3d:	6e                   	outsb  %ds:(%esi),(%dx)
c0008b3e:	00 c0                	add    %al,%al
c0008b40:	cc                   	int3   
c0008b41:	6e                   	outsb  %ds:(%esi),(%dx)
c0008b42:	00 c0                	add    %al,%al
c0008b44:	cc                   	int3   
c0008b45:	6e                   	outsb  %ds:(%esi),(%dx)
c0008b46:	00 c0                	add    %al,%al
c0008b48:	cc                   	int3   
c0008b49:	6e                   	outsb  %ds:(%esi),(%dx)
c0008b4a:	00 c0                	add    %al,%al
c0008b4c:	cc                   	int3   
c0008b4d:	6e                   	outsb  %ds:(%esi),(%dx)
c0008b4e:	00 c0                	add    %al,%al
c0008b50:	cc                   	int3   
c0008b51:	6e                   	outsb  %ds:(%esi),(%dx)
c0008b52:	00 c0                	add    %al,%al
c0008b54:	cc                   	int3   
c0008b55:	6e                   	outsb  %ds:(%esi),(%dx)
c0008b56:	00 c0                	add    %al,%al
c0008b58:	cc                   	int3   
c0008b59:	6e                   	outsb  %ds:(%esi),(%dx)
c0008b5a:	00 c0                	add    %al,%al
c0008b5c:	a2 6c 00 c0 c6       	mov    %al,0xc6c0006c
c0008b61:	6e                   	outsb  %ds:(%esi),(%dx)
c0008b62:	00 c0                	add    %al,%al
c0008b64:	cc                   	int3   
c0008b65:	6e                   	outsb  %ds:(%esi),(%dx)
c0008b66:	00 c0                	add    %al,%al
c0008b68:	cc                   	int3   
c0008b69:	6e                   	outsb  %ds:(%esi),(%dx)
c0008b6a:	00 c0                	add    %al,%al
c0008b6c:	cc                   	int3   
c0008b6d:	6e                   	outsb  %ds:(%esi),(%dx)
c0008b6e:	00 c0                	add    %al,%al
c0008b70:	cc                   	int3   
c0008b71:	6e                   	outsb  %ds:(%esi),(%dx)
c0008b72:	00 c0                	add    %al,%al
c0008b74:	c6                   	(bad)  
c0008b75:	6e                   	outsb  %ds:(%esi),(%dx)
c0008b76:	00 c0                	add    %al,%al
c0008b78:	cc                   	int3   
c0008b79:	6e                   	outsb  %ds:(%esi),(%dx)
c0008b7a:	00 c0                	add    %al,%al
c0008b7c:	cc                   	int3   
c0008b7d:	6e                   	outsb  %ds:(%esi),(%dx)
c0008b7e:	00 c0                	add    %al,%al
c0008b80:	cc                   	int3   
c0008b81:	6e                   	outsb  %ds:(%esi),(%dx)
c0008b82:	00 c0                	add    %al,%al
c0008b84:	cc                   	int3   
c0008b85:	6e                   	outsb  %ds:(%esi),(%dx)
c0008b86:	00 c0                	add    %al,%al
c0008b88:	24 6e                	and    $0x6e,%al
c0008b8a:	00 c0                	add    %al,%al
c0008b8c:	a7                   	cmpsl  %es:(%edi),%ds:(%esi)
c0008b8d:	6e                   	outsb  %ds:(%esi),(%dx)
c0008b8e:	00 c0                	add    %al,%al
c0008b90:	c3                   	ret    
c0008b91:	6d                   	insl   (%dx),%es:(%edi)
c0008b92:	00 c0                	add    %al,%al
c0008b94:	cc                   	int3   
c0008b95:	6e                   	outsb  %ds:(%esi),(%dx)
c0008b96:	00 c0                	add    %al,%al
c0008b98:	cc                   	int3   
c0008b99:	6e                   	outsb  %ds:(%esi),(%dx)
c0008b9a:	00 c0                	add    %al,%al
c0008b9c:	11 6d 00             	adc    %ebp,0x0(%ebp)
c0008b9f:	c0 cc 6e             	ror    $0x6e,%ah
c0008ba2:	00 c0                	add    %al,%al
c0008ba4:	12 6f 00             	adc    0x0(%edi),%ch
c0008ba7:	c0 cc 6e             	ror    $0x6e,%ah
c0008baa:	00 c0                	add    %al,%al
c0008bac:	cc                   	int3   
c0008bad:	6e                   	outsb  %ds:(%esi),(%dx)
c0008bae:	00 c0                	add    %al,%al
c0008bb0:	bd 6e 00 c0 48       	mov    $0x48c0006e,%ebp
c0008bb5:	31 34 34             	xor    %esi,(%esp,%esi,1)
c0008bb8:	30 00                	xor    %al,(%eax)
c0008bba:	48                   	dec    %eax
c0008bbb:	31 36                	xor    %esi,(%esi)
c0008bbd:	38 30                	cmp    %dh,(%eax)
c0008bbf:	00 38                	add    %bh,(%eax)
c0008bc1:	32 37                	xor    (%edi),%dh
c0008bc3:	32 41 2f             	xor    0x2f(%ecx),%al
c0008bc6:	37                   	aaa    
c0008bc7:	36                   	ss
c0008bc8:	35 41 00 90 62       	xor    $0x62900041,%eax
c0008bcd:	67 00 00             	add    %al,(%bx,%si)
c0008bd0:	45                   	inc    %ebp
c0008bd1:	78 65                	js     c0008c38 <__FUNCTION__.1495+0x2b1>
c0008bd3:	63 75 74             	arpl   %si,0x74(%ebp)
c0008bd6:	65 20 61 20          	and    %ah,%gs:0x20(%ecx)
c0008bda:	33 32                	xor    (%edx),%esi
c0008bdc:	2d 62 69 74 20       	sub    $0x20746962,%eax
c0008be1:	70 72                	jo     c0008c55 <__FUNCTION__.1495+0x2ce>
c0008be3:	6f                   	outsl  %ds:(%esi),(%dx)
c0008be4:	67 72 61             	addr16 jb c0008c48 <__FUNCTION__.1495+0x2c1>
c0008be7:	6d                   	insl   (%dx),%es:(%edi)
c0008be8:	20 69 6e             	and    %ch,0x6e(%ecx)
c0008beb:	20 62 61             	and    %ah,0x61(%edx)
c0008bee:	63 6b 67             	arpl   %bp,0x67(%ebx)
c0008bf1:	72 6f                	jb     c0008c62 <__FUNCTION__.1495+0x2db>
c0008bf3:	75 6e                	jne    c0008c63 <__FUNCTION__.1495+0x2dc>
c0008bf5:	64 00 63 61          	add    %ah,%fs:0x61(%ebx)
c0008bf9:	74 00                	je     c0008bfb <__FUNCTION__.1495+0x274>
c0008bfb:	00 43 6f             	add    %al,0x6f(%ebx)
c0008bfe:	6e                   	outsb  %ds:(%esi),(%dx)
c0008bff:	63 61 74             	arpl   %sp,0x74(%ecx)
c0008c02:	65 6e                	outsb  %gs:(%esi),(%dx)
c0008c04:	61                   	popa   
c0008c05:	74 65                	je     c0008c6c <__FUNCTION__.1495+0x2e5>
c0008c07:	20 46 49             	and    %al,0x49(%esi)
c0008c0a:	4c                   	dec    %esp
c0008c0b:	45                   	inc    %ebp
c0008c0c:	20 74 6f 20          	and    %dh,0x20(%edi,%ebp,2)
c0008c10:	73 74                	jae    c0008c86 <__FUNCTION__.1495+0x2ff>
c0008c12:	61                   	popa   
c0008c13:	6e                   	outsb  %ds:(%esi),(%dx)
c0008c14:	64                   	fs
c0008c15:	61                   	popa   
c0008c16:	72 64                	jb     c0008c7c <__FUNCTION__.1495+0x2f5>
c0008c18:	20 6f 75             	and    %ch,0x75(%edi)
c0008c1b:	74 70                	je     c0008c8d <__FUNCTION__.1495+0x306>
c0008c1d:	75 74                	jne    c0008c93 <__FUNCTION__.1495+0x30c>
c0008c1f:	00 63 64             	add    %ah,0x64(%ebx)
c0008c22:	00 43 68             	add    %al,0x68(%ebx)
c0008c25:	61                   	popa   
c0008c26:	6e                   	outsb  %ds:(%esi),(%dx)
c0008c27:	67 65 20 74 68       	and    %dh,%gs:0x68(%si)
c0008c2c:	65 20 63 75          	and    %ah,%gs:0x75(%ebx)
c0008c30:	72 72                	jb     c0008ca4 <__FUNCTION__.1495+0x31d>
c0008c32:	65 6e                	outsb  %gs:(%esi),(%dx)
c0008c34:	74 20                	je     c0008c56 <__FUNCTION__.1495+0x2cf>
c0008c36:	64 69 72 65 63 74 6f 	imul   $0x726f7463,%fs:0x65(%edx),%esi
c0008c3d:	72 
c0008c3e:	79 00                	jns    c0008c40 <__FUNCTION__.1495+0x2b9>
c0008c40:	63 68 65             	arpl   %bp,0x65(%eax)
c0008c43:	63 6b 6d             	arpl   %bp,0x6d(%ebx)
c0008c46:	65                   	gs
c0008c47:	6d                   	insl   (%dx),%es:(%edi)
c0008c48:	20 26                	and    %ah,(%esi)
c0008c4a:	00 00                	add    %al,(%eax)
c0008c4c:	43                   	inc    %ebx
c0008c4d:	72 65                	jb     c0008cb4 <__FUNCTION__.1495+0x32d>
c0008c4f:	61                   	popa   
c0008c50:	74 65                	je     c0008cb7 <__FUNCTION__.1495+0x330>
c0008c52:	20 61 20             	and    %ah,0x20(%ecx)
c0008c55:	62 61 63             	bound  %esp,0x63(%ecx)
c0008c58:	6b 67 72 6f          	imul   $0x6f,0x72(%edi),%esp
c0008c5c:	75 6e                	jne    c0008ccc <__FUNCTION__.1495+0x345>
c0008c5e:	64 20 74 61 73       	and    %dh,%fs:0x73(%ecx,%eiz,2)
c0008c63:	6b 20 74             	imul   $0x74,(%eax),%esp
c0008c66:	6f                   	outsl  %ds:(%esi),(%dx)
c0008c67:	20 63 68             	and    %ah,0x68(%ebx)
c0008c6a:	65 63 6b 20          	arpl   %bp,%gs:0x20(%ebx)
c0008c6e:	66                   	data16
c0008c6f:	72 61                	jb     c0008cd2 <__FUNCTION__.1495+0x34b>
c0008c71:	6d                   	insl   (%dx),%es:(%edi)
c0008c72:	65                   	gs
c0008c73:	73 20                	jae    c0008c95 <__FUNCTION__.1495+0x30e>
c0008c75:	73 74                	jae    c0008ceb <__FUNCTION__.1495+0x364>
c0008c77:	61                   	popa   
c0008c78:	63 6b 20             	arpl   %bp,0x20(%ebx)
c0008c7b:	69 6e 74 65 67 72 69 	imul   $0x69726765,0x74(%esi),%ebp
c0008c82:	74 79                	je     c0008cfd <__FUNCTION__.1495+0x376>
c0008c84:	00 63 6c             	add    %ah,0x6c(%ebx)
c0008c87:	65                   	gs
c0008c88:	61                   	popa   
c0008c89:	72 00                	jb     c0008c8b <__FUNCTION__.1495+0x304>
c0008c8b:	43                   	inc    %ebx
c0008c8c:	6c                   	insb   (%dx),%es:(%edi)
c0008c8d:	65                   	gs
c0008c8e:	61                   	popa   
c0008c8f:	72 20                	jb     c0008cb1 <__FUNCTION__.1495+0x32a>
c0008c91:	74 68                	je     c0008cfb <__FUNCTION__.1495+0x374>
c0008c93:	65 20 73 63          	and    %dh,%gs:0x63(%ebx)
c0008c97:	72 65                	jb     c0008cfe <__FUNCTION__.1495+0x377>
c0008c99:	65 6e                	outsb  %gs:(%esi),(%dx)
c0008c9b:	00 63 70             	add    %ah,0x70(%ebx)
c0008c9e:	75 69                	jne    c0008d09 <__FUNCTION__.1495+0x382>
c0008ca0:	64 00 00             	add    %al,%fs:(%eax)
c0008ca3:	00 53 68             	add    %dl,0x68(%ebx)
c0008ca6:	6f                   	outsl  %ds:(%esi),(%dx)
c0008ca7:	77 20                	ja     c0008cc9 <__FUNCTION__.1495+0x342>
c0008ca9:	69 6e 66 6f 72 6d 61 	imul   $0x616d726f,0x66(%esi),%ebp
c0008cb0:	74 69                	je     c0008d1b <__FUNCTION__.1495+0x394>
c0008cb2:	6f                   	outsl  %ds:(%esi),(%dx)
c0008cb3:	6e                   	outsb  %ds:(%esi),(%dx)
c0008cb4:	73 20                	jae    c0008cd6 <__FUNCTION__.1495+0x34f>
c0008cb6:	61                   	popa   
c0008cb7:	62 6f 75             	bound  %ebp,0x75(%edi)
c0008cba:	74 20                	je     c0008cdc <__FUNCTION__.1495+0x355>
c0008cbc:	74 68                	je     c0008d26 <__FUNCTION__.1495+0x39f>
c0008cbe:	65 20 43 50          	and    %al,%gs:0x50(%ebx)
c0008cc2:	55                   	push   %ebp
c0008cc3:	20 2d 20 4f 6e 6c    	and    %ch,0x6c6e4f20
c0008cc9:	79 20                	jns    c0008ceb <__FUNCTION__.1495+0x364>
c0008ccb:	66 6f                	outsw  %ds:(%esi),(%dx)
c0008ccd:	72 20                	jb     c0008cef <__FUNCTION__.1495+0x368>
c0008ccf:	49                   	dec    %ecx
c0008cd0:	41                   	inc    %ecx
c0008cd1:	2d 33 32 20 49       	sub    $0x49203233,%eax
c0008cd6:	4e                   	dec    %esi
c0008cd7:	54                   	push   %esp
c0008cd8:	45                   	inc    %ebp
c0008cd9:	4c                   	dec    %esp
c0008cda:	28 52 29             	sub    %dl,0x29(%edx)
c0008cdd:	00 64 75 6d          	add    %ah,0x6d(%ebp,%esi,2)
c0008ce1:	70 00                	jo     c0008ce3 <__FUNCTION__.1495+0x35c>
c0008ce3:	52                   	push   %edx
c0008ce4:	65 67 69 73 74 65 72 	imul   $0x64207265,%gs:0x74(%bp,%di),%esi
c0008ceb:	20 64 
c0008ced:	75 6d                	jne    c0008d5c <__FUNCTION__.1495+0x3d5>
c0008cef:	70 00                	jo     c0008cf1 <__FUNCTION__.1495+0x36a>
c0008cf1:	66                   	data16
c0008cf2:	72 61                	jb     c0008d55 <__FUNCTION__.1495+0x3ce>
c0008cf4:	6d                   	insl   (%dx),%es:(%edi)
c0008cf5:	65                   	gs
c0008cf6:	73 00                	jae    c0008cf8 <__FUNCTION__.1495+0x371>
c0008cf8:	44                   	inc    %esp
c0008cf9:	75 6d                	jne    c0008d68 <__FUNCTION__.1495+0x3e1>
c0008cfb:	70 20                	jo     c0008d1d <__FUNCTION__.1495+0x396>
c0008cfd:	66                   	data16
c0008cfe:	72 65                	jb     c0008d65 <__FUNCTION__.1495+0x3de>
c0008d00:	65 20 66 72          	and    %ah,%gs:0x72(%esi)
c0008d04:	61                   	popa   
c0008d05:	6d                   	insl   (%dx),%es:(%edi)
c0008d06:	65                   	gs
c0008d07:	73 00                	jae    c0008d09 <__FUNCTION__.1495+0x382>
c0008d09:	68 65 6c 70 00       	push   $0x706c65
c0008d0e:	53                   	push   %ebx
c0008d0f:	68 6f 77 20 74       	push   $0x7420776f
c0008d14:	68 69 73 20 68       	push   $0x68207369
c0008d19:	65                   	gs
c0008d1a:	6c                   	insb   (%dx),%es:(%edi)
c0008d1b:	70 00                	jo     c0008d1d <__FUNCTION__.1495+0x396>
c0008d1d:	6b 69 6c 6c          	imul   $0x6c,0x6c(%ecx),%ebp
c0008d21:	00 4b 69             	add    %cl,0x69(%ebx)
c0008d24:	6c                   	insb   (%dx),%es:(%edi)
c0008d25:	6c                   	insb   (%dx),%es:(%edi)
c0008d26:	20 61 20             	and    %ah,0x20(%ecx)
c0008d29:	74 61                	je     c0008d8c <__FUNCTION__.1495+0x405>
c0008d2b:	73 6b                	jae    c0008d98 <__FUNCTION__.1495+0x411>
c0008d2d:	00 6c 73 00          	add    %ch,0x0(%ebx,%esi,2)
c0008d31:	4c                   	dec    %esp
c0008d32:	69 73 74 20 69 6e 66 	imul   $0x666e6920,0x74(%ebx),%esi
c0008d39:	6f                   	outsl  %ds:(%esi),(%dx)
c0008d3a:	72 6d                	jb     c0008da9 <__FUNCTION__.1495+0x422>
c0008d3c:	61                   	popa   
c0008d3d:	74 69                	je     c0008da8 <__FUNCTION__.1495+0x421>
c0008d3f:	6f                   	outsl  %ds:(%esi),(%dx)
c0008d40:	6e                   	outsb  %ds:(%esi),(%dx)
c0008d41:	73 20                	jae    c0008d63 <__FUNCTION__.1495+0x3dc>
c0008d43:	61                   	popa   
c0008d44:	62 6f 75             	bound  %ebp,0x75(%edi)
c0008d47:	74 20                	je     c0008d69 <__FUNCTION__.1495+0x3e2>
c0008d49:	46                   	inc    %esi
c0008d4a:	49                   	dec    %ecx
c0008d4b:	4c                   	dec    %esp
c0008d4c:	45                   	inc    %ebp
c0008d4d:	73 00                	jae    c0008d4f <__FUNCTION__.1495+0x3c8>
c0008d4f:	6d                   	insl   (%dx),%es:(%edi)
c0008d50:	65                   	gs
c0008d51:	6d                   	insl   (%dx),%es:(%edi)
c0008d52:	00 44 75 6d          	add    %al,0x6d(%ebp,%esi,2)
c0008d56:	70 20                	jo     c0008d78 <__FUNCTION__.1495+0x3f1>
c0008d58:	6b 65 72 6e          	imul   $0x6e,0x72(%ebp),%esp
c0008d5c:	65                   	gs
c0008d5d:	6c                   	insb   (%dx),%es:(%edi)
c0008d5e:	20 6d 65             	and    %ch,0x65(%ebp)
c0008d61:	6d                   	insl   (%dx),%es:(%edi)
c0008d62:	6f                   	outsl  %ds:(%esi),(%dx)
c0008d63:	72 79                	jb     c0008dde <__FUNCTION__.1495+0x457>
c0008d65:	20 6d 61             	and    %ch,0x61(%ebp)
c0008d68:	70 00                	jo     c0008d6a <__FUNCTION__.1495+0x3e3>
c0008d6a:	6d                   	insl   (%dx),%es:(%edi)
c0008d6b:	6f                   	outsl  %ds:(%esi),(%dx)
c0008d6c:	75 6e                	jne    c0008ddc <__FUNCTION__.1495+0x455>
c0008d6e:	74 00                	je     c0008d70 <__FUNCTION__.1495+0x3e9>
c0008d70:	4d                   	dec    %ebp
c0008d71:	6f                   	outsl  %ds:(%esi),(%dx)
c0008d72:	75 6e                	jne    c0008de2 <__FUNCTION__.1495+0x45b>
c0008d74:	74 20                	je     c0008d96 <__FUNCTION__.1495+0x40f>
c0008d76:	74 68                	je     c0008de0 <__FUNCTION__.1495+0x459>
c0008d78:	65 20 66 6c          	and    %ah,%gs:0x6c(%esi)
c0008d7c:	6f                   	outsl  %ds:(%esi),(%dx)
c0008d7d:	70 70                	jo     c0008def <__FUNCTION__.1495+0x468>
c0008d7f:	79 00                	jns    c0008d81 <__FUNCTION__.1495+0x3fa>
c0008d81:	70 61                	jo     c0008de4 <__FUNCTION__.1495+0x45d>
c0008d83:	67                   	addr16
c0008d84:	65                   	gs
c0008d85:	73 00                	jae    c0008d87 <__FUNCTION__.1495+0x400>
c0008d87:	44                   	inc    %esp
c0008d88:	75 6d                	jne    c0008df7 <__FUNCTION__.1495+0x470>
c0008d8a:	70 20                	jo     c0008dac <__FUNCTION__.1495+0x425>
c0008d8c:	64 69 72 74 79 20 70 	imul   $0x61702079,%fs:0x74(%edx),%esi
c0008d93:	61 
c0008d94:	67                   	addr16
c0008d95:	65                   	gs
c0008d96:	73 00                	jae    c0008d98 <__FUNCTION__.1495+0x411>
c0008d98:	70 73                	jo     c0008e0d <__FUNCTION__.1495+0x486>
c0008d9a:	00 00                	add    %al,(%eax)
c0008d9c:	50                   	push   %eax
c0008d9d:	72 69                	jb     c0008e08 <__FUNCTION__.1495+0x481>
c0008d9f:	6e                   	outsb  %ds:(%esi),(%dx)
c0008da0:	74 20                	je     c0008dc2 <__FUNCTION__.1495+0x43b>
c0008da2:	74 68                	je     c0008e0c <__FUNCTION__.1495+0x485>
c0008da4:	65 20 73 74          	and    %dh,%gs:0x74(%ebx)
c0008da8:	61                   	popa   
c0008da9:	74 65                	je     c0008e10 <__FUNCTION__.1495+0x489>
c0008dab:	20 6f 66             	and    %ch,0x66(%edi)
c0008dae:	20 65 76             	and    %ah,0x76(%ebp)
c0008db1:	65                   	gs
c0008db2:	72 79                	jb     c0008e2d <__FUNCTION__.1495+0x4a6>
c0008db4:	20 70 72             	and    %dh,0x72(%eax)
c0008db7:	6f                   	outsl  %ds:(%esi),(%dx)
c0008db8:	63 65 73             	arpl   %sp,0x73(%ebp)
c0008dbb:	73 65                	jae    c0008e22 <__FUNCTION__.1495+0x49b>
c0008dbd:	73 00                	jae    c0008dbf <__FUNCTION__.1495+0x438>
c0008dbf:	72 65                	jb     c0008e26 <__FUNCTION__.1495+0x49f>
c0008dc1:	61                   	popa   
c0008dc2:	64 00 52 65          	add    %dl,%fs:0x65(%edx)
c0008dc6:	61                   	popa   
c0008dc7:	64 20 61 20          	and    %ah,%fs:0x20(%ecx)
c0008dcb:	62 6c 6f 63          	bound  %ebp,0x63(%edi,%ebp,2)
c0008dcf:	6b 20 66             	imul   $0x66,(%eax),%esp
c0008dd2:	72 6f                	jb     c0008e43 <__FUNCTION__.1495+0x4bc>
c0008dd4:	6d                   	insl   (%dx),%es:(%edi)
c0008dd5:	20 74 68 65          	and    %dh,0x65(%eax,%ebp,2)
c0008dd9:	20 66 6c             	and    %ah,0x6c(%esi)
c0008ddc:	6f                   	outsl  %ds:(%esi),(%dx)
c0008ddd:	70 70                	jo     c0008e4f <__FUNCTION__.1495+0x4c8>
c0008ddf:	79 20                	jns    c0008e01 <__FUNCTION__.1495+0x47a>
c0008de1:	74 6f                	je     c0008e52 <__FUNCTION__.1495+0x4cb>
c0008de3:	20 74 68 65          	and    %dh,0x65(%eax,%ebp,2)
c0008de7:	20 62 75             	and    %ah,0x75(%edx)
c0008dea:	66                   	data16
c0008deb:	66                   	data16
c0008dec:	65                   	gs
c0008ded:	72 00                	jb     c0008def <__FUNCTION__.1495+0x468>
c0008def:	72 65                	jb     c0008e56 <__FUNCTION__.1495+0x4cf>
c0008df1:	62 6f 6f             	bound  %ebp,0x6f(%edi)
c0008df4:	74 00                	je     c0008df6 <__FUNCTION__.1495+0x46f>
c0008df6:	52                   	push   %edx
c0008df7:	65 62 6f 6f          	bound  %ebp,%gs:0x6f(%edi)
c0008dfb:	74 20                	je     c0008e1d <__FUNCTION__.1495+0x496>
c0008dfd:	74 68                	je     c0008e67 <__FUNCTION__.1495+0x4e0>
c0008dff:	65 20 73 79          	and    %dh,%gs:0x79(%ebx)
c0008e03:	73 74                	jae    c0008e79 <__FUNCTION__.1495+0x4f2>
c0008e05:	65                   	gs
c0008e06:	6d                   	insl   (%dx),%es:(%edi)
c0008e07:	00 74 65 73          	add    %dh,0x73(%ebp,%eiz,2)
c0008e0b:	74 00                	je     c0008e0d <__FUNCTION__.1495+0x486>
c0008e0d:	00 00                	add    %al,(%eax)
c0008e0f:	00 43 72             	add    %al,0x72(%ebx)
c0008e12:	65                   	gs
c0008e13:	61                   	popa   
c0008e14:	74 65                	je     c0008e7b <__FUNCTION__.1495+0x4f4>
c0008e16:	20 73 6f             	and    %dh,0x6f(%ebx)
c0008e19:	6d                   	insl   (%dx),%es:(%edi)
c0008e1a:	65 20 61 75          	and    %ah,%gs:0x75(%ecx)
c0008e1e:	74 6f                	je     c0008e8f <__FUNCTION__.1495+0x508>
c0008e20:	2d 6b 69 6c 6c       	sub    $0x6c6c696b,%eax
c0008e25:	69 6e 67 20 74 61 73 	imul   $0x73617420,0x67(%esi),%ebp
c0008e2c:	6b 73 00 75          	imul   $0x75,0x0(%ebx),%esi
c0008e30:	6e                   	outsb  %ds:(%esi),(%dx)
c0008e31:	61                   	popa   
c0008e32:	6d                   	insl   (%dx),%es:(%edi)
c0008e33:	65 00 50 72          	add    %dl,%gs:0x72(%eax)
c0008e37:	69 6e 74 20 6b 65 72 	imul   $0x72656b20,0x74(%esi),%ebp
c0008e3e:	6e                   	outsb  %ds:(%esi),(%dx)
c0008e3f:	65                   	gs
c0008e40:	6c                   	insb   (%dx),%es:(%edi)
c0008e41:	20 69 6e             	and    %ch,0x6e(%ecx)
c0008e44:	66 6f                	outsw  %ds:(%esi),(%dx)
c0008e46:	72 6d                	jb     c0008eb5 <__FUNCTION__.1495+0x52e>
c0008e48:	61                   	popa   
c0008e49:	74 69                	je     c0008eb4 <__FUNCTION__.1495+0x52d>
c0008e4b:	6f                   	outsl  %ds:(%esi),(%dx)
c0008e4c:	6e                   	outsb  %ds:(%esi),(%dx)
c0008e4d:	73 00                	jae    c0008e4f <__FUNCTION__.1495+0x4c8>
c0008e4f:	76 38                	jbe    c0008e89 <__FUNCTION__.1495+0x502>
c0008e51:	36 00 76 38          	add    %dh,%ss:0x38(%esi)
c0008e55:	36 20 6d 6f          	and    %ch,%ss:0x6f(%ebp)
c0008e59:	64 65 20 75 6e       	fs and %dh,%fs:%gs:0x6e(%ebp)
c0008e5e:	73 75                	jae    c0008ed5 <__FUNCTION__.1495+0x54e>
c0008e60:	70 70                	jo     c0008ed2 <__FUNCTION__.1495+0x54b>
c0008e62:	6f                   	outsl  %ds:(%esi),(%dx)
c0008e63:	72 74                	jb     c0008ed9 <__FUNCTION__.1495+0x552>
c0008e65:	65 64 00 77 72       	gs add %dh,%fs:%gs:0x72(%edi)
c0008e6a:	69 74 65 00 00 00 57 	imul   $0x72570000,0x0(%ebp,%eiz,2),%esi
c0008e71:	72 
c0008e72:	69 74 65 20 61 20 62 	imul   $0x6c622061,0x20(%ebp,%eiz,2),%esi
c0008e79:	6c 
c0008e7a:	6f                   	outsl  %ds:(%esi),(%dx)
c0008e7b:	63 6b 20             	arpl   %bp,0x20(%ebx)
c0008e7e:	66                   	data16
c0008e7f:	72 6f                	jb     c0008ef0 <__FUNCTION__.1495+0x569>
c0008e81:	6d                   	insl   (%dx),%es:(%edi)
c0008e82:	20 74 68 65          	and    %dh,0x65(%eax,%ebp,2)
c0008e86:	20 62 75             	and    %ah,0x75(%edx)
c0008e89:	66                   	data16
c0008e8a:	66                   	data16
c0008e8b:	65                   	gs
c0008e8c:	72 20                	jb     c0008eae <__FUNCTION__.1495+0x527>
c0008e8e:	74 6f                	je     c0008eff <__FUNCTION__.1495+0x578>
c0008e90:	20 74 68 65          	and    %dh,0x65(%eax,%ebp,2)
c0008e94:	20 66 6c             	and    %ah,0x6c(%esi)
c0008e97:	6f                   	outsl  %ds:(%esi),(%dx)
c0008e98:	70 70                	jo     c0008f0a <__FUNCTION__.1495+0x583>
c0008e9a:	79 00                	jns    c0008e9c <__FUNCTION__.1495+0x515>
c0008e9c:	70 77                	jo     c0008f15 <__FUNCTION__.1495+0x58e>
c0008e9e:	64 00 50 72          	add    %dl,%fs:0x72(%eax)
c0008ea2:	69 6e 74 20 74 68 65 	imul   $0x65687420,0x74(%esi),%ebp
c0008ea9:	20 63 75             	and    %ah,0x75(%ebx)
c0008eac:	72 72                	jb     c0008f20 <__FUNCTION__.1495+0x599>
c0008eae:	65 6e                	outsb  %gs:(%esi),(%dx)
c0008eb0:	74 20                	je     c0008ed2 <__FUNCTION__.1495+0x54b>
c0008eb2:	77 6f                	ja     c0008f23 <__FUNCTION__.1495+0x59c>
c0008eb4:	72 6b                	jb     c0008f21 <__FUNCTION__.1495+0x59a>
c0008eb6:	69 6e 67 20 64 69 72 	imul   $0x72696420,0x67(%esi),%ebp
c0008ebd:	65 63 74 6f 72       	arpl   %si,%gs:0x72(%edi,%ebp,2)
c0008ec2:	79 00                	jns    c0008ec4 <__FUNCTION__.1495+0x53d>
c0008ec4:	0d 5b 72 6f 6f       	or     $0x6f6f725b,%eax
c0008ec9:	74 40                	je     c0008f0b <__FUNCTION__.1495+0x584>
c0008ecb:	6c                   	insb   (%dx),%es:(%edi)
c0008ecc:	6f                   	outsl  %ds:(%esi),(%dx)
c0008ecd:	63 61 6c             	arpl   %sp,0x6c(%ecx)
c0008ed0:	68 6f 73 74 20       	push   $0x2074736f
c0008ed5:	5c                   	pop    %esp
c0008ed6:	5d                   	pop    %ebp
c0008ed7:	23 20                	and    (%eax),%esp
c0008ed9:	00 25 73 00 0a 0d    	add    %ah,0xd0a0073
c0008edf:	25 73 3a 20 63       	and    $0x63203a73,%eax
c0008ee4:	6f                   	outsl  %ds:(%esi),(%dx)
c0008ee5:	6d                   	insl   (%dx),%es:(%edi)
c0008ee6:	6d                   	insl   (%dx),%es:(%edi)
c0008ee7:	61                   	popa   
c0008ee8:	6e                   	outsb  %ds:(%esi),(%dx)
c0008ee9:	64 20 6e 6f          	and    %ch,%fs:0x6f(%esi)
c0008eed:	74 20                	je     c0008f0f <__FUNCTION__.1495+0x588>
c0008eef:	66 6f                	outsw  %ds:(%esi),(%dx)
c0008ef1:	75 6e                	jne    c0008f61 <__FUNCTION__.1495+0x5da>
c0008ef3:	64 21 21             	and    %esp,%fs:(%ecx)
c0008ef6:	21 0a                	and    %ecx,(%edx)
c0008ef8:	0d 00 00 00 0a       	or     $0xa000000,%eax
c0008efd:	42                   	inc    %edx
c0008efe:	6c                   	insb   (%dx),%es:(%edi)
c0008eff:	75 65                	jne    c0008f66 <__FUNCTION__.1495+0x5df>
c0008f01:	53                   	push   %ebx
c0008f02:	68 65 6c 6c 20       	push   $0x206c6c65
c0008f07:	76 65                	jbe    c0008f6e <__FUNCTION__.1495+0x5e7>
c0008f09:	72 73                	jb     c0008f7e <__FUNCTION__.1495+0x5f7>
c0008f0b:	69 6f 6e 20 30 2e 31 	imul   $0x312e3020,0x6e(%edi),%ebp
c0008f12:	20 2d 20 62 79 20    	and    %ch,0x20796220
c0008f18:	44                   	inc    %esp
c0008f19:	61                   	popa   
c0008f1a:	76 69                	jbe    c0008f85 <__FUNCTION__.1495+0x5fe>
c0008f1c:	64 20 44 61 76       	and    %al,%fs:0x76(%ecx,%eiz,2)
c0008f21:	69 64 73 6f 6e 0a 00 	imul   $0xa000a6e,0x6f(%ebx,%esi,2),%esp
c0008f28:	0a 
c0008f29:	2d 20 25 73 20       	sub    $0x20732520,%eax
c0008f2e:	3a 20                	cmp    (%eax),%ah
c0008f30:	25 73 00 0a 0a       	and    $0xa0a0073,%eax
c0008f35:	00 30                	add    %dh,(%eax)
c0008f37:	30 2e                	xor    %ch,(%esi)
c0008f39:	30 30                	xor    %dh,(%eax)
c0008f3b:	2e 31 30             	xor    %esi,%cs:(%eax)
c0008f3e:	00 42 4c             	add    %al,0x4c(%edx)
c0008f41:	55                   	push   %ebp
c0008f42:	45                   	inc    %ebp
c0008f43:	20 46 49             	and    %al,0x49(%esi)
c0008f46:	52                   	push   %edx
c0008f47:	45                   	inc    %ebp
c0008f48:	20 28                	and    %ch,(%eax)
c0008f4a:	49                   	dec    %ecx
c0008f4b:	41                   	inc    %ecx
c0008f4c:	2d 33 32 29 00       	sub    $0x293233,%eax
c0008f51:	0a 25 73 20 2d 20    	or     0x202d2073,%ah
c0008f57:	4b                   	dec    %ebx
c0008f58:	65                   	gs
c0008f59:	72 6e                	jb     c0008fc9 <__FUNCTION__.1495+0x642>
c0008f5b:	65                   	gs
c0008f5c:	6c                   	insb   (%dx),%es:(%edi)
c0008f5d:	20 5b 76             	and    %bl,0x76(%ebx)
c0008f60:	25 73 5d 0a 00       	and    $0xa5d73,%eax
c0008f65:	00 00                	add    %al,(%eax)
c0008f67:	00 25 73 20 63 6f    	add    %ah,0x6f632073
c0008f6d:	6d                   	insl   (%dx),%es:(%edi)
c0008f6e:	6d                   	insl   (%dx),%es:(%edi)
c0008f6f:	61                   	popa   
c0008f70:	6e                   	outsb  %ds:(%esi),(%dx)
c0008f71:	64 20 6e 6f          	and    %ch,%fs:0x6f(%esi)
c0008f75:	74 20                	je     c0008f97 <__FUNCTION__.1495+0x610>
c0008f77:	79 65                	jns    c0008fde <__FUNCTION__.1495+0x657>
c0008f79:	74 20                	je     c0008f9b <__FUNCTION__.1495+0x614>
c0008f7b:	49                   	dec    %ecx
c0008f7c:	6d                   	insl   (%dx),%es:(%edi)
c0008f7d:	70 6c                	jo     c0008feb <__FUNCTION__.1495+0x664>
c0008f7f:	65                   	gs
c0008f80:	6d                   	insl   (%dx),%es:(%edi)
c0008f81:	65 6e                	outsb  %gs:(%esi),(%dx)
c0008f83:	74 65                	je     c0008fea <__FUNCTION__.1495+0x663>
c0008f85:	64 2e 0a 00          	fs or  %cs:%fs:(%eax),%al
c0008f89:	00 00                	add    %al,(%eax)
c0008f8b:	00 47 7a             	add    %al,0x7a(%edi)
c0008f8e:	00 c0                	add    %al,%al
c0008f90:	b5 7a                	mov    $0x7a,%ch
c0008f92:	00 c0                	add    %al,%al
c0008f94:	d6                   	(bad)  
c0008f95:	7a 00                	jp     c0008f97 <__FUNCTION__.1495+0x610>
c0008f97:	c0 e0 7a             	shl    $0x7a,%al
c0008f9a:	00 c0                	add    %al,%al
c0008f9c:	da 78 00             	fidivrl 0x0(%eax)
c0008f9f:	c0 ea 7a             	shr    $0x7a,%dl
c0008fa2:	00 c0                	add    %al,%al
c0008fa4:	05 7b 00 c0 20       	add    $0x20c0007b,%eax
c0008fa9:	7b 00                	jnp    c0008fab <__FUNCTION__.1495+0x624>
c0008fab:	c0 2a 7b             	shrb   $0x7b,(%edx)
c0008fae:	00 c0                	add    %al,%al
c0008fb0:	34 7b                	xor    $0x7b,%al
c0008fb2:	00 c0                	add    %al,%al
c0008fb4:	4f                   	dec    %edi
c0008fb5:	7b 00                	jnp    c0008fb7 <__FUNCTION__.1495+0x630>
c0008fb7:	c0 59 7b 00          	rcrb   $0x0,0x7b(%ecx)
c0008fbb:	c0                   	(bad)  
c0008fbc:	74 7b                	je     c0009039 <KERNEL_END_TEXT+0x39>
c0008fbe:	00 c0                	add    %al,%al
c0008fc0:	8f                   	(bad)  
c0008fc1:	7b 00                	jnp    c0008fc3 <__FUNCTION__.1495+0x63c>
c0008fc3:	c0 aa 7b 00 c0 c5 7b 	shrb   $0x7b,-0x3a3fff85(%edx)
c0008fca:	00 c0                	add    %al,%al
c0008fcc:	dd 7b 00             	fnstsw 0x0(%ebx)
c0008fcf:	c0                   	(bad)  
c0008fd0:	f5                   	cmc    
c0008fd1:	7b 00                	jnp    c0008fd3 <__FUNCTION__.1495+0x64c>
c0008fd3:	c0 0d 7c 00 c0 25 7c 	rorb   $0x7c,0x25c0007c
c0008fda:	00 c0                	add    %al,%al
c0008fdc:	2c 7c                	sub    $0x7c,%al
c0008fde:	00 c0                	add    %al,%al
c0008fe0:	44                   	inc    %esp
c0008fe1:	7c 00                	jl     c0008fe3 <__FUNCTION__.1495+0x65c>
c0008fe3:	c0 66 90 66          	shlb   $0x66,-0x70(%esi)
c0008fe7:	90                   	nop
c0008fe8:	66 90                	xchg   %ax,%ax
c0008fea:	66 90                	xchg   %ax,%ax
c0008fec:	66 90                	xchg   %ax,%ax
c0008fee:	66 90                	xchg   %ax,%ax
c0008ff0:	66 90                	xchg   %ax,%ax
c0008ff2:	66 90                	xchg   %ax,%ax
c0008ff4:	66 90                	xchg   %ax,%ax
c0008ff6:	66 90                	xchg   %ax,%ax
c0008ff8:	66 90                	xchg   %ax,%ax
c0008ffa:	66 90                	xchg   %ax,%ax
c0008ffc:	66 90                	xchg   %ax,%ax
c0008ffe:	66 90                	xchg   %ax,%ax

Disassembly of section .eh_frame:

c0009000 <.eh_frame>:
c0009000:	14 00                	adc    $0x0,%al
c0009002:	00 00                	add    %al,(%eax)
c0009004:	00 00                	add    %al,(%eax)
c0009006:	00 00                	add    %al,(%eax)
c0009008:	01 7a 52             	add    %edi,0x52(%edx)
c000900b:	00 01                	add    %al,(%ecx)
c000900d:	7c 08                	jl     c0009017 <KERNEL_END_TEXT+0x17>
c000900f:	01 1b                	add    %ebx,(%ebx)
c0009011:	0c 04                	or     $0x4,%al
c0009013:	04 88                	add    $0x88,%al
c0009015:	01 00                	add    %eax,(%eax)
c0009017:	00 1c 00             	add    %bl,(%eax,%eax,1)
c000901a:	00 00                	add    %al,(%eax)
c000901c:	1c 00                	sbb    $0x0,%al
c000901e:	00 00                	add    %al,(%eax)
c0009020:	5e                   	pop    %esi
c0009021:	80 ff ff             	cmp    $0xff,%bh
c0009024:	1e                   	push   %ds
c0009025:	00 00                	add    %al,(%eax)
c0009027:	00 00                	add    %al,(%eax)
c0009029:	41                   	inc    %ecx
c000902a:	0e                   	push   %cs
c000902b:	08 85 02 42 0d 05    	or     %al,0x50d4202(%ebp)
c0009031:	5a                   	pop    %edx
c0009032:	c5 0c 04             	lds    (%esp,%eax,1),%ecx
c0009035:	04 00                	add    $0x0,%al
c0009037:	00 1c 00             	add    %bl,(%eax,%eax,1)
c000903a:	00 00                	add    %al,(%eax)
c000903c:	3c 00                	cmp    $0x0,%al
c000903e:	00 00                	add    %al,(%eax)
c0009040:	5c                   	pop    %esp
c0009041:	80 ff ff             	cmp    $0xff,%bh
c0009044:	49                   	dec    %ecx
c0009045:	00 00                	add    %al,(%eax)
c0009047:	00 00                	add    %al,(%eax)
c0009049:	41                   	inc    %ecx
c000904a:	0e                   	push   %cs
c000904b:	08 85 02 42 0d 05    	or     %al,0x50d4202(%ebp)
c0009051:	02 45 c5             	add    -0x3b(%ebp),%al
c0009054:	0c 04                	or     $0x4,%al
c0009056:	04 00                	add    $0x0,%al
c0009058:	1c 00                	sbb    $0x0,%al
c000905a:	00 00                	add    %al,(%eax)
c000905c:	5c                   	pop    %esp
c000905d:	00 00                	add    %al,(%eax)
c000905f:	00 85 80 ff ff 2b    	add    %al,0x2bffff80(%ebp)
c0009065:	00 00                	add    %al,(%eax)
c0009067:	00 00                	add    %al,(%eax)
c0009069:	41                   	inc    %ecx
c000906a:	0e                   	push   %cs
c000906b:	08 85 02 42 0d 05    	or     %al,0x50d4202(%ebp)
c0009071:	67 c5 0c             	lds    (%si),%ecx
c0009074:	04 04                	add    $0x4,%al
c0009076:	00 00                	add    %al,(%eax)
c0009078:	1c 00                	sbb    $0x0,%al
c000907a:	00 00                	add    %al,(%eax)
c000907c:	7c 00                	jl     c000907e <KERNEL_END_TEXT+0x7e>
c000907e:	00 00                	add    %al,(%eax)
c0009080:	90                   	nop
c0009081:	80 ff ff             	cmp    $0xff,%bh
c0009084:	62 00                	bound  %eax,(%eax)
c0009086:	00 00                	add    %al,(%eax)
c0009088:	00 41 0e             	add    %al,0xe(%ecx)
c000908b:	08 85 02 42 0d 05    	or     %al,0x50d4202(%ebp)
c0009091:	02 5e c5             	add    -0x3b(%esi),%bl
c0009094:	0c 04                	or     $0x4,%al
c0009096:	04 00                	add    $0x0,%al
c0009098:	1c 00                	sbb    $0x0,%al
c000909a:	00 00                	add    %al,(%eax)
c000909c:	9c                   	pushf  
c000909d:	00 00                	add    %al,(%eax)
c000909f:	00 d2                	add    %dl,%dl
c00090a1:	80 ff ff             	cmp    $0xff,%bh
c00090a4:	4e                   	dec    %esi
c00090a5:	00 00                	add    %al,(%eax)
c00090a7:	00 00                	add    %al,(%eax)
c00090a9:	41                   	inc    %ecx
c00090aa:	0e                   	push   %cs
c00090ab:	08 85 02 42 0d 05    	or     %al,0x50d4202(%ebp)
c00090b1:	02 4a c5             	add    -0x3b(%edx),%cl
c00090b4:	0c 04                	or     $0x4,%al
c00090b6:	04 00                	add    $0x0,%al
c00090b8:	1c 00                	sbb    $0x0,%al
c00090ba:	00 00                	add    %al,(%eax)
c00090bc:	bc 00 00 00 00       	mov    $0x0,%esp
c00090c1:	81 ff ff 33 00 00    	cmp    $0x33ff,%edi
c00090c7:	00 00                	add    %al,(%eax)
c00090c9:	41                   	inc    %ecx
c00090ca:	0e                   	push   %cs
c00090cb:	08 85 02 42 0d 05    	or     %al,0x50d4202(%ebp)
c00090d1:	6f                   	outsl  %ds:(%esi),(%dx)
c00090d2:	c5 0c 04             	lds    (%esp,%eax,1),%ecx
c00090d5:	04 00                	add    $0x0,%al
c00090d7:	00 1c 00             	add    %bl,(%eax,%eax,1)
c00090da:	00 00                	add    %al,(%eax)
c00090dc:	dc 00                	faddl  (%eax)
c00090de:	00 00                	add    %al,(%eax)
c00090e0:	13 81 ff ff 14 00    	adc    0x14ffff(%ecx),%eax
c00090e6:	00 00                	add    %al,(%eax)
c00090e8:	00 41 0e             	add    %al,0xe(%ecx)
c00090eb:	08 85 02 42 0d 05    	or     %al,0x50d4202(%ebp)
c00090f1:	50                   	push   %eax
c00090f2:	c5 0c 04             	lds    (%esp,%eax,1),%ecx
c00090f5:	04 00                	add    $0x0,%al
c00090f7:	00 1c 00             	add    %bl,(%eax,%eax,1)
c00090fa:	00 00                	add    %al,(%eax)
c00090fc:	fc                   	cld    
c00090fd:	00 00                	add    %al,(%eax)
c00090ff:	00 07                	add    %al,(%edi)
c0009101:	81 ff ff 2d 00 00    	cmp    $0x2dff,%edi
c0009107:	00 00                	add    %al,(%eax)
c0009109:	41                   	inc    %ecx
c000910a:	0e                   	push   %cs
c000910b:	08 85 02 42 0d 05    	or     %al,0x50d4202(%ebp)
c0009111:	69 c5 0c 04 04 00    	imul   $0x4040c,%ebp,%eax
c0009117:	00 1c 00             	add    %bl,(%eax,%eax,1)
c000911a:	00 00                	add    %al,(%eax)
c000911c:	1c 01                	sbb    $0x1,%al
c000911e:	00 00                	add    %al,(%eax)
c0009120:	14 81                	adc    $0x81,%al
c0009122:	ff                   	(bad)  
c0009123:	ff 49 00             	decl   0x0(%ecx)
c0009126:	00 00                	add    %al,(%eax)
c0009128:	00 41 0e             	add    %al,0xe(%ecx)
c000912b:	08 85 02 42 0d 05    	or     %al,0x50d4202(%ebp)
c0009131:	02 45 c5             	add    -0x3b(%ebp),%al
c0009134:	0c 04                	or     $0x4,%al
c0009136:	04 00                	add    $0x0,%al
c0009138:	1c 00                	sbb    $0x0,%al
c000913a:	00 00                	add    %al,(%eax)
c000913c:	3c 01                	cmp    $0x1,%al
c000913e:	00 00                	add    %al,(%eax)
c0009140:	3d 81 ff ff 22       	cmp    $0x22ffff81,%eax
c0009145:	00 00                	add    %al,(%eax)
c0009147:	00 00                	add    %al,(%eax)
c0009149:	41                   	inc    %ecx
c000914a:	0e                   	push   %cs
c000914b:	08 85 02 42 0d 05    	or     %al,0x50d4202(%ebp)
c0009151:	5e                   	pop    %esi
c0009152:	c5 0c 04             	lds    (%esp,%eax,1),%ecx
c0009155:	04 00                	add    $0x0,%al
c0009157:	00 1c 00             	add    %bl,(%eax,%eax,1)
c000915a:	00 00                	add    %al,(%eax)
c000915c:	5c                   	pop    %esp
c000915d:	01 00                	add    %eax,(%eax)
c000915f:	00 3f                	add    %bh,(%edi)
c0009161:	81 ff ff 8c 00 00    	cmp    $0x8cff,%edi
c0009167:	00 00                	add    %al,(%eax)
c0009169:	41                   	inc    %ecx
c000916a:	0e                   	push   %cs
c000916b:	08 85 02 42 0d 05    	or     %al,0x50d4202(%ebp)
c0009171:	02 88 c5 0c 04 04    	add    0x4040cc5(%eax),%cl
c0009177:	00 1c 00             	add    %bl,(%eax,%eax,1)
c000917a:	00 00                	add    %al,(%eax)
c000917c:	7c 01                	jl     c000917f <KERNEL_END_TEXT+0x17f>
c000917e:	00 00                	add    %al,(%eax)
c0009180:	ab                   	stos   %eax,%es:(%edi)
c0009181:	81 ff ff 2a 00 00    	cmp    $0x2aff,%edi
c0009187:	00 00                	add    %al,(%eax)
c0009189:	41                   	inc    %ecx
c000918a:	0e                   	push   %cs
c000918b:	08 85 02 42 0d 05    	or     %al,0x50d4202(%ebp)
c0009191:	66 c5 0c 04          	lds    (%esp,%eax,1),%cx
c0009195:	04 00                	add    $0x0,%al
c0009197:	00 1c 00             	add    %bl,(%eax,%eax,1)
c000919a:	00 00                	add    %al,(%eax)
c000919c:	9c                   	pushf  
c000919d:	01 00                	add    %eax,(%eax)
c000919f:	00 b5 81 ff ff 0a    	add    %dh,0xaffff81(%ebp)
c00091a5:	00 00                	add    %al,(%eax)
c00091a7:	00 00                	add    %al,(%eax)
c00091a9:	41                   	inc    %ecx
c00091aa:	0e                   	push   %cs
c00091ab:	08 85 02 42 0d 05    	or     %al,0x50d4202(%ebp)
c00091b1:	46                   	inc    %esi
c00091b2:	c5 0c 04             	lds    (%esp,%eax,1),%ecx
c00091b5:	04 00                	add    $0x0,%al
c00091b7:	00 1c 00             	add    %bl,(%eax,%eax,1)
c00091ba:	00 00                	add    %al,(%eax)
c00091bc:	bc 01 00 00 9f       	mov    $0x9f000001,%esp
c00091c1:	81 ff ff 6e 01 00    	cmp    $0x16eff,%edi
c00091c7:	00 00                	add    %al,(%eax)
c00091c9:	41                   	inc    %ecx
c00091ca:	0e                   	push   %cs
c00091cb:	08 85 02 42 0d 05    	or     %al,0x50d4202(%ebp)
c00091d1:	03 6a 01             	add    0x1(%edx),%ebp
c00091d4:	c5 0c 04             	lds    (%esp,%eax,1),%ecx
c00091d7:	04 1c                	add    $0x1c,%al
c00091d9:	00 00                	add    %al,(%eax)
c00091db:	00 dc                	add    %bl,%ah
c00091dd:	01 00                	add    %eax,(%eax)
c00091df:	00 ed                	add    %ch,%ch
c00091e1:	82                   	(bad)  
c00091e2:	ff                   	(bad)  
c00091e3:	ff 0f                	decl   (%edi)
c00091e5:	02 00                	add    (%eax),%al
c00091e7:	00 00                	add    %al,(%eax)
c00091e9:	41                   	inc    %ecx
c00091ea:	0e                   	push   %cs
c00091eb:	08 85 02 42 0d 05    	or     %al,0x50d4202(%ebp)
c00091f1:	03 0b                	add    (%ebx),%ecx
c00091f3:	02 c5                	add    %ch,%al
c00091f5:	0c 04                	or     $0x4,%al
c00091f7:	04 1c                	add    $0x1c,%al
c00091f9:	00 00                	add    %al,(%eax)
c00091fb:	00 fc                	add    %bh,%ah
c00091fd:	01 00                	add    %eax,(%eax)
c00091ff:	00 dc                	add    %bl,%ah
c0009201:	84 ff                	test   %bh,%bh
c0009203:	ff 1e                	lcall  *(%esi)
c0009205:	00 00                	add    %al,(%eax)
c0009207:	00 00                	add    %al,(%eax)
c0009209:	41                   	inc    %ecx
c000920a:	0e                   	push   %cs
c000920b:	08 85 02 42 0d 05    	or     %al,0x50d4202(%ebp)
c0009211:	5a                   	pop    %edx
c0009212:	c5 0c 04             	lds    (%esp,%eax,1),%ecx
c0009215:	04 00                	add    $0x0,%al
c0009217:	00 1c 00             	add    %bl,(%eax,%eax,1)
c000921a:	00 00                	add    %al,(%eax)
c000921c:	1c 02                	sbb    $0x2,%al
c000921e:	00 00                	add    %al,(%eax)
c0009220:	da 84 ff ff d0 00 00 	fiaddl 0xd0ff(%edi,%edi,8)
c0009227:	00 00                	add    %al,(%eax)
c0009229:	41                   	inc    %ecx
c000922a:	0e                   	push   %cs
c000922b:	08 85 02 42 0d 05    	or     %al,0x50d4202(%ebp)
c0009231:	02 cc                	add    %ah,%cl
c0009233:	c5 0c 04             	lds    (%esp,%eax,1),%ecx
c0009236:	04 00                	add    $0x0,%al
c0009238:	1c 00                	sbb    $0x0,%al
c000923a:	00 00                	add    %al,(%eax)
c000923c:	3c 02                	cmp    $0x2,%al
c000923e:	00 00                	add    %al,(%eax)
c0009240:	8a 85 ff ff 71 00    	mov    0x71ffff(%ebp),%al
c0009246:	00 00                	add    %al,(%eax)
c0009248:	00 41 0e             	add    %al,0xe(%ecx)
c000924b:	08 85 02 42 0d 05    	or     %al,0x50d4202(%ebp)
c0009251:	02 6d c5             	add    -0x3b(%ebp),%ch
c0009254:	0c 04                	or     $0x4,%al
c0009256:	04 00                	add    $0x0,%al
c0009258:	1c 00                	sbb    $0x0,%al
c000925a:	00 00                	add    %al,(%eax)
c000925c:	5c                   	pop    %esp
c000925d:	02 00                	add    (%eax),%al
c000925f:	00 db                	add    %bl,%bl
c0009261:	85 ff                	test   %edi,%edi
c0009263:	ff 27                	jmp    *(%edi)
c0009265:	00 00                	add    %al,(%eax)
c0009267:	00 00                	add    %al,(%eax)
c0009269:	41                   	inc    %ecx
c000926a:	0e                   	push   %cs
c000926b:	08 85 02 42 0d 05    	or     %al,0x50d4202(%ebp)
c0009271:	63 c5                	arpl   %ax,%bp
c0009273:	0c 04                	or     $0x4,%al
c0009275:	04 00                	add    $0x0,%al
c0009277:	00 1c 00             	add    %bl,(%eax,%eax,1)
c000927a:	00 00                	add    %al,(%eax)
c000927c:	7c 02                	jl     c0009280 <KERNEL_END_TEXT+0x280>
c000927e:	00 00                	add    %al,(%eax)
c0009280:	e2 85                	loop   c0009207 <KERNEL_END_TEXT+0x207>
c0009282:	ff                   	(bad)  
c0009283:	ff 65 05             	jmp    *0x5(%ebp)
c0009286:	00 00                	add    %al,(%eax)
c0009288:	00 41 0e             	add    %al,0xe(%ecx)
c000928b:	08 85 02 42 0d 05    	or     %al,0x50d4202(%ebp)
c0009291:	03 61 05             	add    0x5(%ecx),%esp
c0009294:	c5 0c 04             	lds    (%esp,%eax,1),%ecx
c0009297:	04 1c                	add    $0x1c,%al
c0009299:	00 00                	add    %al,(%eax)
c000929b:	00 9c 02 00 00 27 8b 	add    %bl,-0x74d90000(%edx,%eax,1)
c00092a2:	ff                   	(bad)  
c00092a3:	ff 1d 00 00 00 00    	lcall  *0x0
c00092a9:	41                   	inc    %ecx
c00092aa:	0e                   	push   %cs
c00092ab:	08 85 02 42 0d 05    	or     %al,0x50d4202(%ebp)
c00092b1:	59                   	pop    %ecx
c00092b2:	c5 0c 04             	lds    (%esp,%eax,1),%ecx
c00092b5:	04 00                	add    $0x0,%al
c00092b7:	00 1c 00             	add    %bl,(%eax,%eax,1)
c00092ba:	00 00                	add    %al,(%eax)
c00092bc:	bc 02 00 00 24       	mov    $0x24000002,%esp
c00092c1:	8b ff                	mov    %edi,%edi
c00092c3:	ff 1e                	lcall  *(%esi)
c00092c5:	00 00                	add    %al,(%eax)
c00092c7:	00 00                	add    %al,(%eax)
c00092c9:	41                   	inc    %ecx
c00092ca:	0e                   	push   %cs
c00092cb:	08 85 02 42 0d 05    	or     %al,0x50d4202(%ebp)
c00092d1:	5a                   	pop    %edx
c00092d2:	c5 0c 04             	lds    (%esp,%eax,1),%ecx
c00092d5:	04 00                	add    $0x0,%al
c00092d7:	00 1c 00             	add    %bl,(%eax,%eax,1)
c00092da:	00 00                	add    %al,(%eax)
c00092dc:	dc 02                	faddl  (%edx)
c00092de:	00 00                	add    %al,(%eax)
c00092e0:	22 8b ff ff a6 00    	and    0xa6ffff(%ebx),%cl
c00092e6:	00 00                	add    %al,(%eax)
c00092e8:	00 41 0e             	add    %al,0xe(%ecx)
c00092eb:	08 85 02 42 0d 05    	or     %al,0x50d4202(%ebp)
c00092f1:	02 a2 c5 0c 04 04    	add    0x4040cc5(%edx),%ah
c00092f7:	00 1c 00             	add    %bl,(%eax,%eax,1)
c00092fa:	00 00                	add    %al,(%eax)
c00092fc:	fc                   	cld    
c00092fd:	02 00                	add    (%eax),%al
c00092ff:	00 a8 8b ff ff b8    	add    %ch,-0x47000075(%eax)
c0009305:	00 00                	add    %al,(%eax)
c0009307:	00 00                	add    %al,(%eax)
c0009309:	41                   	inc    %ecx
c000930a:	0e                   	push   %cs
c000930b:	08 85 02 42 0d 05    	or     %al,0x50d4202(%ebp)
c0009311:	02 b4 c5 0c 04 04 00 	add    0x4040c(%ebp,%eax,8),%dh
c0009318:	1c 00                	sbb    $0x0,%al
c000931a:	00 00                	add    %al,(%eax)
c000931c:	1c 03                	sbb    $0x3,%al
c000931e:	00 00                	add    %al,(%eax)
c0009320:	40                   	inc    %eax
c0009321:	8c ff                	mov    %?,%edi
c0009323:	ff                   	(bad)  
c0009324:	bc 00 00 00 00       	mov    $0x0,%esp
c0009329:	41                   	inc    %ecx
c000932a:	0e                   	push   %cs
c000932b:	08 85 02 42 0d 05    	or     %al,0x50d4202(%ebp)
c0009331:	02 b8 c5 0c 04 04    	add    0x4040cc5(%eax),%bh
c0009337:	00 1c 00             	add    %bl,(%eax,%eax,1)
c000933a:	00 00                	add    %al,(%eax)
c000933c:	3c 03                	cmp    $0x3,%al
c000933e:	00 00                	add    %al,(%eax)
c0009340:	dc 8c ff ff 70 00 00 	fmull  0x70ff(%edi,%edi,8)
c0009347:	00 00                	add    %al,(%eax)
c0009349:	41                   	inc    %ecx
c000934a:	0e                   	push   %cs
c000934b:	08 85 02 42 0d 05    	or     %al,0x50d4202(%ebp)
c0009351:	02 6c c5 0c          	add    0xc(%ebp,%eax,8),%ch
c0009355:	04 04                	add    $0x4,%al
c0009357:	00 1c 00             	add    %bl,(%eax,%eax,1)
c000935a:	00 00                	add    %al,(%eax)
c000935c:	5c                   	pop    %esp
c000935d:	03 00                	add    (%eax),%eax
c000935f:	00 2c 8d ff ff 3b 00 	add    %ch,0x3bffff(,%ecx,4)
c0009366:	00 00                	add    %al,(%eax)
c0009368:	00 41 0e             	add    %al,0xe(%ecx)
c000936b:	08 85 02 42 0d 05    	or     %al,0x50d4202(%ebp)
c0009371:	77 c5                	ja     c0009338 <KERNEL_END_TEXT+0x338>
c0009373:	0c 04                	or     $0x4,%al
c0009375:	04 00                	add    $0x0,%al
c0009377:	00 1c 00             	add    %bl,(%eax,%eax,1)
c000937a:	00 00                	add    %al,(%eax)
c000937c:	7c 03                	jl     c0009381 <KERNEL_END_TEXT+0x381>
c000937e:	00 00                	add    %al,(%eax)
c0009380:	47                   	inc    %edi
c0009381:	8d                   	(bad)  
c0009382:	ff                   	(bad)  
c0009383:	ff 1e                	lcall  *(%esi)
c0009385:	00 00                	add    %al,(%eax)
c0009387:	00 00                	add    %al,(%eax)
c0009389:	41                   	inc    %ecx
c000938a:	0e                   	push   %cs
c000938b:	08 85 02 42 0d 05    	or     %al,0x50d4202(%ebp)
c0009391:	5a                   	pop    %edx
c0009392:	c5 0c 04             	lds    (%esp,%eax,1),%ecx
c0009395:	04 00                	add    $0x0,%al
c0009397:	00 20                	add    %ah,(%eax)
c0009399:	00 00                	add    %al,(%eax)
c000939b:	00 9c 03 00 00 45 8d 	add    %bl,-0x72bb0000(%ebx,%eax,1)
c00093a2:	ff                   	(bad)  
c00093a3:	ff 73 00             	pushl  0x0(%ebx)
c00093a6:	00 00                	add    %al,(%eax)
c00093a8:	00 41 0e             	add    %al,0xe(%ecx)
c00093ab:	08 85 02 42 0d 05    	or     %al,0x50d4202(%ebp)
c00093b1:	44                   	inc    %esp
c00093b2:	83 03 02             	addl   $0x2,(%ebx)
c00093b5:	6a c3                	push   $0xffffffc3
c00093b7:	41                   	inc    %ecx
c00093b8:	c5 0c 04             	lds    (%esp,%eax,1),%ecx
c00093bb:	04 1c                	add    $0x1c,%al
c00093bd:	00 00                	add    %al,(%eax)
c00093bf:	00 c0                	add    %al,%al
c00093c1:	03 00                	add    (%eax),%eax
c00093c3:	00 94 8d ff ff 80 00 	add    %dl,0x80ffff(%ebp,%ecx,4)
c00093ca:	00 00                	add    %al,(%eax)
c00093cc:	00 41 0e             	add    %al,0xe(%ecx)
c00093cf:	08 85 02 42 0d 05    	or     %al,0x50d4202(%ebp)
c00093d5:	02 7c c5 0c          	add    0xc(%ebp,%eax,8),%bh
c00093d9:	04 04                	add    $0x4,%al
c00093db:	00 1c 00             	add    %bl,(%eax,%eax,1)
c00093de:	00 00                	add    %al,(%eax)
c00093e0:	e0 03                	loopne c00093e5 <KERNEL_END_TEXT+0x3e5>
c00093e2:	00 00                	add    %al,(%eax)
c00093e4:	f4                   	hlt    
c00093e5:	8d                   	(bad)  
c00093e6:	ff                   	(bad)  
c00093e7:	ff 07                	incl   (%edi)
c00093e9:	00 00                	add    %al,(%eax)
c00093eb:	00 00                	add    %al,(%eax)
c00093ed:	41                   	inc    %ecx
c00093ee:	0e                   	push   %cs
c00093ef:	08 85 02 42 0d 05    	or     %al,0x50d4202(%ebp)
c00093f5:	43                   	inc    %ebx
c00093f6:	c5 0c 04             	lds    (%esp,%eax,1),%ecx
c00093f9:	04 00                	add    $0x0,%al
c00093fb:	00 1c 00             	add    %bl,(%eax,%eax,1)
c00093fe:	00 00                	add    %al,(%eax)
c0009400:	00 04 00             	add    %al,(%eax,%eax,1)
c0009403:	00 db                	add    %bl,%bl
c0009405:	8d                   	(bad)  
c0009406:	ff                   	(bad)  
c0009407:	ff 47 00             	incl   0x0(%edi)
c000940a:	00 00                	add    %al,(%eax)
c000940c:	00 41 0e             	add    %al,0xe(%ecx)
c000940f:	08 85 02 42 0d 05    	or     %al,0x50d4202(%ebp)
c0009415:	02 43 c5             	add    -0x3b(%ebx),%al
c0009418:	0c 04                	or     $0x4,%al
c000941a:	04 00                	add    $0x0,%al
c000941c:	1c 00                	sbb    $0x0,%al
c000941e:	00 00                	add    %al,(%eax)
c0009420:	20 04 00             	and    %al,(%eax,%eax,1)
c0009423:	00 02                	add    %al,(%edx)
c0009425:	8e ff                	mov    %edi,%?
c0009427:	ff 1d 01 00 00 00    	lcall  *0x1
c000942d:	41                   	inc    %ecx
c000942e:	0e                   	push   %cs
c000942f:	08 85 02 42 0d 05    	or     %al,0x50d4202(%ebp)
c0009435:	03 19                	add    (%ecx),%ebx
c0009437:	01 c5                	add    %eax,%ebp
c0009439:	0c 04                	or     $0x4,%al
c000943b:	04 1c                	add    $0x1c,%al
c000943d:	00 00                	add    %al,(%eax)
c000943f:	00 40 04             	add    %al,0x4(%eax)
c0009442:	00 00                	add    %al,(%eax)
c0009444:	ff 8e ff ff 03 01    	decl   0x103ffff(%esi)
c000944a:	00 00                	add    %al,(%eax)
c000944c:	00 41 0e             	add    %al,0xe(%ecx)
c000944f:	08 85 02 42 0d 05    	or     %al,0x50d4202(%ebp)
c0009455:	02 ff                	add    %bh,%bh
c0009457:	c5 0c 04             	lds    (%esp,%eax,1),%ecx
c000945a:	04 00                	add    $0x0,%al
c000945c:	1c 00                	sbb    $0x0,%al
c000945e:	00 00                	add    %al,(%eax)
c0009460:	60                   	pusha  
c0009461:	04 00                	add    $0x0,%al
c0009463:	00 e2                	add    %ah,%dl
c0009465:	8f                   	(bad)  
c0009466:	ff                   	(bad)  
c0009467:	ff 73 00             	pushl  0x0(%ebx)
c000946a:	00 00                	add    %al,(%eax)
c000946c:	00 41 0e             	add    %al,0xe(%ecx)
c000946f:	08 85 02 42 0d 05    	or     %al,0x50d4202(%ebp)
c0009475:	02 6f c5             	add    -0x3b(%edi),%ch
c0009478:	0c 04                	or     $0x4,%al
c000947a:	04 00                	add    $0x0,%al
c000947c:	1c 00                	sbb    $0x0,%al
c000947e:	00 00                	add    %al,(%eax)
c0009480:	80 04 00 00          	addb   $0x0,(%eax,%eax,1)
c0009484:	35 90 ff ff 0f       	xor    $0xfffff90,%eax
c0009489:	01 00                	add    %eax,(%eax)
c000948b:	00 00                	add    %al,(%eax)
c000948d:	41                   	inc    %ecx
c000948e:	0e                   	push   %cs
c000948f:	08 85 02 42 0d 05    	or     %al,0x50d4202(%ebp)
c0009495:	03 0b                	add    (%ebx),%ecx
c0009497:	01 c5                	add    %eax,%ebp
c0009499:	0c 04                	or     $0x4,%al
c000949b:	04 1c                	add    $0x1c,%al
c000949d:	00 00                	add    %al,(%eax)
c000949f:	00 a0 04 00 00 24    	add    %ah,0x24000004(%eax)
c00094a5:	91                   	xchg   %eax,%ecx
c00094a6:	ff                   	(bad)  
c00094a7:	ff 36                	pushl  (%esi)
c00094a9:	00 00                	add    %al,(%eax)
c00094ab:	00 00                	add    %al,(%eax)
c00094ad:	41                   	inc    %ecx
c00094ae:	0e                   	push   %cs
c00094af:	08 85 02 42 0d 05    	or     %al,0x50d4202(%ebp)
c00094b5:	72 c5                	jb     c000947c <KERNEL_END_TEXT+0x47c>
c00094b7:	0c 04                	or     $0x4,%al
c00094b9:	04 00                	add    $0x0,%al
c00094bb:	00 24 00             	add    %ah,(%eax,%eax,1)
c00094be:	00 00                	add    %al,(%eax)
c00094c0:	c0 04 00 00          	rolb   $0x0,(%eax,%eax,1)
c00094c4:	3a 91 ff ff ad 00    	cmp    0xadffff(%ecx),%dl
c00094ca:	00 00                	add    %al,(%eax)
c00094cc:	00 41 0e             	add    %al,0xe(%ecx)
c00094cf:	08 85 02 42 0d 05    	or     %al,0x50d4202(%ebp)
c00094d5:	45                   	inc    %ebp
c00094d6:	86 03                	xchg   %al,(%ebx)
c00094d8:	83 04 02 a2          	addl   $0xffffffa2,(%edx,%eax,1)
c00094dc:	c3                   	ret    
c00094dd:	41                   	inc    %ecx
c00094de:	c6 41 c5 0c          	movb   $0xc,-0x3b(%ecx)
c00094e2:	04 04                	add    $0x4,%al
c00094e4:	1c 00                	sbb    $0x0,%al
c00094e6:	00 00                	add    %al,(%eax)
c00094e8:	e8 04 00 00 bf       	call   7f0094f1 <PHYSICAL_KERNEL_START+0x7ef094f1>
c00094ed:	91                   	xchg   %eax,%ecx
c00094ee:	ff                   	(bad)  
c00094ef:	ff 0b                	decl   (%ebx)
c00094f1:	00 00                	add    %al,(%eax)
c00094f3:	00 00                	add    %al,(%eax)
c00094f5:	41                   	inc    %ecx
c00094f6:	0e                   	push   %cs
c00094f7:	08 85 02 42 0d 05    	or     %al,0x50d4202(%ebp)
c00094fd:	47                   	inc    %edi
c00094fe:	c5 0c 04             	lds    (%esp,%eax,1),%ecx
c0009501:	04 00                	add    $0x0,%al
c0009503:	00 1c 00             	add    %bl,(%eax,%eax,1)
c0009506:	00 00                	add    %al,(%eax)
c0009508:	08 05 00 00 aa 91    	or     %al,0x91aa0000
c000950e:	ff                   	(bad)  
c000950f:	ff 5b 00             	lcall  *0x0(%ebx)
c0009512:	00 00                	add    %al,(%eax)
c0009514:	00 41 0e             	add    %al,0xe(%ecx)
c0009517:	08 85 02 42 0d 05    	or     %al,0x50d4202(%ebp)
c000951d:	02 57 c5             	add    -0x3b(%edi),%dl
c0009520:	0c 04                	or     $0x4,%al
c0009522:	04 00                	add    $0x0,%al
c0009524:	20 00                	and    %al,(%eax)
c0009526:	00 00                	add    %al,(%eax)
c0009528:	28 05 00 00 e5 91    	sub    %al,0x91e50000
c000952e:	ff                   	(bad)  
c000952f:	ff 52 00             	call   *0x0(%edx)
c0009532:	00 00                	add    %al,(%eax)
c0009534:	00 41 0e             	add    %al,0xe(%ecx)
c0009537:	08 85 02 42 0d 05    	or     %al,0x50d4202(%ebp)
c000953d:	44                   	inc    %esp
c000953e:	83 03 02             	addl   $0x2,(%ebx)
c0009541:	49                   	dec    %ecx
c0009542:	c3                   	ret    
c0009543:	41                   	inc    %ecx
c0009544:	c5 0c 04             	lds    (%esp,%eax,1),%ecx
c0009547:	04 1c                	add    $0x1c,%al
c0009549:	00 00                	add    %al,(%eax)
c000954b:	00 4c 05 00          	add    %cl,0x0(%ebp,%eax,1)
c000954f:	00 13                	add    %dl,(%ebx)
c0009551:	92                   	xchg   %eax,%edx
c0009552:	ff                   	(bad)  
c0009553:	ff 76 00             	pushl  0x0(%esi)
c0009556:	00 00                	add    %al,(%eax)
c0009558:	00 41 0e             	add    %al,0xe(%ecx)
c000955b:	08 85 02 42 0d 05    	or     %al,0x50d4202(%ebp)
c0009561:	02 72 c5             	add    -0x3b(%edx),%dh
c0009564:	0c 04                	or     $0x4,%al
c0009566:	04 00                	add    $0x0,%al
c0009568:	18 00                	sbb    %al,(%eax)
c000956a:	00 00                	add    %al,(%eax)
c000956c:	6c                   	insb   (%dx),%es:(%edi)
c000956d:	05 00 00 69 92       	add    $0x92690000,%eax
c0009572:	ff                   	(bad)  
c0009573:	ff                   	(bad)  
c0009574:	fa                   	cli    
c0009575:	01 00                	add    %eax,(%eax)
c0009577:	00 00                	add    %al,(%eax)
c0009579:	41                   	inc    %ecx
c000957a:	0e                   	push   %cs
c000957b:	08 85 02 42 0d 05    	or     %al,0x50d4202(%ebp)
c0009581:	00 00                	add    %al,(%eax)
c0009583:	00 1c 00             	add    %bl,(%eax,%eax,1)
c0009586:	00 00                	add    %al,(%eax)
c0009588:	88 05 00 00 47 94    	mov    %al,0x94470000
c000958e:	ff                   	(bad)  
c000958f:	ff 50 00             	call   *0x0(%eax)
c0009592:	00 00                	add    %al,(%eax)
c0009594:	00 41 0e             	add    %al,0xe(%ecx)
c0009597:	08 85 02 42 0d 05    	or     %al,0x50d4202(%ebp)
c000959d:	02 4c c5 0c          	add    0xc(%ebp,%eax,8),%cl
c00095a1:	04 04                	add    $0x4,%al
c00095a3:	00 1c 00             	add    %bl,(%eax,%eax,1)
c00095a6:	00 00                	add    %al,(%eax)
c00095a8:	a8 05                	test   $0x5,%al
c00095aa:	00 00                	add    %al,(%eax)
c00095ac:	77 94                	ja     c0009542 <KERNEL_END_TEXT+0x542>
c00095ae:	ff                   	(bad)  
c00095af:	ff 50 00             	call   *0x0(%eax)
c00095b2:	00 00                	add    %al,(%eax)
c00095b4:	00 41 0e             	add    %al,0xe(%ecx)
c00095b7:	08 85 02 42 0d 05    	or     %al,0x50d4202(%ebp)
c00095bd:	02 4c c5 0c          	add    0xc(%ebp,%eax,8),%cl
c00095c1:	04 04                	add    $0x4,%al
c00095c3:	00 1c 00             	add    %bl,(%eax,%eax,1)
c00095c6:	00 00                	add    %al,(%eax)
c00095c8:	c8 05 00 00          	enter  $0x5,$0x0
c00095cc:	a7                   	cmpsl  %es:(%edi),%ds:(%esi)
c00095cd:	94                   	xchg   %eax,%esp
c00095ce:	ff                   	(bad)  
c00095cf:	ff 21                	jmp    *(%ecx)
c00095d1:	00 00                	add    %al,(%eax)
c00095d3:	00 00                	add    %al,(%eax)
c00095d5:	41                   	inc    %ecx
c00095d6:	0e                   	push   %cs
c00095d7:	08 85 02 42 0d 05    	or     %al,0x50d4202(%ebp)
c00095dd:	5d                   	pop    %ebp
c00095de:	c5 0c 04             	lds    (%esp,%eax,1),%ecx
c00095e1:	04 00                	add    $0x0,%al
c00095e3:	00 20                	add    %ah,(%eax)
c00095e5:	00 00                	add    %al,(%eax)
c00095e7:	00 e8                	add    %ch,%al
c00095e9:	05 00 00 a8 94       	add    $0x94a80000,%eax
c00095ee:	ff                   	(bad)  
c00095ef:	ff                   	(bad)  
c00095f0:	dc 00                	faddl  (%eax)
c00095f2:	00 00                	add    %al,(%eax)
c00095f4:	00 41 0e             	add    %al,0xe(%ecx)
c00095f7:	08 85 02 42 0d 05    	or     %al,0x50d4202(%ebp)
c00095fd:	44                   	inc    %esp
c00095fe:	83 03 02             	addl   $0x2,(%ebx)
c0009601:	d3 c3                	rol    %cl,%ebx
c0009603:	41                   	inc    %ecx
c0009604:	c5 0c 04             	lds    (%esp,%eax,1),%ecx
c0009607:	04 1c                	add    $0x1c,%al
c0009609:	00 00                	add    %al,(%eax)
c000960b:	00 0c 06             	add    %cl,(%esi,%eax,1)
c000960e:	00 00                	add    %al,(%eax)
c0009610:	60                   	pusha  
c0009611:	95                   	xchg   %eax,%ebp
c0009612:	ff                   	(bad)  
c0009613:	ff a1 00 00 00 00    	jmp    *0x0(%ecx)
c0009619:	41                   	inc    %ecx
c000961a:	0e                   	push   %cs
c000961b:	08 85 02 42 0d 05    	or     %al,0x50d4202(%ebp)
c0009621:	02 9d c5 0c 04 04    	add    0x4040cc5(%ebp),%bl
c0009627:	00 20                	add    %ah,(%eax)
c0009629:	00 00                	add    %al,(%eax)
c000962b:	00 2c 06             	add    %ch,(%esi,%eax,1)
c000962e:	00 00                	add    %al,(%eax)
c0009630:	e1 95                	loope  c00095c7 <KERNEL_END_TEXT+0x5c7>
c0009632:	ff                   	(bad)  
c0009633:	ff                   	(bad)  
c0009634:	ff 00                	incl   (%eax)
c0009636:	00 00                	add    %al,(%eax)
c0009638:	00 41 0e             	add    %al,0xe(%ecx)
c000963b:	08 85 02 42 0d 05    	or     %al,0x50d4202(%ebp)
c0009641:	44                   	inc    %esp
c0009642:	83 03 02             	addl   $0x2,(%ebx)
c0009645:	f6 c3 41             	test   $0x41,%bl
c0009648:	c5 0c 04             	lds    (%esp,%eax,1),%ecx
c000964b:	04 20                	add    $0x20,%al
c000964d:	00 00                	add    %al,(%eax)
c000964f:	00 50 06             	add    %dl,0x6(%eax)
c0009652:	00 00                	add    %al,(%eax)
c0009654:	bc 96 ff ff 22       	mov    $0x22ffff96,%esp
c0009659:	00 00                	add    %al,(%eax)
c000965b:	00 00                	add    %al,(%eax)
c000965d:	41                   	inc    %ecx
c000965e:	0e                   	push   %cs
c000965f:	08 85 02 42 0d 05    	or     %al,0x50d4202(%ebp)
c0009665:	44                   	inc    %esp
c0009666:	87 03                	xchg   %eax,(%ebx)
c0009668:	59                   	pop    %ecx
c0009669:	c7 41 c5 0c 04 04 00 	movl   $0x4040c,-0x3b(%ecx)
c0009670:	1c 00                	sbb    $0x0,%al
c0009672:	00 00                	add    %al,(%eax)
c0009674:	74 06                	je     c000967c <KERNEL_END_TEXT+0x67c>
c0009676:	00 00                	add    %al,(%eax)
c0009678:	ba 96 ff ff 09       	mov    $0x9ffff96,%edx
c000967d:	00 00                	add    %al,(%eax)
c000967f:	00 00                	add    %al,(%eax)
c0009681:	41                   	inc    %ecx
c0009682:	0e                   	push   %cs
c0009683:	08 85 02 42 0d 05    	or     %al,0x50d4202(%ebp)
c0009689:	45                   	inc    %ebp
c000968a:	c5 0c 04             	lds    (%esp,%eax,1),%ecx
c000968d:	04 00                	add    $0x0,%al
c000968f:	00 1c 00             	add    %bl,(%eax,%eax,1)
c0009692:	00 00                	add    %al,(%eax)
c0009694:	94                   	xchg   %eax,%esp
c0009695:	06                   	push   %es
c0009696:	00 00                	add    %al,(%eax)
c0009698:	a3 96 ff ff 0b       	mov    %eax,0xbffff96
c000969d:	00 00                	add    %al,(%eax)
c000969f:	00 00                	add    %al,(%eax)
c00096a1:	41                   	inc    %ecx
c00096a2:	0e                   	push   %cs
c00096a3:	08 85 02 42 0d 05    	or     %al,0x50d4202(%ebp)
c00096a9:	47                   	inc    %edi
c00096aa:	c5 0c 04             	lds    (%esp,%eax,1),%ecx
c00096ad:	04 00                	add    $0x0,%al
c00096af:	00 1c 00             	add    %bl,(%eax,%eax,1)
c00096b2:	00 00                	add    %al,(%eax)
c00096b4:	b4 06                	mov    $0x6,%ah
c00096b6:	00 00                	add    %al,(%eax)
c00096b8:	8e 96 ff ff 53 00    	mov    0x53ffff(%esi),%ss
c00096be:	00 00                	add    %al,(%eax)
c00096c0:	00 41 0e             	add    %al,0xe(%ecx)
c00096c3:	08 85 02 42 0d 05    	or     %al,0x50d4202(%ebp)
c00096c9:	02 4f c5             	add    -0x3b(%edi),%cl
c00096cc:	0c 04                	or     $0x4,%al
c00096ce:	04 00                	add    $0x0,%al
c00096d0:	1c 00                	sbb    $0x0,%al
c00096d2:	00 00                	add    %al,(%eax)
c00096d4:	d4 06                	aam    $0x6
c00096d6:	00 00                	add    %al,(%eax)
c00096d8:	c1 96 ff ff 4d 00 00 	rcll   $0x0,0x4dffff(%esi)
c00096df:	00 00                	add    %al,(%eax)
c00096e1:	41                   	inc    %ecx
c00096e2:	0e                   	push   %cs
c00096e3:	08 85 02 42 0d 05    	or     %al,0x50d4202(%ebp)
c00096e9:	02 49 c5             	add    -0x3b(%ecx),%cl
c00096ec:	0c 04                	or     $0x4,%al
c00096ee:	04 00                	add    $0x0,%al
c00096f0:	1c 00                	sbb    $0x0,%al
c00096f2:	00 00                	add    %al,(%eax)
c00096f4:	f4                   	hlt    
c00096f5:	06                   	push   %es
c00096f6:	00 00                	add    %al,(%eax)
c00096f8:	ee                   	out    %al,(%dx)
c00096f9:	96                   	xchg   %eax,%esi
c00096fa:	ff                   	(bad)  
c00096fb:	ff                   	(bad)  
c00096fc:	39 00                	cmp    %eax,(%eax)
c00096fe:	00 00                	add    %al,(%eax)
c0009700:	00 41 0e             	add    %al,0xe(%ecx)
c0009703:	08 85 02 42 0d 05    	or     %al,0x50d4202(%ebp)
c0009709:	75 c5                	jne    c00096d0 <KERNEL_END_TEXT+0x6d0>
c000970b:	0c 04                	or     $0x4,%al
c000970d:	04 00                	add    $0x0,%al
c000970f:	00 1c 00             	add    %bl,(%eax,%eax,1)
c0009712:	00 00                	add    %al,(%eax)
c0009714:	14 07                	adc    $0x7,%al
c0009716:	00 00                	add    %al,(%eax)
c0009718:	07                   	pop    %es
c0009719:	97                   	xchg   %eax,%edi
c000971a:	ff                   	(bad)  
c000971b:	ff 4c 00 00          	decl   0x0(%eax,%eax,1)
c000971f:	00 00                	add    %al,(%eax)
c0009721:	41                   	inc    %ecx
c0009722:	0e                   	push   %cs
c0009723:	08 85 02 42 0d 05    	or     %al,0x50d4202(%ebp)
c0009729:	02 48 c5             	add    -0x3b(%eax),%cl
c000972c:	0c 04                	or     $0x4,%al
c000972e:	04 00                	add    $0x0,%al
c0009730:	1c 00                	sbb    $0x0,%al
c0009732:	00 00                	add    %al,(%eax)
c0009734:	34 07                	xor    $0x7,%al
c0009736:	00 00                	add    %al,(%eax)
c0009738:	33 97 ff ff 27 01    	xor    0x127ffff(%edi),%edx
c000973e:	00 00                	add    %al,(%eax)
c0009740:	00 41 0e             	add    %al,0xe(%ecx)
c0009743:	08 85 02 42 0d 05    	or     %al,0x50d4202(%ebp)
c0009749:	03 23                	add    (%ebx),%esp
c000974b:	01 c5                	add    %eax,%ebp
c000974d:	0c 04                	or     $0x4,%al
c000974f:	04 1c                	add    $0x1c,%al
c0009751:	00 00                	add    %al,(%eax)
c0009753:	00 54 07 00          	add    %dl,0x0(%edi,%eax,1)
c0009757:	00 3a                	add    %bh,(%edx)
c0009759:	98                   	cwtl   
c000975a:	ff                   	(bad)  
c000975b:	ff 74 01 00          	pushl  0x0(%ecx,%eax,1)
c000975f:	00 00                	add    %al,(%eax)
c0009761:	41                   	inc    %ecx
c0009762:	0e                   	push   %cs
c0009763:	08 85 02 42 0d 05    	or     %al,0x50d4202(%ebp)
c0009769:	03 70 01             	add    0x1(%eax),%esi
c000976c:	c5 0c 04             	lds    (%esp,%eax,1),%ecx
c000976f:	04 1c                	add    $0x1c,%al
c0009771:	00 00                	add    %al,(%eax)
c0009773:	00 74 07 00          	add    %dh,0x0(%edi,%eax,1)
c0009777:	00 8e 99 ff ff e1    	add    %cl,-0x1e000067(%esi)
c000977d:	00 00                	add    %al,(%eax)
c000977f:	00 00                	add    %al,(%eax)
c0009781:	41                   	inc    %ecx
c0009782:	0e                   	push   %cs
c0009783:	08 85 02 42 0d 05    	or     %al,0x50d4202(%ebp)
c0009789:	02 dd                	add    %ch,%bl
c000978b:	c5 0c 04             	lds    (%esp,%eax,1),%ecx
c000978e:	04 00                	add    $0x0,%al
c0009790:	1c 00                	sbb    $0x0,%al
c0009792:	00 00                	add    %al,(%eax)
c0009794:	94                   	xchg   %eax,%esp
c0009795:	07                   	pop    %es
c0009796:	00 00                	add    %al,(%eax)
c0009798:	4f                   	dec    %edi
c0009799:	9a ff ff 56 00 00 00 	lcall  $0x0,$0x56ffff
c00097a0:	00 41 0e             	add    %al,0xe(%ecx)
c00097a3:	08 85 02 42 0d 05    	or     %al,0x50d4202(%ebp)
c00097a9:	02 52 c5             	add    -0x3b(%edx),%dl
c00097ac:	0c 04                	or     $0x4,%al
c00097ae:	04 00                	add    $0x0,%al
c00097b0:	1c 00                	sbb    $0x0,%al
c00097b2:	00 00                	add    %al,(%eax)
c00097b4:	b4 07                	mov    $0x7,%ah
c00097b6:	00 00                	add    %al,(%eax)
c00097b8:	85 9a ff ff 0b 01    	test   %ebx,0x10bffff(%edx)
c00097be:	00 00                	add    %al,(%eax)
c00097c0:	00 41 0e             	add    %al,0xe(%ecx)
c00097c3:	08 85 02 42 0d 05    	or     %al,0x50d4202(%ebp)
c00097c9:	03 07                	add    (%edi),%eax
c00097cb:	01 c5                	add    %eax,%ebp
c00097cd:	0c 04                	or     $0x4,%al
c00097cf:	04 1c                	add    $0x1c,%al
c00097d1:	00 00                	add    %al,(%eax)
c00097d3:	00 d4                	add    %dl,%ah
c00097d5:	07                   	pop    %es
c00097d6:	00 00                	add    %al,(%eax)
c00097d8:	70 9b                	jo     c0009775 <KERNEL_END_TEXT+0x775>
c00097da:	ff                   	(bad)  
c00097db:	ff 86 01 00 00 00    	incl   0x1(%esi)
c00097e1:	41                   	inc    %ecx
c00097e2:	0e                   	push   %cs
c00097e3:	08 85 02 42 0d 05    	or     %al,0x50d4202(%ebp)
c00097e9:	03 82 01 c5 0c 04    	add    0x40cc501(%edx),%eax
c00097ef:	04 1c                	add    $0x1c,%al
c00097f1:	00 00                	add    %al,(%eax)
c00097f3:	00 f4                	add    %dh,%ah
c00097f5:	07                   	pop    %es
c00097f6:	00 00                	add    %al,(%eax)
c00097f8:	d6                   	(bad)  
c00097f9:	9c                   	pushf  
c00097fa:	ff                   	(bad)  
c00097fb:	ff                   	(bad)  
c00097fc:	df 00                	fild   (%eax)
c00097fe:	00 00                	add    %al,(%eax)
c0009800:	00 41 0e             	add    %al,0xe(%ecx)
c0009803:	08 85 02 42 0d 05    	or     %al,0x50d4202(%ebp)
c0009809:	02 db                	add    %bl,%bl
c000980b:	c5 0c 04             	lds    (%esp,%eax,1),%ecx
c000980e:	04 00                	add    $0x0,%al
c0009810:	1c 00                	sbb    $0x0,%al
c0009812:	00 00                	add    %al,(%eax)
c0009814:	14 08                	adc    $0x8,%al
c0009816:	00 00                	add    %al,(%eax)
c0009818:	95                   	xchg   %eax,%ebp
c0009819:	9d                   	popf   
c000981a:	ff                   	(bad)  
c000981b:	ff 83 00 00 00 00    	incl   0x0(%ebx)
c0009821:	41                   	inc    %ecx
c0009822:	0e                   	push   %cs
c0009823:	08 85 02 42 0d 05    	or     %al,0x50d4202(%ebp)
c0009829:	02 7f c5             	add    -0x3b(%edi),%bh
c000982c:	0c 04                	or     $0x4,%al
c000982e:	04 00                	add    $0x0,%al
c0009830:	1c 00                	sbb    $0x0,%al
c0009832:	00 00                	add    %al,(%eax)
c0009834:	34 08                	xor    $0x8,%al
c0009836:	00 00                	add    %al,(%eax)
c0009838:	f8                   	clc    
c0009839:	9d                   	popf   
c000983a:	ff                   	(bad)  
c000983b:	ff 0b                	decl   (%ebx)
c000983d:	00 00                	add    %al,(%eax)
c000983f:	00 00                	add    %al,(%eax)
c0009841:	41                   	inc    %ecx
c0009842:	0e                   	push   %cs
c0009843:	08 85 02 42 0d 05    	or     %al,0x50d4202(%ebp)
c0009849:	47                   	inc    %edi
c000984a:	c5 0c 04             	lds    (%esp,%eax,1),%ecx
c000984d:	04 00                	add    $0x0,%al
c000984f:	00 1c 00             	add    %bl,(%eax,%eax,1)
c0009852:	00 00                	add    %al,(%eax)
c0009854:	54                   	push   %esp
c0009855:	08 00                	or     %al,(%eax)
c0009857:	00 e3                	add    %ah,%bl
c0009859:	9d                   	popf   
c000985a:	ff                   	(bad)  
c000985b:	ff                   	(bad)  
c000985c:	3f                   	aas    
c000985d:	00 00                	add    %al,(%eax)
c000985f:	00 00                	add    %al,(%eax)
c0009861:	41                   	inc    %ecx
c0009862:	0e                   	push   %cs
c0009863:	08 85 02 42 0d 05    	or     %al,0x50d4202(%ebp)
c0009869:	7b c5                	jnp    c0009830 <KERNEL_END_TEXT+0x830>
c000986b:	0c 04                	or     $0x4,%al
c000986d:	04 00                	add    $0x0,%al
c000986f:	00 24 00             	add    %ah,(%eax,%eax,1)
c0009872:	00 00                	add    %al,(%eax)
c0009874:	74 08                	je     c000987e <KERNEL_END_TEXT+0x87e>
c0009876:	00 00                	add    %al,(%eax)
c0009878:	02 9e ff ff 19 00    	add    0x19ffff(%esi),%bl
c000987e:	00 00                	add    %al,(%eax)
c0009880:	00 41 0e             	add    %al,0xe(%ecx)
c0009883:	08 85 02 42 0d 05    	or     %al,0x50d4202(%ebp)
c0009889:	42                   	inc    %edx
c000988a:	87 03                	xchg   %eax,(%ebx)
c000988c:	86 04 51             	xchg   %al,(%ecx,%edx,2)
c000988f:	c6 41 c7 41          	movb   $0x41,-0x39(%ecx)
c0009893:	c5 0c 04             	lds    (%esp,%eax,1),%ecx
c0009896:	04 00                	add    $0x0,%al
c0009898:	1c 00                	sbb    $0x0,%al
c000989a:	00 00                	add    %al,(%eax)
c000989c:	9c                   	pushf  
c000989d:	08 00                	or     %al,(%eax)
c000989f:	00 f3                	add    %dh,%bl
c00098a1:	9d                   	popf   
c00098a2:	ff                   	(bad)  
c00098a3:	ff                   	(bad)  
c00098a4:	bf 00 00 00 00       	mov    $0x0,%edi
c00098a9:	41                   	inc    %ecx
c00098aa:	0e                   	push   %cs
c00098ab:	08 85 02 42 0d 05    	or     %al,0x50d4202(%ebp)
c00098b1:	02 bb c5 0c 04 04    	add    0x4040cc5(%ebx),%bh
c00098b7:	00 1c 00             	add    %bl,(%eax,%eax,1)
c00098ba:	00 00                	add    %al,(%eax)
c00098bc:	bc 08 00 00 92       	mov    $0x92000008,%esp
c00098c1:	9e                   	sahf   
c00098c2:	ff                   	(bad)  
c00098c3:	ff 17                	call   *(%edi)
c00098c5:	00 00                	add    %al,(%eax)
c00098c7:	00 00                	add    %al,(%eax)
c00098c9:	41                   	inc    %ecx
c00098ca:	0e                   	push   %cs
c00098cb:	08 85 02 42 0d 05    	or     %al,0x50d4202(%ebp)
c00098d1:	53                   	push   %ebx
c00098d2:	c5 0c 04             	lds    (%esp,%eax,1),%ecx
c00098d5:	04 00                	add    $0x0,%al
c00098d7:	00 20                	add    %ah,(%eax)
c00098d9:	00 00                	add    %al,(%eax)
c00098db:	00 dc                	add    %bl,%ah
c00098dd:	08 00                	or     %al,(%eax)
c00098df:	00 89 9e ff ff 52    	add    %cl,0x52ffff9e(%ecx)
c00098e5:	00 00                	add    %al,(%eax)
c00098e7:	00 00                	add    %al,(%eax)
c00098e9:	41                   	inc    %ecx
c00098ea:	0e                   	push   %cs
c00098eb:	08 85 02 42 0d 05    	or     %al,0x50d4202(%ebp)
c00098f1:	44                   	inc    %esp
c00098f2:	83 03 02             	addl   $0x2,(%ebx)
c00098f5:	49                   	dec    %ecx
c00098f6:	c3                   	ret    
c00098f7:	41                   	inc    %ecx
c00098f8:	c5 0c 04             	lds    (%esp,%eax,1),%ecx
c00098fb:	04 1c                	add    $0x1c,%al
c00098fd:	00 00                	add    %al,(%eax)
c00098ff:	00 00                	add    %al,(%eax)
c0009901:	09 00                	or     %eax,(%eax)
c0009903:	00 b7 9e ff ff 15    	add    %dh,0x15ffff9e(%edi)
c0009909:	00 00                	add    %al,(%eax)
c000990b:	00 00                	add    %al,(%eax)
c000990d:	41                   	inc    %ecx
c000990e:	0e                   	push   %cs
c000990f:	08 85 02 42 0d 05    	or     %al,0x50d4202(%ebp)
c0009915:	51                   	push   %ecx
c0009916:	c5 0c 04             	lds    (%esp,%eax,1),%ecx
c0009919:	04 00                	add    $0x0,%al
c000991b:	00 1c 00             	add    %bl,(%eax,%eax,1)
c000991e:	00 00                	add    %al,(%eax)
c0009920:	20 09                	and    %cl,(%ecx)
c0009922:	00 00                	add    %al,(%eax)
c0009924:	ac                   	lods   %ds:(%esi),%al
c0009925:	9e                   	sahf   
c0009926:	ff                   	(bad)  
c0009927:	ff                   	(bad)  
c0009928:	dd 01                	fldl   (%ecx)
c000992a:	00 00                	add    %al,(%eax)
c000992c:	00 41 0e             	add    %al,0xe(%ecx)
c000992f:	08 85 02 42 0d 05    	or     %al,0x50d4202(%ebp)
c0009935:	03 d9                	add    %ecx,%ebx
c0009937:	01 c5                	add    %eax,%ebp
c0009939:	0c 04                	or     $0x4,%al
c000993b:	04 1c                	add    $0x1c,%al
c000993d:	00 00                	add    %al,(%eax)
c000993f:	00 40 09             	add    %al,0x9(%eax)
c0009942:	00 00                	add    %al,(%eax)
c0009944:	69 a0 ff ff 8e 00 00 	imul   $0x41000000,0x8effff(%eax),%esp
c000994b:	00 00 41 
c000994e:	0e                   	push   %cs
c000994f:	08 85 02 42 0d 05    	or     %al,0x50d4202(%ebp)
c0009955:	02 8a c5 0c 04 04    	add    0x4040cc5(%edx),%cl
c000995b:	00 1c 00             	add    %bl,(%eax,%eax,1)
c000995e:	00 00                	add    %al,(%eax)
c0009960:	60                   	pusha  
c0009961:	09 00                	or     %eax,(%eax)
c0009963:	00 d7                	add    %dl,%bh
c0009965:	a0 ff ff 19 01       	mov    0x119ffff,%al
c000996a:	00 00                	add    %al,(%eax)
c000996c:	00 41 0e             	add    %al,0xe(%ecx)
c000996f:	08 85 02 42 0d 05    	or     %al,0x50d4202(%ebp)
c0009975:	03 15 01 c5 0c 04    	add    0x40cc501,%edx
c000997b:	04 1c                	add    $0x1c,%al
c000997d:	00 00                	add    %al,(%eax)
c000997f:	00 80 09 00 00 d0    	add    %al,-0x2ffffff7(%eax)
c0009985:	a1 ff ff 0b 00       	mov    0xbffff,%eax
c000998a:	00 00                	add    %al,(%eax)
c000998c:	00 41 0e             	add    %al,0xe(%ecx)
c000998f:	08 85 02 42 0d 05    	or     %al,0x50d4202(%ebp)
c0009995:	47                   	inc    %edi
c0009996:	c5 0c 04             	lds    (%esp,%eax,1),%ecx
c0009999:	04 00                	add    $0x0,%al
c000999b:	00 20                	add    %ah,(%eax)
c000999d:	00 00                	add    %al,(%eax)
c000999f:	00 a0 09 00 00 bb    	add    %ah,-0x44fffff7(%eax)
c00099a5:	a1 ff ff 22 00       	mov    0x22ffff,%eax
c00099aa:	00 00                	add    %al,(%eax)
c00099ac:	00 41 0e             	add    %al,0xe(%ecx)
c00099af:	08 85 02 42 0d 05    	or     %al,0x50d4202(%ebp)
c00099b5:	44                   	inc    %esp
c00099b6:	87 03                	xchg   %eax,(%ebx)
c00099b8:	59                   	pop    %ecx
c00099b9:	c7 41 c5 0c 04 04 00 	movl   $0x4040c,-0x3b(%ecx)
c00099c0:	20 00                	and    %al,(%eax)
c00099c2:	00 00                	add    %al,(%eax)
c00099c4:	c4 09                	les    (%ecx),%ecx
c00099c6:	00 00                	add    %al,(%eax)
c00099c8:	b9 a1 ff ff 15       	mov    $0x15ffffa1,%ecx
c00099cd:	00 00                	add    %al,(%eax)
c00099cf:	00 00                	add    %al,(%eax)
c00099d1:	41                   	inc    %ecx
c00099d2:	0e                   	push   %cs
c00099d3:	08 85 02 42 0d 05    	or     %al,0x50d4202(%ebp)
c00099d9:	41                   	inc    %ecx
c00099da:	87 03                	xchg   %eax,(%ebx)
c00099dc:	4f                   	dec    %edi
c00099dd:	c7 41 c5 0c 04 04 00 	movl   $0x4040c,-0x3b(%ecx)
c00099e4:	24 00                	and    $0x0,%al
c00099e6:	00 00                	add    %al,(%eax)
c00099e8:	e8 09 00 00 aa       	call   6a0099f6 <PHYSICAL_KERNEL_START+0x69f099f6>
c00099ed:	a1 ff ff 19 00       	mov    0x19ffff,%eax
c00099f2:	00 00                	add    %al,(%eax)
c00099f4:	00 41 0e             	add    %al,0xe(%ecx)
c00099f7:	08 85 02 42 0d 05    	or     %al,0x50d4202(%ebp)
c00099fd:	42                   	inc    %edx
c00099fe:	87 03                	xchg   %eax,(%ebx)
c0009a00:	86 04 51             	xchg   %al,(%ecx,%edx,2)
c0009a03:	c6 41 c7 41          	movb   $0x41,-0x39(%ecx)
c0009a07:	c5 0c 04             	lds    (%esp,%eax,1),%ecx
c0009a0a:	04 00                	add    $0x0,%al
c0009a0c:	1c 00                	sbb    $0x0,%al
c0009a0e:	00 00                	add    %al,(%eax)
c0009a10:	10 0a                	adc    %cl,(%edx)
c0009a12:	00 00                	add    %al,(%eax)
c0009a14:	9b                   	fwait
c0009a15:	a1 ff ff 53 00       	mov    0x53ffff,%eax
c0009a1a:	00 00                	add    %al,(%eax)
c0009a1c:	00 41 0e             	add    %al,0xe(%ecx)
c0009a1f:	08 85 02 42 0d 05    	or     %al,0x50d4202(%ebp)
c0009a25:	02 4f c5             	add    -0x3b(%edi),%cl
c0009a28:	0c 04                	or     $0x4,%al
c0009a2a:	04 00                	add    $0x0,%al
c0009a2c:	1c 00                	sbb    $0x0,%al
c0009a2e:	00 00                	add    %al,(%eax)
c0009a30:	30 0a                	xor    %cl,(%edx)
c0009a32:	00 00                	add    %al,(%eax)
c0009a34:	ce                   	into   
c0009a35:	a1 ff ff 0b 00       	mov    0xbffff,%eax
c0009a3a:	00 00                	add    %al,(%eax)
c0009a3c:	00 41 0e             	add    %al,0xe(%ecx)
c0009a3f:	08 85 02 42 0d 05    	or     %al,0x50d4202(%ebp)
c0009a45:	47                   	inc    %edi
c0009a46:	c5 0c 04             	lds    (%esp,%eax,1),%ecx
c0009a49:	04 00                	add    $0x0,%al
c0009a4b:	00 1c 00             	add    %bl,(%eax,%eax,1)
c0009a4e:	00 00                	add    %al,(%eax)
c0009a50:	50                   	push   %eax
c0009a51:	0a 00                	or     (%eax),%al
c0009a53:	00 b9 a1 ff ff 5b    	add    %bh,0x5bffffa1(%ecx)
c0009a59:	00 00                	add    %al,(%eax)
c0009a5b:	00 00                	add    %al,(%eax)
c0009a5d:	41                   	inc    %ecx
c0009a5e:	0e                   	push   %cs
c0009a5f:	08 85 02 42 0d 05    	or     %al,0x50d4202(%ebp)
c0009a65:	02 57 c5             	add    -0x3b(%edi),%dl
c0009a68:	0c 04                	or     $0x4,%al
c0009a6a:	04 00                	add    $0x0,%al
c0009a6c:	20 00                	and    %al,(%eax)
c0009a6e:	00 00                	add    %al,(%eax)
c0009a70:	70 0a                	jo     c0009a7c <KERNEL_END_TEXT+0xa7c>
c0009a72:	00 00                	add    %al,(%eax)
c0009a74:	f4                   	hlt    
c0009a75:	a1 ff ff 52 00       	mov    0x52ffff,%eax
c0009a7a:	00 00                	add    %al,(%eax)
c0009a7c:	00 41 0e             	add    %al,0xe(%ecx)
c0009a7f:	08 85 02 42 0d 05    	or     %al,0x50d4202(%ebp)
c0009a85:	44                   	inc    %esp
c0009a86:	83 03 02             	addl   $0x2,(%ebx)
c0009a89:	49                   	dec    %ecx
c0009a8a:	c3                   	ret    
c0009a8b:	41                   	inc    %ecx
c0009a8c:	c5 0c 04             	lds    (%esp,%eax,1),%ecx
c0009a8f:	04 1c                	add    $0x1c,%al
c0009a91:	00 00                	add    %al,(%eax)
c0009a93:	00 94 0a 00 00 22 a2 	add    %dl,-0x5dde0000(%edx,%ecx,1)
c0009a9a:	ff                   	(bad)  
c0009a9b:	ff 93 00 00 00 00    	call   *0x0(%ebx)
c0009aa1:	41                   	inc    %ecx
c0009aa2:	0e                   	push   %cs
c0009aa3:	08 85 02 42 0d 05    	or     %al,0x50d4202(%ebp)
c0009aa9:	02 8f c5 0c 04 04    	add    0x4040cc5(%edi),%cl
c0009aaf:	00 1c 00             	add    %bl,(%eax,%eax,1)
c0009ab2:	00 00                	add    %al,(%eax)
c0009ab4:	b4 0a                	mov    $0xa,%ah
c0009ab6:	00 00                	add    %al,(%eax)
c0009ab8:	95                   	xchg   %eax,%ebp
c0009ab9:	a2 ff ff 76 00       	mov    %al,0x76ffff
c0009abe:	00 00                	add    %al,(%eax)
c0009ac0:	00 41 0e             	add    %al,0xe(%ecx)
c0009ac3:	08 85 02 42 0d 05    	or     %al,0x50d4202(%ebp)
c0009ac9:	02 72 c5             	add    -0x3b(%edx),%dh
c0009acc:	0c 04                	or     $0x4,%al
c0009ace:	04 00                	add    $0x0,%al
c0009ad0:	1c 00                	sbb    $0x0,%al
c0009ad2:	00 00                	add    %al,(%eax)
c0009ad4:	d4 0a                	aam    $0xa
c0009ad6:	00 00                	add    %al,(%eax)
c0009ad8:	eb a2                	jmp    c0009a7c <KERNEL_END_TEXT+0xa7c>
c0009ada:	ff                   	(bad)  
c0009adb:	ff 32                	pushl  (%edx)
c0009add:	00 00                	add    %al,(%eax)
c0009adf:	00 00                	add    %al,(%eax)
c0009ae1:	41                   	inc    %ecx
c0009ae2:	0e                   	push   %cs
c0009ae3:	08 85 02 42 0d 05    	or     %al,0x50d4202(%ebp)
c0009ae9:	6e                   	outsb  %ds:(%esi),(%dx)
c0009aea:	c5 0c 04             	lds    (%esp,%eax,1),%ecx
c0009aed:	04 00                	add    $0x0,%al
c0009aef:	00 1c 00             	add    %bl,(%eax,%eax,1)
c0009af2:	00 00                	add    %al,(%eax)
c0009af4:	f4                   	hlt    
c0009af5:	0a 00                	or     (%eax),%al
c0009af7:	00 fd                	add    %bh,%ch
c0009af9:	a2 ff ff a6 00       	mov    %al,0xa6ffff
c0009afe:	00 00                	add    %al,(%eax)
c0009b00:	00 41 0e             	add    %al,0xe(%ecx)
c0009b03:	08 85 02 42 0d 05    	or     %al,0x50d4202(%ebp)
c0009b09:	02 a2 c5 0c 04 04    	add    0x4040cc5(%edx),%ah
c0009b0f:	00 1c 00             	add    %bl,(%eax,%eax,1)
c0009b12:	00 00                	add    %al,(%eax)
c0009b14:	14 0b                	adc    $0xb,%al
c0009b16:	00 00                	add    %al,(%eax)
c0009b18:	83 a3 ff ff 30 00 00 	andl   $0x0,0x30ffff(%ebx)
c0009b1f:	00 00                	add    %al,(%eax)
c0009b21:	41                   	inc    %ecx
c0009b22:	0e                   	push   %cs
c0009b23:	08 85 02 42 0d 05    	or     %al,0x50d4202(%ebp)
c0009b29:	6c                   	insb   (%dx),%es:(%edi)
c0009b2a:	c5 0c 04             	lds    (%esp,%eax,1),%ecx
c0009b2d:	04 00                	add    $0x0,%al
c0009b2f:	00 1c 00             	add    %bl,(%eax,%eax,1)
c0009b32:	00 00                	add    %al,(%eax)
c0009b34:	34 0b                	xor    $0xb,%al
c0009b36:	00 00                	add    %al,(%eax)
c0009b38:	93                   	xchg   %eax,%ebx
c0009b39:	a3 ff ff 5f 00       	mov    %eax,0x5fffff
c0009b3e:	00 00                	add    %al,(%eax)
c0009b40:	00 41 0e             	add    %al,0xe(%ecx)
c0009b43:	08 85 02 42 0d 05    	or     %al,0x50d4202(%ebp)
c0009b49:	02 5b c5             	add    -0x3b(%ebx),%bl
c0009b4c:	0c 04                	or     $0x4,%al
c0009b4e:	04 00                	add    $0x0,%al
c0009b50:	1c 00                	sbb    $0x0,%al
c0009b52:	00 00                	add    %al,(%eax)
c0009b54:	54                   	push   %esp
c0009b55:	0b 00                	or     (%eax),%eax
c0009b57:	00 d2                	add    %dl,%dl
c0009b59:	a3 ff ff 45 00       	mov    %eax,0x45ffff
c0009b5e:	00 00                	add    %al,(%eax)
c0009b60:	00 41 0e             	add    %al,0xe(%ecx)
c0009b63:	08 85 02 42 0d 05    	or     %al,0x50d4202(%ebp)
c0009b69:	02 41 c5             	add    -0x3b(%ecx),%al
c0009b6c:	0c 04                	or     $0x4,%al
c0009b6e:	04 00                	add    $0x0,%al
c0009b70:	1c 00                	sbb    $0x0,%al
c0009b72:	00 00                	add    %al,(%eax)
c0009b74:	74 0b                	je     c0009b81 <KERNEL_END_TEXT+0xb81>
c0009b76:	00 00                	add    %al,(%eax)
c0009b78:	f7 a3 ff ff 20 00    	mull   0x20ffff(%ebx)
c0009b7e:	00 00                	add    %al,(%eax)
c0009b80:	00 41 0e             	add    %al,0xe(%ecx)
c0009b83:	08 85 02 42 0d 05    	or     %al,0x50d4202(%ebp)
c0009b89:	5c                   	pop    %esp
c0009b8a:	c5 0c 04             	lds    (%esp,%eax,1),%ecx
c0009b8d:	04 00                	add    $0x0,%al
c0009b8f:	00 24 00             	add    %ah,(%eax,%eax,1)
c0009b92:	00 00                	add    %al,(%eax)
c0009b94:	94                   	xchg   %eax,%esp
c0009b95:	0b 00                	or     (%eax),%eax
c0009b97:	00 f7                	add    %dh,%bh
c0009b99:	a3 ff ff 23 01       	mov    %eax,0x123ffff
c0009b9e:	00 00                	add    %al,(%eax)
c0009ba0:	00 41 0e             	add    %al,0xe(%ecx)
c0009ba3:	08 85 02 42 0d 05    	or     %al,0x50d4202(%ebp)
c0009ba9:	44                   	inc    %esp
c0009baa:	83 03 03             	addl   $0x3,(%ebx)
c0009bad:	1a 01                	sbb    (%ecx),%al
c0009baf:	c3                   	ret    
c0009bb0:	41                   	inc    %ecx
c0009bb1:	c5 0c 04             	lds    (%esp,%eax,1),%ecx
c0009bb4:	04 00                	add    $0x0,%al
c0009bb6:	00 00                	add    %al,(%eax)
c0009bb8:	24 00                	and    $0x0,%al
c0009bba:	00 00                	add    %al,(%eax)
c0009bbc:	bc 0b 00 00 f2       	mov    $0xf200000b,%esp
c0009bc1:	a4                   	movsb  %ds:(%esi),%es:(%edi)
c0009bc2:	ff                   	(bad)  
c0009bc3:	ff 16                	call   *(%esi)
c0009bc5:	01 00                	add    %eax,(%eax)
c0009bc7:	00 00                	add    %al,(%eax)
c0009bc9:	41                   	inc    %ecx
c0009bca:	0e                   	push   %cs
c0009bcb:	08 85 02 42 0d 05    	or     %al,0x50d4202(%ebp)
c0009bd1:	44                   	inc    %esp
c0009bd2:	83 03 03             	addl   $0x3,(%ebx)
c0009bd5:	0d 01 c3 41 c5       	or     $0xc541c301,%eax
c0009bda:	0c 04                	or     $0x4,%al
c0009bdc:	04 00                	add    $0x0,%al
c0009bde:	00 00                	add    %al,(%eax)
c0009be0:	1c 00                	sbb    $0x0,%al
c0009be2:	00 00                	add    %al,(%eax)
c0009be4:	e4 0b                	in     $0xb,%al
c0009be6:	00 00                	add    %al,(%eax)
c0009be8:	e0 a5                	loopne c0009b8f <KERNEL_END_TEXT+0xb8f>
c0009bea:	ff                   	(bad)  
c0009beb:	ff ad 05 00 00 00    	ljmp   *0x5(%ebp)
c0009bf1:	41                   	inc    %ecx
c0009bf2:	0e                   	push   %cs
c0009bf3:	08 85 02 42 0d 05    	or     %al,0x50d4202(%ebp)
c0009bf9:	03 a9 05 c5 0c 04    	add    0x40cc505(%ecx),%ebp
c0009bff:	04 1c                	add    $0x1c,%al
c0009c01:	00 00                	add    %al,(%eax)
c0009c03:	00 04 0c             	add    %al,(%esp,%ecx,1)
c0009c06:	00 00                	add    %al,(%eax)
c0009c08:	6d                   	insl   (%dx),%es:(%edi)
c0009c09:	ab                   	stos   %eax,%es:(%edi)
c0009c0a:	ff                   	(bad)  
c0009c0b:	ff                   	(bad)  
c0009c0c:	fa                   	cli    
c0009c0d:	04 00                	add    $0x0,%al
c0009c0f:	00 00                	add    %al,(%eax)
c0009c11:	41                   	inc    %ecx
c0009c12:	0e                   	push   %cs
c0009c13:	08 85 02 42 0d 05    	or     %al,0x50d4202(%ebp)
c0009c19:	03 f6                	add    %esi,%esi
c0009c1b:	04 c5                	add    $0xc5,%al
c0009c1d:	0c 04                	or     $0x4,%al
c0009c1f:	04 1c                	add    $0x1c,%al
c0009c21:	00 00                	add    %al,(%eax)
c0009c23:	00 24 0c             	add    %ah,(%esp,%ecx,1)
c0009c26:	00 00                	add    %al,(%eax)
c0009c28:	47                   	inc    %edi
c0009c29:	b0 ff                	mov    $0xff,%al
c0009c2b:	ff 1f                	lcall  *(%edi)
c0009c2d:	00 00                	add    %al,(%eax)
c0009c2f:	00 00                	add    %al,(%eax)
c0009c31:	41                   	inc    %ecx
c0009c32:	0e                   	push   %cs
c0009c33:	08 85 02 42 0d 05    	or     %al,0x50d4202(%ebp)
c0009c39:	5b                   	pop    %ebx
c0009c3a:	c5 0c 04             	lds    (%esp,%eax,1),%ecx
c0009c3d:	04 00                	add    $0x0,%al
c0009c3f:	00 1c 00             	add    %bl,(%eax,%eax,1)
c0009c42:	00 00                	add    %al,(%eax)
c0009c44:	44                   	inc    %esp
c0009c45:	0c 00                	or     $0x0,%al
c0009c47:	00 46 b0             	add    %al,-0x50(%esi)
c0009c4a:	ff                   	(bad)  
c0009c4b:	ff 4d 00             	decl   0x0(%ebp)
c0009c4e:	00 00                	add    %al,(%eax)
c0009c50:	00 41 0e             	add    %al,0xe(%ecx)
c0009c53:	08 85 02 42 0d 05    	or     %al,0x50d4202(%ebp)
c0009c59:	02 49 c5             	add    -0x3b(%ecx),%cl
c0009c5c:	0c 04                	or     $0x4,%al
c0009c5e:	04 00                	add    $0x0,%al
c0009c60:	18 00                	sbb    %al,(%eax)
c0009c62:	00 00                	add    %al,(%eax)
c0009c64:	64                   	fs
c0009c65:	0c 00                	or     $0x0,%al
c0009c67:	00 73 b0             	add    %dh,-0x50(%ebx)
c0009c6a:	ff                   	(bad)  
c0009c6b:	ff 07                	incl   (%edi)
c0009c6d:	00 00                	add    %al,(%eax)
c0009c6f:	00 00                	add    %al,(%eax)
c0009c71:	41                   	inc    %ecx
c0009c72:	0e                   	push   %cs
c0009c73:	08 85 02 42 0d 05    	or     %al,0x50d4202(%ebp)
c0009c79:	00 00                	add    %al,(%eax)
c0009c7b:	00 1c 00             	add    %bl,(%eax,%eax,1)
c0009c7e:	00 00                	add    %al,(%eax)
c0009c80:	80 0c 00 00          	orb    $0x0,(%eax,%eax,1)
c0009c84:	5e                   	pop    %esi
c0009c85:	b0 ff                	mov    $0xff,%al
c0009c87:	ff 0f                	decl   (%edi)
c0009c89:	00 00                	add    %al,(%eax)
c0009c8b:	00 00                	add    %al,(%eax)
c0009c8d:	41                   	inc    %ecx
c0009c8e:	0e                   	push   %cs
c0009c8f:	08 85 02 42 0d 05    	or     %al,0x50d4202(%ebp)
c0009c95:	4b                   	dec    %ebx
c0009c96:	c5 0c 04             	lds    (%esp,%eax,1),%ecx
c0009c99:	04 00                	add    $0x0,%al
c0009c9b:	00 1c 00             	add    %bl,(%eax,%eax,1)
c0009c9e:	00 00                	add    %al,(%eax)
c0009ca0:	a0 0c 00 00 4d       	mov    0x4d00000c,%al
c0009ca5:	b0 ff                	mov    $0xff,%al
c0009ca7:	ff 0f                	decl   (%edi)
c0009ca9:	00 00                	add    %al,(%eax)
c0009cab:	00 00                	add    %al,(%eax)
c0009cad:	41                   	inc    %ecx
c0009cae:	0e                   	push   %cs
c0009caf:	08 85 02 42 0d 05    	or     %al,0x50d4202(%ebp)
c0009cb5:	4b                   	dec    %ebx
c0009cb6:	c5 0c 04             	lds    (%esp,%eax,1),%ecx
c0009cb9:	04 00                	add    $0x0,%al
c0009cbb:	00 1c 00             	add    %bl,(%eax,%eax,1)
c0009cbe:	00 00                	add    %al,(%eax)
c0009cc0:	c0 0c 00 00          	rorb   $0x0,(%eax,%eax,1)
c0009cc4:	3c b0                	cmp    $0xb0,%al
c0009cc6:	ff                   	(bad)  
c0009cc7:	ff 61 00             	jmp    *0x0(%ecx)
c0009cca:	00 00                	add    %al,(%eax)
c0009ccc:	00 41 0e             	add    %al,0xe(%ecx)
c0009ccf:	08 85 02 42 0d 05    	or     %al,0x50d4202(%ebp)
c0009cd5:	02 5d c5             	add    -0x3b(%ebp),%bl
c0009cd8:	0c 04                	or     $0x4,%al
c0009cda:	04 00                	add    $0x0,%al
c0009cdc:	1c 00                	sbb    $0x0,%al
c0009cde:	00 00                	add    %al,(%eax)
c0009ce0:	e0 0c                	loopne c0009cee <KERNEL_END_TEXT+0xcee>
c0009ce2:	00 00                	add    %al,(%eax)
c0009ce4:	7d b0                	jge    c0009c96 <KERNEL_END_TEXT+0xc96>
c0009ce6:	ff                   	(bad)  
c0009ce7:	ff 4b 01             	decl   0x1(%ebx)
c0009cea:	00 00                	add    %al,(%eax)
c0009cec:	00 41 0e             	add    %al,0xe(%ecx)
c0009cef:	08 85 02 42 0d 05    	or     %al,0x50d4202(%ebp)
c0009cf5:	03 47 01             	add    0x1(%edi),%eax
c0009cf8:	c5 0c 04             	lds    (%esp,%eax,1),%ecx
c0009cfb:	04 24                	add    $0x24,%al
c0009cfd:	00 00                	add    %al,(%eax)
c0009cff:	00 00                	add    %al,(%eax)
c0009d01:	0d 00 00 a8 b1       	or     $0xb1a80000,%eax
c0009d06:	ff                   	(bad)  
c0009d07:	ff 19                	lcall  *(%ecx)
c0009d09:	00 00                	add    %al,(%eax)
c0009d0b:	00 00                	add    %al,(%eax)
c0009d0d:	41                   	inc    %ecx
c0009d0e:	0e                   	push   %cs
c0009d0f:	08 85 02 42 0d 05    	or     %al,0x50d4202(%ebp)
c0009d15:	42                   	inc    %edx
c0009d16:	87 03                	xchg   %eax,(%ebx)
c0009d18:	86 04 51             	xchg   %al,(%ecx,%edx,2)
c0009d1b:	c6 41 c7 41          	movb   $0x41,-0x39(%ecx)
c0009d1f:	c5 0c 04             	lds    (%esp,%eax,1),%ecx
c0009d22:	04 00                	add    $0x0,%al
c0009d24:	1c 00                	sbb    $0x0,%al
c0009d26:	00 00                	add    %al,(%eax)
c0009d28:	28 0d 00 00 99 b1    	sub    %cl,0xb1990000
c0009d2e:	ff                   	(bad)  
c0009d2f:	ff 53 00             	call   *0x0(%ebx)
c0009d32:	00 00                	add    %al,(%eax)
c0009d34:	00 41 0e             	add    %al,0xe(%ecx)
c0009d37:	08 85 02 42 0d 05    	or     %al,0x50d4202(%ebp)
c0009d3d:	02 4f c5             	add    -0x3b(%edi),%cl
c0009d40:	0c 04                	or     $0x4,%al
c0009d42:	04 00                	add    $0x0,%al
c0009d44:	1c 00                	sbb    $0x0,%al
c0009d46:	00 00                	add    %al,(%eax)
c0009d48:	48                   	dec    %eax
c0009d49:	0d 00 00 cc b1       	or     $0xb1cc0000,%eax
c0009d4e:	ff                   	(bad)  
c0009d4f:	ff 0b                	decl   (%ebx)
c0009d51:	00 00                	add    %al,(%eax)
c0009d53:	00 00                	add    %al,(%eax)
c0009d55:	41                   	inc    %ecx
c0009d56:	0e                   	push   %cs
c0009d57:	08 85 02 42 0d 05    	or     %al,0x50d4202(%ebp)
c0009d5d:	47                   	inc    %edi
c0009d5e:	c5 0c 04             	lds    (%esp,%eax,1),%ecx
c0009d61:	04 00                	add    $0x0,%al
c0009d63:	00 1c 00             	add    %bl,(%eax,%eax,1)
c0009d66:	00 00                	add    %al,(%eax)
c0009d68:	68 0d 00 00 b7       	push   $0xb700000d
c0009d6d:	b1 ff                	mov    $0xff,%cl
c0009d6f:	ff 22                	jmp    *(%edx)
c0009d71:	00 00                	add    %al,(%eax)
c0009d73:	00 00                	add    %al,(%eax)
c0009d75:	41                   	inc    %ecx
c0009d76:	0e                   	push   %cs
c0009d77:	08 85 02 42 0d 05    	or     %al,0x50d4202(%ebp)
c0009d7d:	5e                   	pop    %esi
c0009d7e:	c5 0c 04             	lds    (%esp,%eax,1),%ecx
c0009d81:	04 00                	add    $0x0,%al
c0009d83:	00 1c 00             	add    %bl,(%eax,%eax,1)
c0009d86:	00 00                	add    %al,(%eax)
c0009d88:	88 0d 00 00 b9 b1    	mov    %cl,0xb1b90000
c0009d8e:	ff                   	(bad)  
c0009d8f:	ff a6 00 00 00 00    	jmp    *0x0(%esi)
c0009d95:	41                   	inc    %ecx
c0009d96:	0e                   	push   %cs
c0009d97:	08 85 02 42 0d 05    	or     %al,0x50d4202(%ebp)
c0009d9d:	02 a2 c5 0c 04 04    	add    0x4040cc5(%edx),%ah
c0009da3:	00 1c 00             	add    %bl,(%eax,%eax,1)
c0009da6:	00 00                	add    %al,(%eax)
c0009da8:	a8 0d                	test   $0xd,%al
c0009daa:	00 00                	add    %al,(%eax)
c0009dac:	3f                   	aas    
c0009dad:	b2 ff                	mov    $0xff,%dl
c0009daf:	ff                   	(bad)  
c0009db0:	3d 00 00 00 00       	cmp    $0x0,%eax
c0009db5:	41                   	inc    %ecx
c0009db6:	0e                   	push   %cs
c0009db7:	08 85 02 42 0d 05    	or     %al,0x50d4202(%ebp)
c0009dbd:	79 c5                	jns    c0009d84 <KERNEL_END_TEXT+0xd84>
c0009dbf:	0c 04                	or     $0x4,%al
c0009dc1:	04 00                	add    $0x0,%al
c0009dc3:	00 18                	add    %bl,(%eax)
c0009dc5:	00 00                	add    %al,(%eax)
c0009dc7:	00 c8                	add    %cl,%al
c0009dc9:	0d 00 00 5c b2       	or     $0xb25c0000,%eax
c0009dce:	ff                   	(bad)  
c0009dcf:	ff 2d 00 00 00 00    	ljmp   *0x0
c0009dd5:	41                   	inc    %ecx
c0009dd6:	0e                   	push   %cs
c0009dd7:	08 85 02 42 0d 05    	or     %al,0x50d4202(%ebp)
c0009ddd:	00 00                	add    %al,(%eax)
c0009ddf:	00 18                	add    %bl,(%eax)
c0009de1:	00 00                	add    %al,(%eax)
c0009de3:	00 e4                	add    %ah,%ah
c0009de5:	0d 00 00 6d b2       	or     $0xb26d0000,%eax
c0009dea:	ff                   	(bad)  
c0009deb:	ff 2d 00 00 00 00    	ljmp   *0x0
c0009df1:	41                   	inc    %ecx
c0009df2:	0e                   	push   %cs
c0009df3:	08 85 02 42 0d 05    	or     %al,0x50d4202(%ebp)
c0009df9:	00 00                	add    %al,(%eax)
c0009dfb:	00 1c 00             	add    %bl,(%eax,%eax,1)
c0009dfe:	00 00                	add    %al,(%eax)
c0009e00:	00 0e                	add    %cl,(%esi)
c0009e02:	00 00                	add    %al,(%eax)
c0009e04:	7e b2                	jle    c0009db8 <KERNEL_END_TEXT+0xdb8>
c0009e06:	ff                   	(bad)  
c0009e07:	ff 8e 00 00 00 00    	decl   0x0(%esi)
c0009e0d:	41                   	inc    %ecx
c0009e0e:	0e                   	push   %cs
c0009e0f:	08 85 02 42 0d 05    	or     %al,0x50d4202(%ebp)
c0009e15:	02 8a c5 0c 04 04    	add    0x4040cc5(%edx),%cl
c0009e1b:	00 1c 00             	add    %bl,(%eax,%eax,1)
c0009e1e:	00 00                	add    %al,(%eax)
c0009e20:	20 0e                	and    %cl,(%esi)
c0009e22:	00 00                	add    %al,(%eax)
c0009e24:	ec                   	in     (%dx),%al
c0009e25:	b2 ff                	mov    $0xff,%dl
c0009e27:	ff 0a                	decl   (%edx)
c0009e29:	02 00                	add    (%eax),%al
c0009e2b:	00 00                	add    %al,(%eax)
c0009e2d:	41                   	inc    %ecx
c0009e2e:	0e                   	push   %cs
c0009e2f:	08 85 02 42 0d 05    	or     %al,0x50d4202(%ebp)
c0009e35:	03 06                	add    (%esi),%eax
c0009e37:	02 c5                	add    %ch,%al
c0009e39:	0c 04                	or     $0x4,%al
c0009e3b:	04 1c                	add    $0x1c,%al
c0009e3d:	00 00                	add    %al,(%eax)
c0009e3f:	00 40 0e             	add    %al,0xe(%eax)
c0009e42:	00 00                	add    %al,(%eax)
c0009e44:	d6                   	(bad)  
c0009e45:	b4 ff                	mov    $0xff,%ah
c0009e47:	ff 73 00             	pushl  0x0(%ebx)
c0009e4a:	00 00                	add    %al,(%eax)
c0009e4c:	00 41 0e             	add    %al,0xe(%ecx)
c0009e4f:	08 85 02 42 0d 05    	or     %al,0x50d4202(%ebp)
c0009e55:	02 6f c5             	add    -0x3b(%edi),%ch
c0009e58:	0c 04                	or     $0x4,%al
c0009e5a:	04 00                	add    $0x0,%al
c0009e5c:	1c 00                	sbb    $0x0,%al
c0009e5e:	00 00                	add    %al,(%eax)
c0009e60:	60                   	pusha  
c0009e61:	0e                   	push   %cs
c0009e62:	00 00                	add    %al,(%eax)
c0009e64:	29 b5 ff ff e4 01    	sub    %esi,0x1e4ffff(%ebp)
c0009e6a:	00 00                	add    %al,(%eax)
c0009e6c:	00 41 0e             	add    %al,0xe(%ecx)
c0009e6f:	08 85 02 42 0d 05    	or     %al,0x50d4202(%ebp)
c0009e75:	03 e0                	add    %eax,%esp
c0009e77:	01 c5                	add    %eax,%ebp
c0009e79:	0c 04                	or     $0x4,%al
c0009e7b:	04 18                	add    $0x18,%al
c0009e7d:	00 00                	add    %al,(%eax)
c0009e7f:	00 80 0e 00 00 ed    	add    %al,-0x12fffff2(%eax)
c0009e85:	b6 ff                	mov    $0xff,%dh
c0009e87:	ff 2d 00 00 00 00    	ljmp   *0x0
c0009e8d:	41                   	inc    %ecx
c0009e8e:	0e                   	push   %cs
c0009e8f:	08 85 02 42 0d 05    	or     %al,0x50d4202(%ebp)
c0009e95:	00 00                	add    %al,(%eax)
c0009e97:	00 18                	add    %bl,(%eax)
c0009e99:	00 00                	add    %al,(%eax)
c0009e9b:	00 9c 0e 00 00 fe b6 	add    %bl,-0x49020000(%esi,%ecx,1)
c0009ea2:	ff                   	(bad)  
c0009ea3:	ff 2d 00 00 00 00    	ljmp   *0x0
c0009ea9:	41                   	inc    %ecx
c0009eaa:	0e                   	push   %cs
c0009eab:	08 85 02 42 0d 05    	or     %al,0x50d4202(%ebp)
c0009eb1:	00 00                	add    %al,(%eax)
c0009eb3:	00 1c 00             	add    %bl,(%eax,%eax,1)
c0009eb6:	00 00                	add    %al,(%eax)
c0009eb8:	b8 0e 00 00 0f       	mov    $0xf00000e,%eax
c0009ebd:	b7 ff                	mov    $0xff,%bh
c0009ebf:	ff 1e                	lcall  *(%esi)
c0009ec1:	00 00                	add    %al,(%eax)
c0009ec3:	00 00                	add    %al,(%eax)
c0009ec5:	41                   	inc    %ecx
c0009ec6:	0e                   	push   %cs
c0009ec7:	08 85 02 42 0d 05    	or     %al,0x50d4202(%ebp)
c0009ecd:	5a                   	pop    %edx
c0009ece:	c5 0c 04             	lds    (%esp,%eax,1),%ecx
c0009ed1:	04 00                	add    $0x0,%al
c0009ed3:	00 1c 00             	add    %bl,(%eax,%eax,1)
c0009ed6:	00 00                	add    %al,(%eax)
c0009ed8:	d8 0e                	fmuls  (%esi)
c0009eda:	00 00                	add    %al,(%eax)
c0009edc:	0d b7 ff ff 66       	or     $0x66ffffb7,%eax
c0009ee1:	01 00                	add    %eax,(%eax)
c0009ee3:	00 00                	add    %al,(%eax)
c0009ee5:	41                   	inc    %ecx
c0009ee6:	0e                   	push   %cs
c0009ee7:	08 85 02 42 0d 05    	or     %al,0x50d4202(%ebp)
c0009eed:	03 62 01             	add    0x1(%edx),%esp
c0009ef0:	c5 0c 04             	lds    (%esp,%eax,1),%ecx
c0009ef3:	04 1c                	add    $0x1c,%al
c0009ef5:	00 00                	add    %al,(%eax)
c0009ef7:	00 f8                	add    %bh,%al
c0009ef9:	0e                   	push   %cs
c0009efa:	00 00                	add    %al,(%eax)
c0009efc:	53                   	push   %ebx
c0009efd:	b8 ff ff 4e 00       	mov    $0x4effff,%eax
c0009f02:	00 00                	add    %al,(%eax)
c0009f04:	00 41 0e             	add    %al,0xe(%ecx)
c0009f07:	08 85 02 42 0d 05    	or     %al,0x50d4202(%ebp)
c0009f0d:	02 4a c5             	add    -0x3b(%edx),%cl
c0009f10:	0c 04                	or     $0x4,%al
c0009f12:	04 00                	add    $0x0,%al
c0009f14:	1c 00                	sbb    $0x0,%al
c0009f16:	00 00                	add    %al,(%eax)
c0009f18:	18 0f                	sbb    %cl,(%edi)
c0009f1a:	00 00                	add    %al,(%eax)
c0009f1c:	81 b8 ff ff 14 01 00 	cmpl   $0x41000000,0x114ffff(%eax)
c0009f23:	00 00 41 
c0009f26:	0e                   	push   %cs
c0009f27:	08 85 02 42 0d 05    	or     %al,0x50d4202(%ebp)
c0009f2d:	03 10                	add    (%eax),%edx
c0009f2f:	01 c5                	add    %eax,%ebp
c0009f31:	0c 04                	or     $0x4,%al
c0009f33:	04 1c                	add    $0x1c,%al
c0009f35:	00 00                	add    %al,(%eax)
c0009f37:	00 38                	add    %bh,(%eax)
c0009f39:	0f 00 00             	sldt   (%eax)
c0009f3c:	75 b9                	jne    c0009ef7 <KERNEL_END_TEXT+0xef7>
c0009f3e:	ff                   	(bad)  
c0009f3f:	ff 1d 00 00 00 00    	lcall  *0x0
c0009f45:	41                   	inc    %ecx
c0009f46:	0e                   	push   %cs
c0009f47:	08 85 02 42 0d 05    	or     %al,0x50d4202(%ebp)
c0009f4d:	59                   	pop    %ecx
c0009f4e:	c5 0c 04             	lds    (%esp,%eax,1),%ecx
c0009f51:	04 00                	add    $0x0,%al
c0009f53:	00 1c 00             	add    %bl,(%eax,%eax,1)
c0009f56:	00 00                	add    %al,(%eax)
c0009f58:	58                   	pop    %eax
c0009f59:	0f 00 00             	sldt   (%eax)
c0009f5c:	72 b9                	jb     c0009f17 <KERNEL_END_TEXT+0xf17>
c0009f5e:	ff                   	(bad)  
c0009f5f:	ff 1e                	lcall  *(%esi)
c0009f61:	00 00                	add    %al,(%eax)
c0009f63:	00 00                	add    %al,(%eax)
c0009f65:	41                   	inc    %ecx
c0009f66:	0e                   	push   %cs
c0009f67:	08 85 02 42 0d 05    	or     %al,0x50d4202(%ebp)
c0009f6d:	5a                   	pop    %edx
c0009f6e:	c5 0c 04             	lds    (%esp,%eax,1),%ecx
c0009f71:	04 00                	add    $0x0,%al
c0009f73:	00 1c 00             	add    %bl,(%eax,%eax,1)
c0009f76:	00 00                	add    %al,(%eax)
c0009f78:	78 0f                	js     c0009f89 <KERNEL_END_TEXT+0xf89>
c0009f7a:	00 00                	add    %al,(%eax)
c0009f7c:	70 b9                	jo     c0009f37 <KERNEL_END_TEXT+0xf37>
c0009f7e:	ff                   	(bad)  
c0009f7f:	ff 31                	pushl  (%ecx)
c0009f81:	00 00                	add    %al,(%eax)
c0009f83:	00 00                	add    %al,(%eax)
c0009f85:	41                   	inc    %ecx
c0009f86:	0e                   	push   %cs
c0009f87:	08 85 02 42 0d 05    	or     %al,0x50d4202(%ebp)
c0009f8d:	6d                   	insl   (%dx),%es:(%edi)
c0009f8e:	c5 0c 04             	lds    (%esp,%eax,1),%ecx
c0009f91:	04 00                	add    $0x0,%al
c0009f93:	00 1c 00             	add    %bl,(%eax,%eax,1)
c0009f96:	00 00                	add    %al,(%eax)
c0009f98:	98                   	cwtl   
c0009f99:	0f 00 00             	sldt   (%eax)
c0009f9c:	81 b9 ff ff 80 00 00 	cmpl   $0x41000000,0x80ffff(%ecx)
c0009fa3:	00 00 41 
c0009fa6:	0e                   	push   %cs
c0009fa7:	08 85 02 42 0d 05    	or     %al,0x50d4202(%ebp)
c0009fad:	02 7c c5 0c          	add    0xc(%ebp,%eax,8),%bh
c0009fb1:	04 04                	add    $0x4,%al
c0009fb3:	00 1c 00             	add    %bl,(%eax,%eax,1)
c0009fb6:	00 00                	add    %al,(%eax)
c0009fb8:	b8 0f 00 00 e1       	mov    $0xe100000f,%eax
c0009fbd:	b9 ff ff 72 00       	mov    $0x72ffff,%ecx
c0009fc2:	00 00                	add    %al,(%eax)
c0009fc4:	00 41 0e             	add    %al,0xe(%ecx)
c0009fc7:	08 85 02 42 0d 05    	or     %al,0x50d4202(%ebp)
c0009fcd:	02 6e c5             	add    -0x3b(%esi),%ch
c0009fd0:	0c 04                	or     $0x4,%al
c0009fd2:	04 00                	add    $0x0,%al
c0009fd4:	1c 00                	sbb    $0x0,%al
c0009fd6:	00 00                	add    %al,(%eax)
c0009fd8:	d8 0f                	fmuls  (%edi)
c0009fda:	00 00                	add    %al,(%eax)
c0009fdc:	33 ba ff ff 54 03    	xor    0x354ffff(%edx),%edi
c0009fe2:	00 00                	add    %al,(%eax)
c0009fe4:	00 41 0e             	add    %al,0xe(%ecx)
c0009fe7:	08 85 02 42 0d 05    	or     %al,0x50d4202(%ebp)
c0009fed:	03 50 03             	add    0x3(%eax),%edx
c0009ff0:	c5 0c 04             	lds    (%esp,%eax,1),%ecx
c0009ff3:	04 1c                	add    $0x1c,%al
c0009ff5:	00 00                	add    %al,(%eax)
c0009ff7:	00 f8                	add    %bh,%al
c0009ff9:	0f 00 00             	sldt   (%eax)
c0009ffc:	67 bd ff ff 95 00    	addr16 mov $0x95ffff,%ebp
c000a002:	00 00                	add    %al,(%eax)
c000a004:	00 41 0e             	add    %al,0xe(%ecx)
c000a007:	08 85 02 42 0d 05    	or     %al,0x50d4202(%ebp)
c000a00d:	02 91 c5 0c 04 04    	add    0x4040cc5(%ecx),%dl
c000a013:	00 1c 00             	add    %bl,(%eax,%eax,1)
c000a016:	00 00                	add    %al,(%eax)
c000a018:	18 10                	sbb    %dl,(%eax)
c000a01a:	00 00                	add    %al,(%eax)
c000a01c:	dc bd ff ff 21 00    	fdivrl 0x21ffff(%ebp)
c000a022:	00 00                	add    %al,(%eax)
c000a024:	00 41 0e             	add    %al,0xe(%ecx)
c000a027:	08 85 02 42 0d 05    	or     %al,0x50d4202(%ebp)
c000a02d:	5d                   	pop    %ebp
c000a02e:	c5 0c 04             	lds    (%esp,%eax,1),%ecx
c000a031:	04 00                	add    $0x0,%al
c000a033:	00 1c 00             	add    %bl,(%eax,%eax,1)
c000a036:	00 00                	add    %al,(%eax)
c000a038:	38 10                	cmp    %dl,(%eax)
c000a03a:	00 00                	add    %al,(%eax)
c000a03c:	dd bd ff ff 1e 00    	fnstsw 0x1effff(%ebp)
c000a042:	00 00                	add    %al,(%eax)
c000a044:	00 41 0e             	add    %al,0xe(%ecx)
c000a047:	08 85 02 42 0d 05    	or     %al,0x50d4202(%ebp)
c000a04d:	5a                   	pop    %edx
c000a04e:	c5 0c 04             	lds    (%esp,%eax,1),%ecx
c000a051:	04 00                	add    $0x0,%al
c000a053:	00 20                	add    %ah,(%eax)
c000a055:	00 00                	add    %al,(%eax)
c000a057:	00 58 10             	add    %bl,0x10(%eax)
c000a05a:	00 00                	add    %al,(%eax)
c000a05c:	db bd ff ff 24 00    	fstpt  0x24ffff(%ebp)
c000a062:	00 00                	add    %al,(%eax)
c000a064:	00 41 0e             	add    %al,0xe(%ecx)
c000a067:	08 85 02 42 0d 05    	or     %al,0x50d4202(%ebp)
c000a06d:	44                   	inc    %esp
c000a06e:	87 03                	xchg   %eax,(%ebx)
c000a070:	5b                   	pop    %ebx
c000a071:	c7 41 c5 0c 04 04 00 	movl   $0x4040c,-0x3b(%ecx)
c000a078:	1c 00                	sbb    $0x0,%al
c000a07a:	00 00                	add    %al,(%eax)
c000a07c:	7c 10                	jl     c000a08e <KERNEL_END_TEXT+0x108e>
c000a07e:	00 00                	add    %al,(%eax)
c000a080:	db bd ff ff 86 00    	fstpt  0x86ffff(%ebp)
c000a086:	00 00                	add    %al,(%eax)
c000a088:	00 41 0e             	add    %al,0xe(%ecx)
c000a08b:	08 85 02 42 0d 05    	or     %al,0x50d4202(%ebp)
c000a091:	02 82 c5 0c 04 04    	add    0x4040cc5(%edx),%al
c000a097:	00 1c 00             	add    %bl,(%eax,%eax,1)
c000a09a:	00 00                	add    %al,(%eax)
c000a09c:	9c                   	pushf  
c000a09d:	10 00                	adc    %al,(%eax)
c000a09f:	00 41 be             	add    %al,-0x42(%ecx)
c000a0a2:	ff                   	(bad)  
c000a0a3:	ff 18                	lcall  *(%eax)
c000a0a5:	00 00                	add    %al,(%eax)
c000a0a7:	00 00                	add    %al,(%eax)
c000a0a9:	41                   	inc    %ecx
c000a0aa:	0e                   	push   %cs
c000a0ab:	08 85 02 42 0d 05    	or     %al,0x50d4202(%ebp)
c000a0b1:	54                   	push   %esp
c000a0b2:	c5 0c 04             	lds    (%esp,%eax,1),%ecx
c000a0b5:	04 00                	add    $0x0,%al
c000a0b7:	00 1c 00             	add    %bl,(%eax,%eax,1)
c000a0ba:	00 00                	add    %al,(%eax)
c000a0bc:	bc 10 00 00 39       	mov    $0x39000010,%esp
c000a0c1:	be ff ff 85 00       	mov    $0x85ffff,%esi
c000a0c6:	00 00                	add    %al,(%eax)
c000a0c8:	00 41 0e             	add    %al,0xe(%ecx)
c000a0cb:	08 85 02 42 0d 05    	or     %al,0x50d4202(%ebp)
c000a0d1:	02 81 c5 0c 04 04    	add    0x4040cc5(%ecx),%al
c000a0d7:	00 20                	add    %ah,(%eax)
c000a0d9:	00 00                	add    %al,(%eax)
c000a0db:	00 dc                	add    %bl,%ah
c000a0dd:	10 00                	adc    %al,(%eax)
c000a0df:	00 9e be ff ff de    	add    %bl,-0x21000042(%esi)
c000a0e5:	00 00                	add    %al,(%eax)
c000a0e7:	00 00                	add    %al,(%eax)
c000a0e9:	41                   	inc    %ecx
c000a0ea:	0e                   	push   %cs
c000a0eb:	08 85 02 42 0d 05    	or     %al,0x50d4202(%ebp)
c000a0f1:	44                   	inc    %esp
c000a0f2:	83 03 02             	addl   $0x2,(%ebx)
c000a0f5:	d5 c3                	aad    $0xc3
c000a0f7:	41                   	inc    %ecx
c000a0f8:	c5 0c 04             	lds    (%esp,%eax,1),%ecx
c000a0fb:	04 1c                	add    $0x1c,%al
c000a0fd:	00 00                	add    %al,(%eax)
c000a0ff:	00 00                	add    %al,(%eax)
c000a101:	11 00                	adc    %eax,(%eax)
c000a103:	00 58 bf             	add    %bl,-0x41(%eax)
c000a106:	ff                   	(bad)  
c000a107:	ff 58 00             	lcall  *0x0(%eax)
c000a10a:	00 00                	add    %al,(%eax)
c000a10c:	00 41 0e             	add    %al,0xe(%ecx)
c000a10f:	08 85 02 42 0d 05    	or     %al,0x50d4202(%ebp)
c000a115:	02 54 c5 0c          	add    0xc(%ebp,%eax,8),%dl
c000a119:	04 04                	add    $0x4,%al
c000a11b:	00 24 00             	add    %ah,(%eax,%eax,1)
c000a11e:	00 00                	add    %al,(%eax)
c000a120:	20 11                	and    %dl,(%ecx)
c000a122:	00 00                	add    %al,(%eax)
c000a124:	90                   	nop
c000a125:	bf ff ff a1 01       	mov    $0x1a1ffff,%edi
c000a12a:	00 00                	add    %al,(%eax)
c000a12c:	00 41 0e             	add    %al,0xe(%ecx)
c000a12f:	08 85 02 42 0d 05    	or     %al,0x50d4202(%ebp)
c000a135:	44                   	inc    %esp
c000a136:	83 03 03             	addl   $0x3,(%ebx)
c000a139:	98                   	cwtl   
c000a13a:	01 c3                	add    %eax,%ebx
c000a13c:	41                   	inc    %ecx
c000a13d:	c5 0c 04             	lds    (%esp,%eax,1),%ecx
c000a140:	04 00                	add    $0x0,%al
c000a142:	00 00                	add    %al,(%eax)
c000a144:	1c 00                	sbb    $0x0,%al
c000a146:	00 00                	add    %al,(%eax)
c000a148:	48                   	dec    %eax
c000a149:	11 00                	adc    %eax,(%eax)
c000a14b:	00 09                	add    %cl,(%ecx)
c000a14d:	c1 ff ff             	sar    $0xff,%edi
c000a150:	17                   	pop    %ss
c000a151:	00 00                	add    %al,(%eax)
c000a153:	00 00                	add    %al,(%eax)
c000a155:	41                   	inc    %ecx
c000a156:	0e                   	push   %cs
c000a157:	08 85 02 42 0d 05    	or     %al,0x50d4202(%ebp)
c000a15d:	53                   	push   %ebx
c000a15e:	c5 0c 04             	lds    (%esp,%eax,1),%ecx
c000a161:	04 00                	add    $0x0,%al
c000a163:	00 1c 00             	add    %bl,(%eax,%eax,1)
c000a166:	00 00                	add    %al,(%eax)
c000a168:	68 11 00 00 00       	push   $0x11
c000a16d:	c1 ff ff             	sar    $0xff,%edi
c000a170:	1d 00 00 00 00       	sbb    $0x0,%eax
c000a175:	41                   	inc    %ecx
c000a176:	0e                   	push   %cs
c000a177:	08 85 02 42 0d 05    	or     %al,0x50d4202(%ebp)
c000a17d:	59                   	pop    %ecx
c000a17e:	c5 0c 04             	lds    (%esp,%eax,1),%ecx
c000a181:	04 00                	add    $0x0,%al
c000a183:	00 1c 00             	add    %bl,(%eax,%eax,1)
c000a186:	00 00                	add    %al,(%eax)
c000a188:	88 11                	mov    %dl,(%ecx)
c000a18a:	00 00                	add    %al,(%eax)
c000a18c:	fd                   	std    
c000a18d:	c0 ff ff             	sar    $0xff,%bh
c000a190:	8d 02                	lea    (%edx),%eax
c000a192:	00 00                	add    %al,(%eax)
c000a194:	00 41 0e             	add    %al,0xe(%ecx)
c000a197:	08 85 02 42 0d 05    	or     %al,0x50d4202(%ebp)
c000a19d:	03 89 02 c5 0c 04    	add    0x40cc502(%ecx),%ecx
c000a1a3:	04 1c                	add    $0x1c,%al
c000a1a5:	00 00                	add    %al,(%eax)
c000a1a7:	00 a8 11 00 00 6a    	add    %ch,0x6a000011(%eax)
c000a1ad:	c3                   	ret    
c000a1ae:	ff                   	(bad)  
c000a1af:	ff 2b                	ljmp   *(%ebx)
c000a1b1:	00 00                	add    %al,(%eax)
c000a1b3:	00 00                	add    %al,(%eax)
c000a1b5:	41                   	inc    %ecx
c000a1b6:	0e                   	push   %cs
c000a1b7:	08 85 02 42 0d 05    	or     %al,0x50d4202(%ebp)
c000a1bd:	67 c5 0c             	lds    (%si),%ecx
c000a1c0:	04 04                	add    $0x4,%al
c000a1c2:	00 00                	add    %al,(%eax)
c000a1c4:	1c 00                	sbb    $0x0,%al
c000a1c6:	00 00                	add    %al,(%eax)
c000a1c8:	c8 11 00 00          	enter  $0x11,$0x0
c000a1cc:	75 c3                	jne    c000a191 <KERNEL_END_TEXT+0x1191>
c000a1ce:	ff                   	(bad)  
c000a1cf:	ff 35 00 00 00 00    	pushl  0x0
c000a1d5:	41                   	inc    %ecx
c000a1d6:	0e                   	push   %cs
c000a1d7:	08 85 02 42 0d 05    	or     %al,0x50d4202(%ebp)
c000a1dd:	71 c5                	jno    c000a1a4 <KERNEL_END_TEXT+0x11a4>
c000a1df:	0c 04                	or     $0x4,%al
c000a1e1:	04 00                	add    $0x0,%al
c000a1e3:	00 1c 00             	add    %bl,(%eax,%eax,1)
c000a1e6:	00 00                	add    %al,(%eax)
c000a1e8:	e8 11 00 00 8a       	call   4a00a1fe <PHYSICAL_KERNEL_START+0x49f0a1fe>
c000a1ed:	c3                   	ret    
c000a1ee:	ff                   	(bad)  
c000a1ef:	ff 42 00             	incl   0x0(%edx)
c000a1f2:	00 00                	add    %al,(%eax)
c000a1f4:	00 41 0e             	add    %al,0xe(%ecx)
c000a1f7:	08 85 02 42 0d 05    	or     %al,0x50d4202(%ebp)
c000a1fd:	7e c5                	jle    c000a1c4 <KERNEL_END_TEXT+0x11c4>
c000a1ff:	0c 04                	or     $0x4,%al
c000a201:	04 00                	add    $0x0,%al
c000a203:	00 1c 00             	add    %bl,(%eax,%eax,1)
c000a206:	00 00                	add    %al,(%eax)
c000a208:	08 12                	or     %dl,(%edx)
c000a20a:	00 00                	add    %al,(%eax)
c000a20c:	ac                   	lods   %ds:(%esi),%al
c000a20d:	c3                   	ret    
c000a20e:	ff                   	(bad)  
c000a20f:	ff                   	(bad)  
c000a210:	3f                   	aas    
c000a211:	00 00                	add    %al,(%eax)
c000a213:	00 00                	add    %al,(%eax)
c000a215:	41                   	inc    %ecx
c000a216:	0e                   	push   %cs
c000a217:	08 85 02 42 0d 05    	or     %al,0x50d4202(%ebp)
c000a21d:	7b c5                	jnp    c000a1e4 <KERNEL_END_TEXT+0x11e4>
c000a21f:	0c 04                	or     $0x4,%al
c000a221:	04 00                	add    $0x0,%al
c000a223:	00 1c 00             	add    %bl,(%eax,%eax,1)
c000a226:	00 00                	add    %al,(%eax)
c000a228:	28 12                	sub    %dl,(%edx)
c000a22a:	00 00                	add    %al,(%eax)
c000a22c:	cb                   	lret   
c000a22d:	c3                   	ret    
c000a22e:	ff                   	(bad)  
c000a22f:	ff 36                	pushl  (%esi)
c000a231:	00 00                	add    %al,(%eax)
c000a233:	00 00                	add    %al,(%eax)
c000a235:	41                   	inc    %ecx
c000a236:	0e                   	push   %cs
c000a237:	08 85 02 42 0d 05    	or     %al,0x50d4202(%ebp)
c000a23d:	72 c5                	jb     c000a204 <KERNEL_END_TEXT+0x1204>
c000a23f:	0c 04                	or     $0x4,%al
c000a241:	04 00                	add    $0x0,%al
c000a243:	00 1c 00             	add    %bl,(%eax,%eax,1)
c000a246:	00 00                	add    %al,(%eax)
c000a248:	48                   	dec    %eax
c000a249:	12 00                	adc    (%eax),%al
c000a24b:	00 e1                	add    %ah,%cl
c000a24d:	c3                   	ret    
c000a24e:	ff                   	(bad)  
c000a24f:	ff 65 00             	jmp    *0x0(%ebp)
c000a252:	00 00                	add    %al,(%eax)
c000a254:	00 41 0e             	add    %al,0xe(%ecx)
c000a257:	08 85 02 42 0d 05    	or     %al,0x50d4202(%ebp)
c000a25d:	02 61 c5             	add    -0x3b(%ecx),%ah
c000a260:	0c 04                	or     $0x4,%al
c000a262:	04 00                	add    $0x0,%al
c000a264:	20 00                	and    %al,(%eax)
c000a266:	00 00                	add    %al,(%eax)
c000a268:	68 12 00 00 26       	push   $0x26000012
c000a26d:	c4                   	(bad)  
c000a26e:	ff                   	(bad)  
c000a26f:	ff 5e 00             	lcall  *0x0(%esi)
c000a272:	00 00                	add    %al,(%eax)
c000a274:	00 41 0e             	add    %al,0xe(%ecx)
c000a277:	08 85 02 42 0d 05    	or     %al,0x50d4202(%ebp)
c000a27d:	44                   	inc    %esp
c000a27e:	83 03 02             	addl   $0x2,(%ebx)
c000a281:	55                   	push   %ebp
c000a282:	c3                   	ret    
c000a283:	41                   	inc    %ecx
c000a284:	c5 0c 04             	lds    (%esp,%eax,1),%ecx
c000a287:	04 1c                	add    $0x1c,%al
c000a289:	00 00                	add    %al,(%eax)
c000a28b:	00 8c 12 00 00 60 c4 	add    %cl,-0x3ba00000(%edx,%edx,1)
c000a292:	ff                   	(bad)  
c000a293:	ff a6 03 00 00 00    	jmp    *0x3(%esi)
c000a299:	41                   	inc    %ecx
c000a29a:	0e                   	push   %cs
c000a29b:	08 85 02 42 0d 05    	or     %al,0x50d4202(%ebp)
c000a2a1:	03 a2 03 c5 0c 04    	add    0x40cc503(%edx),%esp
c000a2a7:	04 1c                	add    $0x1c,%al
c000a2a9:	00 00                	add    %al,(%eax)
c000a2ab:	00 ac 12 00 00 e6 c7 	add    %ch,-0x381a0000(%edx,%edx,1)
c000a2b2:	ff                   	(bad)  
c000a2b3:	ff cf                	dec    %edi
c000a2b5:	05 00 00 00 41       	add    $0x41000000,%eax
c000a2ba:	0e                   	push   %cs
c000a2bb:	08 85 02 42 0d 05    	or     %al,0x50d4202(%ebp)
c000a2c1:	03 cb                	add    %ebx,%ecx
c000a2c3:	05 c5 0c 04 04       	add    $0x4040cc5,%eax
c000a2c8:	1c 00                	sbb    $0x0,%al
c000a2ca:	00 00                	add    %al,(%eax)
c000a2cc:	cc                   	int3   
c000a2cd:	12 00                	adc    (%eax),%al
c000a2cf:	00 95 cd ff ff 1d    	add    %dl,0x1dffffcd(%ebp)
c000a2d5:	00 00                	add    %al,(%eax)
c000a2d7:	00 00                	add    %al,(%eax)
c000a2d9:	41                   	inc    %ecx
c000a2da:	0e                   	push   %cs
c000a2db:	08 85 02 42 0d 05    	or     %al,0x50d4202(%ebp)
c000a2e1:	59                   	pop    %ecx
c000a2e2:	c5 0c 04             	lds    (%esp,%eax,1),%ecx
c000a2e5:	04 00                	add    $0x0,%al
c000a2e7:	00 1c 00             	add    %bl,(%eax,%eax,1)
c000a2ea:	00 00                	add    %al,(%eax)
c000a2ec:	ec                   	in     (%dx),%al
c000a2ed:	12 00                	adc    (%eax),%al
c000a2ef:	00 92 cd ff ff 1e    	add    %dl,0x1effffcd(%edx)
c000a2f5:	00 00                	add    %al,(%eax)
c000a2f7:	00 00                	add    %al,(%eax)
c000a2f9:	41                   	inc    %ecx
c000a2fa:	0e                   	push   %cs
c000a2fb:	08 85 02 42 0d 05    	or     %al,0x50d4202(%ebp)
c000a301:	5a                   	pop    %edx
c000a302:	c5 0c 04             	lds    (%esp,%eax,1),%ecx
c000a305:	04 00                	add    $0x0,%al
c000a307:	00 24 00             	add    %ah,(%eax,%eax,1)
c000a30a:	00 00                	add    %al,(%eax)
c000a30c:	0c 13                	or     $0x13,%al
c000a30e:	00 00                	add    %al,(%eax)
c000a310:	90                   	nop
c000a311:	cd ff                	int    $0xff
c000a313:	ff 19                	lcall  *(%ecx)
c000a315:	00 00                	add    %al,(%eax)
c000a317:	00 00                	add    %al,(%eax)
c000a319:	41                   	inc    %ecx
c000a31a:	0e                   	push   %cs
c000a31b:	08 85 02 42 0d 05    	or     %al,0x50d4202(%ebp)
c000a321:	42                   	inc    %edx
c000a322:	87 03                	xchg   %eax,(%ebx)
c000a324:	86 04 51             	xchg   %al,(%ecx,%edx,2)
c000a327:	c6 41 c7 41          	movb   $0x41,-0x39(%ecx)
c000a32b:	c5 0c 04             	lds    (%esp,%eax,1),%ecx
c000a32e:	04 00                	add    $0x0,%al
c000a330:	1c 00                	sbb    $0x0,%al
c000a332:	00 00                	add    %al,(%eax)
c000a334:	34 13                	xor    $0x13,%al
c000a336:	00 00                	add    %al,(%eax)
c000a338:	81 cd ff ff 64 00    	or     $0x64ffff,%ebp
c000a33e:	00 00                	add    %al,(%eax)
c000a340:	00 41 0e             	add    %al,0xe(%ecx)
c000a343:	08 85 02 42 0d 05    	or     %al,0x50d4202(%ebp)
c000a349:	02 60 c5             	add    -0x3b(%eax),%ah
c000a34c:	0c 04                	or     $0x4,%al
c000a34e:	04 00                	add    $0x0,%al
c000a350:	1c 00                	sbb    $0x0,%al
c000a352:	00 00                	add    %al,(%eax)
c000a354:	54                   	push   %esp
c000a355:	13 00                	adc    (%eax),%eax
c000a357:	00 c5                	add    %al,%ch
c000a359:	cd ff                	int    $0xff
c000a35b:	ff 5e 00             	lcall  *0x0(%esi)
c000a35e:	00 00                	add    %al,(%eax)
c000a360:	00 41 0e             	add    %al,0xe(%ecx)
c000a363:	08 85 02 42 0d 05    	or     %al,0x50d4202(%ebp)
c000a369:	02 5a c5             	add    -0x3b(%edx),%bl
c000a36c:	0c 04                	or     $0x4,%al
c000a36e:	04 00                	add    $0x0,%al
c000a370:	1c 00                	sbb    $0x0,%al
c000a372:	00 00                	add    %al,(%eax)
c000a374:	74 13                	je     c000a389 <KERNEL_END_TEXT+0x1389>
c000a376:	00 00                	add    %al,(%eax)
c000a378:	03 ce                	add    %esi,%ecx
c000a37a:	ff                   	(bad)  
c000a37b:	ff 45 00             	incl   0x0(%ebp)
c000a37e:	00 00                	add    %al,(%eax)
c000a380:	00 41 0e             	add    %al,0xe(%ecx)
c000a383:	08 85 02 42 0d 05    	or     %al,0x50d4202(%ebp)
c000a389:	02 41 c5             	add    -0x3b(%ecx),%al
c000a38c:	0c 04                	or     $0x4,%al
c000a38e:	04 00                	add    $0x0,%al
c000a390:	1c 00                	sbb    $0x0,%al
c000a392:	00 00                	add    %al,(%eax)
c000a394:	94                   	xchg   %eax,%esp
c000a395:	13 00                	adc    (%eax),%eax
c000a397:	00 28                	add    %ch,(%eax)
c000a399:	ce                   	into   
c000a39a:	ff                   	(bad)  
c000a39b:	ff 22                	jmp    *(%edx)
c000a39d:	00 00                	add    %al,(%eax)
c000a39f:	00 00                	add    %al,(%eax)
c000a3a1:	41                   	inc    %ecx
c000a3a2:	0e                   	push   %cs
c000a3a3:	08 85 02 42 0d 05    	or     %al,0x50d4202(%ebp)
c000a3a9:	5e                   	pop    %esi
c000a3aa:	c5 0c 04             	lds    (%esp,%eax,1),%ecx
c000a3ad:	04 00                	add    $0x0,%al
c000a3af:	00 20                	add    %ah,(%eax)
c000a3b1:	00 00                	add    %al,(%eax)
c000a3b3:	00 b4 13 00 00 2a ce 	add    %dh,-0x31d60000(%ebx,%edx,1)
c000a3ba:	ff                   	(bad)  
c000a3bb:	ff c5                	inc    %ebp
c000a3bd:	00 00                	add    %al,(%eax)
c000a3bf:	00 00                	add    %al,(%eax)
c000a3c1:	41                   	inc    %ecx
c000a3c2:	0e                   	push   %cs
c000a3c3:	08 85 02 42 0d 05    	or     %al,0x50d4202(%ebp)
c000a3c9:	44                   	inc    %esp
c000a3ca:	83 03 02             	addl   $0x2,(%ebx)
c000a3cd:	bc c3 41 c5 0c       	mov    $0xcc541c3,%esp
c000a3d2:	04 04                	add    $0x4,%al
c000a3d4:	1c 00                	sbb    $0x0,%al
c000a3d6:	00 00                	add    %al,(%eax)
c000a3d8:	d8 13                	fcoms  (%ebx)
c000a3da:	00 00                	add    %al,(%eax)
c000a3dc:	cb                   	lret   
c000a3dd:	ce                   	into   
c000a3de:	ff                   	(bad)  
c000a3df:	ff 36                	pushl  (%esi)
c000a3e1:	00 00                	add    %al,(%eax)
c000a3e3:	00 00                	add    %al,(%eax)
c000a3e5:	41                   	inc    %ecx
c000a3e6:	0e                   	push   %cs
c000a3e7:	08 85 02 42 0d 05    	or     %al,0x50d4202(%ebp)
c000a3ed:	72 c5                	jb     c000a3b4 <KERNEL_END_TEXT+0x13b4>
c000a3ef:	0c 04                	or     $0x4,%al
c000a3f1:	04 00                	add    $0x0,%al
c000a3f3:	00 1c 00             	add    %bl,(%eax,%eax,1)
c000a3f6:	00 00                	add    %al,(%eax)
c000a3f8:	f8                   	clc    
c000a3f9:	13 00                	adc    (%eax),%eax
c000a3fb:	00 e1                	add    %ah,%cl
c000a3fd:	ce                   	into   
c000a3fe:	ff                   	(bad)  
c000a3ff:	ff 9c 00 00 00 00 41 	lcall  *0x41000000(%eax,%eax,1)
c000a406:	0e                   	push   %cs
c000a407:	08 85 02 42 0d 05    	or     %al,0x50d4202(%ebp)
c000a40d:	02 98 c5 0c 04 04    	add    0x4040cc5(%eax),%bl
c000a413:	00 1c 00             	add    %bl,(%eax,%eax,1)
c000a416:	00 00                	add    %al,(%eax)
c000a418:	18 14 00             	sbb    %dl,(%eax,%eax,1)
c000a41b:	00 5d cf             	add    %bl,-0x31(%ebp)
c000a41e:	ff                   	(bad)  
c000a41f:	ff 99 00 00 00 00    	lcall  *0x0(%ecx)
c000a425:	41                   	inc    %ecx
c000a426:	0e                   	push   %cs
c000a427:	08 85 02 42 0d 05    	or     %al,0x50d4202(%ebp)
c000a42d:	02 95 c5 0c 04 04    	add    0x4040cc5(%ebp),%dl
c000a433:	00 28                	add    %ch,(%eax)
c000a435:	00 00                	add    %al,(%eax)
c000a437:	00 38                	add    %bh,(%eax)
c000a439:	14 00                	adc    $0x0,%al
c000a43b:	00 d6                	add    %dl,%dh
c000a43d:	cf                   	iret   
c000a43e:	ff                   	(bad)  
c000a43f:	ff e2                	jmp    *%edx
c000a441:	00 00                	add    %al,(%eax)
c000a443:	00 00                	add    %al,(%eax)
c000a445:	41                   	inc    %ecx
c000a446:	0e                   	push   %cs
c000a447:	08 85 02 42 0d 05    	or     %al,0x50d4202(%ebp)
c000a44d:	43                   	inc    %ebx
c000a44e:	87 03                	xchg   %eax,(%ebx)
c000a450:	86 04 83             	xchg   %al,(%ebx,%eax,4)
c000a453:	05 02 d8 c3 41       	add    $0x41c3d802,%eax
c000a458:	c6 41 c7 41          	movb   $0x41,-0x39(%ecx)
c000a45c:	c5 0c 04             	lds    (%esp,%eax,1),%ecx
c000a45f:	04 1c                	add    $0x1c,%al
c000a461:	00 00                	add    %al,(%eax)
c000a463:	00 64 14 00          	add    %ah,0x0(%esp,%edx,1)
c000a467:	00 8c d0 ff ff 5c 02 	add    %cl,0x25cffff(%eax,%edx,8)
c000a46e:	00 00                	add    %al,(%eax)
c000a470:	00 41 0e             	add    %al,0xe(%ecx)
c000a473:	08 85 02 42 0d 05    	or     %al,0x50d4202(%ebp)
c000a479:	03 58 02             	add    0x2(%eax),%ebx
c000a47c:	c5 0c 04             	lds    (%esp,%eax,1),%ecx
c000a47f:	04 20                	add    $0x20,%al
c000a481:	00 00                	add    %al,(%eax)
c000a483:	00 84 14 00 00 c8 d2 	add    %al,-0x2d380000(%esp,%edx,1)
c000a48a:	ff                   	(bad)  
c000a48b:	ff 51 00             	call   *0x0(%ecx)
c000a48e:	00 00                	add    %al,(%eax)
c000a490:	00 41 0e             	add    %al,0xe(%ecx)
c000a493:	08 85 02 42 0d 05    	or     %al,0x50d4202(%ebp)
c000a499:	44                   	inc    %esp
c000a49a:	83 03 02             	addl   $0x2,(%ebx)
c000a49d:	48                   	dec    %eax
c000a49e:	c3                   	ret    
c000a49f:	41                   	inc    %ecx
c000a4a0:	c5 0c 04             	lds    (%esp,%eax,1),%ecx
c000a4a3:	04 20                	add    $0x20,%al
c000a4a5:	00 00                	add    %al,(%eax)
c000a4a7:	00 a8 14 00 00 f5    	add    %ch,-0xaffffec(%eax)
c000a4ad:	d2 ff                	sar    %cl,%bh
c000a4af:	ff 51 00             	call   *0x0(%ecx)
c000a4b2:	00 00                	add    %al,(%eax)
c000a4b4:	00 41 0e             	add    %al,0xe(%ecx)
c000a4b7:	08 85 02 42 0d 05    	or     %al,0x50d4202(%ebp)
c000a4bd:	44                   	inc    %esp
c000a4be:	83 03 02             	addl   $0x2,(%ebx)
c000a4c1:	48                   	dec    %eax
c000a4c2:	c3                   	ret    
c000a4c3:	41                   	inc    %ecx
c000a4c4:	c5 0c 04             	lds    (%esp,%eax,1),%ecx
c000a4c7:	04 1c                	add    $0x1c,%al
c000a4c9:	00 00                	add    %al,(%eax)
c000a4cb:	00 cc                	add    %cl,%ah
c000a4cd:	14 00                	adc    $0x0,%al
c000a4cf:	00 22                	add    %ah,(%edx)
c000a4d1:	d3 ff                	sar    %cl,%edi
c000a4d3:	ff 23                	jmp    *(%ebx)
c000a4d5:	00 00                	add    %al,(%eax)
c000a4d7:	00 00                	add    %al,(%eax)
c000a4d9:	41                   	inc    %ecx
c000a4da:	0e                   	push   %cs
c000a4db:	08 85 02 42 0d 05    	or     %al,0x50d4202(%ebp)
c000a4e1:	5f                   	pop    %edi
c000a4e2:	c5 0c 04             	lds    (%esp,%eax,1),%ecx
c000a4e5:	04 00                	add    $0x0,%al
c000a4e7:	00 1c 00             	add    %bl,(%eax,%eax,1)
c000a4ea:	00 00                	add    %al,(%eax)
c000a4ec:	ec                   	in     (%dx),%al
c000a4ed:	14 00                	adc    $0x0,%al
c000a4ef:	00 25 d3 ff ff 66    	add    %ah,0x66ffffd3
c000a4f5:	00 00                	add    %al,(%eax)
c000a4f7:	00 00                	add    %al,(%eax)
c000a4f9:	41                   	inc    %ecx
c000a4fa:	0e                   	push   %cs
c000a4fb:	08 85 02 42 0d 05    	or     %al,0x50d4202(%ebp)
c000a501:	02 62 c5             	add    -0x3b(%edx),%ah
c000a504:	0c 04                	or     $0x4,%al
c000a506:	04 00                	add    $0x0,%al
c000a508:	1c 00                	sbb    $0x0,%al
c000a50a:	00 00                	add    %al,(%eax)
c000a50c:	0c 15                	or     $0x15,%al
c000a50e:	00 00                	add    %al,(%eax)
c000a510:	6b d3 ff             	imul   $0xffffffff,%ebx,%edx
c000a513:	ff 14 00             	call   *(%eax,%eax,1)
c000a516:	00 00                	add    %al,(%eax)
c000a518:	00 41 0e             	add    %al,0xe(%ecx)
c000a51b:	08 85 02 42 0d 05    	or     %al,0x50d4202(%ebp)
c000a521:	50                   	push   %eax
c000a522:	c5 0c 04             	lds    (%esp,%eax,1),%ecx
c000a525:	04 00                	add    $0x0,%al
c000a527:	00 20                	add    %ah,(%eax)
c000a529:	00 00                	add    %al,(%eax)
c000a52b:	00 2c 15 00 00 5f d3 	add    %ch,-0x2ca10000(,%edx,1)
c000a532:	ff                   	(bad)  
c000a533:	ff 22                	jmp    *(%edx)
c000a535:	00 00                	add    %al,(%eax)
c000a537:	00 00                	add    %al,(%eax)
c000a539:	41                   	inc    %ecx
c000a53a:	0e                   	push   %cs
c000a53b:	08 85 02 42 0d 05    	or     %al,0x50d4202(%ebp)
c000a541:	44                   	inc    %esp
c000a542:	87 03                	xchg   %eax,(%ebx)
c000a544:	59                   	pop    %ecx
c000a545:	c7 41 c5 0c 04 04 00 	movl   $0x4040c,-0x3b(%ecx)
c000a54c:	18 00                	sbb    %al,(%eax)
c000a54e:	00 00                	add    %al,(%eax)
c000a550:	50                   	push   %eax
c000a551:	15 00 00 5d d3       	adc    $0xd35d0000,%eax
c000a556:	ff                   	(bad)  
c000a557:	ff af 03 00 00 00    	ljmp   *0x3(%edi)
c000a55d:	41                   	inc    %ecx
c000a55e:	0e                   	push   %cs
c000a55f:	08 85 02 42 0d 05    	or     %al,0x50d4202(%ebp)
c000a565:	00 00                	add    %al,(%eax)
	...

Disassembly of section .data:

c000a580 <KERNEL_DATA>:
KERNEL_DATA():
c000a580:	00 e0                	add    %ah,%al
c000a582:	02 c0                	add    %al,%al

c000a584 <mem_temp_lock>:
c000a584:	01 00                	add    %eax,(%eax)
	...

c000a588 <sched_enabled>:
c000a588:	01 00                	add    %eax,(%eax)
	...

c000a58c <pid_lock>:
c000a58c:	01 00                	add    %eax,(%eax)
	...

c000a590 <dmainfo>:
c000a590:	87 00                	xchg   %eax,(%eax)
c000a592:	01 83 02 03 81 04    	add    %eax,0x4810302(%ebx)
c000a598:	05 82 06 07 00       	add    $0x70682,%eax
c000a59d:	00 00                	add    %al,(%eax)
	...

c000a5a0 <regular_keymap>:
c000a5a0:	00 00                	add    %al,(%eax)
c000a5a2:	1b 01                	sbb    (%ecx),%eax
c000a5a4:	31 02                	xor    %eax,(%edx)
c000a5a6:	32 03                	xor    (%ebx),%al
c000a5a8:	33 04 34             	xor    (%esp,%esi,1),%eax
c000a5ab:	05 35 06 36 07       	add    $0x7360635,%eax
c000a5b0:	37                   	aaa    
c000a5b1:	08 38                	or     %bh,(%eax)
c000a5b3:	09 39                	or     %edi,(%ecx)
c000a5b5:	0a 30                	or     (%eax),%dh
c000a5b7:	0b 2d 0c 3d 0d 08    	or     0x80d3d0c,%ebp
c000a5bd:	0e                   	push   %cs
c000a5be:	09 0f                	or     %ecx,(%edi)
c000a5c0:	71 10                	jno    c000a5d2 <regular_keymap+0x32>
c000a5c2:	77 11                	ja     c000a5d5 <regular_keymap+0x35>
c000a5c4:	65 12 72 13          	adc    %gs:0x13(%edx),%dh
c000a5c8:	74 14                	je     c000a5de <regular_keymap+0x3e>
c000a5ca:	79 15                	jns    c000a5e1 <regular_keymap+0x41>
c000a5cc:	75 16                	jne    c000a5e4 <regular_keymap+0x44>
c000a5ce:	69 17 6f 18 70 19    	imul   $0x1970186f,(%edi),%edx
c000a5d4:	5b                   	pop    %ebx
c000a5d5:	1a 5d 1b             	sbb    0x1b(%ebp),%bl
c000a5d8:	0d 00 00 1d 61       	or     $0x611d0000,%eax
c000a5dd:	1e                   	push   %ds
c000a5de:	73 1f                	jae    c000a5ff <regular_keymap+0x5f>
c000a5e0:	64 20 66 21          	and    %ah,%fs:0x21(%esi)
c000a5e4:	67 22 68 23          	and    0x23(%bx,%si),%ch
c000a5e8:	6a 24                	push   $0x24
c000a5ea:	6b 25 6c 26 3b 27 27 	imul   $0x27,0x273b266c,%esp
c000a5f1:	28 60 29             	sub    %ah,0x29(%eax)
c000a5f4:	00 2a                	add    %ch,(%edx)
c000a5f6:	5c                   	pop    %esp
c000a5f7:	2b 7a 2c             	sub    0x2c(%edx),%edi
c000a5fa:	78 2d                	js     c000a629 <regular_keymap+0x89>
c000a5fc:	63 2e                	arpl   %bp,(%esi)
c000a5fe:	76 2f                	jbe    c000a62f <regular_keymap+0x8f>
c000a600:	62 30                	bound  %esi,(%eax)
c000a602:	6e                   	outsb  %ds:(%esi),(%dx)
c000a603:	31 6d 32             	xor    %ebp,0x32(%ebp)
c000a606:	2c 33                	sub    $0x33,%al
c000a608:	2e                   	cs
c000a609:	34 2f                	xor    $0x2f,%al
c000a60b:	35 00 36 2a 37       	xor    $0x372a3600,%eax
c000a610:	00 38                	add    %bh,(%eax)
c000a612:	20 39                	and    %bh,(%ecx)
c000a614:	00 3a                	add    %bh,(%edx)
c000a616:	00 3b                	add    %bh,(%ebx)
c000a618:	00 3c 00             	add    %bh,(%eax,%eax,1)
c000a61b:	3d 00 3e 00 3f       	cmp    $0x3f003e00,%eax
c000a620:	00 40 00             	add    %al,0x0(%eax)
c000a623:	41                   	inc    %ecx
c000a624:	00 42 00             	add    %al,0x0(%edx)
c000a627:	43                   	inc    %ebx
c000a628:	00 44 00 45          	add    %al,0x45(%eax,%eax,1)
c000a62c:	00 46 00             	add    %al,0x0(%esi)
c000a62f:	47                   	inc    %edi
c000a630:	00 48 00             	add    %cl,0x0(%eax)
c000a633:	49                   	dec    %ecx
c000a634:	2d 4a 00 4b 00       	sub    $0x4b004a,%eax
c000a639:	4c                   	dec    %esp
c000a63a:	00 4d 2b             	add    %cl,0x2b(%ebp)
c000a63d:	4e                   	dec    %esi
c000a63e:	00 4f 00             	add    %cl,0x0(%edi)
c000a641:	50                   	push   %eax
c000a642:	00 51 00             	add    %dl,0x0(%ecx)
c000a645:	52                   	push   %edx
c000a646:	00 53 00             	add    %dl,0x0(%ebx)
c000a649:	54                   	push   %esp
c000a64a:	00 55 00             	add    %dl,0x0(%ebp)
c000a64d:	56                   	push   %esi
c000a64e:	00 85 00 86 00 00    	add    %al,0x8600(%ebp)
c000a654:	00 00                	add    %al,(%eax)
c000a656:	00 5b 00             	add    %bl,0x0(%ebx)
c000a659:	5c                   	pop    %esp
c000a65a:	00 5d 00             	add    %bl,0x0(%ebp)
	...

c000a6a0 <with_shift_keymap>:
c000a6a0:	00 00                	add    %al,(%eax)
c000a6a2:	1b 01                	sbb    (%ecx),%eax
c000a6a4:	21 02                	and    %eax,(%edx)
c000a6a6:	40                   	inc    %eax
c000a6a7:	03 23                	add    (%ebx),%esp
c000a6a9:	04 24                	add    $0x24,%al
c000a6ab:	05 25 06 5e 07       	add    $0x75e0625,%eax
c000a6b0:	26 08 2a             	or     %ch,%es:(%edx)
c000a6b3:	09 28                	or     %ebp,(%eax)
c000a6b5:	0a 29                	or     (%ecx),%ch
c000a6b7:	0b 5f 0c             	or     0xc(%edi),%ebx
c000a6ba:	2b 0d 08 0e 00 0f    	sub    0xf000e08,%ecx
c000a6c0:	51                   	push   %ecx
c000a6c1:	10 57 11             	adc    %dl,0x11(%edi)
c000a6c4:	45                   	inc    %ebp
c000a6c5:	12 52 13             	adc    0x13(%edx),%dl
c000a6c8:	54                   	push   %esp
c000a6c9:	14 59                	adc    $0x59,%al
c000a6cb:	15 55 16 49 17       	adc    $0x17491655,%eax
c000a6d0:	4f                   	dec    %edi
c000a6d1:	18 50 19             	sbb    %dl,0x19(%eax)
c000a6d4:	7b 1a                	jnp    c000a6f0 <with_shift_keymap+0x50>
c000a6d6:	7d 1b                	jge    c000a6f3 <with_shift_keymap+0x53>
c000a6d8:	0d 00 00 1d 41       	or     $0x411d0000,%eax
c000a6dd:	1e                   	push   %ds
c000a6de:	53                   	push   %ebx
c000a6df:	1f                   	pop    %ds
c000a6e0:	44                   	inc    %esp
c000a6e1:	20 46 21             	and    %al,0x21(%esi)
c000a6e4:	47                   	inc    %edi
c000a6e5:	22 48 23             	and    0x23(%eax),%cl
c000a6e8:	4a                   	dec    %edx
c000a6e9:	24 4b                	and    $0x4b,%al
c000a6eb:	25 4c 26 3a 27       	and    $0x273a264c,%eax
c000a6f0:	22 28                	and    (%eax),%ch
c000a6f2:	7e 29                	jle    c000a71d <with_shift_keymap+0x7d>
c000a6f4:	00 2a                	add    %ch,(%edx)
c000a6f6:	7c 2b                	jl     c000a723 <with_shift_keymap+0x83>
c000a6f8:	5a                   	pop    %edx
c000a6f9:	2c 58                	sub    $0x58,%al
c000a6fb:	2d 43 2e 56 2f       	sub    $0x2f562e43,%eax
c000a700:	42                   	inc    %edx
c000a701:	30 4e 31             	xor    %cl,0x31(%esi)
c000a704:	4d                   	dec    %ebp
c000a705:	32 3c 33             	xor    (%ebx,%esi,1),%bh
c000a708:	3e                   	ds
c000a709:	34 3f                	xor    $0x3f,%al
c000a70b:	35 00 36 2a 37       	xor    $0x372a3600,%eax
c000a710:	00 38                	add    %bh,(%eax)
c000a712:	20 39                	and    %bh,(%ecx)
c000a714:	00 3a                	add    %bh,(%edx)
c000a716:	00 54 00 55          	add    %dl,0x55(%eax,%eax,1)
c000a71a:	00 56 00             	add    %dl,0x0(%esi)
c000a71d:	57                   	push   %edi
c000a71e:	00 58 00             	add    %bl,0x0(%eax)
c000a721:	59                   	pop    %ecx
c000a722:	00 5a 00             	add    %bl,0x0(%edx)
c000a725:	5b                   	pop    %ebx
c000a726:	00 5c 00 5d          	add    %bl,0x5d(%eax,%eax,1)
c000a72a:	00 45 00             	add    %al,0x0(%ebp)
c000a72d:	46                   	inc    %esi
c000a72e:	00 47 00             	add    %al,0x0(%edi)
c000a731:	48                   	dec    %eax
c000a732:	00 49 2d             	add    %cl,0x2d(%ecx)
c000a735:	4a                   	dec    %edx
c000a736:	00 4b 00             	add    %cl,0x0(%ebx)
c000a739:	4c                   	dec    %esp
c000a73a:	00 4d 2b             	add    %cl,0x2b(%ebp)
c000a73d:	4e                   	dec    %esi
c000a73e:	00 4f 00             	add    %cl,0x0(%edi)
c000a741:	50                   	push   %eax
c000a742:	00 51 00             	add    %dl,0x0(%ecx)
c000a745:	52                   	push   %edx
c000a746:	00 53 00             	add    %dl,0x0(%ebx)
c000a749:	54                   	push   %esp
c000a74a:	00 55 00             	add    %dl,0x0(%ebp)
c000a74d:	56                   	push   %esi
c000a74e:	00 87 00 88 00 00    	add    %al,0x8800(%edi)
c000a754:	00 00                	add    %al,(%eax)
c000a756:	00 5b 00             	add    %bl,0x0(%ebx)
c000a759:	5c                   	pop    %esp
c000a75a:	00 5d 00             	add    %bl,0x0(%ebp)
	...

c000a7a0 <with_alt_keymap>:
c000a7a0:	00 00                	add    %al,(%eax)
c000a7a2:	00 01                	add    %al,(%ecx)
c000a7a4:	00 78 00             	add    %bh,0x0(%eax)
c000a7a7:	79 00                	jns    c000a7a9 <with_alt_keymap+0x9>
c000a7a9:	7a 00                	jp     c000a7ab <with_alt_keymap+0xb>
c000a7ab:	7b 00                	jnp    c000a7ad <with_alt_keymap+0xd>
c000a7ad:	7c 00                	jl     c000a7af <with_alt_keymap+0xf>
c000a7af:	7d 00                	jge    c000a7b1 <with_alt_keymap+0x11>
c000a7b1:	7e 00                	jle    c000a7b3 <with_alt_keymap+0x13>
c000a7b3:	7f 00                	jg     c000a7b5 <with_alt_keymap+0x15>
c000a7b5:	80 00 81             	addb   $0x81,(%eax)
c000a7b8:	00 82 00 83 00 0e    	add    %al,0xe008300(%edx)
c000a7be:	00 a5 00 10 00 11    	add    %ah,0x11001000(%ebp)
c000a7c4:	00 12                	add    %dl,(%edx)
c000a7c6:	00 13                	add    %dl,(%ebx)
c000a7c8:	00 14 00             	add    %dl,(%eax,%eax,1)
c000a7cb:	15 00 16 00 17       	adc    $0x17001600,%eax
c000a7d0:	00 18                	add    %bl,(%eax)
c000a7d2:	00 19                	add    %bl,(%ecx)
c000a7d4:	00 1a                	add    %bl,(%edx)
c000a7d6:	00 1b                	add    %bl,(%ebx)
c000a7d8:	00 1c 00             	add    %bl,(%eax,%eax,1)
c000a7db:	1d 00 1e 00 1f       	sbb    $0x1f001e00,%eax
c000a7e0:	00 20                	add    %ah,(%eax)
c000a7e2:	00 21                	add    %ah,(%ecx)
c000a7e4:	00 22                	add    %ah,(%edx)
c000a7e6:	00 23                	add    %ah,(%ebx)
c000a7e8:	00 24 00             	add    %ah,(%eax,%eax,1)
c000a7eb:	25 00 26 00 27       	and    $0x27002600,%eax
c000a7f0:	00 28                	add    %ch,(%eax)
c000a7f2:	00 29                	add    %ch,(%ecx)
c000a7f4:	00 2a                	add    %ch,(%edx)
c000a7f6:	00 2b                	add    %ch,(%ebx)
c000a7f8:	00 2c 00             	add    %ch,(%eax,%eax,1)
c000a7fb:	2d 00 2e 00 2f       	sub    $0x2f002e00,%eax
c000a800:	00 30                	add    %dh,(%eax)
c000a802:	00 31                	add    %dh,(%ecx)
c000a804:	00 32                	add    %dh,(%edx)
c000a806:	00 33                	add    %dh,(%ebx)
c000a808:	00 34 00             	add    %dh,(%eax,%eax,1)
c000a80b:	35 00 36 00 37       	xor    $0x37003600,%eax
c000a810:	00 38                	add    %bh,(%eax)
c000a812:	00 39                	add    %bh,(%ecx)
c000a814:	00 3a                	add    %bh,(%edx)
c000a816:	00 68 00             	add    %ch,0x0(%eax)
c000a819:	69 00 6a 00 6b 00    	imul   $0x6b006a,(%eax),%eax
c000a81f:	6c                   	insb   (%dx),%es:(%edi)
c000a820:	00 6d 00             	add    %ch,0x0(%ebp)
c000a823:	6e                   	outsb  %ds:(%esi),(%dx)
c000a824:	00 6f 00             	add    %ch,0x0(%edi)
c000a827:	70 00                	jo     c000a829 <with_alt_keymap+0x89>
c000a829:	71 00                	jno    c000a82b <with_alt_keymap+0x8b>
c000a82b:	45                   	inc    %ebp
c000a82c:	00 46 00             	add    %al,0x0(%esi)
c000a82f:	97                   	xchg   %eax,%edi
c000a830:	00 98 00 99 00 4a    	add    %bl,0x4a009900(%eax)
c000a836:	00 9b 00 9c 00 9d    	add    %bl,-0x62ff6400(%ebx)
c000a83c:	00 4e 00             	add    %cl,0x0(%esi)
c000a83f:	9f                   	lahf   
c000a840:	00 a0 00 a1 00 a2    	add    %ah,-0x5dff5f00(%eax)
c000a846:	00 a3 00 54 00 55    	add    %ah,0x55005400(%ebx)
c000a84c:	00 56 00             	add    %dl,0x0(%esi)
c000a84f:	8b 00                	mov    (%eax),%eax
c000a851:	8c 00                	mov    %es,(%eax)
	...

c000a8a0 <with_control_keymap>:
	...
c000a8bc:	00 00                	add    %al,(%eax)
c000a8be:	00 94 11 10 17 11 05 	add    %dl,0x5111710(%ecx,%edx,1)
c000a8c5:	12 12                	adc    (%edx),%dl
c000a8c7:	13 14 14             	adc    (%esp,%edx,1),%edx
c000a8ca:	19 15 15 16 09 17    	sbb    %edx,0x17091615
c000a8d0:	0f 18 10             	prefetcht1 (%eax)
c000a8d3:	19 00                	sbb    %eax,(%eax)
c000a8d5:	00 00                	add    %al,(%eax)
c000a8d7:	00 0a                	add    %cl,(%edx)
c000a8d9:	1c 00                	sbb    $0x0,%al
c000a8db:	1d 01 1e 13 1f       	sbb    $0x1f131e01,%eax
c000a8e0:	04 20                	add    $0x20,%al
c000a8e2:	06                   	push   %es
c000a8e3:	21 07                	and    %eax,(%edi)
c000a8e5:	22 08                	and    (%eax),%cl
c000a8e7:	23 0a                	and    (%edx),%ecx
c000a8e9:	24 0b                	and    $0xb,%al
c000a8eb:	25 0c 26 00 00       	and    $0x260c,%eax
c000a8f0:	00 00                	add    %al,(%eax)
c000a8f2:	00 00                	add    %al,(%eax)
c000a8f4:	00 2a                	add    %ch,(%edx)
c000a8f6:	00 00                	add    %al,(%eax)
c000a8f8:	1a 2c 18             	sbb    (%eax,%ebx,1),%ch
c000a8fb:	2d 03 2e 16 2f       	sub    $0x2f162e03,%eax
c000a900:	02 30                	add    (%eax),%dh
c000a902:	0e                   	push   %cs
c000a903:	31 0d 32 00 00 00    	xor    %ecx,0x32
c000a909:	00 00                	add    %al,(%eax)
c000a90b:	95                   	xchg   %eax,%ebp
c000a90c:	00 36                	add    %dh,(%esi)
c000a90e:	00 96 00 38 20 39    	add    %dl,0x39203800(%esi)
c000a914:	00 3a                	add    %bh,(%edx)
c000a916:	00 5e 00             	add    %bl,0x0(%esi)
c000a919:	5f                   	pop    %edi
c000a91a:	00 60 00             	add    %ah,0x0(%eax)
c000a91d:	61                   	popa   
c000a91e:	00 62 00             	add    %ah,0x0(%edx)
c000a921:	63 00                	arpl   %ax,(%eax)
c000a923:	64 00 65 00          	add    %ah,%fs:0x0(%ebp)
c000a927:	66                   	data16
c000a928:	00 67 00             	add    %ah,0x0(%edi)
c000a92b:	45                   	inc    %ebp
c000a92c:	00 46 00             	add    %al,0x0(%esi)
c000a92f:	77 00                	ja     c000a931 <with_control_keymap+0x91>
c000a931:	8d 00                	lea    (%eax),%eax
c000a933:	84 00                	test   %al,(%eax)
c000a935:	8e 00                	mov    (%eax),%es
c000a937:	73 00                	jae    c000a939 <with_control_keymap+0x99>
c000a939:	8f 00                	popl   (%eax)
c000a93b:	74 00                	je     c000a93d <with_control_keymap+0x9d>
c000a93d:	90                   	nop
c000a93e:	00 75 00             	add    %dh,0x0(%ebp)
c000a941:	91                   	xchg   %eax,%ecx
c000a942:	00 76 00             	add    %dh,0x0(%esi)
c000a945:	92                   	xchg   %eax,%edx
c000a946:	00 93 00 54 00 55    	add    %dl,0x55005400(%ebx)
c000a94c:	00 56 00             	add    %dl,0x0(%esi)
c000a94f:	89 00                	mov    %eax,(%eax)
c000a951:	8a 00                	mov    (%eax),%al
	...

c000a9a0 <keypad_char>:
c000a9a0:	37                   	aaa    
c000a9a1:	38 39                	cmp    %bh,(%ecx)
c000a9a3:	2d 34 35 36 2b       	sub    $0x2b363534,%eax
c000a9a8:	31 32                	xor    %esi,(%edx)
c000a9aa:	33 30                	xor    (%eax),%esi
c000a9ac:	2e 00 50 00          	add    %dl,%cs:0x0(%eax)

c000a9ae <crt_width>:
c000a9ae:	50                   	push   %eax
	...

c000a9b0 <crt_height>:
c000a9b0:	19 00                	sbb    %eax,(%eax)
	...

c000a9c0 <_ctype>:
c000a9c0:	08 08                	or     %cl,(%eax)
c000a9c2:	08 08                	or     %cl,(%eax)
c000a9c4:	08 08                	or     %cl,(%eax)
c000a9c6:	08 08                	or     %cl,(%eax)
c000a9c8:	08 28                	or     %ch,(%eax)
c000a9ca:	28 28                	sub    %ch,(%eax)
c000a9cc:	28 28                	sub    %ch,(%eax)
c000a9ce:	08 08                	or     %cl,(%eax)
c000a9d0:	08 08                	or     %cl,(%eax)
c000a9d2:	08 08                	or     %cl,(%eax)
c000a9d4:	08 08                	or     %cl,(%eax)
c000a9d6:	08 08                	or     %cl,(%eax)
c000a9d8:	08 08                	or     %cl,(%eax)
c000a9da:	08 08                	or     %cl,(%eax)
c000a9dc:	08 08                	or     %cl,(%eax)
c000a9de:	08 08                	or     %cl,(%eax)
c000a9e0:	a0 10 10 10 10       	mov    0x10101010,%al
c000a9e5:	10 10                	adc    %dl,(%eax)
c000a9e7:	10 10                	adc    %dl,(%eax)
c000a9e9:	10 10                	adc    %dl,(%eax)
c000a9eb:	10 10                	adc    %dl,(%eax)
c000a9ed:	10 10                	adc    %dl,(%eax)
c000a9ef:	10 04 04             	adc    %al,(%esp,%eax,1)
c000a9f2:	04 04                	add    $0x4,%al
c000a9f4:	04 04                	add    $0x4,%al
c000a9f6:	04 04                	add    $0x4,%al
c000a9f8:	04 04                	add    $0x4,%al
c000a9fa:	10 10                	adc    %dl,(%eax)
c000a9fc:	10 10                	adc    %dl,(%eax)
c000a9fe:	10 10                	adc    %dl,(%eax)
c000aa00:	10 41 41             	adc    %al,0x41(%ecx)
c000aa03:	41                   	inc    %ecx
c000aa04:	41                   	inc    %ecx
c000aa05:	41                   	inc    %ecx
c000aa06:	41                   	inc    %ecx
c000aa07:	01 01                	add    %eax,(%ecx)
c000aa09:	01 01                	add    %eax,(%ecx)
c000aa0b:	01 01                	add    %eax,(%ecx)
c000aa0d:	01 01                	add    %eax,(%ecx)
c000aa0f:	01 01                	add    %eax,(%ecx)
c000aa11:	01 01                	add    %eax,(%ecx)
c000aa13:	01 01                	add    %eax,(%ecx)
c000aa15:	01 01                	add    %eax,(%ecx)
c000aa17:	01 01                	add    %eax,(%ecx)
c000aa19:	01 01                	add    %eax,(%ecx)
c000aa1b:	10 10                	adc    %dl,(%eax)
c000aa1d:	10 10                	adc    %dl,(%eax)
c000aa1f:	10 10                	adc    %dl,(%eax)
c000aa21:	42                   	inc    %edx
c000aa22:	42                   	inc    %edx
c000aa23:	42                   	inc    %edx
c000aa24:	42                   	inc    %edx
c000aa25:	42                   	inc    %edx
c000aa26:	42                   	inc    %edx
c000aa27:	02 02                	add    (%edx),%al
c000aa29:	02 02                	add    (%edx),%al
c000aa2b:	02 02                	add    (%edx),%al
c000aa2d:	02 02                	add    (%edx),%al
c000aa2f:	02 02                	add    (%edx),%al
c000aa31:	02 02                	add    (%edx),%al
c000aa33:	02 02                	add    (%edx),%al
c000aa35:	02 02                	add    (%edx),%al
c000aa37:	02 02                	add    (%edx),%al
c000aa39:	02 02                	add    (%edx),%al
c000aa3b:	10 10                	adc    %dl,(%eax)
c000aa3d:	10 10                	adc    %dl,(%eax)
c000aa3f:	08 00                	or     %al,(%eax)
	...
c000aa5d:	00 00                	add    %al,(%eax)
c000aa5f:	00 a0 10 10 10 10    	add    %ah,0x10101010(%eax)
c000aa65:	10 10                	adc    %dl,(%eax)
c000aa67:	10 10                	adc    %dl,(%eax)
c000aa69:	10 10                	adc    %dl,(%eax)
c000aa6b:	10 10                	adc    %dl,(%eax)
c000aa6d:	10 10                	adc    %dl,(%eax)
c000aa6f:	10 10                	adc    %dl,(%eax)
c000aa71:	10 10                	adc    %dl,(%eax)
c000aa73:	10 10                	adc    %dl,(%eax)
c000aa75:	10 10                	adc    %dl,(%eax)
c000aa77:	10 10                	adc    %dl,(%eax)
c000aa79:	10 10                	adc    %dl,(%eax)
c000aa7b:	10 10                	adc    %dl,(%eax)
c000aa7d:	10 10                	adc    %dl,(%eax)
c000aa7f:	10 01                	adc    %al,(%ecx)
c000aa81:	01 01                	add    %eax,(%ecx)
c000aa83:	01 01                	add    %eax,(%ecx)
c000aa85:	01 01                	add    %eax,(%ecx)
c000aa87:	01 01                	add    %eax,(%ecx)
c000aa89:	01 01                	add    %eax,(%ecx)
c000aa8b:	01 01                	add    %eax,(%ecx)
c000aa8d:	01 01                	add    %eax,(%ecx)
c000aa8f:	01 01                	add    %eax,(%ecx)
c000aa91:	01 01                	add    %eax,(%ecx)
c000aa93:	01 01                	add    %eax,(%ecx)
c000aa95:	01 01                	add    %eax,(%ecx)
c000aa97:	01 01                	add    %eax,(%ecx)
c000aa99:	01 01                	add    %eax,(%ecx)
c000aa9b:	01 01                	add    %eax,(%ecx)
c000aa9d:	01 01                	add    %eax,(%ecx)
c000aa9f:	02 02                	add    (%edx),%al
c000aaa1:	02 02                	add    (%edx),%al
c000aaa3:	02 02                	add    (%edx),%al
c000aaa5:	02 02                	add    (%edx),%al
c000aaa7:	02 02                	add    (%edx),%al
c000aaa9:	02 02                	add    (%edx),%al
c000aaab:	02 02                	add    (%edx),%al
c000aaad:	02 02                	add    (%edx),%al
c000aaaf:	02 02                	add    (%edx),%al
c000aab1:	02 02                	add    (%edx),%al
c000aab3:	02 02                	add    (%edx),%al
c000aab5:	02 02                	add    (%edx),%al
c000aab7:	10 02                	adc    %al,(%edx)
c000aab9:	02 02                	add    (%edx),%al
c000aabb:	02 02                	add    (%edx),%al
c000aabd:	02 02                	add    (%edx),%al
c000aabf:	02 ff                	add    %bh,%bh

c000aac0 <fdc_track>:
c000aac0:	ff 00                	incl   (%eax)
	...

c000aae0 <floppy_type>:
c000aae0:	40                   	inc    %eax
c000aae1:	0b 00                	or     (%eax),%eax
c000aae3:	00 12                	add    %dl,(%edx)
c000aae5:	00 00                	add    %al,(%eax)
c000aae7:	00 02                	add    %al,(%edx)
c000aae9:	00 00                	add    %al,(%eax)
c000aaeb:	00 50 00             	add    %dl,0x0(%eax)
c000aaee:	00 00                	add    %al,(%eax)
c000aaf0:	54                   	push   %esp
c000aaf1:	1b 00                	sbb    (%eax),%eax
c000aaf3:	00 b4 8b 00 c0 20 0d 	add    %dh,0xd20c000(%ebx,%ecx,4)
c000aafa:	00 00                	add    %al,(%eax)
c000aafc:	15 00 00 00 02       	adc    $0x2000000,%eax
c000ab01:	00 00                	add    %al,(%eax)
c000ab03:	00 50 00             	add    %dl,0x0(%eax)
c000ab06:	00 00                	add    %al,(%eax)
c000ab08:	0c 1c                	or     $0x1c,%al
c000ab0a:	00 00                	add    %al,(%eax)
c000ab0c:	ba 8b 00 c0 00       	mov    $0xc0008b,%edx
	...

c000ab20 <commands>:
c000ab20:	0b 00                	or     (%eax),%eax
c000ab22:	00 00                	add    %al,(%eax)
c000ab24:	cc                   	int3   
c000ab25:	8b 00                	mov    (%eax),%eax
c000ab27:	c0 d0 8b             	rcl    $0x8b,%al
c000ab2a:	00 c0                	add    %al,%al
c000ab2c:	11 00                	adc    %eax,(%eax)
c000ab2e:	00 00                	add    %al,(%eax)
c000ab30:	f7                   	(bad)  
c000ab31:	8b 00                	mov    (%eax),%eax
c000ab33:	c0 fc 8b             	sar    $0x8b,%ah
c000ab36:	00 c0                	add    %al,%al
c000ab38:	12 00                	adc    (%eax),%al
c000ab3a:	00 00                	add    %al,(%eax)
c000ab3c:	20 8c 00 c0 23 8c 00 	and    %cl,0x8c23c0(%eax,%eax,1)
c000ab43:	c0 09 00             	rorb   $0x0,(%ecx)
c000ab46:	00 00                	add    %al,(%eax)
c000ab48:	40                   	inc    %eax
c000ab49:	8c 00                	mov    %es,(%eax)
c000ab4b:	c0 4c 8c 00 c0       	rorb   $0xc0,0x0(%esp,%ecx,4)
c000ab50:	02 00                	add    (%eax),%al
c000ab52:	00 00                	add    %al,(%eax)
c000ab54:	85 8c 00 c0 8b 8c 00 	test   %ecx,0x8c8bc0(%eax,%eax,1)
c000ab5b:	c0 0e 00             	rorb   $0x0,(%esi)
c000ab5e:	00 00                	add    %al,(%eax)
c000ab60:	9c                   	pushf  
c000ab61:	8c 00                	mov    %es,(%eax)
c000ab63:	c0 a4 8c 00 c0 04 00 	shlb   $0x0,0x4c000(%esp,%ecx,4)
c000ab6a:	00 
c000ab6b:	00 de                	add    %bl,%dh
c000ab6d:	8c 00                	mov    %es,(%eax)
c000ab6f:	c0 e3 8c             	shl    $0x8c,%bl
c000ab72:	00 c0                	add    %al,%al
c000ab74:	0a 00                	or     (%eax),%al
c000ab76:	00 00                	add    %al,(%eax)
c000ab78:	f1                   	icebp  
c000ab79:	8c 00                	mov    %es,(%eax)
c000ab7b:	c0 f8 8c             	sar    $0x8c,%al
c000ab7e:	00 c0                	add    %al,%al
c000ab80:	00 00                	add    %al,(%eax)
c000ab82:	00 00                	add    %al,(%eax)
c000ab84:	09 8d 00 c0 0e 8d    	or     %ecx,-0x72f14000(%ebp)
c000ab8a:	00 c0                	add    %al,%al
c000ab8c:	14 00                	adc    $0x0,%al
c000ab8e:	00 00                	add    %al,(%eax)
c000ab90:	1d 8d 00 c0 22       	sbb    $0x22c0008d,%eax
c000ab95:	8d 00                	lea    (%eax),%eax
c000ab97:	c0 10 00             	rclb   $0x0,(%eax)
c000ab9a:	00 00                	add    %al,(%eax)
c000ab9c:	2e 8d 00             	lea    %cs:(%eax),%eax
c000ab9f:	c0                   	(bad)  
c000aba0:	31 8d 00 c0 08 00    	xor    %ecx,0x8c000(%ebp)
c000aba6:	00 00                	add    %al,(%eax)
c000aba8:	4f                   	dec    %edi
c000aba9:	8d 00                	lea    (%eax),%eax
c000abab:	c0 53 8d 00          	rclb   $0x0,-0x73(%ebx)
c000abaf:	c0 0f 00             	rorb   $0x0,(%edi)
c000abb2:	00 00                	add    %al,(%eax)
c000abb4:	6a 8d                	push   $0xffffff8d
c000abb6:	00 c0                	add    %al,%al
c000abb8:	70 8d                	jo     c000ab47 <commands+0x27>
c000abba:	00 c0                	add    %al,%al
c000abbc:	07                   	pop    %es
c000abbd:	00 00                	add    %al,(%eax)
c000abbf:	00 81 8d 00 c0 87    	add    %al,-0x783fff73(%ecx)
c000abc5:	8d 00                	lea    (%eax),%eax
c000abc7:	c0 13 00             	rclb   $0x0,(%ebx)
c000abca:	00 00                	add    %al,(%eax)
c000abcc:	98                   	cwtl   
c000abcd:	8d 00                	lea    (%eax),%eax
c000abcf:	c0 9c 8d 00 c0 05 00 	rcrb   $0x0,0x5c000(%ebp,%ecx,4)
c000abd6:	00 
c000abd7:	00 bf 8d 00 c0 c4    	add    %bh,-0x3b3fff73(%edi)
c000abdd:	8d 00                	lea    (%eax),%eax
c000abdf:	c0 03 00             	rolb   $0x0,(%ebx)
c000abe2:	00 00                	add    %al,(%eax)
c000abe4:	ef                   	out    %eax,(%dx)
c000abe5:	8d 00                	lea    (%eax),%eax
c000abe7:	c0                   	(bad)  
c000abe8:	f6                   	(bad)  
c000abe9:	8d 00                	lea    (%eax),%eax
c000abeb:	c0 0d 00 00 00 08 8e 	rorb   $0x8e,0x8000000
c000abf2:	00 c0                	add    %al,%al
c000abf4:	10 8e 00 c0 01 00    	adc    %cl,0x1c000(%esi)
c000abfa:	00 00                	add    %al,(%eax)
c000abfc:	2f                   	das    
c000abfd:	8e 00                	mov    (%eax),%es
c000abff:	c0                   	(bad)  
c000ac00:	35 8e 00 c0 0c       	xor    $0xcc0008e,%eax
c000ac05:	00 00                	add    %al,(%eax)
c000ac07:	00 4f 8e             	add    %cl,-0x72(%edi)
c000ac0a:	00 c0                	add    %al,%al
c000ac0c:	53                   	push   %ebx
c000ac0d:	8e 00                	mov    (%eax),%es
c000ac0f:	c0 06 00             	rolb   $0x0,(%esi)
c000ac12:	00 00                	add    %al,(%eax)
c000ac14:	68 8e 00 c0 70       	push   $0x70c0008e
c000ac19:	8e 00                	mov    (%eax),%es
c000ac1b:	c0 15 00 00 00 9c 8e 	rclb   $0x8e,0x9c000000
c000ac22:	00 c0                	add    %al,%al
c000ac24:	a0 8e 00 c0 00       	mov    0xc0008e,%al
	...

Disassembly of section .bss:

c000b000 <_stack>:
	...

c001b000 <KERNEL_BSS>:
	...

c001b020 <vir_cons>:
	...

c001b110 <current_console_id>:
_stack_end():
c001b110:	00 00                	add    %al,(%eax)
	...

c001b114 <spurious_interrupt_show>:
	...

c001b120 <interrupt_handlers>:
	...

c001b520 <mask.1482>:
	...

c001b521 <mask.1486>:
c001b521:	00 00                	add    %al,(%eax)
	...

c001b524 <ready_queue>:
c001b524:	00 00                	add    %al,(%eax)
	...

c001b528 <wait_queue>:
c001b528:	00 00                	add    %al,(%eax)
	...

c001b52c <zombie_queue>:
c001b52c:	00 00                	add    %al,(%eax)
	...

c001b530 <current_task>:
c001b530:	00 00                	add    %al,(%eax)
	...

c001b534 <idle_task>:
c001b534:	00 00                	add    %al,(%eax)
	...

c001b538 <refresh_queues_flag>:
c001b538:	00 00                	add    %al,(%eax)
	...

c001b53c <tss_link.1022>:
	...

c001b544 <last_pid>:
c001b544:	00 00                	add    %al,(%eax)
	...

c001b548 <shift_flag>:
	...

c001b549 <control_flag>:
	...

c001b54a <alt_flag>:
	...

c001b54c <code.1494>:
c001b54c:	00 00                	add    %al,(%eax)
	...

c001b550 <val.1495>:
c001b550:	00 00                	add    %al,(%eax)
	...

c001b554 <fdc_motor>:
c001b554:	00 00                	add    %al,(%eax)
	...

c001b558 <fdc_timeout>:
c001b558:	00 00                	add    %al,(%eax)
	...

c001b55c <fdc_motor_countdown>:
c001b55c:	00 00                	add    %al,(%eax)
	...

c001b560 <fdc_done>:
c001b560:	00 00                	add    %al,(%eax)
	...

c001b564 <fdc_change>:
c001b564:	00 00                	add    %al,(%eax)
	...

c001b568 <fdc_status>:
c001b568:	00 00                	add    %al,(%eax)
c001b56a:	00 00                	add    %al,(%eax)
c001b56c:	00 00                	add    %al,(%eax)
	...

c001b56f <status_register_0>:
	...

c001b570 <fdc_geometry>:
c001b570:	00 00                	add    %al,(%eax)
	...

c001b574 <pf_panic>:
	...

c001b580 <idt_ptr>:
	...

c001b5a0 <idt>:
	...

c001bda0 <gdt>:
	...

c002bda0 <gdt_busy_entry>:
	...

c002dda0 <gdt_ptr>:
	...

c002dda8 <VIRTUAL_KERNEL_END>:
c002dda8:	00 00                	add    %al,(%eax)
	...

c002ddac <dma_free_frames>:
c002ddac:	00 00                	add    %al,(%eax)
	...

c002ddb0 <dma_pointer>:
c002ddb0:	00 00                	add    %al,(%eax)
	...

c002ddb4 <fdc_buffer>:
	...

Disassembly of section .comment:

00000000 <.comment>:
   0:	47                   	inc    %edi
   1:	43                   	inc    %ebx
   2:	43                   	inc    %ebx
   3:	3a 20                	cmp    (%eax),%ah
   5:	28 55 62             	sub    %dl,0x62(%ebp)
   8:	75 6e                	jne    78 <PAGE_SIZE-0xf88>
   a:	74 75                	je     81 <PAGE_SIZE-0xf7f>
   c:	20 34 2e             	and    %dh,(%esi,%ebp,1)
   f:	38 2e                	cmp    %ch,(%esi)
  11:	34 2d                	xor    $0x2d,%al
  13:	32 75 62             	xor    0x62(%ebp),%dh
  16:	75 6e                	jne    86 <PAGE_SIZE-0xf7a>
  18:	74 75                	je     8f <PAGE_SIZE-0xf71>
  1a:	31 7e 31             	xor    %edi,0x31(%esi)
  1d:	34 2e                	xor    $0x2e,%al
  1f:	30 34 29             	xor    %dh,(%ecx,%ebp,1)
  22:	20 34 2e             	and    %dh,(%esi,%ebp,1)
  25:	38 2e                	cmp    %ch,(%esi)
  27:	34 00                	xor    $0x0,%al
