
../build/bf_kernel32.elf:     file format elf32-i386
../build/bf_kernel32.elf
architecture: i386, flags 0x00000112:
EXEC_P, HAS_SYMS, D_PAGED
start address 0xc0000000

Program Header:
    LOAD off    0x00001000 vaddr 0xc0000000 paddr 0x00100000 align 2**12
         filesz 0x00002000 memsz 0x00002000 flags r-x
    LOAD off    0x00003000 vaddr 0xc0002000 paddr 0x00102000 align 2**12
         filesz 0x00001000 memsz 0x00001000 flags rw-
    LOAD off    0x00004000 vaddr 0xc0003000 paddr 0x00113000 align 2**12
         filesz 0x00000000 memsz 0x00012000 flags rw-
   STACK off    0x00000000 vaddr 0x00000000 paddr 0x00000000 align 2**2
         filesz 0x00000000 memsz 0x00000000 flags rwx

Sections:
Idx Name          Size      VMA       LMA       File off  Algn
  0 .text         00002000  c0000000  00100000  00001000  2**4
                  CONTENTS, ALLOC, LOAD, READONLY, CODE
  1 .data         00001000  c0002000  00102000  00003000  2**5
                  CONTENTS, ALLOC, LOAD, DATA
  2 .bss          00012000  c0003000  00113000  00004000  2**5
                  ALLOC
  3 .comment      0000002c  00000000  00000000  00004000  2**0
                  CONTENTS, READONLY
SYMBOL TABLE:
c0000000 l    d  .text	00000000 .text
c0002000 l    d  .data	00000000 .data
c0003000 l    d  .bss	00000000 .bss
00000000 l    d  .comment	00000000 .comment
00000000 l    df *ABS*	00000000 assembly/start.asm
c0000002 l       .text	00000000 not_used_space
c000000c l       .text	00000000 entry
c0000013 l       .text	00000000 setup_and_enable_paging
c0000035 l       .text	00000000 Map_I_PTE
c0000056 l       .text	00000000 Map_K_PTE
c000008c l       .text	00000000 paging_enabled
00000000 l    df *ABS*	00000000 console.c
c0013000 l     O .bss	00000018 vir_cons
00000000 l    df *ABS*	00000000 main.c
00000000 l    df *ABS*	00000000 mem.c
00000000 l    df *ABS*	00000000 paging.c
c0000378 l     F .text	00000009 invlpg
00000000 l    df *ABS*	00000000 video.c
c0000730 l     F .text	0000001e outport8
00000000 l    df *ABS*	00000000 ctype.c
00000000 l    df *ABS*	00000000 string.c
00000000 l    df *ABS*	00000000 vsnprintf.c
c0000bec l     F .text	0000005a skip_atoi
c0000c46 l     F .text	000003ea number
c0000411 g     F .text	0000011e map_page
c000074e g     F .text	00000087 video_move_cursor
c0000955 g     F .text	0000005a video_place_char
c0000004 g       .text	00000000 var_system_memory_amount
c00000b4 g     F .text	00000033 initialize_boot_console
c0013000 g       .bss	00000000 K_STACK_END
c0000343 g     F .text	00000019 memcpy8
c0000000 g       *ABS*	00000000 K_VIR_START
c00009af g     F .text	000001a3 video_put_char
c0000000 g       .text	00000000 KERNEL_TEXT
c0002000 g     O .data	00000004 free_frames
c0001030 g     F .text	000005fb vsnprintf
c00006ab g     F .text	00000084 dump_free_frames
c000052f g     F .text	00000049 init_free_frames
c0013020 g     O .bss	00000004 K_VIR_END
c000035c g     F .text	00000019 memcpy32
c0000ba3 g     F .text	00000046 strnlen
c0002006 g     O .data	00000002 crt_height
c000032e g     F .text	00000015 memset32
00010000 g       *ABS*	00000000 K_STACK_SIZE
c00002e8 g     F .text	00000022 memset8
c00007ed g     F .text	0000008a video_clrscr
c0000000 g       .text	00000000 _start
c0000230 g     F .text	000000b8 k_main
c00005f5 g     F .text	000000b6 dump_dirty_pages
c0000119 g     F .text	0000004e kplacechar
c000030a g     F .text	00000024 memset16
c0015000 g       *ABS*	00000000 KERNEL_TOP
c0002020 g     O .data	00000100 _ctype
c000020b g     F .text	00000023 get_console_addr
00001000 g       *ABS*	00000000 PAGE_SIZE
c0000008 g       .text	00000000 stage2_return_address
c00003d3 g     F .text	0000003e push_frame
c0015000 g       .bss	00000000 KERNEL_END_BSS
c0013000 g       .bss	00000000 _stack_end
c0000167 g     F .text	00000022 kset_color
c0002004 g     O .data	00000002 crt_width
c00007d5 g     F .text	00000018 video_set_color
c0002000 g       .data	00000000 KERNEL_DATA
c0000b52 g     F .text	00000017 initialize_video
c0000189 g     F .text	00000082 kprintf
c0000578 g     F .text	0000007d initialize_paging
c0002000 g       .text	00000000 KERNEL_END_TEXT
c00000e7 g     F .text	00000032 kputchar
00100000 g       *ABS*	00000000 K_PHYS_START
c0000b6c g     F .text	00000037 strlen
c0003000 g       .bss	00000000 _stack
c0000381 g     F .text	00000052 pop_frame
c0000877 g     F .text	000000de video_scroll_console
c0013040 g     O .bss	00001000 K_PDBR
c0013000 g       .bss	00000000 KERNEL_BSS
c0003000 g       .data	00000000 KERNEL_END_DATA



Disassembly of section .text:

c0000000 <KERNEL_TEXT>:
_start():
c0000000:	eb 0a                	jmp    c000000c <entry>

c0000002 <not_used_space>:
	...

c0000004 <var_system_memory_amount>:
var_system_memory_amount():
c0000004:	00 00                	add    %al,(%eax)
	...

c0000008 <stage2_return_address>:
stage2_return_address():
c0000008:	00 00                	add    %al,(%eax)
	...

c000000c <entry>:
entry():
c000000c:	66 ba f2 03          	mov    $0x3f2,%dx
c0000010:	b0 0c                	mov    $0xc,%al
c0000012:	ee                   	out    %al,(%dx)

c0000013 <setup_and_enable_paging>:
setup_and_enable_paging():
c0000013:	bf 00 10 00 00       	mov    $0x1000,%edi
c0000018:	b8 00 00 00 00       	mov    $0x0,%eax
c000001d:	b9 00 10 00 00       	mov    $0x1000,%ecx
c0000022:	fc                   	cld    
c0000023:	f3 aa                	rep stos %al,%es:(%edi)
c0000025:	b8 03 00 00 00       	mov    $0x3,%eax
c000002a:	b9 00 04 00 00       	mov    $0x400,%ecx
c000002f:	bf 00 30 00 00       	mov    $0x3000,%edi
c0000034:	fc                   	cld    

c0000035 <Map_I_PTE>:
Map_I_PTE():
c0000035:	ab                   	stos   %eax,%es:(%edi)
c0000036:	05 00 10 00 00       	add    $0x1000,%eax
c000003b:	e2 f8                	loop   c0000035 <Map_I_PTE>
c000003d:	c7 05 00 10 00 00 07 	movl   $0x3007,0x1000
c0000044:	30 00 00 
c0000047:	b8 03 00 10 00       	mov    $0x100003,%eax
c000004c:	b9 00 04 00 00       	mov    $0x400,%ecx
c0000051:	bf 00 20 00 00       	mov    $0x2000,%edi

c0000056 <Map_K_PTE>:
Map_K_PTE():
c0000056:	ab                   	stos   %eax,%es:(%edi)
c0000057:	05 00 10 00 00       	add    $0x1000,%eax
c000005c:	e2 f8                	loop   c0000056 <Map_K_PTE>
c000005e:	c7 05 00 1c 00 00 07 	movl   $0x2007,0x1c00
c0000065:	20 00 00 
c0000068:	c7 05 fc 1f 00 00 07 	movl   $0x1007,0x1ffc
c000006f:	10 00 00 
c0000072:	b8 00 10 00 00       	mov    $0x1000,%eax
c0000077:	0f 22 d8             	mov    %eax,%cr3
c000007a:	0f 20 c0             	mov    %cr0,%eax
c000007d:	0d 00 00 01 80       	or     $0x80010000,%eax
c0000082:	0f 22 c0             	mov    %eax,%cr0
c0000085:	ea 8c 00 00 c0 08 00 	ljmp   $0x8,$0xc000008c

c000008c <paging_enabled>:
paging_enabled():
c000008c:	b8 10 00 00 00       	mov    $0x10,%eax
c0000091:	8e d8                	mov    %eax,%ds
c0000093:	8e c0                	mov    %eax,%es
c0000095:	8e d0                	mov    %eax,%ss
c0000097:	90                   	nop
c0000098:	8e e0                	mov    %eax,%fs
c000009a:	8e e8                	mov    %eax,%gs
c000009c:	8f 05 08 00 00 c0    	popl   0xc0000008
c00000a2:	8f 05 04 00 00 c0    	popl   0xc0000004
c00000a8:	bc 00 30 01 c0       	mov    $0xc0013000,%esp
c00000ad:	e9 7e 01 00 00       	jmp    c0000230 <k_main>
	...

c00000b4 <initialize_boot_console>:
initialize_boot_console():
c00000b4:	55                   	push   %ebp
c00000b5:	89 e5                	mov    %esp,%ebp
c00000b7:	83 ec 18             	sub    $0x18,%esp
c00000ba:	c7 05 00 30 01 c0 00 	movl   $0xb8000,0xc0013000
c00000c1:	80 0b 00 
c00000c4:	c6 05 04 30 01 c0 00 	movb   $0x0,0xc0013004
c00000cb:	c6 05 05 30 01 c0 00 	movb   $0x0,0xc0013005
c00000d2:	c6 05 06 30 01 c0 07 	movb   $0x7,0xc0013006
c00000d9:	c7 04 24 00 30 01 c0 	movl   $0xc0013000,(%esp)
c00000e0:	e8 08 07 00 00       	call   c00007ed <video_clrscr>
c00000e5:	c9                   	leave  
c00000e6:	c3                   	ret    

c00000e7 <kputchar>:
kputchar():
c00000e7:	55                   	push   %ebp
c00000e8:	89 e5                	mov    %esp,%ebp
c00000ea:	53                   	push   %ebx
c00000eb:	83 ec 24             	sub    $0x24,%esp
c00000ee:	9c                   	pushf  
c00000ef:	5b                   	pop    %ebx
c00000f0:	fa                   	cli    
c00000f1:	89 5d f4             	mov    %ebx,-0xc(%ebp)
c00000f4:	8b 45 08             	mov    0x8(%ebp),%eax
c00000f7:	0f b6 c0             	movzbl %al,%eax
c00000fa:	c7 44 24 04 00 30 01 	movl   $0xc0013000,0x4(%esp)
c0000101:	c0 
c0000102:	89 04 24             	mov    %eax,(%esp)
c0000105:	e8 a5 08 00 00       	call   c00009af <video_put_char>
c000010a:	ff 75 f4             	pushl  -0xc(%ebp)
c000010d:	9d                   	popf   
c000010e:	b8 00 00 00 00       	mov    $0x0,%eax
c0000113:	83 c4 24             	add    $0x24,%esp
c0000116:	5b                   	pop    %ebx
c0000117:	5d                   	pop    %ebp
c0000118:	c3                   	ret    

c0000119 <kplacechar>:
kplacechar():
c0000119:	55                   	push   %ebp
c000011a:	89 e5                	mov    %esp,%ebp
c000011c:	53                   	push   %ebx
c000011d:	83 ec 34             	sub    $0x34,%esp
c0000120:	8b 55 08             	mov    0x8(%ebp),%edx
c0000123:	8b 45 0c             	mov    0xc(%ebp),%eax
c0000126:	88 55 e4             	mov    %dl,-0x1c(%ebp)
c0000129:	88 45 e0             	mov    %al,-0x20(%ebp)
c000012c:	9c                   	pushf  
c000012d:	5b                   	pop    %ebx
c000012e:	fa                   	cli    
c000012f:	89 5d f4             	mov    %ebx,-0xc(%ebp)
c0000132:	8b 45 10             	mov    0x10(%ebp),%eax
c0000135:	0f b6 c8             	movzbl %al,%ecx
c0000138:	0f b6 55 e0          	movzbl -0x20(%ebp),%edx
c000013c:	0f b6 45 e4          	movzbl -0x1c(%ebp),%eax
c0000140:	c7 44 24 0c 00 30 01 	movl   $0xc0013000,0xc(%esp)
c0000147:	c0 
c0000148:	89 4c 24 08          	mov    %ecx,0x8(%esp)
c000014c:	89 54 24 04          	mov    %edx,0x4(%esp)
c0000150:	89 04 24             	mov    %eax,(%esp)
c0000153:	e8 fd 07 00 00       	call   c0000955 <video_place_char>
c0000158:	ff 75 f4             	pushl  -0xc(%ebp)
c000015b:	9d                   	popf   
c000015c:	b8 00 00 00 00       	mov    $0x0,%eax
c0000161:	83 c4 34             	add    $0x34,%esp
c0000164:	5b                   	pop    %ebx
c0000165:	5d                   	pop    %ebp
c0000166:	c3                   	ret    

c0000167 <kset_color>:
kset_color():
c0000167:	55                   	push   %ebp
c0000168:	89 e5                	mov    %esp,%ebp
c000016a:	83 ec 28             	sub    $0x28,%esp
c000016d:	8b 45 08             	mov    0x8(%ebp),%eax
c0000170:	88 45 f4             	mov    %al,-0xc(%ebp)
c0000173:	0f b6 45 f4          	movzbl -0xc(%ebp),%eax
c0000177:	89 44 24 04          	mov    %eax,0x4(%esp)
c000017b:	c7 04 24 00 30 01 c0 	movl   $0xc0013000,(%esp)
c0000182:	e8 4e 06 00 00       	call   c00007d5 <video_set_color>
c0000187:	c9                   	leave  
c0000188:	c3                   	ret    

c0000189 <kprintf>:
kprintf():
c0000189:	55                   	push   %ebp
c000018a:	89 e5                	mov    %esp,%ebp
c000018c:	81 ec 28 04 00 00    	sub    $0x428,%esp
c0000192:	8d 45 08             	lea    0x8(%ebp),%eax
c0000195:	83 c0 04             	add    $0x4,%eax
c0000198:	89 45 f0             	mov    %eax,-0x10(%ebp)
c000019b:	8b 45 08             	mov    0x8(%ebp),%eax
c000019e:	8b 55 f0             	mov    -0x10(%ebp),%edx
c00001a1:	89 54 24 0c          	mov    %edx,0xc(%esp)
c00001a5:	89 44 24 08          	mov    %eax,0x8(%esp)
c00001a9:	c7 44 24 04 00 04 00 	movl   $0x400,0x4(%esp)
c00001b0:	00 
c00001b1:	8d 85 f0 fb ff ff    	lea    -0x410(%ebp),%eax
c00001b7:	89 04 24             	mov    %eax,(%esp)
c00001ba:	e8 71 0e 00 00       	call   c0001030 <vsnprintf>
c00001bf:	c7 45 f0 00 00 00 00 	movl   $0x0,-0x10(%ebp)
c00001c6:	c7 45 f4 00 00 00 00 	movl   $0x0,-0xc(%ebp)
c00001cd:	eb 2b                	jmp    c00001fa <kprintf+0x71>
c00001cf:	8d 85 f0 fb ff ff    	lea    -0x410(%ebp),%eax
c00001d5:	03 45 f4             	add    -0xc(%ebp),%eax
c00001d8:	0f b6 00             	movzbl (%eax),%eax
c00001db:	84 c0                	test   %al,%al
c00001dd:	74 26                	je     c0000205 <kprintf+0x7c>
c00001df:	8d 85 f0 fb ff ff    	lea    -0x410(%ebp),%eax
c00001e5:	03 45 f4             	add    -0xc(%ebp),%eax
c00001e8:	0f b6 00             	movzbl (%eax),%eax
c00001eb:	0f be c0             	movsbl %al,%eax
c00001ee:	89 04 24             	mov    %eax,(%esp)
c00001f1:	e8 f1 fe ff ff       	call   c00000e7 <kputchar>
c00001f6:	83 45 f4 01          	addl   $0x1,-0xc(%ebp)
c00001fa:	81 7d f4 ff 03 00 00 	cmpl   $0x3ff,-0xc(%ebp)
c0000201:	76 cc                	jbe    c00001cf <kprintf+0x46>
c0000203:	eb 01                	jmp    c0000206 <kprintf+0x7d>
c0000205:	90                   	nop
c0000206:	8b 45 f4             	mov    -0xc(%ebp),%eax
c0000209:	c9                   	leave  
c000020a:	c3                   	ret    

c000020b <get_console_addr>:
get_console_addr():
c000020b:	55                   	push   %ebp
c000020c:	89 e5                	mov    %esp,%ebp
c000020e:	83 7d 08 00          	cmpl   $0x0,0x8(%ebp)
c0000212:	78 13                	js     c0000227 <get_console_addr+0x1c>
c0000214:	83 7d 08 02          	cmpl   $0x2,0x8(%ebp)
c0000218:	7f 0d                	jg     c0000227 <get_console_addr+0x1c>
c000021a:	8b 45 08             	mov    0x8(%ebp),%eax
c000021d:	c1 e0 03             	shl    $0x3,%eax
c0000220:	05 00 30 01 c0       	add    $0xc0013000,%eax
c0000225:	eb 05                	jmp    c000022c <get_console_addr+0x21>
c0000227:	b8 00 00 00 00       	mov    $0x0,%eax
c000022c:	5d                   	pop    %ebp
c000022d:	c3                   	ret    
	...

c0000230 <k_main>:
k_main():
c0000230:	55                   	push   %ebp
c0000231:	89 e5                	mov    %esp,%ebp
c0000233:	83 ec 18             	sub    $0x18,%esp
c0000236:	e8 17 09 00 00       	call   c0000b52 <initialize_video>
c000023b:	e8 74 fe ff ff       	call   c00000b4 <initialize_boot_console>
c0000240:	c7 04 24 07 00 00 00 	movl   $0x7,(%esp)
c0000247:	e8 1b ff ff ff       	call   c0000167 <kset_color>
c000024c:	c7 04 24 2c 16 00 c0 	movl   $0xc000162c,(%esp)
c0000253:	e8 31 ff ff ff       	call   c0000189 <kprintf>
c0000258:	c7 04 24 09 00 00 00 	movl   $0x9,(%esp)
c000025f:	e8 03 ff ff ff       	call   c0000167 <kset_color>
c0000264:	c7 04 24 38 16 00 c0 	movl   $0xc0001638,(%esp)
c000026b:	e8 19 ff ff ff       	call   c0000189 <kprintf>
c0000270:	c7 04 24 07 00 00 00 	movl   $0x7,(%esp)
c0000277:	e8 eb fe ff ff       	call   c0000167 <kset_color>
c000027c:	b8 00 00 00 c0       	mov    $0xc0000000,%eax
c0000281:	89 44 24 04          	mov    %eax,0x4(%esp)
c0000285:	c7 04 24 48 16 00 c0 	movl   $0xc0001648,(%esp)
c000028c:	e8 f8 fe ff ff       	call   c0000189 <kprintf>
c0000291:	a1 04 00 00 c0       	mov    0xc0000004,%eax
c0000296:	c1 e8 14             	shr    $0x14,%eax
c0000299:	89 44 24 04          	mov    %eax,0x4(%esp)
c000029d:	c7 04 24 78 16 00 c0 	movl   $0xc0001678,(%esp)
c00002a4:	e8 e0 fe ff ff       	call   c0000189 <kprintf>
c00002a9:	c7 44 24 08 00 10 00 	movl   $0x1000,0x8(%esp)
c00002b0:	00 
c00002b1:	c7 44 24 04 97 16 00 	movl   $0xc0001697,0x4(%esp)
c00002b8:	c0 
c00002b9:	c7 04 24 a5 16 00 c0 	movl   $0xc00016a5,(%esp)
c00002c0:	e8 c4 fe ff ff       	call   c0000189 <kprintf>
c00002c5:	e8 ae 02 00 00       	call   c0000578 <initialize_paging>
c00002ca:	c7 44 24 08 25 00 00 	movl   $0x25,0x8(%esp)
c00002d1:	00 
c00002d2:	c7 44 24 04 97 16 00 	movl   $0xc0001697,0x4(%esp)
c00002d9:	c0 
c00002da:	c7 04 24 bc 16 00 c0 	movl   $0xc00016bc,(%esp)
c00002e1:	e8 a3 fe ff ff       	call   c0000189 <kprintf>
c00002e6:	eb fe                	jmp    c00002e6 <k_main+0xb6>

c00002e8 <memset8>:
memset8():
c00002e8:	55                   	push   %ebp
c00002e9:	89 e5                	mov    %esp,%ebp
c00002eb:	57                   	push   %edi
c00002ec:	83 ec 04             	sub    $0x4,%esp
c00002ef:	8b 45 0c             	mov    0xc(%ebp),%eax
c00002f2:	88 45 f8             	mov    %al,-0x8(%ebp)
c00002f5:	8b 55 08             	mov    0x8(%ebp),%edx
c00002f8:	8b 4d 10             	mov    0x10(%ebp),%ecx
c00002fb:	0f b6 45 f8          	movzbl -0x8(%ebp),%eax
c00002ff:	89 d7                	mov    %edx,%edi
c0000301:	fc                   	cld    
c0000302:	f3 aa                	rep stos %al,%es:(%edi)
c0000304:	83 c4 04             	add    $0x4,%esp
c0000307:	5f                   	pop    %edi
c0000308:	5d                   	pop    %ebp
c0000309:	c3                   	ret    

c000030a <memset16>:
memset16():
c000030a:	55                   	push   %ebp
c000030b:	89 e5                	mov    %esp,%ebp
c000030d:	57                   	push   %edi
c000030e:	83 ec 04             	sub    $0x4,%esp
c0000311:	8b 45 0c             	mov    0xc(%ebp),%eax
c0000314:	66 89 45 f8          	mov    %ax,-0x8(%ebp)
c0000318:	8b 55 08             	mov    0x8(%ebp),%edx
c000031b:	8b 4d 10             	mov    0x10(%ebp),%ecx
c000031e:	0f b7 45 f8          	movzwl -0x8(%ebp),%eax
c0000322:	89 d7                	mov    %edx,%edi
c0000324:	fc                   	cld    
c0000325:	66 f3 ab             	rep stos %ax,%es:(%edi)
c0000328:	83 c4 04             	add    $0x4,%esp
c000032b:	5f                   	pop    %edi
c000032c:	5d                   	pop    %ebp
c000032d:	c3                   	ret    

c000032e <memset32>:
memset32():
c000032e:	55                   	push   %ebp
c000032f:	89 e5                	mov    %esp,%ebp
c0000331:	57                   	push   %edi
c0000332:	8b 55 08             	mov    0x8(%ebp),%edx
c0000335:	8b 4d 10             	mov    0x10(%ebp),%ecx
c0000338:	8b 45 0c             	mov    0xc(%ebp),%eax
c000033b:	89 d7                	mov    %edx,%edi
c000033d:	fc                   	cld    
c000033e:	f3 ab                	rep stos %eax,%es:(%edi)
c0000340:	5f                   	pop    %edi
c0000341:	5d                   	pop    %ebp
c0000342:	c3                   	ret    

c0000343 <memcpy8>:
memcpy8():
c0000343:	55                   	push   %ebp
c0000344:	89 e5                	mov    %esp,%ebp
c0000346:	57                   	push   %edi
c0000347:	56                   	push   %esi
c0000348:	8b 45 08             	mov    0x8(%ebp),%eax
c000034b:	8b 55 0c             	mov    0xc(%ebp),%edx
c000034e:	8b 4d 10             	mov    0x10(%ebp),%ecx
c0000351:	89 c7                	mov    %eax,%edi
c0000353:	89 d6                	mov    %edx,%esi
c0000355:	fc                   	cld    
c0000356:	f3 a4                	rep movsb %ds:(%esi),%es:(%edi)
c0000358:	5e                   	pop    %esi
c0000359:	5f                   	pop    %edi
c000035a:	5d                   	pop    %ebp
c000035b:	c3                   	ret    

c000035c <memcpy32>:
memcpy32():
c000035c:	55                   	push   %ebp
c000035d:	89 e5                	mov    %esp,%ebp
c000035f:	57                   	push   %edi
c0000360:	56                   	push   %esi
c0000361:	8b 45 08             	mov    0x8(%ebp),%eax
c0000364:	8b 55 0c             	mov    0xc(%ebp),%edx
c0000367:	8b 4d 10             	mov    0x10(%ebp),%ecx
c000036a:	89 c7                	mov    %eax,%edi
c000036c:	89 d6                	mov    %edx,%esi
c000036e:	fc                   	cld    
c000036f:	f3 a5                	rep movsl %ds:(%esi),%es:(%edi)
c0000371:	5e                   	pop    %esi
c0000372:	5f                   	pop    %edi
c0000373:	5d                   	pop    %ebp
c0000374:	c3                   	ret    
c0000375:	00 00                	add    %al,(%eax)
	...

c0000378 <invlpg>:
invlpg():
c0000378:	55                   	push   %ebp
c0000379:	89 e5                	mov    %esp,%ebp
c000037b:	0f 01 7d 08          	invlpg 0x8(%ebp)
c000037f:	5d                   	pop    %ebp
c0000380:	c3                   	ret    

c0000381 <pop_frame>:
pop_frame():
c0000381:	55                   	push   %ebp
c0000382:	89 e5                	mov    %esp,%ebp
c0000384:	53                   	push   %ebx
c0000385:	83 ec 10             	sub    $0x10,%esp
c0000388:	9c                   	pushf  
c0000389:	5b                   	pop    %ebx
c000038a:	fa                   	cli    
c000038b:	89 5d f8             	mov    %ebx,-0x8(%ebp)
c000038e:	a1 00 20 00 c0       	mov    0xc0002000,%eax
c0000393:	8b 00                	mov    (%eax),%eax
c0000395:	85 c0                	test   %eax,%eax
c0000397:	74 2b                	je     c00003c4 <pop_frame+0x43>
c0000399:	a1 00 20 00 c0       	mov    0xc0002000,%eax
c000039e:	8b 00                	mov    (%eax),%eax
c00003a0:	89 45 f4             	mov    %eax,-0xc(%ebp)
c00003a3:	a1 00 20 00 c0       	mov    0xc0002000,%eax
c00003a8:	c7 00 00 00 00 00    	movl   $0x0,(%eax)
c00003ae:	a1 00 20 00 c0       	mov    0xc0002000,%eax
c00003b3:	83 c0 04             	add    $0x4,%eax
c00003b6:	a3 00 20 00 c0       	mov    %eax,0xc0002000
c00003bb:	ff 75 f8             	pushl  -0x8(%ebp)
c00003be:	9d                   	popf   
c00003bf:	8b 45 f4             	mov    -0xc(%ebp),%eax
c00003c2:	eb 09                	jmp    c00003cd <pop_frame+0x4c>
c00003c4:	ff 75 f8             	pushl  -0x8(%ebp)
c00003c7:	9d                   	popf   
c00003c8:	b8 00 00 00 00       	mov    $0x0,%eax
c00003cd:	83 c4 10             	add    $0x10,%esp
c00003d0:	5b                   	pop    %ebx
c00003d1:	5d                   	pop    %ebp
c00003d2:	c3                   	ret    

c00003d3 <push_frame>:
push_frame():
c00003d3:	55                   	push   %ebp
c00003d4:	89 e5                	mov    %esp,%ebp
c00003d6:	53                   	push   %ebx
c00003d7:	83 ec 10             	sub    $0x10,%esp
c00003da:	9c                   	pushf  
c00003db:	5b                   	pop    %ebx
c00003dc:	fa                   	cli    
c00003dd:	89 5d f8             	mov    %ebx,-0x8(%ebp)
c00003e0:	a1 00 20 00 c0       	mov    0xc0002000,%eax
c00003e5:	89 c2                	mov    %eax,%edx
c00003e7:	b8 00 50 01 c0       	mov    $0xc0015000,%eax
c00003ec:	39 c2                	cmp    %eax,%edx
c00003ee:	76 17                	jbe    c0000407 <push_frame+0x34>
c00003f0:	a1 00 20 00 c0       	mov    0xc0002000,%eax
c00003f5:	83 e8 04             	sub    $0x4,%eax
c00003f8:	a3 00 20 00 c0       	mov    %eax,0xc0002000
c00003fd:	a1 00 20 00 c0       	mov    0xc0002000,%eax
c0000402:	8b 55 08             	mov    0x8(%ebp),%edx
c0000405:	89 10                	mov    %edx,(%eax)
c0000407:	ff 75 f8             	pushl  -0x8(%ebp)
c000040a:	9d                   	popf   
c000040b:	83 c4 10             	add    $0x10,%esp
c000040e:	5b                   	pop    %ebx
c000040f:	5d                   	pop    %ebp
c0000410:	c3                   	ret    

c0000411 <map_page>:
map_page():
c0000411:	55                   	push   %ebp
c0000412:	89 e5                	mov    %esp,%ebp
c0000414:	53                   	push   %ebx
c0000415:	83 ec 18             	sub    $0x18,%esp
c0000418:	8b 45 10             	mov    0x10(%ebp),%eax
c000041b:	66 89 45 e8          	mov    %ax,-0x18(%ebp)
c000041f:	9c                   	pushf  
c0000420:	5b                   	pop    %ebx
c0000421:	fa                   	cli    
c0000422:	89 5d f4             	mov    %ebx,-0xc(%ebp)
c0000425:	81 65 08 00 f0 ff ff 	andl   $0xfffff000,0x8(%ebp)
c000042c:	81 65 0c 00 f0 ff ff 	andl   $0xfffff000,0xc(%ebp)
c0000433:	66 81 65 e8 ff 0f    	andw   $0xfff,-0x18(%ebp)
c0000439:	8b 45 08             	mov    0x8(%ebp),%eax
c000043c:	c1 e8 14             	shr    $0x14,%eax
c000043f:	83 e0 fc             	and    $0xfffffffc,%eax
c0000442:	2d 00 10 00 00       	sub    $0x1000,%eax
c0000447:	8b 00                	mov    (%eax),%eax
c0000449:	85 c0                	test   %eax,%eax
c000044b:	0f 85 ad 00 00 00    	jne    c00004fe <map_page+0xed>
c0000451:	e8 2b ff ff ff       	call   c0000381 <pop_frame>
c0000456:	c1 e0 0c             	shl    $0xc,%eax
c0000459:	89 45 f0             	mov    %eax,-0x10(%ebp)
c000045c:	83 7d f0 00          	cmpl   $0x0,-0x10(%ebp)
c0000460:	75 0e                	jne    c0000470 <map_page+0x5f>
c0000462:	ff 75 f4             	pushl  -0xc(%ebp)
c0000465:	9d                   	popf   
c0000466:	b8 00 00 00 00       	mov    $0x0,%eax
c000046b:	e9 b9 00 00 00       	jmp    c0000529 <map_page+0x118>
c0000470:	8b 45 08             	mov    0x8(%ebp),%eax
c0000473:	c1 e8 14             	shr    $0x14,%eax
c0000476:	83 e0 fc             	and    $0xfffffffc,%eax
c0000479:	2d 00 10 00 00       	sub    $0x1000,%eax
c000047e:	8b 55 f0             	mov    -0x10(%ebp),%edx
c0000481:	83 ca 07             	or     $0x7,%edx
c0000484:	89 10                	mov    %edx,(%eax)
c0000486:	8b 45 08             	mov    0x8(%ebp),%eax
c0000489:	c1 e8 0a             	shr    $0xa,%eax
c000048c:	83 e0 fc             	and    $0xfffffffc,%eax
c000048f:	2d 00 00 40 00       	sub    $0x400000,%eax
c0000494:	89 04 24             	mov    %eax,(%esp)
c0000497:	e8 dc fe ff ff       	call   c0000378 <invlpg>
c000049c:	8b 45 08             	mov    0x8(%ebp),%eax
c000049f:	25 00 00 c0 ff       	and    $0xffc00000,%eax
c00004a4:	89 45 f8             	mov    %eax,-0x8(%ebp)
c00004a7:	eb 1b                	jmp    c00004c4 <map_page+0xb3>
c00004a9:	8b 45 f8             	mov    -0x8(%ebp),%eax
c00004ac:	c1 e8 0a             	shr    $0xa,%eax
c00004af:	83 e0 fc             	and    $0xfffffffc,%eax
c00004b2:	2d 00 00 40 00       	sub    $0x400000,%eax
c00004b7:	c7 00 00 00 00 00    	movl   $0x0,(%eax)
c00004bd:	81 45 f8 00 10 00 00 	addl   $0x1000,-0x8(%ebp)
c00004c4:	8b 45 08             	mov    0x8(%ebp),%eax
c00004c7:	25 00 00 c0 ff       	and    $0xffc00000,%eax
c00004cc:	05 00 00 40 00       	add    $0x400000,%eax
c00004d1:	3b 45 f8             	cmp    -0x8(%ebp),%eax
c00004d4:	77 d3                	ja     c00004a9 <map_page+0x98>
c00004d6:	81 7d 08 ff ff ff bf 	cmpl   $0xbfffffff,0x8(%ebp)
c00004dd:	76 1f                	jbe    c00004fe <map_page+0xed>
c00004df:	8b 45 08             	mov    0x8(%ebp),%eax
c00004e2:	89 c2                	mov    %eax,%edx
c00004e4:	c1 ea 16             	shr    $0x16,%edx
c00004e7:	8b 45 08             	mov    0x8(%ebp),%eax
c00004ea:	c1 e8 14             	shr    $0x14,%eax
c00004ed:	83 e0 fc             	and    $0xfffffffc,%eax
c00004f0:	2d 00 10 00 00       	sub    $0x1000,%eax
c00004f5:	8b 00                	mov    (%eax),%eax
c00004f7:	89 04 95 40 30 01 c0 	mov    %eax,-0x3ffecfc0(,%edx,4)
c00004fe:	8b 45 08             	mov    0x8(%ebp),%eax
c0000501:	c1 e8 0a             	shr    $0xa,%eax
c0000504:	83 e0 fc             	and    $0xfffffffc,%eax
c0000507:	2d 00 00 40 00       	sub    $0x400000,%eax
c000050c:	0f b7 55 e8          	movzwl -0x18(%ebp),%edx
c0000510:	0b 55 0c             	or     0xc(%ebp),%edx
c0000513:	89 10                	mov    %edx,(%eax)
c0000515:	8b 45 08             	mov    0x8(%ebp),%eax
c0000518:	89 04 24             	mov    %eax,(%esp)
c000051b:	e8 58 fe ff ff       	call   c0000378 <invlpg>
c0000520:	ff 75 f4             	pushl  -0xc(%ebp)
c0000523:	9d                   	popf   
c0000524:	b8 01 00 00 00       	mov    $0x1,%eax
c0000529:	83 c4 18             	add    $0x18,%esp
c000052c:	5b                   	pop    %ebx
c000052d:	5d                   	pop    %ebp
c000052e:	c3                   	ret    

c000052f <init_free_frames>:
init_free_frames():
c000052f:	55                   	push   %ebp
c0000530:	89 e5                	mov    %esp,%ebp
c0000532:	83 ec 10             	sub    $0x10,%esp
c0000535:	c7 45 fc 00 10 00 00 	movl   $0x1000,-0x4(%ebp)
c000053c:	a1 00 20 00 c0       	mov    0xc0002000,%eax
c0000541:	a3 20 30 01 c0       	mov    %eax,0xc0013020
c0000546:	eb 16                	jmp    c000055e <init_free_frames+0x2f>
c0000548:	a1 20 30 01 c0       	mov    0xc0013020,%eax
c000054d:	8b 55 fc             	mov    -0x4(%ebp),%edx
c0000550:	89 10                	mov    %edx,(%eax)
c0000552:	83 c0 04             	add    $0x4,%eax
c0000555:	a3 20 30 01 c0       	mov    %eax,0xc0013020
c000055a:	83 45 fc 01          	addl   $0x1,-0x4(%ebp)
c000055e:	a1 04 00 00 c0       	mov    0xc0000004,%eax
c0000563:	c1 e8 0c             	shr    $0xc,%eax
c0000566:	3b 45 fc             	cmp    -0x4(%ebp),%eax
c0000569:	77 dd                	ja     c0000548 <init_free_frames+0x19>
c000056b:	a1 20 30 01 c0       	mov    0xc0013020,%eax
c0000570:	c7 00 00 00 00 00    	movl   $0x0,(%eax)
c0000576:	c9                   	leave  
c0000577:	c3                   	ret    

c0000578 <initialize_paging>:
initialize_paging():
c0000578:	55                   	push   %ebp
c0000579:	89 e5                	mov    %esp,%ebp
c000057b:	83 ec 1c             	sub    $0x1c,%esp
c000057e:	e8 ac ff ff ff       	call   c000052f <init_free_frames>
c0000583:	b8 00 f0 ff ff       	mov    $0xfffff000,%eax
c0000588:	c7 00 00 00 00 00    	movl   $0x0,(%eax)
c000058e:	c7 45 fc 00 00 00 ef 	movl   $0xef000000,-0x4(%ebp)
c0000595:	eb 26                	jmp    c00005bd <initialize_paging+0x45>
c0000597:	8b 45 fc             	mov    -0x4(%ebp),%eax
c000059a:	05 00 00 00 11       	add    $0x11000000,%eax
c000059f:	c7 44 24 08 03 00 00 	movl   $0x3,0x8(%esp)
c00005a6:	00 
c00005a7:	89 44 24 04          	mov    %eax,0x4(%esp)
c00005ab:	8b 45 fc             	mov    -0x4(%ebp),%eax
c00005ae:	89 04 24             	mov    %eax,(%esp)
c00005b1:	e8 5b fe ff ff       	call   c0000411 <map_page>
c00005b6:	81 45 fc 00 10 00 00 	addl   $0x1000,-0x4(%ebp)
c00005bd:	81 7d fc ff ff ff ee 	cmpl   $0xeeffffff,-0x4(%ebp)
c00005c4:	76 d1                	jbe    c0000597 <initialize_paging+0x1f>
c00005c6:	c7 45 fc 00 00 00 00 	movl   $0x0,-0x4(%ebp)
c00005cd:	eb 1b                	jmp    c00005ea <initialize_paging+0x72>
c00005cf:	8b 45 fc             	mov    -0x4(%ebp),%eax
c00005d2:	c1 e0 02             	shl    $0x2,%eax
c00005d5:	2d 00 10 00 00       	sub    $0x1000,%eax
c00005da:	8b 10                	mov    (%eax),%edx
c00005dc:	8b 45 fc             	mov    -0x4(%ebp),%eax
c00005df:	89 14 85 40 30 01 c0 	mov    %edx,-0x3ffecfc0(,%eax,4)
c00005e6:	83 45 fc 01          	addl   $0x1,-0x4(%ebp)
c00005ea:	81 7d fc ff 03 00 00 	cmpl   $0x3ff,-0x4(%ebp)
c00005f1:	76 dc                	jbe    c00005cf <initialize_paging+0x57>
c00005f3:	c9                   	leave  
c00005f4:	c3                   	ret    

c00005f5 <dump_dirty_pages>:
dump_dirty_pages():
c00005f5:	55                   	push   %ebp
c00005f6:	89 e5                	mov    %esp,%ebp
c00005f8:	83 ec 28             	sub    $0x28,%esp
c00005fb:	c7 45 f0 01 00 00 00 	movl   $0x1,-0x10(%ebp)
c0000602:	c7 04 24 d8 16 00 c0 	movl   $0xc00016d8,(%esp)
c0000609:	e8 7b fb ff ff       	call   c0000189 <kprintf>
c000060e:	c7 45 f4 00 00 00 00 	movl   $0x0,-0xc(%ebp)
c0000615:	eb 79                	jmp    c0000690 <dump_dirty_pages+0x9b>
c0000617:	8b 45 f4             	mov    -0xc(%ebp),%eax
c000061a:	c1 e8 14             	shr    $0x14,%eax
c000061d:	83 e0 fc             	and    $0xfffffffc,%eax
c0000620:	2d 00 10 00 00       	sub    $0x1000,%eax
c0000625:	8b 00                	mov    (%eax),%eax
c0000627:	85 c0                	test   %eax,%eax
c0000629:	74 5e                	je     c0000689 <dump_dirty_pages+0x94>
c000062b:	8b 45 f4             	mov    -0xc(%ebp),%eax
c000062e:	c1 e8 0a             	shr    $0xa,%eax
c0000631:	83 e0 fc             	and    $0xfffffffc,%eax
c0000634:	2d 00 00 40 00       	sub    $0x400000,%eax
c0000639:	8b 00                	mov    (%eax),%eax
c000063b:	83 e0 40             	and    $0x40,%eax
c000063e:	85 c0                	test   %eax,%eax
c0000640:	74 47                	je     c0000689 <dump_dirty_pages+0x94>
c0000642:	83 45 f0 01          	addl   $0x1,-0x10(%ebp)
c0000646:	8b 4d f0             	mov    -0x10(%ebp),%ecx
c0000649:	ba ab aa aa aa       	mov    $0xaaaaaaab,%edx
c000064e:	89 c8                	mov    %ecx,%eax
c0000650:	f7 e2                	mul    %edx
c0000652:	c1 ea 04             	shr    $0x4,%edx
c0000655:	89 d0                	mov    %edx,%eax
c0000657:	01 c0                	add    %eax,%eax
c0000659:	01 d0                	add    %edx,%eax
c000065b:	c1 e0 03             	shl    $0x3,%eax
c000065e:	89 ca                	mov    %ecx,%edx
c0000660:	29 c2                	sub    %eax,%edx
c0000662:	8b 45 f4             	mov    -0xc(%ebp),%eax
c0000665:	c1 e8 0a             	shr    $0xa,%eax
c0000668:	83 e0 fc             	and    $0xfffffffc,%eax
c000066b:	2d 00 00 40 00       	sub    $0x400000,%eax
c0000670:	8b 00                	mov    (%eax),%eax
c0000672:	89 44 24 08          	mov    %eax,0x8(%esp)
c0000676:	8b 45 f4             	mov    -0xc(%ebp),%eax
c0000679:	89 44 24 04          	mov    %eax,0x4(%esp)
c000067d:	c7 04 24 e8 16 00 c0 	movl   $0xc00016e8,(%esp)
c0000684:	e8 00 fb ff ff       	call   c0000189 <kprintf>
c0000689:	81 45 f4 00 10 00 00 	addl   $0x1000,-0xc(%ebp)
c0000690:	81 7d f4 ff ff bf ff 	cmpl   $0xffbfffff,-0xc(%ebp)
c0000697:	0f 86 7a ff ff ff    	jbe    c0000617 <dump_dirty_pages+0x22>
c000069d:	c7 04 24 07 17 00 c0 	movl   $0xc0001707,(%esp)
c00006a4:	e8 e0 fa ff ff       	call   c0000189 <kprintf>
c00006a9:	c9                   	leave  
c00006aa:	c3                   	ret    

c00006ab <dump_free_frames>:
dump_free_frames():
c00006ab:	55                   	push   %ebp
c00006ac:	89 e5                	mov    %esp,%ebp
c00006ae:	83 ec 28             	sub    $0x28,%esp
c00006b1:	a1 00 20 00 c0       	mov    0xc0002000,%eax
c00006b6:	89 45 f4             	mov    %eax,-0xc(%ebp)
c00006b9:	c7 45 f0 01 00 00 00 	movl   $0x1,-0x10(%ebp)
c00006c0:	b8 00 50 01 c0       	mov    $0xc0015000,%eax
c00006c5:	89 44 24 04          	mov    %eax,0x4(%esp)
c00006c9:	c7 04 24 0c 17 00 c0 	movl   $0xc000170c,(%esp)
c00006d0:	e8 b4 fa ff ff       	call   c0000189 <kprintf>
c00006d5:	8b 45 f4             	mov    -0xc(%ebp),%eax
c00006d8:	8b 00                	mov    (%eax),%eax
c00006da:	85 c0                	test   %eax,%eax
c00006dc:	74 42                	je     c0000720 <dump_free_frames+0x75>
c00006de:	83 45 f0 01          	addl   $0x1,-0x10(%ebp)
c00006e2:	8b 4d f0             	mov    -0x10(%ebp),%ecx
c00006e5:	ba ab aa aa aa       	mov    $0xaaaaaaab,%edx
c00006ea:	89 c8                	mov    %ecx,%eax
c00006ec:	f7 e2                	mul    %edx
c00006ee:	c1 ea 04             	shr    $0x4,%edx
c00006f1:	89 d0                	mov    %edx,%eax
c00006f3:	01 c0                	add    %eax,%eax
c00006f5:	01 d0                	add    %edx,%eax
c00006f7:	c1 e0 03             	shl    $0x3,%eax
c00006fa:	89 ca                	mov    %ecx,%edx
c00006fc:	29 c2                	sub    %eax,%edx
c00006fe:	8b 55 f4             	mov    -0xc(%ebp),%edx
c0000701:	8b 45 f4             	mov    -0xc(%ebp),%eax
c0000704:	8b 00                	mov    (%eax),%eax
c0000706:	89 54 24 08          	mov    %edx,0x8(%esp)
c000070a:	89 44 24 04          	mov    %eax,0x4(%esp)
c000070e:	c7 04 24 30 17 00 c0 	movl   $0xc0001730,(%esp)
c0000715:	e8 6f fa ff ff       	call   c0000189 <kprintf>
c000071a:	83 45 f4 04          	addl   $0x4,-0xc(%ebp)
c000071e:	eb b5                	jmp    c00006d5 <dump_free_frames+0x2a>
c0000720:	90                   	nop
c0000721:	c7 04 24 07 17 00 c0 	movl   $0xc0001707,(%esp)
c0000728:	e8 5c fa ff ff       	call   c0000189 <kprintf>
c000072d:	c9                   	leave  
c000072e:	c3                   	ret    
	...

c0000730 <outport8>:
outport8():
c0000730:	55                   	push   %ebp
c0000731:	89 e5                	mov    %esp,%ebp
c0000733:	83 ec 08             	sub    $0x8,%esp
c0000736:	8b 55 08             	mov    0x8(%ebp),%edx
c0000739:	8b 45 0c             	mov    0xc(%ebp),%eax
c000073c:	66 89 55 fc          	mov    %dx,-0x4(%ebp)
c0000740:	88 45 f8             	mov    %al,-0x8(%ebp)
c0000743:	0f b7 55 fc          	movzwl -0x4(%ebp),%edx
c0000747:	0f b6 45 f8          	movzbl -0x8(%ebp),%eax
c000074b:	ee                   	out    %al,(%dx)
c000074c:	c9                   	leave  
c000074d:	c3                   	ret    

c000074e <video_move_cursor>:
video_move_cursor():
c000074e:	55                   	push   %ebp
c000074f:	89 e5                	mov    %esp,%ebp
c0000751:	83 ec 20             	sub    $0x20,%esp
c0000754:	8b 55 08             	mov    0x8(%ebp),%edx
c0000757:	8b 45 0c             	mov    0xc(%ebp),%eax
c000075a:	88 55 ec             	mov    %dl,-0x14(%ebp)
c000075d:	88 45 e8             	mov    %al,-0x18(%ebp)
c0000760:	0f b6 55 e8          	movzbl -0x18(%ebp),%edx
c0000764:	0f b7 05 04 20 00 c0 	movzwl 0xc0002004,%eax
c000076b:	0f af d0             	imul   %eax,%edx
c000076e:	0f b6 45 ec          	movzbl -0x14(%ebp),%eax
c0000772:	8d 04 02             	lea    (%edx,%eax,1),%eax
c0000775:	66 89 45 fe          	mov    %ax,-0x2(%ebp)
c0000779:	c7 44 24 04 0e 00 00 	movl   $0xe,0x4(%esp)
c0000780:	00 
c0000781:	c7 04 24 d4 03 00 00 	movl   $0x3d4,(%esp)
c0000788:	e8 a3 ff ff ff       	call   c0000730 <outport8>
c000078d:	0f b7 45 fe          	movzwl -0x2(%ebp),%eax
c0000791:	66 c1 e8 08          	shr    $0x8,%ax
c0000795:	0f b6 c0             	movzbl %al,%eax
c0000798:	89 44 24 04          	mov    %eax,0x4(%esp)
c000079c:	c7 04 24 d5 03 00 00 	movl   $0x3d5,(%esp)
c00007a3:	e8 88 ff ff ff       	call   c0000730 <outport8>
c00007a8:	c7 44 24 04 0f 00 00 	movl   $0xf,0x4(%esp)
c00007af:	00 
c00007b0:	c7 04 24 d4 03 00 00 	movl   $0x3d4,(%esp)
c00007b7:	e8 74 ff ff ff       	call   c0000730 <outport8>
c00007bc:	0f b7 45 fe          	movzwl -0x2(%ebp),%eax
c00007c0:	0f b6 c0             	movzbl %al,%eax
c00007c3:	89 44 24 04          	mov    %eax,0x4(%esp)
c00007c7:	c7 04 24 d5 03 00 00 	movl   $0x3d5,(%esp)
c00007ce:	e8 5d ff ff ff       	call   c0000730 <outport8>
c00007d3:	c9                   	leave  
c00007d4:	c3                   	ret    

c00007d5 <video_set_color>:
video_set_color():
c00007d5:	55                   	push   %ebp
c00007d6:	89 e5                	mov    %esp,%ebp
c00007d8:	83 ec 04             	sub    $0x4,%esp
c00007db:	8b 45 0c             	mov    0xc(%ebp),%eax
c00007de:	88 45 fc             	mov    %al,-0x4(%ebp)
c00007e1:	8b 45 08             	mov    0x8(%ebp),%eax
c00007e4:	0f b6 55 fc          	movzbl -0x4(%ebp),%edx
c00007e8:	88 50 06             	mov    %dl,0x6(%eax)
c00007eb:	c9                   	leave  
c00007ec:	c3                   	ret    

c00007ed <video_clrscr>:
video_clrscr():
c00007ed:	55                   	push   %ebp
c00007ee:	89 e5                	mov    %esp,%ebp
c00007f0:	53                   	push   %ebx
c00007f1:	83 ec 24             	sub    $0x24,%esp
c00007f4:	9c                   	pushf  
c00007f5:	5b                   	pop    %ebx
c00007f6:	fa                   	cli    
c00007f7:	89 5d f4             	mov    %ebx,-0xc(%ebp)
c00007fa:	0f b7 05 04 20 00 c0 	movzwl 0xc0002004,%eax
c0000801:	0f b7 d0             	movzwl %ax,%edx
c0000804:	0f b7 05 06 20 00 c0 	movzwl 0xc0002006,%eax
c000080b:	0f b7 c0             	movzwl %ax,%eax
c000080e:	0f af c2             	imul   %edx,%eax
c0000811:	01 c0                	add    %eax,%eax
c0000813:	89 c2                	mov    %eax,%edx
c0000815:	8b 45 08             	mov    0x8(%ebp),%eax
c0000818:	8b 00                	mov    (%eax),%eax
c000081a:	89 54 24 08          	mov    %edx,0x8(%esp)
c000081e:	c7 44 24 04 20 0f 00 	movl   $0xf20,0x4(%esp)
c0000825:	00 
c0000826:	89 04 24             	mov    %eax,(%esp)
c0000829:	e8 dc fa ff ff       	call   c000030a <memset16>
c000082e:	8b 45 08             	mov    0x8(%ebp),%eax
c0000831:	c6 40 04 00          	movb   $0x0,0x4(%eax)
c0000835:	8b 45 08             	mov    0x8(%ebp),%eax
c0000838:	c6 40 05 00          	movb   $0x0,0x5(%eax)
c000083c:	c7 04 24 00 00 00 00 	movl   $0x0,(%esp)
c0000843:	e8 c3 f9 ff ff       	call   c000020b <get_console_addr>
c0000848:	3b 45 08             	cmp    0x8(%ebp),%eax
c000084b:	75 20                	jne    c000086d <video_clrscr+0x80>
c000084d:	8b 45 08             	mov    0x8(%ebp),%eax
c0000850:	0f b6 40 05          	movzbl 0x5(%eax),%eax
c0000854:	0f b6 d0             	movzbl %al,%edx
c0000857:	8b 45 08             	mov    0x8(%ebp),%eax
c000085a:	0f b6 40 04          	movzbl 0x4(%eax),%eax
c000085e:	0f b6 c0             	movzbl %al,%eax
c0000861:	89 54 24 04          	mov    %edx,0x4(%esp)
c0000865:	89 04 24             	mov    %eax,(%esp)
c0000868:	e8 e1 fe ff ff       	call   c000074e <video_move_cursor>
c000086d:	ff 75 f4             	pushl  -0xc(%ebp)
c0000870:	9d                   	popf   
c0000871:	83 c4 24             	add    $0x24,%esp
c0000874:	5b                   	pop    %ebx
c0000875:	5d                   	pop    %ebp
c0000876:	c3                   	ret    

c0000877 <video_scroll_console>:
video_scroll_console():
c0000877:	55                   	push   %ebp
c0000878:	89 e5                	mov    %esp,%ebp
c000087a:	53                   	push   %ebx
c000087b:	83 ec 24             	sub    $0x24,%esp
c000087e:	9c                   	pushf  
c000087f:	5b                   	pop    %ebx
c0000880:	fa                   	cli    
c0000881:	89 5d f0             	mov    %ebx,-0x10(%ebp)
c0000884:	8b 45 08             	mov    0x8(%ebp),%eax
c0000887:	0f b6 40 05          	movzbl 0x5(%eax),%eax
c000088b:	0f b6 d0             	movzbl %al,%edx
c000088e:	0f b7 05 06 20 00 c0 	movzwl 0xc0002006,%eax
c0000895:	66 39 c2             	cmp    %ax,%dx
c0000898:	0f 82 ad 00 00 00    	jb     c000094b <video_scroll_console+0xd4>
c000089e:	c7 45 f4 00 00 00 00 	movl   $0x0,-0xc(%ebp)
c00008a5:	eb 2e                	jmp    c00008d5 <video_scroll_console+0x5e>
c00008a7:	8b 45 08             	mov    0x8(%ebp),%eax
c00008aa:	8b 00                	mov    (%eax),%eax
c00008ac:	8b 55 f4             	mov    -0xc(%ebp),%edx
c00008af:	01 d2                	add    %edx,%edx
c00008b1:	8d 14 10             	lea    (%eax,%edx,1),%edx
c00008b4:	8b 45 08             	mov    0x8(%ebp),%eax
c00008b7:	8b 08                	mov    (%eax),%ecx
c00008b9:	0f b7 05 04 20 00 c0 	movzwl 0xc0002004,%eax
c00008c0:	0f b7 c0             	movzwl %ax,%eax
c00008c3:	03 45 f4             	add    -0xc(%ebp),%eax
c00008c6:	01 c0                	add    %eax,%eax
c00008c8:	8d 04 01             	lea    (%ecx,%eax,1),%eax
c00008cb:	0f b7 00             	movzwl (%eax),%eax
c00008ce:	66 89 02             	mov    %ax,(%edx)
c00008d1:	83 45 f4 01          	addl   $0x1,-0xc(%ebp)
c00008d5:	0f b7 05 06 20 00 c0 	movzwl 0xc0002006,%eax
c00008dc:	0f b7 c0             	movzwl %ax,%eax
c00008df:	8d 50 ff             	lea    -0x1(%eax),%edx
c00008e2:	0f b7 05 04 20 00 c0 	movzwl 0xc0002004,%eax
c00008e9:	0f b7 c0             	movzwl %ax,%eax
c00008ec:	0f af c2             	imul   %edx,%eax
c00008ef:	3b 45 f4             	cmp    -0xc(%ebp),%eax
c00008f2:	7f b3                	jg     c00008a7 <video_scroll_console+0x30>
c00008f4:	0f b7 05 06 20 00 c0 	movzwl 0xc0002006,%eax
c00008fb:	8d 50 ff             	lea    -0x1(%eax),%edx
c00008fe:	8b 45 08             	mov    0x8(%ebp),%eax
c0000901:	88 50 05             	mov    %dl,0x5(%eax)
c0000904:	c7 45 f4 00 00 00 00 	movl   $0x0,-0xc(%ebp)
c000090b:	eb 2f                	jmp    c000093c <video_scroll_console+0xc5>
c000090d:	8b 45 08             	mov    0x8(%ebp),%eax
c0000910:	0f b6 40 05          	movzbl 0x5(%eax),%eax
c0000914:	0f b6 d0             	movzbl %al,%edx
c0000917:	8b 45 f4             	mov    -0xc(%ebp),%eax
c000091a:	0f b6 c0             	movzbl %al,%eax
c000091d:	8b 4d 08             	mov    0x8(%ebp),%ecx
c0000920:	89 4c 24 0c          	mov    %ecx,0xc(%esp)
c0000924:	c7 44 24 08 20 00 00 	movl   $0x20,0x8(%esp)
c000092b:	00 
c000092c:	89 54 24 04          	mov    %edx,0x4(%esp)
c0000930:	89 04 24             	mov    %eax,(%esp)
c0000933:	e8 1d 00 00 00       	call   c0000955 <video_place_char>
c0000938:	83 45 f4 01          	addl   $0x1,-0xc(%ebp)
c000093c:	0f b7 05 04 20 00 c0 	movzwl 0xc0002004,%eax
c0000943:	0f b7 c0             	movzwl %ax,%eax
c0000946:	3b 45 f4             	cmp    -0xc(%ebp),%eax
c0000949:	7f c2                	jg     c000090d <video_scroll_console+0x96>
c000094b:	ff 75 f0             	pushl  -0x10(%ebp)
c000094e:	9d                   	popf   
c000094f:	83 c4 24             	add    $0x24,%esp
c0000952:	5b                   	pop    %ebx
c0000953:	5d                   	pop    %ebp
c0000954:	c3                   	ret    

c0000955 <video_place_char>:
video_place_char():
c0000955:	55                   	push   %ebp
c0000956:	89 e5                	mov    %esp,%ebp
c0000958:	83 ec 1c             	sub    $0x1c,%esp
c000095b:	8b 4d 08             	mov    0x8(%ebp),%ecx
c000095e:	8b 55 0c             	mov    0xc(%ebp),%edx
c0000961:	8b 45 10             	mov    0x10(%ebp),%eax
c0000964:	88 4d ec             	mov    %cl,-0x14(%ebp)
c0000967:	88 55 e8             	mov    %dl,-0x18(%ebp)
c000096a:	88 45 e4             	mov    %al,-0x1c(%ebp)
c000096d:	0f b6 55 e8          	movzbl -0x18(%ebp),%edx
c0000971:	0f b7 05 04 20 00 c0 	movzwl 0xc0002004,%eax
c0000978:	0f b7 c0             	movzwl %ax,%eax
c000097b:	0f af d0             	imul   %eax,%edx
c000097e:	0f b6 45 ec          	movzbl -0x14(%ebp),%eax
c0000982:	8d 04 02             	lea    (%edx,%eax,1),%eax
c0000985:	89 45 fc             	mov    %eax,-0x4(%ebp)
c0000988:	8b 45 14             	mov    0x14(%ebp),%eax
c000098b:	8b 00                	mov    (%eax),%eax
c000098d:	8b 55 fc             	mov    -0x4(%ebp),%edx
c0000990:	01 d2                	add    %edx,%edx
c0000992:	8d 14 10             	lea    (%eax,%edx,1),%edx
c0000995:	8b 45 14             	mov    0x14(%ebp),%eax
c0000998:	0f b6 40 06          	movzbl 0x6(%eax),%eax
c000099c:	0f b6 c0             	movzbl %al,%eax
c000099f:	c1 e0 08             	shl    $0x8,%eax
c00009a2:	89 c1                	mov    %eax,%ecx
c00009a4:	0f b6 45 e4          	movzbl -0x1c(%ebp),%eax
c00009a8:	09 c8                	or     %ecx,%eax
c00009aa:	66 89 02             	mov    %ax,(%edx)
c00009ad:	c9                   	leave  
c00009ae:	c3                   	ret    

c00009af <video_put_char>:
video_put_char():
c00009af:	55                   	push   %ebp
c00009b0:	89 e5                	mov    %esp,%ebp
c00009b2:	53                   	push   %ebx
c00009b3:	83 ec 34             	sub    $0x34,%esp
c00009b6:	8b 45 08             	mov    0x8(%ebp),%eax
c00009b9:	88 45 e4             	mov    %al,-0x1c(%ebp)
c00009bc:	9c                   	pushf  
c00009bd:	5b                   	pop    %ebx
c00009be:	fa                   	cli    
c00009bf:	89 5d f4             	mov    %ebx,-0xc(%ebp)
c00009c2:	0f b6 45 e4          	movzbl -0x1c(%ebp),%eax
c00009c6:	83 e8 07             	sub    $0x7,%eax
c00009c9:	83 f8 06             	cmp    $0x6,%eax
c00009cc:	0f 87 c7 00 00 00    	ja     c0000a99 <video_put_char+0xea>
c00009d2:	8b 04 85 48 17 00 c0 	mov    -0x3fffe8b8(,%eax,4),%eax
c00009d9:	ff e0                	jmp    *%eax
c00009db:	8b 45 0c             	mov    0xc(%ebp),%eax
c00009de:	0f b6 40 05          	movzbl 0x5(%eax),%eax
c00009e2:	8d 50 01             	lea    0x1(%eax),%edx
c00009e5:	8b 45 0c             	mov    0xc(%ebp),%eax
c00009e8:	88 50 05             	mov    %dl,0x5(%eax)
c00009eb:	8b 45 0c             	mov    0xc(%ebp),%eax
c00009ee:	c6 40 04 00          	movb   $0x0,0x4(%eax)
c00009f2:	e9 e2 00 00 00       	jmp    c0000ad9 <video_put_char+0x12a>
c00009f7:	8b 45 0c             	mov    0xc(%ebp),%eax
c00009fa:	c6 40 04 00          	movb   $0x0,0x4(%eax)
c00009fe:	e9 d6 00 00 00       	jmp    c0000ad9 <video_put_char+0x12a>
c0000a03:	8b 45 0c             	mov    0xc(%ebp),%eax
c0000a06:	0f b6 40 04          	movzbl 0x4(%eax),%eax
c0000a0a:	84 c0                	test   %al,%al
c0000a0c:	75 33                	jne    c0000a41 <video_put_char+0x92>
c0000a0e:	8b 45 0c             	mov    0xc(%ebp),%eax
c0000a11:	0f b6 40 05          	movzbl 0x5(%eax),%eax
c0000a15:	84 c0                	test   %al,%al
c0000a17:	0f 84 2e 01 00 00    	je     c0000b4b <video_put_char+0x19c>
c0000a1d:	8b 45 0c             	mov    0xc(%ebp),%eax
c0000a20:	0f b6 40 05          	movzbl 0x5(%eax),%eax
c0000a24:	8d 50 ff             	lea    -0x1(%eax),%edx
c0000a27:	8b 45 0c             	mov    0xc(%ebp),%eax
c0000a2a:	88 50 05             	mov    %dl,0x5(%eax)
c0000a2d:	0f b7 05 04 20 00 c0 	movzwl 0xc0002004,%eax
c0000a34:	89 c2                	mov    %eax,%edx
c0000a36:	8b 45 0c             	mov    0xc(%ebp),%eax
c0000a39:	88 50 04             	mov    %dl,0x4(%eax)
c0000a3c:	e9 98 00 00 00       	jmp    c0000ad9 <video_put_char+0x12a>
c0000a41:	8b 45 0c             	mov    0xc(%ebp),%eax
c0000a44:	0f b6 40 04          	movzbl 0x4(%eax),%eax
c0000a48:	8d 50 01             	lea    0x1(%eax),%edx
c0000a4b:	8b 45 0c             	mov    0xc(%ebp),%eax
c0000a4e:	88 50 04             	mov    %dl,0x4(%eax)
c0000a51:	8b 45 0c             	mov    0xc(%ebp),%eax
c0000a54:	0f b6 40 05          	movzbl 0x5(%eax),%eax
c0000a58:	0f b6 d0             	movzbl %al,%edx
c0000a5b:	8b 45 0c             	mov    0xc(%ebp),%eax
c0000a5e:	0f b6 40 04          	movzbl 0x4(%eax),%eax
c0000a62:	0f b6 c0             	movzbl %al,%eax
c0000a65:	8b 4d 0c             	mov    0xc(%ebp),%ecx
c0000a68:	89 4c 24 0c          	mov    %ecx,0xc(%esp)
c0000a6c:	c7 44 24 08 20 00 00 	movl   $0x20,0x8(%esp)
c0000a73:	00 
c0000a74:	89 54 24 04          	mov    %edx,0x4(%esp)
c0000a78:	89 04 24             	mov    %eax,(%esp)
c0000a7b:	e8 d5 fe ff ff       	call   c0000955 <video_place_char>
c0000a80:	eb 57                	jmp    c0000ad9 <video_put_char+0x12a>
c0000a82:	8b 45 0c             	mov    0xc(%ebp),%eax
c0000a85:	0f b6 40 04          	movzbl 0x4(%eax),%eax
c0000a89:	83 c0 08             	add    $0x8,%eax
c0000a8c:	89 c2                	mov    %eax,%edx
c0000a8e:	83 e2 f8             	and    $0xfffffff8,%edx
c0000a91:	8b 45 0c             	mov    0xc(%ebp),%eax
c0000a94:	88 50 04             	mov    %dl,0x4(%eax)
c0000a97:	eb 40                	jmp    c0000ad9 <video_put_char+0x12a>
c0000a99:	0f b6 4d e4          	movzbl -0x1c(%ebp),%ecx
c0000a9d:	8b 45 0c             	mov    0xc(%ebp),%eax
c0000aa0:	0f b6 40 05          	movzbl 0x5(%eax),%eax
c0000aa4:	0f b6 d0             	movzbl %al,%edx
c0000aa7:	8b 45 0c             	mov    0xc(%ebp),%eax
c0000aaa:	0f b6 40 04          	movzbl 0x4(%eax),%eax
c0000aae:	0f b6 c0             	movzbl %al,%eax
c0000ab1:	8b 5d 0c             	mov    0xc(%ebp),%ebx
c0000ab4:	89 5c 24 0c          	mov    %ebx,0xc(%esp)
c0000ab8:	89 4c 24 08          	mov    %ecx,0x8(%esp)
c0000abc:	89 54 24 04          	mov    %edx,0x4(%esp)
c0000ac0:	89 04 24             	mov    %eax,(%esp)
c0000ac3:	e8 8d fe ff ff       	call   c0000955 <video_place_char>
c0000ac8:	8b 45 0c             	mov    0xc(%ebp),%eax
c0000acb:	0f b6 40 04          	movzbl 0x4(%eax),%eax
c0000acf:	8d 50 01             	lea    0x1(%eax),%edx
c0000ad2:	8b 45 0c             	mov    0xc(%ebp),%eax
c0000ad5:	88 50 04             	mov    %dl,0x4(%eax)
c0000ad8:	90                   	nop
c0000ad9:	8b 45 0c             	mov    0xc(%ebp),%eax
c0000adc:	0f b6 40 04          	movzbl 0x4(%eax),%eax
c0000ae0:	0f b6 d0             	movzbl %al,%edx
c0000ae3:	0f b7 05 04 20 00 c0 	movzwl 0xc0002004,%eax
c0000aea:	66 39 c2             	cmp    %ax,%dx
c0000aed:	72 17                	jb     c0000b06 <video_put_char+0x157>
c0000aef:	8b 45 0c             	mov    0xc(%ebp),%eax
c0000af2:	c6 40 04 00          	movb   $0x0,0x4(%eax)
c0000af6:	8b 45 0c             	mov    0xc(%ebp),%eax
c0000af9:	0f b6 40 05          	movzbl 0x5(%eax),%eax
c0000afd:	8d 50 01             	lea    0x1(%eax),%edx
c0000b00:	8b 45 0c             	mov    0xc(%ebp),%eax
c0000b03:	88 50 05             	mov    %dl,0x5(%eax)
c0000b06:	8b 45 0c             	mov    0xc(%ebp),%eax
c0000b09:	89 04 24             	mov    %eax,(%esp)
c0000b0c:	e8 66 fd ff ff       	call   c0000877 <video_scroll_console>
c0000b11:	c7 04 24 00 00 00 00 	movl   $0x0,(%esp)
c0000b18:	e8 ee f6 ff ff       	call   c000020b <get_console_addr>
c0000b1d:	3b 45 0c             	cmp    0xc(%ebp),%eax
c0000b20:	75 20                	jne    c0000b42 <video_put_char+0x193>
c0000b22:	8b 45 0c             	mov    0xc(%ebp),%eax
c0000b25:	0f b6 40 05          	movzbl 0x5(%eax),%eax
c0000b29:	0f b6 d0             	movzbl %al,%edx
c0000b2c:	8b 45 0c             	mov    0xc(%ebp),%eax
c0000b2f:	0f b6 40 04          	movzbl 0x4(%eax),%eax
c0000b33:	0f b6 c0             	movzbl %al,%eax
c0000b36:	89 54 24 04          	mov    %edx,0x4(%esp)
c0000b3a:	89 04 24             	mov    %eax,(%esp)
c0000b3d:	e8 0c fc ff ff       	call   c000074e <video_move_cursor>
c0000b42:	ff 75 f4             	pushl  -0xc(%ebp)
c0000b45:	9d                   	popf   
c0000b46:	eb 04                	jmp    c0000b4c <video_put_char+0x19d>
c0000b48:	90                   	nop
c0000b49:	eb 01                	jmp    c0000b4c <video_put_char+0x19d>
c0000b4b:	90                   	nop
c0000b4c:	83 c4 34             	add    $0x34,%esp
c0000b4f:	5b                   	pop    %ebx
c0000b50:	5d                   	pop    %ebp
c0000b51:	c3                   	ret    

c0000b52 <initialize_video>:
initialize_video():
c0000b52:	55                   	push   %ebp
c0000b53:	89 e5                	mov    %esp,%ebp
c0000b55:	66 c7 05 04 20 00 c0 	movw   $0x50,0xc0002004
c0000b5c:	50 00 
c0000b5e:	66 c7 05 06 20 00 c0 	movw   $0x19,0xc0002006
c0000b65:	19 00 
c0000b67:	5d                   	pop    %ebp
c0000b68:	c3                   	ret    
c0000b69:	00 00                	add    %al,(%eax)
	...

c0000b6c <strlen>:
strlen():
c0000b6c:	55                   	push   %ebp
c0000b6d:	89 e5                	mov    %esp,%ebp
c0000b6f:	83 ec 10             	sub    $0x10,%esp
c0000b72:	83 7d 08 00          	cmpl   $0x0,0x8(%ebp)
c0000b76:	75 07                	jne    c0000b7f <strlen+0x13>
c0000b78:	b8 00 00 00 00       	mov    $0x0,%eax
c0000b7d:	eb 22                	jmp    c0000ba1 <strlen+0x35>
c0000b7f:	8b 45 08             	mov    0x8(%ebp),%eax
c0000b82:	89 45 fc             	mov    %eax,-0x4(%ebp)
c0000b85:	eb 04                	jmp    c0000b8b <strlen+0x1f>
c0000b87:	83 45 fc 01          	addl   $0x1,-0x4(%ebp)
c0000b8b:	8b 45 fc             	mov    -0x4(%ebp),%eax
c0000b8e:	0f b6 00             	movzbl (%eax),%eax
c0000b91:	84 c0                	test   %al,%al
c0000b93:	75 f2                	jne    c0000b87 <strlen+0x1b>
c0000b95:	8b 55 fc             	mov    -0x4(%ebp),%edx
c0000b98:	8b 45 08             	mov    0x8(%ebp),%eax
c0000b9b:	89 d1                	mov    %edx,%ecx
c0000b9d:	29 c1                	sub    %eax,%ecx
c0000b9f:	89 c8                	mov    %ecx,%eax
c0000ba1:	c9                   	leave  
c0000ba2:	c3                   	ret    

c0000ba3 <strnlen>:
strnlen():
c0000ba3:	55                   	push   %ebp
c0000ba4:	89 e5                	mov    %esp,%ebp
c0000ba6:	83 ec 10             	sub    $0x10,%esp
c0000ba9:	83 7d 08 00          	cmpl   $0x0,0x8(%ebp)
c0000bad:	75 07                	jne    c0000bb6 <strnlen+0x13>
c0000baf:	b8 00 00 00 00       	mov    $0x0,%eax
c0000bb4:	eb 31                	jmp    c0000be7 <strnlen+0x44>
c0000bb6:	8b 45 08             	mov    0x8(%ebp),%eax
c0000bb9:	89 45 fc             	mov    %eax,-0x4(%ebp)
c0000bbc:	eb 04                	jmp    c0000bc2 <strnlen+0x1f>
c0000bbe:	83 45 fc 01          	addl   $0x1,-0x4(%ebp)
c0000bc2:	83 7d 0c 00          	cmpl   $0x0,0xc(%ebp)
c0000bc6:	0f 95 c0             	setne  %al
c0000bc9:	83 6d 0c 01          	subl   $0x1,0xc(%ebp)
c0000bcd:	84 c0                	test   %al,%al
c0000bcf:	74 0a                	je     c0000bdb <strnlen+0x38>
c0000bd1:	8b 45 fc             	mov    -0x4(%ebp),%eax
c0000bd4:	0f b6 00             	movzbl (%eax),%eax
c0000bd7:	84 c0                	test   %al,%al
c0000bd9:	75 e3                	jne    c0000bbe <strnlen+0x1b>
c0000bdb:	8b 55 fc             	mov    -0x4(%ebp),%edx
c0000bde:	8b 45 08             	mov    0x8(%ebp),%eax
c0000be1:	89 d1                	mov    %edx,%ecx
c0000be3:	29 c1                	sub    %eax,%ecx
c0000be5:	89 c8                	mov    %ecx,%eax
c0000be7:	c9                   	leave  
c0000be8:	c3                   	ret    
c0000be9:	00 00                	add    %al,(%eax)
	...

c0000bec <skip_atoi>:
skip_atoi():
c0000bec:	55                   	push   %ebp
c0000bed:	89 e5                	mov    %esp,%ebp
c0000bef:	83 ec 10             	sub    $0x10,%esp
c0000bf2:	c7 45 fc 00 00 00 00 	movl   $0x0,-0x4(%ebp)
c0000bf9:	eb 2a                	jmp    c0000c25 <skip_atoi+0x39>
c0000bfb:	8b 55 fc             	mov    -0x4(%ebp),%edx
c0000bfe:	89 d0                	mov    %edx,%eax
c0000c00:	c1 e0 02             	shl    $0x2,%eax
c0000c03:	01 d0                	add    %edx,%eax
c0000c05:	01 c0                	add    %eax,%eax
c0000c07:	89 c1                	mov    %eax,%ecx
c0000c09:	8b 45 08             	mov    0x8(%ebp),%eax
c0000c0c:	8b 00                	mov    (%eax),%eax
c0000c0e:	0f b6 10             	movzbl (%eax),%edx
c0000c11:	0f be d2             	movsbl %dl,%edx
c0000c14:	8d 14 11             	lea    (%ecx,%edx,1),%edx
c0000c17:	83 ea 30             	sub    $0x30,%edx
c0000c1a:	89 55 fc             	mov    %edx,-0x4(%ebp)
c0000c1d:	8d 50 01             	lea    0x1(%eax),%edx
c0000c20:	8b 45 08             	mov    0x8(%ebp),%eax
c0000c23:	89 10                	mov    %edx,(%eax)
c0000c25:	8b 45 08             	mov    0x8(%ebp),%eax
c0000c28:	8b 00                	mov    (%eax),%eax
c0000c2a:	0f b6 00             	movzbl (%eax),%eax
c0000c2d:	0f b6 c0             	movzbl %al,%eax
c0000c30:	0f b6 80 20 20 00 c0 	movzbl -0x3fffdfe0(%eax),%eax
c0000c37:	0f b6 c0             	movzbl %al,%eax
c0000c3a:	83 e0 04             	and    $0x4,%eax
c0000c3d:	85 c0                	test   %eax,%eax
c0000c3f:	75 ba                	jne    c0000bfb <skip_atoi+0xf>
c0000c41:	8b 45 fc             	mov    -0x4(%ebp),%eax
c0000c44:	c9                   	leave  
c0000c45:	c3                   	ret    

c0000c46 <number>:
number():
c0000c46:	55                   	push   %ebp
c0000c47:	89 e5                	mov    %esp,%ebp
c0000c49:	56                   	push   %esi
c0000c4a:	53                   	push   %ebx
c0000c4b:	81 ec c0 00 00 00    	sub    $0xc0,%esp
c0000c51:	8b 45 10             	mov    0x10(%ebp),%eax
c0000c54:	89 85 40 ff ff ff    	mov    %eax,-0xc0(%ebp)
c0000c5a:	8b 45 14             	mov    0x14(%ebp),%eax
c0000c5d:	89 85 44 ff ff ff    	mov    %eax,-0xbc(%ebp)
c0000c63:	c7 85 6d ff ff ff 30 	movl   $0x33323130,-0x93(%ebp)
c0000c6a:	31 32 33 
c0000c6d:	c7 85 71 ff ff ff 34 	movl   $0x37363534,-0x8f(%ebp)
c0000c74:	35 36 37 
c0000c77:	c7 85 75 ff ff ff 38 	movl   $0x62613938,-0x8b(%ebp)
c0000c7e:	39 61 62 
c0000c81:	c7 85 79 ff ff ff 63 	movl   $0x66656463,-0x87(%ebp)
c0000c88:	64 65 66 
c0000c8b:	c7 85 7d ff ff ff 67 	movl   $0x6a696867,-0x83(%ebp)
c0000c92:	68 69 6a 
c0000c95:	c7 45 81 6b 6c 6d 6e 	movl   $0x6e6d6c6b,-0x7f(%ebp)
c0000c9c:	c7 45 85 6f 70 71 72 	movl   $0x7271706f,-0x7b(%ebp)
c0000ca3:	c7 45 89 73 74 75 76 	movl   $0x76757473,-0x77(%ebp)
c0000caa:	c7 45 8d 77 78 79 7a 	movl   $0x7a797877,-0x73(%ebp)
c0000cb1:	c6 45 91 00          	movb   $0x0,-0x6f(%ebp)
c0000cb5:	c7 85 48 ff ff ff 30 	movl   $0x33323130,-0xb8(%ebp)
c0000cbc:	31 32 33 
c0000cbf:	c7 85 4c ff ff ff 34 	movl   $0x37363534,-0xb4(%ebp)
c0000cc6:	35 36 37 
c0000cc9:	c7 85 50 ff ff ff 38 	movl   $0x42413938,-0xb0(%ebp)
c0000cd0:	39 41 42 
c0000cd3:	c7 85 54 ff ff ff 43 	movl   $0x46454443,-0xac(%ebp)
c0000cda:	44 45 46 
c0000cdd:	c7 85 58 ff ff ff 47 	movl   $0x4a494847,-0xa8(%ebp)
c0000ce4:	48 49 4a 
c0000ce7:	c7 85 5c ff ff ff 4b 	movl   $0x4e4d4c4b,-0xa4(%ebp)
c0000cee:	4c 4d 4e 
c0000cf1:	c7 85 60 ff ff ff 4f 	movl   $0x5251504f,-0xa0(%ebp)
c0000cf8:	50 51 52 
c0000cfb:	c7 85 64 ff ff ff 53 	movl   $0x56555453,-0x9c(%ebp)
c0000d02:	54 55 56 
c0000d05:	c7 85 68 ff ff ff 57 	movl   $0x5a595857,-0x98(%ebp)
c0000d0c:	58 59 5a 
c0000d0f:	c6 85 6c ff ff ff 00 	movb   $0x0,-0x94(%ebp)
c0000d16:	8b 45 24             	mov    0x24(%ebp),%eax
c0000d19:	83 e0 40             	and    $0x40,%eax
c0000d1c:	85 c0                	test   %eax,%eax
c0000d1e:	74 08                	je     c0000d28 <number+0xe2>
c0000d20:	8d 85 48 ff ff ff    	lea    -0xb8(%ebp),%eax
c0000d26:	eb 06                	jmp    c0000d2e <number+0xe8>
c0000d28:	8d 85 6d ff ff ff    	lea    -0x93(%ebp),%eax
c0000d2e:	89 45 e4             	mov    %eax,-0x1c(%ebp)
c0000d31:	8b 45 24             	mov    0x24(%ebp),%eax
c0000d34:	83 e0 10             	and    $0x10,%eax
c0000d37:	85 c0                	test   %eax,%eax
c0000d39:	74 04                	je     c0000d3f <number+0xf9>
c0000d3b:	83 65 24 fe          	andl   $0xfffffffe,0x24(%ebp)
c0000d3f:	83 7d 18 01          	cmpl   $0x1,0x18(%ebp)
c0000d43:	7e 06                	jle    c0000d4b <number+0x105>
c0000d45:	83 7d 18 24          	cmpl   $0x24,0x18(%ebp)
c0000d49:	7e 0a                	jle    c0000d55 <number+0x10f>
c0000d4b:	b8 00 00 00 00       	mov    $0x0,%eax
c0000d50:	e9 d1 02 00 00       	jmp    c0001026 <number+0x3e0>
c0000d55:	8b 45 24             	mov    0x24(%ebp),%eax
c0000d58:	83 e0 01             	and    $0x1,%eax
c0000d5b:	84 c0                	test   %al,%al
c0000d5d:	74 07                	je     c0000d66 <number+0x120>
c0000d5f:	b8 30 00 00 00       	mov    $0x30,%eax
c0000d64:	eb 05                	jmp    c0000d6b <number+0x125>
c0000d66:	b8 20 00 00 00       	mov    $0x20,%eax
c0000d6b:	88 45 e3             	mov    %al,-0x1d(%ebp)
c0000d6e:	c6 45 f7 00          	movb   $0x0,-0x9(%ebp)
c0000d72:	8b 45 24             	mov    0x24(%ebp),%eax
c0000d75:	83 e0 02             	and    $0x2,%eax
c0000d78:	85 c0                	test   %eax,%eax
c0000d7a:	74 4c                	je     c0000dc8 <number+0x182>
c0000d7c:	83 bd 44 ff ff ff 00 	cmpl   $0x0,-0xbc(%ebp)
c0000d83:	79 1d                	jns    c0000da2 <number+0x15c>
c0000d85:	c6 45 f7 2d          	movb   $0x2d,-0x9(%ebp)
c0000d89:	f7 9d 40 ff ff ff    	negl   -0xc0(%ebp)
c0000d8f:	83 95 44 ff ff ff 00 	adcl   $0x0,-0xbc(%ebp)
c0000d96:	f7 9d 44 ff ff ff    	negl   -0xbc(%ebp)
c0000d9c:	83 6d 1c 01          	subl   $0x1,0x1c(%ebp)
c0000da0:	eb 26                	jmp    c0000dc8 <number+0x182>
c0000da2:	8b 45 24             	mov    0x24(%ebp),%eax
c0000da5:	83 e0 04             	and    $0x4,%eax
c0000da8:	85 c0                	test   %eax,%eax
c0000daa:	74 0a                	je     c0000db6 <number+0x170>
c0000dac:	c6 45 f7 2b          	movb   $0x2b,-0x9(%ebp)
c0000db0:	83 6d 1c 01          	subl   $0x1,0x1c(%ebp)
c0000db4:	eb 12                	jmp    c0000dc8 <number+0x182>
c0000db6:	8b 45 24             	mov    0x24(%ebp),%eax
c0000db9:	83 e0 08             	and    $0x8,%eax
c0000dbc:	85 c0                	test   %eax,%eax
c0000dbe:	74 08                	je     c0000dc8 <number+0x182>
c0000dc0:	c6 45 f7 20          	movb   $0x20,-0x9(%ebp)
c0000dc4:	83 6d 1c 01          	subl   $0x1,0x1c(%ebp)
c0000dc8:	8b 45 24             	mov    0x24(%ebp),%eax
c0000dcb:	83 e0 20             	and    $0x20,%eax
c0000dce:	85 c0                	test   %eax,%eax
c0000dd0:	74 16                	je     c0000de8 <number+0x1a2>
c0000dd2:	83 7d 18 10          	cmpl   $0x10,0x18(%ebp)
c0000dd6:	75 06                	jne    c0000dde <number+0x198>
c0000dd8:	83 6d 1c 02          	subl   $0x2,0x1c(%ebp)
c0000ddc:	eb 0a                	jmp    c0000de8 <number+0x1a2>
c0000dde:	83 7d 18 08          	cmpl   $0x8,0x18(%ebp)
c0000de2:	75 04                	jne    c0000de8 <number+0x1a2>
c0000de4:	83 6d 1c 01          	subl   $0x1,0x1c(%ebp)
c0000de8:	c7 45 f0 00 00 00 00 	movl   $0x0,-0x10(%ebp)
c0000def:	8b 85 40 ff ff ff    	mov    -0xc0(%ebp),%eax
c0000df5:	8b 95 44 ff ff ff    	mov    -0xbc(%ebp),%edx
c0000dfb:	09 d0                	or     %edx,%eax
c0000dfd:	85 c0                	test   %eax,%eax
c0000dff:	0f 85 b0 00 00 00    	jne    c0000eb5 <number+0x26f>
c0000e05:	8d 45 92             	lea    -0x6e(%ebp),%eax
c0000e08:	03 45 f0             	add    -0x10(%ebp),%eax
c0000e0b:	c6 00 30             	movb   $0x30,(%eax)
c0000e0e:	83 45 f0 01          	addl   $0x1,-0x10(%ebp)
c0000e12:	e9 b4 00 00 00       	jmp    c0000ecb <number+0x285>
c0000e17:	8b 45 18             	mov    0x18(%ebp),%eax
c0000e1a:	89 45 dc             	mov    %eax,-0x24(%ebp)
c0000e1d:	8b 85 40 ff ff ff    	mov    -0xc0(%ebp),%eax
c0000e23:	8b 95 44 ff ff ff    	mov    -0xbc(%ebp),%edx
c0000e29:	89 85 38 ff ff ff    	mov    %eax,-0xc8(%ebp)
c0000e2f:	89 95 3c ff ff ff    	mov    %edx,-0xc4(%ebp)
c0000e35:	8b 85 38 ff ff ff    	mov    -0xc8(%ebp),%eax
c0000e3b:	8b 95 3c ff ff ff    	mov    -0xc4(%ebp),%edx
c0000e41:	89 d3                	mov    %edx,%ebx
c0000e43:	89 c6                	mov    %eax,%esi
c0000e45:	89 75 d8             	mov    %esi,-0x28(%ebp)
c0000e48:	89 5d e8             	mov    %ebx,-0x18(%ebp)
c0000e4b:	8b 45 e8             	mov    -0x18(%ebp),%eax
c0000e4e:	89 45 ec             	mov    %eax,-0x14(%ebp)
c0000e51:	83 7d e8 00          	cmpl   $0x0,-0x18(%ebp)
c0000e55:	74 1c                	je     c0000e73 <number+0x22d>
c0000e57:	8b 45 e8             	mov    -0x18(%ebp),%eax
c0000e5a:	ba 00 00 00 00       	mov    $0x0,%edx
c0000e5f:	f7 75 dc             	divl   -0x24(%ebp)
c0000e62:	89 55 ec             	mov    %edx,-0x14(%ebp)
c0000e65:	8b 45 e8             	mov    -0x18(%ebp),%eax
c0000e68:	ba 00 00 00 00       	mov    $0x0,%edx
c0000e6d:	f7 75 dc             	divl   -0x24(%ebp)
c0000e70:	89 45 e8             	mov    %eax,-0x18(%ebp)
c0000e73:	8b 55 d8             	mov    -0x28(%ebp),%edx
c0000e76:	8b 45 ec             	mov    -0x14(%ebp),%eax
c0000e79:	89 d6                	mov    %edx,%esi
c0000e7b:	89 c3                	mov    %eax,%ebx
c0000e7d:	89 f0                	mov    %esi,%eax
c0000e7f:	89 da                	mov    %ebx,%edx
c0000e81:	f7 75 dc             	divl   -0x24(%ebp)
c0000e84:	89 d3                	mov    %edx,%ebx
c0000e86:	89 c6                	mov    %eax,%esi
c0000e88:	89 75 d8             	mov    %esi,-0x28(%ebp)
c0000e8b:	89 5d d4             	mov    %ebx,-0x2c(%ebp)
c0000e8e:	8b 45 d8             	mov    -0x28(%ebp),%eax
c0000e91:	8b 55 e8             	mov    -0x18(%ebp),%edx
c0000e94:	89 85 40 ff ff ff    	mov    %eax,-0xc0(%ebp)
c0000e9a:	89 95 44 ff ff ff    	mov    %edx,-0xbc(%ebp)
c0000ea0:	8b 45 d4             	mov    -0x2c(%ebp),%eax
c0000ea3:	03 45 e4             	add    -0x1c(%ebp),%eax
c0000ea6:	0f b6 10             	movzbl (%eax),%edx
c0000ea9:	8d 45 92             	lea    -0x6e(%ebp),%eax
c0000eac:	03 45 f0             	add    -0x10(%ebp),%eax
c0000eaf:	88 10                	mov    %dl,(%eax)
c0000eb1:	83 45 f0 01          	addl   $0x1,-0x10(%ebp)
c0000eb5:	8b 85 40 ff ff ff    	mov    -0xc0(%ebp),%eax
c0000ebb:	8b 95 44 ff ff ff    	mov    -0xbc(%ebp),%edx
c0000ec1:	09 d0                	or     %edx,%eax
c0000ec3:	85 c0                	test   %eax,%eax
c0000ec5:	0f 85 4c ff ff ff    	jne    c0000e17 <number+0x1d1>
c0000ecb:	8b 45 f0             	mov    -0x10(%ebp),%eax
c0000ece:	3b 45 20             	cmp    0x20(%ebp),%eax
c0000ed1:	7e 06                	jle    c0000ed9 <number+0x293>
c0000ed3:	8b 45 f0             	mov    -0x10(%ebp),%eax
c0000ed6:	89 45 20             	mov    %eax,0x20(%ebp)
c0000ed9:	8b 45 20             	mov    0x20(%ebp),%eax
c0000edc:	29 45 1c             	sub    %eax,0x1c(%ebp)
c0000edf:	8b 45 24             	mov    0x24(%ebp),%eax
c0000ee2:	83 e0 11             	and    $0x11,%eax
c0000ee5:	85 c0                	test   %eax,%eax
c0000ee7:	75 23                	jne    c0000f0c <number+0x2c6>
c0000ee9:	eb 12                	jmp    c0000efd <number+0x2b7>
c0000eeb:	8b 45 08             	mov    0x8(%ebp),%eax
c0000eee:	3b 45 0c             	cmp    0xc(%ebp),%eax
c0000ef1:	77 06                	ja     c0000ef9 <number+0x2b3>
c0000ef3:	8b 45 08             	mov    0x8(%ebp),%eax
c0000ef6:	c6 00 20             	movb   $0x20,(%eax)
c0000ef9:	83 45 08 01          	addl   $0x1,0x8(%ebp)
c0000efd:	83 7d 1c 00          	cmpl   $0x0,0x1c(%ebp)
c0000f01:	0f 9f c0             	setg   %al
c0000f04:	83 6d 1c 01          	subl   $0x1,0x1c(%ebp)
c0000f08:	84 c0                	test   %al,%al
c0000f0a:	75 df                	jne    c0000eeb <number+0x2a5>
c0000f0c:	80 7d f7 00          	cmpb   $0x0,-0x9(%ebp)
c0000f10:	74 15                	je     c0000f27 <number+0x2e1>
c0000f12:	8b 45 08             	mov    0x8(%ebp),%eax
c0000f15:	3b 45 0c             	cmp    0xc(%ebp),%eax
c0000f18:	77 09                	ja     c0000f23 <number+0x2dd>
c0000f1a:	8b 45 08             	mov    0x8(%ebp),%eax
c0000f1d:	0f b6 55 f7          	movzbl -0x9(%ebp),%edx
c0000f21:	88 10                	mov    %dl,(%eax)
c0000f23:	83 45 08 01          	addl   $0x1,0x8(%ebp)
c0000f27:	8b 45 24             	mov    0x24(%ebp),%eax
c0000f2a:	83 e0 20             	and    $0x20,%eax
c0000f2d:	85 c0                	test   %eax,%eax
c0000f2f:	74 4c                	je     c0000f7d <number+0x337>
c0000f31:	83 7d 18 08          	cmpl   $0x8,0x18(%ebp)
c0000f35:	75 14                	jne    c0000f4b <number+0x305>
c0000f37:	8b 45 08             	mov    0x8(%ebp),%eax
c0000f3a:	3b 45 0c             	cmp    0xc(%ebp),%eax
c0000f3d:	77 06                	ja     c0000f45 <number+0x2ff>
c0000f3f:	8b 45 08             	mov    0x8(%ebp),%eax
c0000f42:	c6 00 30             	movb   $0x30,(%eax)
c0000f45:	83 45 08 01          	addl   $0x1,0x8(%ebp)
c0000f49:	eb 32                	jmp    c0000f7d <number+0x337>
c0000f4b:	83 7d 18 10          	cmpl   $0x10,0x18(%ebp)
c0000f4f:	75 2c                	jne    c0000f7d <number+0x337>
c0000f51:	8b 45 08             	mov    0x8(%ebp),%eax
c0000f54:	3b 45 0c             	cmp    0xc(%ebp),%eax
c0000f57:	77 06                	ja     c0000f5f <number+0x319>
c0000f59:	8b 45 08             	mov    0x8(%ebp),%eax
c0000f5c:	c6 00 30             	movb   $0x30,(%eax)
c0000f5f:	83 45 08 01          	addl   $0x1,0x8(%ebp)
c0000f63:	8b 45 08             	mov    0x8(%ebp),%eax
c0000f66:	3b 45 0c             	cmp    0xc(%ebp),%eax
c0000f69:	77 0e                	ja     c0000f79 <number+0x333>
c0000f6b:	8b 45 e4             	mov    -0x1c(%ebp),%eax
c0000f6e:	83 c0 21             	add    $0x21,%eax
c0000f71:	0f b6 10             	movzbl (%eax),%edx
c0000f74:	8b 45 08             	mov    0x8(%ebp),%eax
c0000f77:	88 10                	mov    %dl,(%eax)
c0000f79:	83 45 08 01          	addl   $0x1,0x8(%ebp)
c0000f7d:	8b 45 24             	mov    0x24(%ebp),%eax
c0000f80:	83 e0 10             	and    $0x10,%eax
c0000f83:	85 c0                	test   %eax,%eax
c0000f85:	75 3c                	jne    c0000fc3 <number+0x37d>
c0000f87:	eb 15                	jmp    c0000f9e <number+0x358>
c0000f89:	8b 45 08             	mov    0x8(%ebp),%eax
c0000f8c:	3b 45 0c             	cmp    0xc(%ebp),%eax
c0000f8f:	77 09                	ja     c0000f9a <number+0x354>
c0000f91:	8b 45 08             	mov    0x8(%ebp),%eax
c0000f94:	0f b6 55 e3          	movzbl -0x1d(%ebp),%edx
c0000f98:	88 10                	mov    %dl,(%eax)
c0000f9a:	83 45 08 01          	addl   $0x1,0x8(%ebp)
c0000f9e:	83 7d 1c 00          	cmpl   $0x0,0x1c(%ebp)
c0000fa2:	0f 9f c0             	setg   %al
c0000fa5:	83 6d 1c 01          	subl   $0x1,0x1c(%ebp)
c0000fa9:	84 c0                	test   %al,%al
c0000fab:	75 dc                	jne    c0000f89 <number+0x343>
c0000fad:	eb 15                	jmp    c0000fc4 <number+0x37e>
c0000faf:	8b 45 08             	mov    0x8(%ebp),%eax
c0000fb2:	3b 45 0c             	cmp    0xc(%ebp),%eax
c0000fb5:	77 06                	ja     c0000fbd <number+0x377>
c0000fb7:	8b 45 08             	mov    0x8(%ebp),%eax
c0000fba:	c6 00 30             	movb   $0x30,(%eax)
c0000fbd:	83 45 08 01          	addl   $0x1,0x8(%ebp)
c0000fc1:	eb 01                	jmp    c0000fc4 <number+0x37e>
c0000fc3:	90                   	nop
c0000fc4:	8b 45 20             	mov    0x20(%ebp),%eax
c0000fc7:	3b 45 f0             	cmp    -0x10(%ebp),%eax
c0000fca:	0f 9f c0             	setg   %al
c0000fcd:	83 6d 20 01          	subl   $0x1,0x20(%ebp)
c0000fd1:	84 c0                	test   %al,%al
c0000fd3:	75 da                	jne    c0000faf <number+0x369>
c0000fd5:	eb 1a                	jmp    c0000ff1 <number+0x3ab>
c0000fd7:	8b 45 08             	mov    0x8(%ebp),%eax
c0000fda:	3b 45 0c             	cmp    0xc(%ebp),%eax
c0000fdd:	77 0e                	ja     c0000fed <number+0x3a7>
c0000fdf:	8d 45 92             	lea    -0x6e(%ebp),%eax
c0000fe2:	03 45 f0             	add    -0x10(%ebp),%eax
c0000fe5:	0f b6 10             	movzbl (%eax),%edx
c0000fe8:	8b 45 08             	mov    0x8(%ebp),%eax
c0000feb:	88 10                	mov    %dl,(%eax)
c0000fed:	83 45 08 01          	addl   $0x1,0x8(%ebp)
c0000ff1:	83 7d f0 00          	cmpl   $0x0,-0x10(%ebp)
c0000ff5:	0f 9f c0             	setg   %al
c0000ff8:	83 6d f0 01          	subl   $0x1,-0x10(%ebp)
c0000ffc:	84 c0                	test   %al,%al
c0000ffe:	75 d7                	jne    c0000fd7 <number+0x391>
c0001000:	eb 12                	jmp    c0001014 <number+0x3ce>
c0001002:	8b 45 08             	mov    0x8(%ebp),%eax
c0001005:	3b 45 0c             	cmp    0xc(%ebp),%eax
c0001008:	77 06                	ja     c0001010 <number+0x3ca>
c000100a:	8b 45 08             	mov    0x8(%ebp),%eax
c000100d:	c6 00 20             	movb   $0x20,(%eax)
c0001010:	83 45 08 01          	addl   $0x1,0x8(%ebp)
c0001014:	83 7d 1c 00          	cmpl   $0x0,0x1c(%ebp)
c0001018:	0f 9f c0             	setg   %al
c000101b:	83 6d 1c 01          	subl   $0x1,0x1c(%ebp)
c000101f:	84 c0                	test   %al,%al
c0001021:	75 df                	jne    c0001002 <number+0x3bc>
c0001023:	8b 45 08             	mov    0x8(%ebp),%eax
c0001026:	81 c4 c0 00 00 00    	add    $0xc0,%esp
c000102c:	5b                   	pop    %ebx
c000102d:	5e                   	pop    %esi
c000102e:	5d                   	pop    %ebp
c000102f:	c3                   	ret    

c0001030 <vsnprintf>:
vsnprintf():
c0001030:	55                   	push   %ebp
c0001031:	89 e5                	mov    %esp,%ebp
c0001033:	83 ec 68             	sub    $0x68,%esp
c0001036:	8b 45 08             	mov    0x8(%ebp),%eax
c0001039:	89 45 e4             	mov    %eax,-0x1c(%ebp)
c000103c:	8b 45 0c             	mov    0xc(%ebp),%eax
c000103f:	83 e8 01             	sub    $0x1,%eax
c0001042:	03 45 08             	add    0x8(%ebp),%eax
c0001045:	89 45 e0             	mov    %eax,-0x20(%ebp)
c0001048:	8b 45 08             	mov    0x8(%ebp),%eax
c000104b:	83 e8 01             	sub    $0x1,%eax
c000104e:	3b 45 e0             	cmp    -0x20(%ebp),%eax
c0001051:	0f 86 9b 05 00 00    	jbe    c00015f2 <vsnprintf+0x5c2>
c0001057:	c7 45 e0 ff ff ff ff 	movl   $0xffffffff,-0x20(%ebp)
c000105e:	8b 55 e0             	mov    -0x20(%ebp),%edx
c0001061:	8b 45 08             	mov    0x8(%ebp),%eax
c0001064:	89 d1                	mov    %edx,%ecx
c0001066:	29 c1                	sub    %eax,%ecx
c0001068:	89 c8                	mov    %ecx,%eax
c000106a:	83 c0 01             	add    $0x1,%eax
c000106d:	89 45 0c             	mov    %eax,0xc(%ebp)
c0001070:	e9 7e 05 00 00       	jmp    c00015f3 <vsnprintf+0x5c3>
c0001075:	8b 45 10             	mov    0x10(%ebp),%eax
c0001078:	0f b6 00             	movzbl (%eax),%eax
c000107b:	3c 25                	cmp    $0x25,%al
c000107d:	74 1c                	je     c000109b <vsnprintf+0x6b>
c000107f:	8b 45 e4             	mov    -0x1c(%ebp),%eax
c0001082:	3b 45 e0             	cmp    -0x20(%ebp),%eax
c0001085:	77 0b                	ja     c0001092 <vsnprintf+0x62>
c0001087:	8b 45 10             	mov    0x10(%ebp),%eax
c000108a:	0f b6 10             	movzbl (%eax),%edx
c000108d:	8b 45 e4             	mov    -0x1c(%ebp),%eax
c0001090:	88 10                	mov    %dl,(%eax)
c0001092:	83 45 e4 01          	addl   $0x1,-0x1c(%ebp)
c0001096:	e9 4c 05 00 00       	jmp    c00015e7 <vsnprintf+0x5b7>
c000109b:	c7 45 d8 00 00 00 00 	movl   $0x0,-0x28(%ebp)
c00010a2:	8b 45 10             	mov    0x10(%ebp),%eax
c00010a5:	83 c0 01             	add    $0x1,%eax
c00010a8:	89 45 10             	mov    %eax,0x10(%ebp)
c00010ab:	8b 45 10             	mov    0x10(%ebp),%eax
c00010ae:	0f b6 00             	movzbl (%eax),%eax
c00010b1:	0f be c0             	movsbl %al,%eax
c00010b4:	83 e8 20             	sub    $0x20,%eax
c00010b7:	83 f8 10             	cmp    $0x10,%eax
c00010ba:	77 27                	ja     c00010e3 <vsnprintf+0xb3>
c00010bc:	8b 04 85 6c 17 00 c0 	mov    -0x3fffe894(,%eax,4),%eax
c00010c3:	ff e0                	jmp    *%eax
c00010c5:	83 4d d8 10          	orl    $0x10,-0x28(%ebp)
c00010c9:	eb d7                	jmp    c00010a2 <vsnprintf+0x72>
c00010cb:	83 4d d8 04          	orl    $0x4,-0x28(%ebp)
c00010cf:	eb d1                	jmp    c00010a2 <vsnprintf+0x72>
c00010d1:	83 4d d8 08          	orl    $0x8,-0x28(%ebp)
c00010d5:	eb cb                	jmp    c00010a2 <vsnprintf+0x72>
c00010d7:	83 4d d8 20          	orl    $0x20,-0x28(%ebp)
c00010db:	eb c5                	jmp    c00010a2 <vsnprintf+0x72>
c00010dd:	83 4d d8 01          	orl    $0x1,-0x28(%ebp)
c00010e1:	eb bf                	jmp    c00010a2 <vsnprintf+0x72>
c00010e3:	c7 45 d4 ff ff ff ff 	movl   $0xffffffff,-0x2c(%ebp)
c00010ea:	8b 45 10             	mov    0x10(%ebp),%eax
c00010ed:	0f b6 00             	movzbl (%eax),%eax
c00010f0:	0f b6 c0             	movzbl %al,%eax
c00010f3:	0f b6 80 20 20 00 c0 	movzbl -0x3fffdfe0(%eax),%eax
c00010fa:	0f b6 c0             	movzbl %al,%eax
c00010fd:	83 e0 04             	and    $0x4,%eax
c0001100:	85 c0                	test   %eax,%eax
c0001102:	74 10                	je     c0001114 <vsnprintf+0xe4>
c0001104:	8d 45 10             	lea    0x10(%ebp),%eax
c0001107:	89 04 24             	mov    %eax,(%esp)
c000110a:	e8 dd fa ff ff       	call   c0000bec <skip_atoi>
c000110f:	89 45 d4             	mov    %eax,-0x2c(%ebp)
c0001112:	eb 2f                	jmp    c0001143 <vsnprintf+0x113>
c0001114:	8b 45 10             	mov    0x10(%ebp),%eax
c0001117:	0f b6 00             	movzbl (%eax),%eax
c000111a:	3c 2a                	cmp    $0x2a,%al
c000111c:	75 25                	jne    c0001143 <vsnprintf+0x113>
c000111e:	8b 45 10             	mov    0x10(%ebp),%eax
c0001121:	83 c0 01             	add    $0x1,%eax
c0001124:	89 45 10             	mov    %eax,0x10(%ebp)
c0001127:	83 45 14 04          	addl   $0x4,0x14(%ebp)
c000112b:	8b 45 14             	mov    0x14(%ebp),%eax
c000112e:	83 e8 04             	sub    $0x4,%eax
c0001131:	8b 00                	mov    (%eax),%eax
c0001133:	89 45 d4             	mov    %eax,-0x2c(%ebp)
c0001136:	83 7d d4 00          	cmpl   $0x0,-0x2c(%ebp)
c000113a:	79 07                	jns    c0001143 <vsnprintf+0x113>
c000113c:	f7 5d d4             	negl   -0x2c(%ebp)
c000113f:	83 4d d8 10          	orl    $0x10,-0x28(%ebp)
c0001143:	c7 45 d0 ff ff ff ff 	movl   $0xffffffff,-0x30(%ebp)
c000114a:	8b 45 10             	mov    0x10(%ebp),%eax
c000114d:	0f b6 00             	movzbl (%eax),%eax
c0001150:	3c 2e                	cmp    $0x2e,%al
c0001152:	75 62                	jne    c00011b6 <vsnprintf+0x186>
c0001154:	8b 45 10             	mov    0x10(%ebp),%eax
c0001157:	83 c0 01             	add    $0x1,%eax
c000115a:	89 45 10             	mov    %eax,0x10(%ebp)
c000115d:	8b 45 10             	mov    0x10(%ebp),%eax
c0001160:	0f b6 00             	movzbl (%eax),%eax
c0001163:	0f b6 c0             	movzbl %al,%eax
c0001166:	0f b6 80 20 20 00 c0 	movzbl -0x3fffdfe0(%eax),%eax
c000116d:	0f b6 c0             	movzbl %al,%eax
c0001170:	83 e0 04             	and    $0x4,%eax
c0001173:	85 c0                	test   %eax,%eax
c0001175:	74 10                	je     c0001187 <vsnprintf+0x157>
c0001177:	8d 45 10             	lea    0x10(%ebp),%eax
c000117a:	89 04 24             	mov    %eax,(%esp)
c000117d:	e8 6a fa ff ff       	call   c0000bec <skip_atoi>
c0001182:	89 45 d0             	mov    %eax,-0x30(%ebp)
c0001185:	eb 22                	jmp    c00011a9 <vsnprintf+0x179>
c0001187:	8b 45 10             	mov    0x10(%ebp),%eax
c000118a:	0f b6 00             	movzbl (%eax),%eax
c000118d:	3c 2a                	cmp    $0x2a,%al
c000118f:	75 18                	jne    c00011a9 <vsnprintf+0x179>
c0001191:	8b 45 10             	mov    0x10(%ebp),%eax
c0001194:	83 c0 01             	add    $0x1,%eax
c0001197:	89 45 10             	mov    %eax,0x10(%ebp)
c000119a:	83 45 14 04          	addl   $0x4,0x14(%ebp)
c000119e:	8b 45 14             	mov    0x14(%ebp),%eax
c00011a1:	83 e8 04             	sub    $0x4,%eax
c00011a4:	8b 00                	mov    (%eax),%eax
c00011a6:	89 45 d0             	mov    %eax,-0x30(%ebp)
c00011a9:	83 7d d0 00          	cmpl   $0x0,-0x30(%ebp)
c00011ad:	79 07                	jns    c00011b6 <vsnprintf+0x186>
c00011af:	c7 45 d0 00 00 00 00 	movl   $0x0,-0x30(%ebp)
c00011b6:	c7 45 cc ff ff ff ff 	movl   $0xffffffff,-0x34(%ebp)
c00011bd:	8b 45 10             	mov    0x10(%ebp),%eax
c00011c0:	0f b6 00             	movzbl (%eax),%eax
c00011c3:	3c 68                	cmp    $0x68,%al
c00011c5:	74 1e                	je     c00011e5 <vsnprintf+0x1b5>
c00011c7:	8b 45 10             	mov    0x10(%ebp),%eax
c00011ca:	0f b6 00             	movzbl (%eax),%eax
c00011cd:	3c 6c                	cmp    $0x6c,%al
c00011cf:	74 14                	je     c00011e5 <vsnprintf+0x1b5>
c00011d1:	8b 45 10             	mov    0x10(%ebp),%eax
c00011d4:	0f b6 00             	movzbl (%eax),%eax
c00011d7:	3c 4c                	cmp    $0x4c,%al
c00011d9:	74 0a                	je     c00011e5 <vsnprintf+0x1b5>
c00011db:	8b 45 10             	mov    0x10(%ebp),%eax
c00011de:	0f b6 00             	movzbl (%eax),%eax
c00011e1:	3c 5a                	cmp    $0x5a,%al
c00011e3:	75 35                	jne    c000121a <vsnprintf+0x1ea>
c00011e5:	8b 45 10             	mov    0x10(%ebp),%eax
c00011e8:	0f b6 00             	movzbl (%eax),%eax
c00011eb:	0f be c0             	movsbl %al,%eax
c00011ee:	89 45 cc             	mov    %eax,-0x34(%ebp)
c00011f1:	8b 45 10             	mov    0x10(%ebp),%eax
c00011f4:	83 c0 01             	add    $0x1,%eax
c00011f7:	89 45 10             	mov    %eax,0x10(%ebp)
c00011fa:	83 7d cc 6c          	cmpl   $0x6c,-0x34(%ebp)
c00011fe:	75 1a                	jne    c000121a <vsnprintf+0x1ea>
c0001200:	8b 45 10             	mov    0x10(%ebp),%eax
c0001203:	0f b6 00             	movzbl (%eax),%eax
c0001206:	3c 6c                	cmp    $0x6c,%al
c0001208:	75 10                	jne    c000121a <vsnprintf+0x1ea>
c000120a:	c7 45 cc 4c 00 00 00 	movl   $0x4c,-0x34(%ebp)
c0001211:	8b 45 10             	mov    0x10(%ebp),%eax
c0001214:	83 c0 01             	add    $0x1,%eax
c0001217:	89 45 10             	mov    %eax,0x10(%ebp)
c000121a:	c7 45 e8 0a 00 00 00 	movl   $0xa,-0x18(%ebp)
c0001221:	8b 45 10             	mov    0x10(%ebp),%eax
c0001224:	0f b6 00             	movzbl (%eax),%eax
c0001227:	0f be c0             	movsbl %al,%eax
c000122a:	83 e8 25             	sub    $0x25,%eax
c000122d:	83 f8 53             	cmp    $0x53,%eax
c0001230:	0f 87 44 02 00 00    	ja     c000147a <vsnprintf+0x44a>
c0001236:	8b 04 85 b0 17 00 c0 	mov    -0x3fffe850(,%eax,4),%eax
c000123d:	ff e0                	jmp    *%eax
c000123f:	8b 45 d8             	mov    -0x28(%ebp),%eax
c0001242:	83 e0 10             	and    $0x10,%eax
c0001245:	85 c0                	test   %eax,%eax
c0001247:	75 1e                	jne    c0001267 <vsnprintf+0x237>
c0001249:	eb 12                	jmp    c000125d <vsnprintf+0x22d>
c000124b:	8b 45 e4             	mov    -0x1c(%ebp),%eax
c000124e:	3b 45 e0             	cmp    -0x20(%ebp),%eax
c0001251:	77 06                	ja     c0001259 <vsnprintf+0x229>
c0001253:	8b 45 e4             	mov    -0x1c(%ebp),%eax
c0001256:	c6 00 20             	movb   $0x20,(%eax)
c0001259:	83 45 e4 01          	addl   $0x1,-0x1c(%ebp)
c000125d:	83 6d d4 01          	subl   $0x1,-0x2c(%ebp)
c0001261:	83 7d d4 00          	cmpl   $0x0,-0x2c(%ebp)
c0001265:	7f e4                	jg     c000124b <vsnprintf+0x21b>
c0001267:	83 45 14 04          	addl   $0x4,0x14(%ebp)
c000126b:	8b 45 14             	mov    0x14(%ebp),%eax
c000126e:	83 e8 04             	sub    $0x4,%eax
c0001271:	8b 00                	mov    (%eax),%eax
c0001273:	88 45 cb             	mov    %al,-0x35(%ebp)
c0001276:	8b 45 e4             	mov    -0x1c(%ebp),%eax
c0001279:	3b 45 e0             	cmp    -0x20(%ebp),%eax
c000127c:	77 09                	ja     c0001287 <vsnprintf+0x257>
c000127e:	8b 45 e4             	mov    -0x1c(%ebp),%eax
c0001281:	0f b6 55 cb          	movzbl -0x35(%ebp),%edx
c0001285:	88 10                	mov    %dl,(%eax)
c0001287:	83 45 e4 01          	addl   $0x1,-0x1c(%ebp)
c000128b:	eb 12                	jmp    c000129f <vsnprintf+0x26f>
c000128d:	8b 45 e4             	mov    -0x1c(%ebp),%eax
c0001290:	3b 45 e0             	cmp    -0x20(%ebp),%eax
c0001293:	77 06                	ja     c000129b <vsnprintf+0x26b>
c0001295:	8b 45 e4             	mov    -0x1c(%ebp),%eax
c0001298:	c6 00 20             	movb   $0x20,(%eax)
c000129b:	83 45 e4 01          	addl   $0x1,-0x1c(%ebp)
c000129f:	83 6d d4 01          	subl   $0x1,-0x2c(%ebp)
c00012a3:	83 7d d4 00          	cmpl   $0x0,-0x2c(%ebp)
c00012a7:	7f e4                	jg     c000128d <vsnprintf+0x25d>
c00012a9:	e9 39 03 00 00       	jmp    c00015e7 <vsnprintf+0x5b7>
c00012ae:	83 45 14 04          	addl   $0x4,0x14(%ebp)
c00012b2:	8b 45 14             	mov    0x14(%ebp),%eax
c00012b5:	83 e8 04             	sub    $0x4,%eax
c00012b8:	8b 00                	mov    (%eax),%eax
c00012ba:	89 45 dc             	mov    %eax,-0x24(%ebp)
c00012bd:	83 7d dc 00          	cmpl   $0x0,-0x24(%ebp)
c00012c1:	75 07                	jne    c00012ca <vsnprintf+0x29a>
c00012c3:	c7 45 dc 64 17 00 c0 	movl   $0xc0001764,-0x24(%ebp)
c00012ca:	8b 45 d0             	mov    -0x30(%ebp),%eax
c00012cd:	89 44 24 04          	mov    %eax,0x4(%esp)
c00012d1:	8b 45 dc             	mov    -0x24(%ebp),%eax
c00012d4:	89 04 24             	mov    %eax,(%esp)
c00012d7:	e8 c7 f8 ff ff       	call   c0000ba3 <strnlen>
c00012dc:	89 45 c4             	mov    %eax,-0x3c(%ebp)
c00012df:	8b 45 d8             	mov    -0x28(%ebp),%eax
c00012e2:	83 e0 10             	and    $0x10,%eax
c00012e5:	85 c0                	test   %eax,%eax
c00012e7:	75 25                	jne    c000130e <vsnprintf+0x2de>
c00012e9:	eb 12                	jmp    c00012fd <vsnprintf+0x2cd>
c00012eb:	8b 45 e4             	mov    -0x1c(%ebp),%eax
c00012ee:	3b 45 e0             	cmp    -0x20(%ebp),%eax
c00012f1:	77 06                	ja     c00012f9 <vsnprintf+0x2c9>
c00012f3:	8b 45 e4             	mov    -0x1c(%ebp),%eax
c00012f6:	c6 00 20             	movb   $0x20,(%eax)
c00012f9:	83 45 e4 01          	addl   $0x1,-0x1c(%ebp)
c00012fd:	8b 45 d4             	mov    -0x2c(%ebp),%eax
c0001300:	3b 45 c4             	cmp    -0x3c(%ebp),%eax
c0001303:	0f 9f c0             	setg   %al
c0001306:	83 6d d4 01          	subl   $0x1,-0x2c(%ebp)
c000130a:	84 c0                	test   %al,%al
c000130c:	75 dd                	jne    c00012eb <vsnprintf+0x2bb>
c000130e:	c7 45 ec 00 00 00 00 	movl   $0x0,-0x14(%ebp)
c0001315:	eb 1f                	jmp    c0001336 <vsnprintf+0x306>
c0001317:	8b 45 e4             	mov    -0x1c(%ebp),%eax
c000131a:	3b 45 e0             	cmp    -0x20(%ebp),%eax
c000131d:	77 0b                	ja     c000132a <vsnprintf+0x2fa>
c000131f:	8b 45 dc             	mov    -0x24(%ebp),%eax
c0001322:	0f b6 10             	movzbl (%eax),%edx
c0001325:	8b 45 e4             	mov    -0x1c(%ebp),%eax
c0001328:	88 10                	mov    %dl,(%eax)
c000132a:	83 45 e4 01          	addl   $0x1,-0x1c(%ebp)
c000132e:	83 45 dc 01          	addl   $0x1,-0x24(%ebp)
c0001332:	83 45 ec 01          	addl   $0x1,-0x14(%ebp)
c0001336:	8b 45 ec             	mov    -0x14(%ebp),%eax
c0001339:	3b 45 c4             	cmp    -0x3c(%ebp),%eax
c000133c:	7c d9                	jl     c0001317 <vsnprintf+0x2e7>
c000133e:	eb 12                	jmp    c0001352 <vsnprintf+0x322>
c0001340:	8b 45 e4             	mov    -0x1c(%ebp),%eax
c0001343:	3b 45 e0             	cmp    -0x20(%ebp),%eax
c0001346:	77 06                	ja     c000134e <vsnprintf+0x31e>
c0001348:	8b 45 e4             	mov    -0x1c(%ebp),%eax
c000134b:	c6 00 20             	movb   $0x20,(%eax)
c000134e:	83 45 e4 01          	addl   $0x1,-0x1c(%ebp)
c0001352:	8b 45 d4             	mov    -0x2c(%ebp),%eax
c0001355:	3b 45 c4             	cmp    -0x3c(%ebp),%eax
c0001358:	0f 9f c0             	setg   %al
c000135b:	83 6d d4 01          	subl   $0x1,-0x2c(%ebp)
c000135f:	84 c0                	test   %al,%al
c0001361:	75 dd                	jne    c0001340 <vsnprintf+0x310>
c0001363:	e9 7f 02 00 00       	jmp    c00015e7 <vsnprintf+0x5b7>
c0001368:	83 7d d4 ff          	cmpl   $0xffffffff,-0x2c(%ebp)
c000136c:	75 0b                	jne    c0001379 <vsnprintf+0x349>
c000136e:	c7 45 d4 08 00 00 00 	movl   $0x8,-0x2c(%ebp)
c0001375:	83 4d d8 01          	orl    $0x1,-0x28(%ebp)
c0001379:	83 45 14 04          	addl   $0x4,0x14(%ebp)
c000137d:	8b 45 14             	mov    0x14(%ebp),%eax
c0001380:	83 e8 04             	sub    $0x4,%eax
c0001383:	8b 00                	mov    (%eax),%eax
c0001385:	ba 00 00 00 00       	mov    $0x0,%edx
c000138a:	8b 4d d8             	mov    -0x28(%ebp),%ecx
c000138d:	89 4c 24 1c          	mov    %ecx,0x1c(%esp)
c0001391:	8b 4d d0             	mov    -0x30(%ebp),%ecx
c0001394:	89 4c 24 18          	mov    %ecx,0x18(%esp)
c0001398:	8b 4d d4             	mov    -0x2c(%ebp),%ecx
c000139b:	89 4c 24 14          	mov    %ecx,0x14(%esp)
c000139f:	c7 44 24 10 10 00 00 	movl   $0x10,0x10(%esp)
c00013a6:	00 
c00013a7:	89 44 24 08          	mov    %eax,0x8(%esp)
c00013ab:	89 54 24 0c          	mov    %edx,0xc(%esp)
c00013af:	8b 45 e0             	mov    -0x20(%ebp),%eax
c00013b2:	89 44 24 04          	mov    %eax,0x4(%esp)
c00013b6:	8b 45 e4             	mov    -0x1c(%ebp),%eax
c00013b9:	89 04 24             	mov    %eax,(%esp)
c00013bc:	e8 85 f8 ff ff       	call   c0000c46 <number>
c00013c1:	89 45 e4             	mov    %eax,-0x1c(%ebp)
c00013c4:	e9 1e 02 00 00       	jmp    c00015e7 <vsnprintf+0x5b7>
c00013c9:	83 7d cc 6c          	cmpl   $0x6c,-0x34(%ebp)
c00013cd:	75 21                	jne    c00013f0 <vsnprintf+0x3c0>
c00013cf:	83 45 14 04          	addl   $0x4,0x14(%ebp)
c00013d3:	8b 45 14             	mov    0x14(%ebp),%eax
c00013d6:	83 e8 04             	sub    $0x4,%eax
c00013d9:	8b 00                	mov    (%eax),%eax
c00013db:	89 45 c0             	mov    %eax,-0x40(%ebp)
c00013de:	8b 55 e4             	mov    -0x1c(%ebp),%edx
c00013e1:	8b 45 08             	mov    0x8(%ebp),%eax
c00013e4:	29 c2                	sub    %eax,%edx
c00013e6:	8b 45 c0             	mov    -0x40(%ebp),%eax
c00013e9:	89 10                	mov    %edx,(%eax)
c00013eb:	e9 f7 01 00 00       	jmp    c00015e7 <vsnprintf+0x5b7>
c00013f0:	83 7d cc 5a          	cmpl   $0x5a,-0x34(%ebp)
c00013f4:	75 27                	jne    c000141d <vsnprintf+0x3ed>
c00013f6:	83 45 14 04          	addl   $0x4,0x14(%ebp)
c00013fa:	8b 45 14             	mov    0x14(%ebp),%eax
c00013fd:	83 e8 04             	sub    $0x4,%eax
c0001400:	8b 00                	mov    (%eax),%eax
c0001402:	89 45 bc             	mov    %eax,-0x44(%ebp)
c0001405:	8b 55 e4             	mov    -0x1c(%ebp),%edx
c0001408:	8b 45 08             	mov    0x8(%ebp),%eax
c000140b:	89 d1                	mov    %edx,%ecx
c000140d:	29 c1                	sub    %eax,%ecx
c000140f:	89 c8                	mov    %ecx,%eax
c0001411:	89 c2                	mov    %eax,%edx
c0001413:	8b 45 bc             	mov    -0x44(%ebp),%eax
c0001416:	89 10                	mov    %edx,(%eax)
c0001418:	e9 ca 01 00 00       	jmp    c00015e7 <vsnprintf+0x5b7>
c000141d:	83 45 14 04          	addl   $0x4,0x14(%ebp)
c0001421:	8b 45 14             	mov    0x14(%ebp),%eax
c0001424:	83 e8 04             	sub    $0x4,%eax
c0001427:	8b 00                	mov    (%eax),%eax
c0001429:	89 45 b8             	mov    %eax,-0x48(%ebp)
c000142c:	8b 55 e4             	mov    -0x1c(%ebp),%edx
c000142f:	8b 45 08             	mov    0x8(%ebp),%eax
c0001432:	29 c2                	sub    %eax,%edx
c0001434:	8b 45 b8             	mov    -0x48(%ebp),%eax
c0001437:	89 10                	mov    %edx,(%eax)
c0001439:	e9 a9 01 00 00       	jmp    c00015e7 <vsnprintf+0x5b7>
c000143e:	8b 45 e4             	mov    -0x1c(%ebp),%eax
c0001441:	3b 45 e0             	cmp    -0x20(%ebp),%eax
c0001444:	77 06                	ja     c000144c <vsnprintf+0x41c>
c0001446:	8b 45 e4             	mov    -0x1c(%ebp),%eax
c0001449:	c6 00 25             	movb   $0x25,(%eax)
c000144c:	83 45 e4 01          	addl   $0x1,-0x1c(%ebp)
c0001450:	e9 92 01 00 00       	jmp    c00015e7 <vsnprintf+0x5b7>
c0001455:	c7 45 e8 08 00 00 00 	movl   $0x8,-0x18(%ebp)
c000145c:	eb 63                	jmp    c00014c1 <vsnprintf+0x491>
c000145e:	83 4d d8 40          	orl    $0x40,-0x28(%ebp)
c0001462:	c7 45 e8 10 00 00 00 	movl   $0x10,-0x18(%ebp)
c0001469:	eb 56                	jmp    c00014c1 <vsnprintf+0x491>
c000146b:	c7 45 e8 10 00 00 00 	movl   $0x10,-0x18(%ebp)
c0001472:	eb 4d                	jmp    c00014c1 <vsnprintf+0x491>
c0001474:	83 4d d8 02          	orl    $0x2,-0x28(%ebp)
c0001478:	eb 47                	jmp    c00014c1 <vsnprintf+0x491>
c000147a:	8b 45 e4             	mov    -0x1c(%ebp),%eax
c000147d:	3b 45 e0             	cmp    -0x20(%ebp),%eax
c0001480:	77 06                	ja     c0001488 <vsnprintf+0x458>
c0001482:	8b 45 e4             	mov    -0x1c(%ebp),%eax
c0001485:	c6 00 25             	movb   $0x25,(%eax)
c0001488:	83 45 e4 01          	addl   $0x1,-0x1c(%ebp)
c000148c:	8b 45 10             	mov    0x10(%ebp),%eax
c000148f:	0f b6 00             	movzbl (%eax),%eax
c0001492:	84 c0                	test   %al,%al
c0001494:	74 1c                	je     c00014b2 <vsnprintf+0x482>
c0001496:	8b 45 e4             	mov    -0x1c(%ebp),%eax
c0001499:	3b 45 e0             	cmp    -0x20(%ebp),%eax
c000149c:	77 0b                	ja     c00014a9 <vsnprintf+0x479>
c000149e:	8b 45 10             	mov    0x10(%ebp),%eax
c00014a1:	0f b6 10             	movzbl (%eax),%edx
c00014a4:	8b 45 e4             	mov    -0x1c(%ebp),%eax
c00014a7:	88 10                	mov    %dl,(%eax)
c00014a9:	83 45 e4 01          	addl   $0x1,-0x1c(%ebp)
c00014ad:	e9 35 01 00 00       	jmp    c00015e7 <vsnprintf+0x5b7>
c00014b2:	8b 45 10             	mov    0x10(%ebp),%eax
c00014b5:	83 e8 01             	sub    $0x1,%eax
c00014b8:	89 45 10             	mov    %eax,0x10(%ebp)
c00014bb:	e9 27 01 00 00       	jmp    c00015e7 <vsnprintf+0x5b7>
c00014c0:	90                   	nop
c00014c1:	83 7d cc 4c          	cmpl   $0x4c,-0x34(%ebp)
c00014c5:	75 1a                	jne    c00014e1 <vsnprintf+0x4b1>
c00014c7:	83 45 14 08          	addl   $0x8,0x14(%ebp)
c00014cb:	8b 45 14             	mov    0x14(%ebp),%eax
c00014ce:	83 e8 08             	sub    $0x8,%eax
c00014d1:	8b 50 04             	mov    0x4(%eax),%edx
c00014d4:	8b 00                	mov    (%eax),%eax
c00014d6:	89 45 f0             	mov    %eax,-0x10(%ebp)
c00014d9:	89 55 f4             	mov    %edx,-0xc(%ebp)
c00014dc:	e9 c7 00 00 00       	jmp    c00015a8 <vsnprintf+0x578>
c00014e1:	83 7d cc 6c          	cmpl   $0x6c,-0x34(%ebp)
c00014e5:	75 38                	jne    c000151f <vsnprintf+0x4ef>
c00014e7:	83 45 14 04          	addl   $0x4,0x14(%ebp)
c00014eb:	8b 45 14             	mov    0x14(%ebp),%eax
c00014ee:	83 e8 04             	sub    $0x4,%eax
c00014f1:	8b 00                	mov    (%eax),%eax
c00014f3:	ba 00 00 00 00       	mov    $0x0,%edx
c00014f8:	89 45 f0             	mov    %eax,-0x10(%ebp)
c00014fb:	89 55 f4             	mov    %edx,-0xc(%ebp)
c00014fe:	8b 45 d8             	mov    -0x28(%ebp),%eax
c0001501:	83 e0 02             	and    $0x2,%eax
c0001504:	85 c0                	test   %eax,%eax
c0001506:	0f 84 9c 00 00 00    	je     c00015a8 <vsnprintf+0x578>
c000150c:	8b 45 f0             	mov    -0x10(%ebp),%eax
c000150f:	89 c2                	mov    %eax,%edx
c0001511:	c1 fa 1f             	sar    $0x1f,%edx
c0001514:	89 45 f0             	mov    %eax,-0x10(%ebp)
c0001517:	89 55 f4             	mov    %edx,-0xc(%ebp)
c000151a:	e9 89 00 00 00       	jmp    c00015a8 <vsnprintf+0x578>
c000151f:	83 7d cc 5a          	cmpl   $0x5a,-0x34(%ebp)
c0001523:	75 19                	jne    c000153e <vsnprintf+0x50e>
c0001525:	83 45 14 04          	addl   $0x4,0x14(%ebp)
c0001529:	8b 45 14             	mov    0x14(%ebp),%eax
c000152c:	83 e8 04             	sub    $0x4,%eax
c000152f:	8b 00                	mov    (%eax),%eax
c0001531:	ba 00 00 00 00       	mov    $0x0,%edx
c0001536:	89 45 f0             	mov    %eax,-0x10(%ebp)
c0001539:	89 55 f4             	mov    %edx,-0xc(%ebp)
c000153c:	eb 6a                	jmp    c00015a8 <vsnprintf+0x578>
c000153e:	83 7d cc 68          	cmpl   $0x68,-0x34(%ebp)
c0001542:	75 35                	jne    c0001579 <vsnprintf+0x549>
c0001544:	83 45 14 04          	addl   $0x4,0x14(%ebp)
c0001548:	8b 45 14             	mov    0x14(%ebp),%eax
c000154b:	83 e8 04             	sub    $0x4,%eax
c000154e:	8b 00                	mov    (%eax),%eax
c0001550:	0f b7 c0             	movzwl %ax,%eax
c0001553:	ba 00 00 00 00       	mov    $0x0,%edx
c0001558:	89 45 f0             	mov    %eax,-0x10(%ebp)
c000155b:	89 55 f4             	mov    %edx,-0xc(%ebp)
c000155e:	8b 45 d8             	mov    -0x28(%ebp),%eax
c0001561:	83 e0 02             	and    $0x2,%eax
c0001564:	85 c0                	test   %eax,%eax
c0001566:	74 40                	je     c00015a8 <vsnprintf+0x578>
c0001568:	8b 45 f0             	mov    -0x10(%ebp),%eax
c000156b:	98                   	cwtl   
c000156c:	89 c2                	mov    %eax,%edx
c000156e:	c1 fa 1f             	sar    $0x1f,%edx
c0001571:	89 45 f0             	mov    %eax,-0x10(%ebp)
c0001574:	89 55 f4             	mov    %edx,-0xc(%ebp)
c0001577:	eb 2f                	jmp    c00015a8 <vsnprintf+0x578>
c0001579:	83 45 14 04          	addl   $0x4,0x14(%ebp)
c000157d:	8b 45 14             	mov    0x14(%ebp),%eax
c0001580:	83 e8 04             	sub    $0x4,%eax
c0001583:	8b 00                	mov    (%eax),%eax
c0001585:	ba 00 00 00 00       	mov    $0x0,%edx
c000158a:	89 45 f0             	mov    %eax,-0x10(%ebp)
c000158d:	89 55 f4             	mov    %edx,-0xc(%ebp)
c0001590:	8b 45 d8             	mov    -0x28(%ebp),%eax
c0001593:	83 e0 02             	and    $0x2,%eax
c0001596:	85 c0                	test   %eax,%eax
c0001598:	74 0e                	je     c00015a8 <vsnprintf+0x578>
c000159a:	8b 45 f0             	mov    -0x10(%ebp),%eax
c000159d:	89 c2                	mov    %eax,%edx
c000159f:	c1 fa 1f             	sar    $0x1f,%edx
c00015a2:	89 45 f0             	mov    %eax,-0x10(%ebp)
c00015a5:	89 55 f4             	mov    %edx,-0xc(%ebp)
c00015a8:	8b 45 f0             	mov    -0x10(%ebp),%eax
c00015ab:	8b 55 f4             	mov    -0xc(%ebp),%edx
c00015ae:	8b 4d d8             	mov    -0x28(%ebp),%ecx
c00015b1:	89 4c 24 1c          	mov    %ecx,0x1c(%esp)
c00015b5:	8b 4d d0             	mov    -0x30(%ebp),%ecx
c00015b8:	89 4c 24 18          	mov    %ecx,0x18(%esp)
c00015bc:	8b 4d d4             	mov    -0x2c(%ebp),%ecx
c00015bf:	89 4c 24 14          	mov    %ecx,0x14(%esp)
c00015c3:	8b 4d e8             	mov    -0x18(%ebp),%ecx
c00015c6:	89 4c 24 10          	mov    %ecx,0x10(%esp)
c00015ca:	89 44 24 08          	mov    %eax,0x8(%esp)
c00015ce:	89 54 24 0c          	mov    %edx,0xc(%esp)
c00015d2:	8b 45 e0             	mov    -0x20(%ebp),%eax
c00015d5:	89 44 24 04          	mov    %eax,0x4(%esp)
c00015d9:	8b 45 e4             	mov    -0x1c(%ebp),%eax
c00015dc:	89 04 24             	mov    %eax,(%esp)
c00015df:	e8 62 f6 ff ff       	call   c0000c46 <number>
c00015e4:	89 45 e4             	mov    %eax,-0x1c(%ebp)
c00015e7:	8b 45 10             	mov    0x10(%ebp),%eax
c00015ea:	83 c0 01             	add    $0x1,%eax
c00015ed:	89 45 10             	mov    %eax,0x10(%ebp)
c00015f0:	eb 01                	jmp    c00015f3 <vsnprintf+0x5c3>
c00015f2:	90                   	nop
c00015f3:	8b 45 10             	mov    0x10(%ebp),%eax
c00015f6:	0f b6 00             	movzbl (%eax),%eax
c00015f9:	84 c0                	test   %al,%al
c00015fb:	0f 85 74 fa ff ff    	jne    c0001075 <vsnprintf+0x45>
c0001601:	8b 45 e4             	mov    -0x1c(%ebp),%eax
c0001604:	3b 45 e0             	cmp    -0x20(%ebp),%eax
c0001607:	77 08                	ja     c0001611 <vsnprintf+0x5e1>
c0001609:	8b 45 e4             	mov    -0x1c(%ebp),%eax
c000160c:	c6 00 00             	movb   $0x0,(%eax)
c000160f:	eb 0c                	jmp    c000161d <vsnprintf+0x5ed>
c0001611:	83 7d 0c 00          	cmpl   $0x0,0xc(%ebp)
c0001615:	74 06                	je     c000161d <vsnprintf+0x5ed>
c0001617:	8b 45 e0             	mov    -0x20(%ebp),%eax
c000161a:	c6 00 00             	movb   $0x0,(%eax)
c000161d:	8b 55 e4             	mov    -0x1c(%ebp),%edx
c0001620:	8b 45 08             	mov    0x8(%ebp),%eax
c0001623:	89 d1                	mov    %edx,%ecx
c0001625:	29 c1                	sub    %eax,%ecx
c0001627:	89 c8                	mov    %ecx,%eax
c0001629:	c9                   	leave  
c000162a:	c3                   	ret    
c000162b:	00 57 65             	add    %dl,0x65(%edi)
c000162e:	6c                   	insb   (%dx),%es:(%edi)
c000162f:	63 6f 6d             	arpl   %bp,0x6d(%edi)
c0001632:	65 20 54 6f 20       	and    %dl,%gs:0x20(%edi,%ebp,2)
c0001637:	00 42 6c             	add    %al,0x6c(%edx)
c000163a:	75 65                	jne    c00016a1 <vsnprintf+0x671>
c000163c:	20 46 69             	and    %al,0x69(%esi)
c000163f:	72 65                	jb     c00016a6 <vsnprintf+0x676>
c0001641:	20 4f 53             	and    %cl,0x53(%edi)
c0001644:	2e 0a 00             	or     %cs:(%eax),%al
c0001647:	00 4b 65             	add    %cl,0x65(%ebx)
c000164a:	72 6e                	jb     c00016ba <vsnprintf+0x68a>
c000164c:	65                   	gs
c000164d:	6c                   	insb   (%dx),%es:(%edi)
c000164e:	20 69 73             	and    %ch,0x73(%ecx)
c0001651:	20 72 75             	and    %dh,0x75(%edx)
c0001654:	6e                   	outsb  %ds:(%esi),(%dx)
c0001655:	6e                   	outsb  %ds:(%esi),(%dx)
c0001656:	69 6e 67 20 61 74 20 	imul   $0x20746120,0x67(%esi),%ebp
c000165d:	76 69                	jbe    c00016c8 <vsnprintf+0x698>
c000165f:	72 74                	jb     c00016d5 <vsnprintf+0x6a5>
c0001661:	75 61                	jne    c00016c4 <vsnprintf+0x694>
c0001663:	6c                   	insb   (%dx),%es:(%edi)
c0001664:	20 61 64             	and    %ah,0x64(%ecx)
c0001667:	64                   	fs
c0001668:	72 65                	jb     c00016cf <vsnprintf+0x69f>
c000166a:	73 73                	jae    c00016df <vsnprintf+0x6af>
c000166c:	3a 20                	cmp    (%eax),%ah
c000166e:	25 23 30 31 30       	and    $0x30313023,%eax
c0001673:	78 0a                	js     c000167f <vsnprintf+0x64f>
c0001675:	00 00                	add    %al,(%eax)
c0001677:	00 54 6f 74          	add    %dl,0x74(%edi,%ebp,2)
c000167b:	61                   	popa   
c000167c:	6c                   	insb   (%dx),%es:(%edi)
c000167d:	20 53 79             	and    %dl,0x79(%ebx)
c0001680:	73 74                	jae    c00016f6 <vsnprintf+0x6c6>
c0001682:	65                   	gs
c0001683:	6d                   	insl   (%dx),%es:(%edi)
c0001684:	20 6d 65             	and    %ch,0x65(%ebp)
c0001687:	6d                   	insl   (%dx),%es:(%edi)
c0001688:	6f                   	outsl  %ds:(%esi),(%dx)
c0001689:	72 79                	jb     c0001704 <vsnprintf+0x6d4>
c000168b:	20 69 73             	and    %ch,0x73(%ecx)
c000168e:	3a 20                	cmp    (%eax),%ah
c0001690:	25 64 20 4d 42       	and    $0x424d2064,%eax
c0001695:	0a 00                	or     (%eax),%al
c0001697:	6b 65 72 6e          	imul   $0x6e,0x72(%ebp),%esp
c000169b:	65                   	gs
c000169c:	6c                   	insb   (%dx),%es:(%edi)
c000169d:	2f                   	das    
c000169e:	6d                   	insl   (%dx),%es:(%edi)
c000169f:	61                   	popa   
c00016a0:	69 6e 2e 63 00 2d 3e 	imul   $0x3e2d0063,0x2e(%esi),%ebp
c00016a7:	25 73 20 50 41       	and    $0x41502073,%eax
c00016ac:	47                   	inc    %edi
c00016ad:	45                   	inc    %ebp
c00016ae:	5f                   	pop    %edi
c00016af:	53                   	push   %ebx
c00016b0:	49                   	dec    %ecx
c00016b1:	5a                   	pop    %edx
c00016b2:	45                   	inc    %ebp
c00016b3:	2d 3e 20 30 78       	sub    $0x7830203e,%eax
c00016b8:	25 78 0a 00 0a       	and    $0xa000a78,%eax
c00016bd:	48                   	dec    %eax
c00016be:	61                   	popa   
c00016bf:	6c                   	insb   (%dx),%es:(%edi)
c00016c0:	74 65                	je     c0001727 <vsnprintf+0x6f7>
c00016c2:	64 20 69 6e          	and    %ch,%fs:0x6e(%ecx)
c00016c6:	20 2d 3e 25 73 20    	and    %ch,0x2073253e
c00016cc:	61                   	popa   
c00016cd:	74 20                	je     c00016ef <vsnprintf+0x6bf>
c00016cf:	6c                   	insb   (%dx),%es:(%edi)
c00016d0:	69 6e 65 20 25 64 00 	imul   $0x642520,0x65(%esi),%ebp
c00016d7:	00 0a                	add    %cl,(%edx)
c00016d9:	44                   	inc    %esp
c00016da:	69 72 74 79 20 70 61 	imul   $0x61702079,0x74(%edx),%esi
c00016e1:	67                   	addr16
c00016e2:	65                   	gs
c00016e3:	73 3a                	jae    c000171f <vsnprintf+0x6ef>
c00016e5:	0a 00                	or     (%eax),%al
c00016e7:	00 0a                	add    %cl,(%edx)
c00016e9:	76 69                	jbe    c0001754 <vsnprintf+0x724>
c00016eb:	72 5f                	jb     c000174c <vsnprintf+0x71c>
c00016ed:	61                   	popa   
c00016ee:	64                   	fs
c00016ef:	64                   	fs
c00016f0:	72 20                	jb     c0001712 <vsnprintf+0x6e2>
c00016f2:	3d 20 25 58 09       	cmp    $0x9582520,%eax
c00016f7:	70 61                	jo     c000175a <vsnprintf+0x72a>
c00016f9:	67                   	addr16
c00016fa:	65                   	gs
c00016fb:	5f                   	pop    %edi
c00016fc:	65 6e                	outsb  %gs:(%esi),(%dx)
c00016fe:	74 72                	je     c0001772 <vsnprintf+0x742>
c0001700:	79 20                	jns    c0001722 <vsnprintf+0x6f2>
c0001702:	3d 20 25 58 00       	cmp    $0x582520,%eax
c0001707:	0a 00                	or     (%eax),%al
c0001709:	00 00                	add    %al,(%eax)
c000170b:	00 0a                	add    %cl,(%edx)
c000170d:	46                   	inc    %esi
c000170e:	72 65                	jb     c0001775 <vsnprintf+0x745>
c0001710:	65 20 66 72          	and    %ah,%gs:0x72(%esi)
c0001714:	61                   	popa   
c0001715:	6d                   	insl   (%dx),%es:(%edi)
c0001716:	65                   	gs
c0001717:	73 20                	jae    c0001739 <vsnprintf+0x709>
c0001719:	6c                   	insb   (%dx),%es:(%edi)
c000171a:	69 73 74 3a 20 28 4b 	imul   $0x4b28203a,0x74(%ebx),%esi
c0001721:	45                   	inc    %ebp
c0001722:	52                   	push   %edx
c0001723:	4e                   	dec    %esi
c0001724:	45                   	inc    %ebp
c0001725:	4c                   	dec    %esp
c0001726:	5f                   	pop    %edi
c0001727:	54                   	push   %esp
c0001728:	4f                   	dec    %edi
c0001729:	50                   	push   %eax
c000172a:	3d 25 58 29 0a       	cmp    $0xa295825,%eax
c000172f:	00 0a                	add    %cl,(%edx)
c0001731:	66                   	data16
c0001732:	72 61                	jb     c0001795 <vsnprintf+0x765>
c0001734:	6d                   	insl   (%dx),%es:(%edi)
c0001735:	65 20 23             	and    %ah,%gs:(%ebx)
c0001738:	25 58 20 26 66       	and    $0x66262058,%eax
c000173d:	72 61                	jb     c00017a0 <vsnprintf+0x770>
c000173f:	6d                   	insl   (%dx),%es:(%edi)
c0001740:	65                   	gs
c0001741:	3d 25 58 00 00       	cmp    $0x5825,%eax
c0001746:	00 00                	add    %al,(%eax)
c0001748:	48                   	dec    %eax
c0001749:	0b 00                	or     (%eax),%eax
c000174b:	c0 03 0a             	rolb   $0xa,(%ebx)
c000174e:	00 c0                	add    %al,%al
c0001750:	82                   	(bad)  
c0001751:	0a 00                	or     (%eax),%al
c0001753:	c0 db 09             	rcr    $0x9,%bl
c0001756:	00 c0                	add    %al,%al
c0001758:	99                   	cltd   
c0001759:	0a 00                	or     (%eax),%al
c000175b:	c0 99 0a 00 c0 f7 09 	rcrb   $0x9,-0x83ffff6(%ecx)
c0001762:	00 c0                	add    %al,%al
c0001764:	3c 4e                	cmp    $0x4e,%al
c0001766:	55                   	push   %ebp
c0001767:	4c                   	dec    %esp
c0001768:	4c                   	dec    %esp
c0001769:	3e 00 00             	add    %al,%ds:(%eax)
c000176c:	d1 10                	rcll   (%eax)
c000176e:	00 c0                	add    %al,%al
c0001770:	e3 10                	jecxz  c0001782 <vsnprintf+0x752>
c0001772:	00 c0                	add    %al,%al
c0001774:	e3 10                	jecxz  c0001786 <vsnprintf+0x756>
c0001776:	00 c0                	add    %al,%al
c0001778:	d7                   	xlat   %ds:(%ebx)
c0001779:	10 00                	adc    %al,(%eax)
c000177b:	c0 e3 10             	shl    $0x10,%bl
c000177e:	00 c0                	add    %al,%al
c0001780:	e3 10                	jecxz  c0001792 <vsnprintf+0x762>
c0001782:	00 c0                	add    %al,%al
c0001784:	e3 10                	jecxz  c0001796 <vsnprintf+0x766>
c0001786:	00 c0                	add    %al,%al
c0001788:	e3 10                	jecxz  c000179a <vsnprintf+0x76a>
c000178a:	00 c0                	add    %al,%al
c000178c:	e3 10                	jecxz  c000179e <vsnprintf+0x76e>
c000178e:	00 c0                	add    %al,%al
c0001790:	e3 10                	jecxz  c00017a2 <vsnprintf+0x772>
c0001792:	00 c0                	add    %al,%al
c0001794:	e3 10                	jecxz  c00017a6 <vsnprintf+0x776>
c0001796:	00 c0                	add    %al,%al
c0001798:	cb                   	lret   
c0001799:	10 00                	adc    %al,(%eax)
c000179b:	c0 e3 10             	shl    $0x10,%bl
c000179e:	00 c0                	add    %al,%al
c00017a0:	c5 10                	lds    (%eax),%edx
c00017a2:	00 c0                	add    %al,%al
c00017a4:	e3 10                	jecxz  c00017b6 <vsnprintf+0x786>
c00017a6:	00 c0                	add    %al,%al
c00017a8:	e3 10                	jecxz  c00017ba <vsnprintf+0x78a>
c00017aa:	00 c0                	add    %al,%al
c00017ac:	dd 10                	fstl   (%eax)
c00017ae:	00 c0                	add    %al,%al
c00017b0:	3e                   	ds
c00017b1:	14 00                	adc    $0x0,%al
c00017b3:	c0 7a 14 00          	sarb   $0x0,0x14(%edx)
c00017b7:	c0 7a 14 00          	sarb   $0x0,0x14(%edx)
c00017bb:	c0 7a 14 00          	sarb   $0x0,0x14(%edx)
c00017bf:	c0 7a 14 00          	sarb   $0x0,0x14(%edx)
c00017c3:	c0 7a 14 00          	sarb   $0x0,0x14(%edx)
c00017c7:	c0 7a 14 00          	sarb   $0x0,0x14(%edx)
c00017cb:	c0 7a 14 00          	sarb   $0x0,0x14(%edx)
c00017cf:	c0 7a 14 00          	sarb   $0x0,0x14(%edx)
c00017d3:	c0 7a 14 00          	sarb   $0x0,0x14(%edx)
c00017d7:	c0 7a 14 00          	sarb   $0x0,0x14(%edx)
c00017db:	c0 7a 14 00          	sarb   $0x0,0x14(%edx)
c00017df:	c0 7a 14 00          	sarb   $0x0,0x14(%edx)
c00017e3:	c0 7a 14 00          	sarb   $0x0,0x14(%edx)
c00017e7:	c0 7a 14 00          	sarb   $0x0,0x14(%edx)
c00017eb:	c0 7a 14 00          	sarb   $0x0,0x14(%edx)
c00017ef:	c0 7a 14 00          	sarb   $0x0,0x14(%edx)
c00017f3:	c0 7a 14 00          	sarb   $0x0,0x14(%edx)
c00017f7:	c0 7a 14 00          	sarb   $0x0,0x14(%edx)
c00017fb:	c0 7a 14 00          	sarb   $0x0,0x14(%edx)
c00017ff:	c0 7a 14 00          	sarb   $0x0,0x14(%edx)
c0001803:	c0 7a 14 00          	sarb   $0x0,0x14(%edx)
c0001807:	c0 7a 14 00          	sarb   $0x0,0x14(%edx)
c000180b:	c0 7a 14 00          	sarb   $0x0,0x14(%edx)
c000180f:	c0 7a 14 00          	sarb   $0x0,0x14(%edx)
c0001813:	c0 7a 14 00          	sarb   $0x0,0x14(%edx)
c0001817:	c0 7a 14 00          	sarb   $0x0,0x14(%edx)
c000181b:	c0 7a 14 00          	sarb   $0x0,0x14(%edx)
c000181f:	c0 7a 14 00          	sarb   $0x0,0x14(%edx)
c0001823:	c0 7a 14 00          	sarb   $0x0,0x14(%edx)
c0001827:	c0 7a 14 00          	sarb   $0x0,0x14(%edx)
c000182b:	c0 7a 14 00          	sarb   $0x0,0x14(%edx)
c000182f:	c0 7a 14 00          	sarb   $0x0,0x14(%edx)
c0001833:	c0 7a 14 00          	sarb   $0x0,0x14(%edx)
c0001837:	c0 7a 14 00          	sarb   $0x0,0x14(%edx)
c000183b:	c0 7a 14 00          	sarb   $0x0,0x14(%edx)
c000183f:	c0 7a 14 00          	sarb   $0x0,0x14(%edx)
c0001843:	c0 7a 14 00          	sarb   $0x0,0x14(%edx)
c0001847:	c0 7a 14 00          	sarb   $0x0,0x14(%edx)
c000184b:	c0 7a 14 00          	sarb   $0x0,0x14(%edx)
c000184f:	c0 7a 14 00          	sarb   $0x0,0x14(%edx)
c0001853:	c0 7a 14 00          	sarb   $0x0,0x14(%edx)
c0001857:	c0 7a 14 00          	sarb   $0x0,0x14(%edx)
c000185b:	c0 7a 14 00          	sarb   $0x0,0x14(%edx)
c000185f:	c0 7a 14 00          	sarb   $0x0,0x14(%edx)
c0001863:	c0 7a 14 00          	sarb   $0x0,0x14(%edx)
c0001867:	c0 7a 14 00          	sarb   $0x0,0x14(%edx)
c000186b:	c0 7a 14 00          	sarb   $0x0,0x14(%edx)
c000186f:	c0 7a 14 00          	sarb   $0x0,0x14(%edx)
c0001873:	c0 7a 14 00          	sarb   $0x0,0x14(%edx)
c0001877:	c0 7a 14 00          	sarb   $0x0,0x14(%edx)
c000187b:	c0 5e 14 00          	rcrb   $0x0,0x14(%esi)
c000187f:	c0 7a 14 00          	sarb   $0x0,0x14(%edx)
c0001883:	c0 7a 14 00          	sarb   $0x0,0x14(%edx)
c0001887:	c0 7a 14 00          	sarb   $0x0,0x14(%edx)
c000188b:	c0 7a 14 00          	sarb   $0x0,0x14(%edx)
c000188f:	c0 7a 14 00          	sarb   $0x0,0x14(%edx)
c0001893:	c0 7a 14 00          	sarb   $0x0,0x14(%edx)
c0001897:	c0 7a 14 00          	sarb   $0x0,0x14(%edx)
c000189b:	c0 7a 14 00          	sarb   $0x0,0x14(%edx)
c000189f:	c0 7a 14 00          	sarb   $0x0,0x14(%edx)
c00018a3:	c0 7a 14 00          	sarb   $0x0,0x14(%edx)
c00018a7:	c0 3f 12             	sarb   $0x12,(%edi)
c00018aa:	00 c0                	add    %al,%al
c00018ac:	74 14                	je     c00018c2 <vsnprintf+0x892>
c00018ae:	00 c0                	add    %al,%al
c00018b0:	7a 14                	jp     c00018c6 <vsnprintf+0x896>
c00018b2:	00 c0                	add    %al,%al
c00018b4:	7a 14                	jp     c00018ca <vsnprintf+0x89a>
c00018b6:	00 c0                	add    %al,%al
c00018b8:	7a 14                	jp     c00018ce <vsnprintf+0x89e>
c00018ba:	00 c0                	add    %al,%al
c00018bc:	7a 14                	jp     c00018d2 <vsnprintf+0x8a2>
c00018be:	00 c0                	add    %al,%al
c00018c0:	74 14                	je     c00018d6 <vsnprintf+0x8a6>
c00018c2:	00 c0                	add    %al,%al
c00018c4:	7a 14                	jp     c00018da <vsnprintf+0x8aa>
c00018c6:	00 c0                	add    %al,%al
c00018c8:	7a 14                	jp     c00018de <vsnprintf+0x8ae>
c00018ca:	00 c0                	add    %al,%al
c00018cc:	7a 14                	jp     c00018e2 <vsnprintf+0x8b2>
c00018ce:	00 c0                	add    %al,%al
c00018d0:	7a 14                	jp     c00018e6 <vsnprintf+0x8b6>
c00018d2:	00 c0                	add    %al,%al
c00018d4:	c9                   	leave  
c00018d5:	13 00                	adc    (%eax),%eax
c00018d7:	c0 55 14 00          	rclb   $0x0,0x14(%ebp)
c00018db:	c0 68 13 00          	shrb   $0x0,0x13(%eax)
c00018df:	c0 7a 14 00          	sarb   $0x0,0x14(%edx)
c00018e3:	c0 7a 14 00          	sarb   $0x0,0x14(%edx)
c00018e7:	c0 ae 12 00 c0 7a 14 	shrb   $0x14,0x7ac00012(%esi)
c00018ee:	00 c0                	add    %al,%al
c00018f0:	c0 14 00 c0          	rclb   $0xc0,(%eax,%eax,1)
c00018f4:	7a 14                	jp     c000190a <vsnprintf+0x8da>
c00018f6:	00 c0                	add    %al,%al
c00018f8:	7a 14                	jp     c000190e <vsnprintf+0x8de>
c00018fa:	00 c0                	add    %al,%al
c00018fc:	6b 14 00 c0          	imul   $0xffffffc0,(%eax,%eax,1),%edx
	...

Disassembly of section .data:

c0002000 <KERNEL_DATA>:
KERNEL_DATA():
c0002000:	00 50 01             	add    %dl,0x1(%eax)
c0002003:	c0 50 00 19          	rclb   $0x19,0x0(%eax)

c0002004 <crt_width>:
c0002004:	50                   	push   %eax
	...

c0002006 <crt_height>:
c0002006:	19 00                	sbb    %eax,(%eax)
	...

c0002020 <_ctype>:
c0002020:	08 08                	or     %cl,(%eax)
c0002022:	08 08                	or     %cl,(%eax)
c0002024:	08 08                	or     %cl,(%eax)
c0002026:	08 08                	or     %cl,(%eax)
c0002028:	08 28                	or     %ch,(%eax)
c000202a:	28 28                	sub    %ch,(%eax)
c000202c:	28 28                	sub    %ch,(%eax)
c000202e:	08 08                	or     %cl,(%eax)
c0002030:	08 08                	or     %cl,(%eax)
c0002032:	08 08                	or     %cl,(%eax)
c0002034:	08 08                	or     %cl,(%eax)
c0002036:	08 08                	or     %cl,(%eax)
c0002038:	08 08                	or     %cl,(%eax)
c000203a:	08 08                	or     %cl,(%eax)
c000203c:	08 08                	or     %cl,(%eax)
c000203e:	08 08                	or     %cl,(%eax)
c0002040:	a0 10 10 10 10       	mov    0x10101010,%al
c0002045:	10 10                	adc    %dl,(%eax)
c0002047:	10 10                	adc    %dl,(%eax)
c0002049:	10 10                	adc    %dl,(%eax)
c000204b:	10 10                	adc    %dl,(%eax)
c000204d:	10 10                	adc    %dl,(%eax)
c000204f:	10 04 04             	adc    %al,(%esp,%eax,1)
c0002052:	04 04                	add    $0x4,%al
c0002054:	04 04                	add    $0x4,%al
c0002056:	04 04                	add    $0x4,%al
c0002058:	04 04                	add    $0x4,%al
c000205a:	10 10                	adc    %dl,(%eax)
c000205c:	10 10                	adc    %dl,(%eax)
c000205e:	10 10                	adc    %dl,(%eax)
c0002060:	10 41 41             	adc    %al,0x41(%ecx)
c0002063:	41                   	inc    %ecx
c0002064:	41                   	inc    %ecx
c0002065:	41                   	inc    %ecx
c0002066:	41                   	inc    %ecx
c0002067:	01 01                	add    %eax,(%ecx)
c0002069:	01 01                	add    %eax,(%ecx)
c000206b:	01 01                	add    %eax,(%ecx)
c000206d:	01 01                	add    %eax,(%ecx)
c000206f:	01 01                	add    %eax,(%ecx)
c0002071:	01 01                	add    %eax,(%ecx)
c0002073:	01 01                	add    %eax,(%ecx)
c0002075:	01 01                	add    %eax,(%ecx)
c0002077:	01 01                	add    %eax,(%ecx)
c0002079:	01 01                	add    %eax,(%ecx)
c000207b:	10 10                	adc    %dl,(%eax)
c000207d:	10 10                	adc    %dl,(%eax)
c000207f:	10 10                	adc    %dl,(%eax)
c0002081:	42                   	inc    %edx
c0002082:	42                   	inc    %edx
c0002083:	42                   	inc    %edx
c0002084:	42                   	inc    %edx
c0002085:	42                   	inc    %edx
c0002086:	42                   	inc    %edx
c0002087:	02 02                	add    (%edx),%al
c0002089:	02 02                	add    (%edx),%al
c000208b:	02 02                	add    (%edx),%al
c000208d:	02 02                	add    (%edx),%al
c000208f:	02 02                	add    (%edx),%al
c0002091:	02 02                	add    (%edx),%al
c0002093:	02 02                	add    (%edx),%al
c0002095:	02 02                	add    (%edx),%al
c0002097:	02 02                	add    (%edx),%al
c0002099:	02 02                	add    (%edx),%al
c000209b:	10 10                	adc    %dl,(%eax)
c000209d:	10 10                	adc    %dl,(%eax)
c000209f:	08 00                	or     %al,(%eax)
	...
c00020bd:	00 00                	add    %al,(%eax)
c00020bf:	00 a0 10 10 10 10    	add    %ah,0x10101010(%eax)
c00020c5:	10 10                	adc    %dl,(%eax)
c00020c7:	10 10                	adc    %dl,(%eax)
c00020c9:	10 10                	adc    %dl,(%eax)
c00020cb:	10 10                	adc    %dl,(%eax)
c00020cd:	10 10                	adc    %dl,(%eax)
c00020cf:	10 10                	adc    %dl,(%eax)
c00020d1:	10 10                	adc    %dl,(%eax)
c00020d3:	10 10                	adc    %dl,(%eax)
c00020d5:	10 10                	adc    %dl,(%eax)
c00020d7:	10 10                	adc    %dl,(%eax)
c00020d9:	10 10                	adc    %dl,(%eax)
c00020db:	10 10                	adc    %dl,(%eax)
c00020dd:	10 10                	adc    %dl,(%eax)
c00020df:	10 01                	adc    %al,(%ecx)
c00020e1:	01 01                	add    %eax,(%ecx)
c00020e3:	01 01                	add    %eax,(%ecx)
c00020e5:	01 01                	add    %eax,(%ecx)
c00020e7:	01 01                	add    %eax,(%ecx)
c00020e9:	01 01                	add    %eax,(%ecx)
c00020eb:	01 01                	add    %eax,(%ecx)
c00020ed:	01 01                	add    %eax,(%ecx)
c00020ef:	01 01                	add    %eax,(%ecx)
c00020f1:	01 01                	add    %eax,(%ecx)
c00020f3:	01 01                	add    %eax,(%ecx)
c00020f5:	01 01                	add    %eax,(%ecx)
c00020f7:	01 01                	add    %eax,(%ecx)
c00020f9:	01 01                	add    %eax,(%ecx)
c00020fb:	01 01                	add    %eax,(%ecx)
c00020fd:	01 01                	add    %eax,(%ecx)
c00020ff:	02 02                	add    (%edx),%al
c0002101:	02 02                	add    (%edx),%al
c0002103:	02 02                	add    (%edx),%al
c0002105:	02 02                	add    (%edx),%al
c0002107:	02 02                	add    (%edx),%al
c0002109:	02 02                	add    (%edx),%al
c000210b:	02 02                	add    (%edx),%al
c000210d:	02 02                	add    (%edx),%al
c000210f:	02 02                	add    (%edx),%al
c0002111:	02 02                	add    (%edx),%al
c0002113:	02 02                	add    (%edx),%al
c0002115:	02 02                	add    (%edx),%al
c0002117:	10 02                	adc    %al,(%edx)
c0002119:	02 02                	add    (%edx),%al
c000211b:	02 02                	add    (%edx),%al
c000211d:	02 02                	add    (%edx),%al
c000211f:	02 00                	add    (%eax),%al
	...

Disassembly of section .bss:

c0003000 <_stack>:
	...

c0013000 <KERNEL_BSS>:
	...

c0013020 <K_VIR_END>:
	...

c0013040 <K_PDBR>:
	...

Disassembly of section .comment:

00000000 <.comment>:
   0:	47                   	inc    %edi
   1:	43                   	inc    %ebx
   2:	43                   	inc    %ebx
   3:	3a 20                	cmp    (%eax),%ah
   5:	28 47 4e             	sub    %al,0x4e(%edi)
   8:	55                   	push   %ebp
   9:	29 20                	sub    %esp,(%eax)
   b:	34 2e                	xor    $0x2e,%al
   d:	35 2e 31 20 32       	xor    $0x3220312e,%eax
  12:	30 31                	xor    %dh,(%ecx)
  14:	30 30                	xor    %dh,(%eax)
  16:	39 32                	cmp    %esi,(%edx)
  18:	34 20                	xor    $0x20,%al
  1a:	28 52 65             	sub    %dl,0x65(%edx)
  1d:	64 20 48 61          	and    %cl,%fs:0x61(%eax)
  21:	74 20                	je     43 <PAGE_SIZE-0xfbd>
  23:	34 2e                	xor    $0x2e,%al
  25:	35 2e 31 2d 34       	xor    $0x342d312e,%eax
  2a:	29 00                	sub    %eax,(%eax)
