
../build/blue_fire_kernel32.elf:     file format elf32-i386
../build/blue_fire_kernel32.elf
architecture: i386, flags 0x00000112:
EXEC_P, HAS_SYMS, D_PAGED
start address 0xc0000000

Program Header:
    LOAD off    0x00001000 vaddr 0xc0000000 paddr 0x00100000 align 2**12
         filesz 0x00003000 memsz 0x00003000 flags rwx
    LOAD off    0x00004000 vaddr 0xc0003000 paddr 0x00113000 align 2**12
         filesz 0x00000000 memsz 0x00012000 flags rw-
   STACK off    0x00000000 vaddr 0x00000000 paddr 0x00000000 align 2**4
         filesz 0x00000000 memsz 0x00000000 flags rwx

Sections:
Idx Name          Size      VMA       LMA       File off  Algn
  0 .text         00002000  c0000000  00100000  00001000  2**4
                  CONTENTS, ALLOC, LOAD, READONLY, CODE
  1 .eh_frame     00000460  c0002000  00102000  00003000  2**2
                  CONTENTS, ALLOC, LOAD, READONLY, DATA
  2 .data         00000ba0  c0002460  00102460  00003460  2**5
                  CONTENTS, ALLOC, LOAD, DATA
  3 .bss          00012000  c0003000  00113000  00004000  2**5
                  ALLOC
  4 .comment      00000029  00000000  00000000  00004000  2**0
                  CONTENTS, READONLY
SYMBOL TABLE:
c0000000 l    d  .text	00000000 .text
c0002000 l    d  .eh_frame	00000000 .eh_frame
c0002460 l    d  .data	00000000 .data
c0003000 l    d  .bss	00000000 .bss
00000000 l    d  .comment	00000000 .comment
00000000 l    df *ABS*	00000000 assembly/start.asm
c0000002 l       .text	00000000 not_used_space
c000000c l       .text	00000000 entry
c0000013 l       .text	00000000 setup_and_enable_paging
c0000035 l       .text	00000000 Map_I_PAGE_TAB
c0000056 l       .text	00000000 Map_K_PAGE_TAB
c000008c l       .text	00000000 paging_enabled
00000000 l    df *ABS*	00000000 console.c
c0013000 l     O .bss	00000018 vir_cons
00000000 l    df *ABS*	00000000 main.c
00000000 l    df *ABS*	00000000 mem.c
00000000 l    df *ABS*	00000000 paging.c
c0000367 l     F .text	00000009 invlpg
00000000 l    df *ABS*	00000000 video.c
c00008dd l     F .text	0000001e outport8
00000000 l    df *ABS*	00000000 ctype.c
00000000 l    df *ABS*	00000000 string.c
00000000 l    df *ABS*	00000000 vsnprintf.c
c0000d83 l     F .text	0000005e skip_atoi
c0000de1 l     F .text	000003a6 number
00000000 l    df *ABS*	00000000 
c0000442 g     F .text	00000158 map_page
c00008fb g     F .text	00000086 video_move_cursor
c0000afc g     F .text	00000058 video_place_char
c0000004 g       .text	00000000 var_system_memory_amount
c00000b2 g     F .text	00000033 initialize_boot_console
c0013000 g       .bss	00000000 K_STACK_END
c0000335 g     F .text	00000019 memcpy8
c0000000 g       *ABS*	00000000 K_VIR_START
c0000b54 g     F .text	000001a1 video_put_char
c0000000 g       .text	00000000 KERNEL_TEXT
c0002460 g     O .data	00000004 free_frames
c0001187 g     F .text	000005cf vsnprintf
c000085a g     F .text	00000083 dump_free_frames
c00003f6 g     F .text	0000004c init_free_frames
c0013020 g     O .bss	00000004 K_VIR_END
c000034e g     F .text	00000019 memcpy32
c0000d41 g     F .text	00000042 strnlen
c0002466 g     O .data	00000002 crt_height
c0000320 g     F .text	00000015 memset32
00010000 g       *ABS*	00000000 K_STACK_SIZE
c00002da g     F .text	00000022 memset8
c0000999 g     F .text	00000085 video_clrscr
c0000000 g       .text	00000000 _start
c0000222 g     F .text	000000b8 k_main
c00007aa g     F .text	000000b0 dump_dirty_pages
c0000112 g     F .text	00000049 kplacechar
c00002fc g     F .text	00000024 memset16
c0015000 g       .bss	00000000 KERNEL_TOP
c0002480 g     O .data	00000100 _ctype
c00001ff g     F .text	00000023 get_console_addr
00001000 g       *ABS*	00000000 PAGE_SIZE
c0000008 g       .text	00000000 stage2_return_address
c00003bd g     F .text	00000039 push_frame
c0015000 g       .bss	00000000 KERNEL_END_BSS
c0013000 g       .bss	00000000 _stack_end
c000015b g     F .text	00000022 kset_color
c0002464 g     O .data	00000002 crt_width
c0000981 g     F .text	00000018 video_set_color
c0002460 g       .data	00000000 KERNEL_DATA
c0000cf5 g     F .text	00000017 initialize_video
c000017d g     F .text	00000082 kprintf
c000059a g     F .text	00000210 initialize_paging
c0002000 g       .text	00000000 KERNEL_END_TEXT
c00000e5 g     F .text	0000002d kputchar
00100000 g       *ABS*	00000000 K_PHYS_START
c0000d0c g     F .text	00000035 strlen
c0003000 g       .bss	00000000 _stack
c0000370 g     F .text	0000004d pop_frame
c0000a1e g     F .text	000000de video_scroll_console
c0013040 g     O .bss	00001000 K_PDBR
c0013000 g       .bss	00000000 KERNEL_BSS
c0003000 g       .data	00000000 KERNEL_END_DATA



Disassembly of section .text:

c0000000 <KERNEL_TEXT>:
KERNEL_TEXT():
c0000000:	eb 0a                	jmp    c000000c <entry>

c0000002 <not_used_space>:
	...

c0000004 <var_system_memory_amount>:
var_system_memory_amount():
c0000004:	00 00                	add    %al,(%eax)
	...

c0000008 <stage2_return_address>:
stage2_return_address():
c0000008:	00 00                	add    %al,(%eax)
	...

c000000c <entry>:
entry():
c000000c:	66 ba f2 03          	mov    $0x3f2,%dx
c0000010:	b0 0c                	mov    $0xc,%al
c0000012:	ee                   	out    %al,(%dx)

c0000013 <setup_and_enable_paging>:
setup_and_enable_paging():
c0000013:	bf 00 10 00 00       	mov    $0x1000,%edi
c0000018:	b8 00 00 00 00       	mov    $0x0,%eax
c000001d:	b9 00 10 00 00       	mov    $0x1000,%ecx
c0000022:	fc                   	cld    
c0000023:	f3 aa                	rep stos %al,%es:(%edi)
c0000025:	b8 03 00 00 00       	mov    $0x3,%eax
c000002a:	b9 00 04 00 00       	mov    $0x400,%ecx
c000002f:	bf 00 30 00 00       	mov    $0x3000,%edi
c0000034:	fc                   	cld    

c0000035 <Map_I_PAGE_TAB>:
Map_I_PAGE_TAB():
c0000035:	ab                   	stos   %eax,%es:(%edi)
c0000036:	05 00 10 00 00       	add    $0x1000,%eax
c000003b:	e2 f8                	loop   c0000035 <Map_I_PAGE_TAB>
c000003d:	c7 05 00 10 00 00 07 	movl   $0x3007,0x1000
c0000044:	30 00 00 
c0000047:	b8 03 00 10 00       	mov    $0x100003,%eax
c000004c:	b9 00 04 00 00       	mov    $0x400,%ecx
c0000051:	bf 00 20 00 00       	mov    $0x2000,%edi

c0000056 <Map_K_PAGE_TAB>:
Map_K_PAGE_TAB():
c0000056:	ab                   	stos   %eax,%es:(%edi)
c0000057:	05 00 10 00 00       	add    $0x1000,%eax
c000005c:	e2 f8                	loop   c0000056 <Map_K_PAGE_TAB>
c000005e:	c7 05 00 1c 00 00 07 	movl   $0x2007,0x1c00
c0000065:	20 00 00 
c0000068:	c7 05 fc 1f 00 00 07 	movl   $0x1007,0x1ffc
c000006f:	10 00 00 
c0000072:	b8 00 10 00 00       	mov    $0x1000,%eax
c0000077:	0f 22 d8             	mov    %eax,%cr3
c000007a:	0f 20 c0             	mov    %cr0,%eax
c000007d:	0d 00 00 01 80       	or     $0x80010000,%eax
c0000082:	0f 22 c0             	mov    %eax,%cr0
c0000085:	ea 8c 00 00 c0 08 00 	ljmp   $0x8,$0xc000008c

c000008c <paging_enabled>:
paging_enabled():
c000008c:	b8 10 00 00 00       	mov    $0x10,%eax
c0000091:	8e d8                	mov    %eax,%ds
c0000093:	8e c0                	mov    %eax,%es
c0000095:	8e d0                	mov    %eax,%ss
c0000097:	90                   	nop
c0000098:	8e e0                	mov    %eax,%fs
c000009a:	8e e8                	mov    %eax,%gs
c000009c:	8f 05 08 00 00 c0    	popl   0xc0000008
c00000a2:	8f 05 04 00 00 c0    	popl   0xc0000004
c00000a8:	bc 00 30 01 c0       	mov    $0xc0013000,%esp
c00000ad:	e9 70 01 00 00       	jmp    c0000222 <k_main>

c00000b2 <initialize_boot_console>:
initialize_boot_console():
c00000b2:	55                   	push   %ebp
c00000b3:	89 e5                	mov    %esp,%ebp
c00000b5:	83 ec 18             	sub    $0x18,%esp
c00000b8:	c7 05 00 30 01 c0 00 	movl   $0xb8000,0xc0013000
c00000bf:	80 0b 00 
c00000c2:	c6 05 04 30 01 c0 00 	movb   $0x0,0xc0013004
c00000c9:	c6 05 05 30 01 c0 00 	movb   $0x0,0xc0013005
c00000d0:	c6 05 06 30 01 c0 07 	movb   $0x7,0xc0013006
c00000d7:	c7 04 24 00 30 01 c0 	movl   $0xc0013000,(%esp)
c00000de:	e8 b6 08 00 00       	call   c0000999 <video_clrscr>
c00000e3:	c9                   	leave  
c00000e4:	c3                   	ret    

c00000e5 <kputchar>:
kputchar():
c00000e5:	55                   	push   %ebp
c00000e6:	89 e5                	mov    %esp,%ebp
c00000e8:	83 ec 28             	sub    $0x28,%esp
c00000eb:	9c                   	pushf  
c00000ec:	58                   	pop    %eax
c00000ed:	fa                   	cli    
c00000ee:	89 45 f4             	mov    %eax,-0xc(%ebp)
c00000f1:	8b 45 08             	mov    0x8(%ebp),%eax
c00000f4:	0f b6 c0             	movzbl %al,%eax
c00000f7:	c7 44 24 04 00 30 01 	movl   $0xc0013000,0x4(%esp)
c00000fe:	c0 
c00000ff:	89 04 24             	mov    %eax,(%esp)
c0000102:	e8 4d 0a 00 00       	call   c0000b54 <video_put_char>
c0000107:	ff 75 f4             	pushl  -0xc(%ebp)
c000010a:	9d                   	popf   
c000010b:	b8 00 00 00 00       	mov    $0x0,%eax
c0000110:	c9                   	leave  
c0000111:	c3                   	ret    

c0000112 <kplacechar>:
kplacechar():
c0000112:	55                   	push   %ebp
c0000113:	89 e5                	mov    %esp,%ebp
c0000115:	83 ec 38             	sub    $0x38,%esp
c0000118:	8b 55 08             	mov    0x8(%ebp),%edx
c000011b:	8b 45 0c             	mov    0xc(%ebp),%eax
c000011e:	88 55 e4             	mov    %dl,-0x1c(%ebp)
c0000121:	88 45 e0             	mov    %al,-0x20(%ebp)
c0000124:	9c                   	pushf  
c0000125:	58                   	pop    %eax
c0000126:	fa                   	cli    
c0000127:	89 45 f4             	mov    %eax,-0xc(%ebp)
c000012a:	8b 45 10             	mov    0x10(%ebp),%eax
c000012d:	0f b6 c8             	movzbl %al,%ecx
c0000130:	0f b6 55 e0          	movzbl -0x20(%ebp),%edx
c0000134:	0f b6 45 e4          	movzbl -0x1c(%ebp),%eax
c0000138:	c7 44 24 0c 00 30 01 	movl   $0xc0013000,0xc(%esp)
c000013f:	c0 
c0000140:	89 4c 24 08          	mov    %ecx,0x8(%esp)
c0000144:	89 54 24 04          	mov    %edx,0x4(%esp)
c0000148:	89 04 24             	mov    %eax,(%esp)
c000014b:	e8 ac 09 00 00       	call   c0000afc <video_place_char>
c0000150:	ff 75 f4             	pushl  -0xc(%ebp)
c0000153:	9d                   	popf   
c0000154:	b8 00 00 00 00       	mov    $0x0,%eax
c0000159:	c9                   	leave  
c000015a:	c3                   	ret    

c000015b <kset_color>:
kset_color():
c000015b:	55                   	push   %ebp
c000015c:	89 e5                	mov    %esp,%ebp
c000015e:	83 ec 18             	sub    $0x18,%esp
c0000161:	8b 45 08             	mov    0x8(%ebp),%eax
c0000164:	88 45 f4             	mov    %al,-0xc(%ebp)
c0000167:	0f b6 45 f4          	movzbl -0xc(%ebp),%eax
c000016b:	89 44 24 04          	mov    %eax,0x4(%esp)
c000016f:	c7 04 24 00 30 01 c0 	movl   $0xc0013000,(%esp)
c0000176:	e8 06 08 00 00       	call   c0000981 <video_set_color>
c000017b:	c9                   	leave  
c000017c:	c3                   	ret    

c000017d <kprintf>:
kprintf():
c000017d:	55                   	push   %ebp
c000017e:	89 e5                	mov    %esp,%ebp
c0000180:	81 ec 28 04 00 00    	sub    $0x428,%esp
c0000186:	8d 45 0c             	lea    0xc(%ebp),%eax
c0000189:	89 45 f0             	mov    %eax,-0x10(%ebp)
c000018c:	8b 45 08             	mov    0x8(%ebp),%eax
c000018f:	8b 55 f0             	mov    -0x10(%ebp),%edx
c0000192:	89 54 24 0c          	mov    %edx,0xc(%esp)
c0000196:	89 44 24 08          	mov    %eax,0x8(%esp)
c000019a:	c7 44 24 04 00 04 00 	movl   $0x400,0x4(%esp)
c00001a1:	00 
c00001a2:	8d 85 f0 fb ff ff    	lea    -0x410(%ebp),%eax
c00001a8:	89 04 24             	mov    %eax,(%esp)
c00001ab:	e8 d7 0f 00 00       	call   c0001187 <vsnprintf>
c00001b0:	c7 45 f0 00 00 00 00 	movl   $0x0,-0x10(%ebp)
c00001b7:	c7 45 f4 00 00 00 00 	movl   $0x0,-0xc(%ebp)
c00001be:	eb 31                	jmp    c00001f1 <kprintf+0x74>
c00001c0:	8d 95 f0 fb ff ff    	lea    -0x410(%ebp),%edx
c00001c6:	8b 45 f4             	mov    -0xc(%ebp),%eax
c00001c9:	01 d0                	add    %edx,%eax
c00001cb:	0f b6 00             	movzbl (%eax),%eax
c00001ce:	84 c0                	test   %al,%al
c00001d0:	75 02                	jne    c00001d4 <kprintf+0x57>
c00001d2:	eb 26                	jmp    c00001fa <kprintf+0x7d>
c00001d4:	8d 95 f0 fb ff ff    	lea    -0x410(%ebp),%edx
c00001da:	8b 45 f4             	mov    -0xc(%ebp),%eax
c00001dd:	01 d0                	add    %edx,%eax
c00001df:	0f b6 00             	movzbl (%eax),%eax
c00001e2:	0f be c0             	movsbl %al,%eax
c00001e5:	89 04 24             	mov    %eax,(%esp)
c00001e8:	e8 f8 fe ff ff       	call   c00000e5 <kputchar>
c00001ed:	83 45 f4 01          	addl   $0x1,-0xc(%ebp)
c00001f1:	81 7d f4 ff 03 00 00 	cmpl   $0x3ff,-0xc(%ebp)
c00001f8:	76 c6                	jbe    c00001c0 <kprintf+0x43>
c00001fa:	8b 45 f4             	mov    -0xc(%ebp),%eax
c00001fd:	c9                   	leave  
c00001fe:	c3                   	ret    

c00001ff <get_console_addr>:
get_console_addr():
c00001ff:	55                   	push   %ebp
c0000200:	89 e5                	mov    %esp,%ebp
c0000202:	83 7d 08 00          	cmpl   $0x0,0x8(%ebp)
c0000206:	78 13                	js     c000021b <get_console_addr+0x1c>
c0000208:	83 7d 08 02          	cmpl   $0x2,0x8(%ebp)
c000020c:	7f 0d                	jg     c000021b <get_console_addr+0x1c>
c000020e:	8b 45 08             	mov    0x8(%ebp),%eax
c0000211:	c1 e0 03             	shl    $0x3,%eax
c0000214:	05 00 30 01 c0       	add    $0xc0013000,%eax
c0000219:	eb 05                	jmp    c0000220 <get_console_addr+0x21>
c000021b:	b8 00 00 00 00       	mov    $0x0,%eax
c0000220:	5d                   	pop    %ebp
c0000221:	c3                   	ret    

c0000222 <k_main>:
k_main():
c0000222:	55                   	push   %ebp
c0000223:	89 e5                	mov    %esp,%ebp
c0000225:	83 ec 18             	sub    $0x18,%esp
c0000228:	e8 c8 0a 00 00       	call   c0000cf5 <initialize_video>
c000022d:	e8 80 fe ff ff       	call   c00000b2 <initialize_boot_console>
c0000232:	c7 04 24 07 00 00 00 	movl   $0x7,(%esp)
c0000239:	e8 1d ff ff ff       	call   c000015b <kset_color>
c000023e:	c7 04 24 58 17 00 c0 	movl   $0xc0001758,(%esp)
c0000245:	e8 33 ff ff ff       	call   c000017d <kprintf>
c000024a:	c7 04 24 09 00 00 00 	movl   $0x9,(%esp)
c0000251:	e8 05 ff ff ff       	call   c000015b <kset_color>
c0000256:	c7 04 24 64 17 00 c0 	movl   $0xc0001764,(%esp)
c000025d:	e8 1b ff ff ff       	call   c000017d <kprintf>
c0000262:	c7 04 24 07 00 00 00 	movl   $0x7,(%esp)
c0000269:	e8 ed fe ff ff       	call   c000015b <kset_color>
c000026e:	b8 00 00 00 c0       	mov    $0xc0000000,%eax
c0000273:	89 44 24 04          	mov    %eax,0x4(%esp)
c0000277:	c7 04 24 74 17 00 c0 	movl   $0xc0001774,(%esp)
c000027e:	e8 fa fe ff ff       	call   c000017d <kprintf>
c0000283:	a1 04 00 00 c0       	mov    0xc0000004,%eax
c0000288:	c1 e8 14             	shr    $0x14,%eax
c000028b:	89 44 24 04          	mov    %eax,0x4(%esp)
c000028f:	c7 04 24 a4 17 00 c0 	movl   $0xc00017a4,(%esp)
c0000296:	e8 e2 fe ff ff       	call   c000017d <kprintf>
c000029b:	e8 fa 02 00 00       	call   c000059a <initialize_paging>
c00002a0:	c7 44 24 08 c3 17 00 	movl   $0xc00017c3,0x8(%esp)
c00002a7:	c0 
c00002a8:	c7 44 24 04 d4 17 00 	movl   $0xc00017d4,0x4(%esp)
c00002af:	c0 
c00002b0:	c7 04 24 e4 17 00 c0 	movl   $0xc00017e4,(%esp)
c00002b7:	e8 c1 fe ff ff       	call   c000017d <kprintf>
c00002bc:	c7 44 24 08 25 00 00 	movl   $0x25,0x8(%esp)
c00002c3:	00 
c00002c4:	c7 44 24 04 d4 17 00 	movl   $0xc00017d4,0x4(%esp)
c00002cb:	c0 
c00002cc:	c7 04 24 04 18 00 c0 	movl   $0xc0001804,(%esp)
c00002d3:	e8 a5 fe ff ff       	call   c000017d <kprintf>
c00002d8:	eb fe                	jmp    c00002d8 <k_main+0xb6>

c00002da <memset8>:
memset8():
c00002da:	55                   	push   %ebp
c00002db:	89 e5                	mov    %esp,%ebp
c00002dd:	57                   	push   %edi
c00002de:	83 ec 04             	sub    $0x4,%esp
c00002e1:	8b 45 0c             	mov    0xc(%ebp),%eax
c00002e4:	88 45 f8             	mov    %al,-0x8(%ebp)
c00002e7:	8b 55 08             	mov    0x8(%ebp),%edx
c00002ea:	8b 4d 10             	mov    0x10(%ebp),%ecx
c00002ed:	0f b6 45 f8          	movzbl -0x8(%ebp),%eax
c00002f1:	89 d7                	mov    %edx,%edi
c00002f3:	fc                   	cld    
c00002f4:	f3 aa                	rep stos %al,%es:(%edi)
c00002f6:	83 c4 04             	add    $0x4,%esp
c00002f9:	5f                   	pop    %edi
c00002fa:	5d                   	pop    %ebp
c00002fb:	c3                   	ret    

c00002fc <memset16>:
memset16():
c00002fc:	55                   	push   %ebp
c00002fd:	89 e5                	mov    %esp,%ebp
c00002ff:	57                   	push   %edi
c0000300:	83 ec 04             	sub    $0x4,%esp
c0000303:	8b 45 0c             	mov    0xc(%ebp),%eax
c0000306:	66 89 45 f8          	mov    %ax,-0x8(%ebp)
c000030a:	8b 55 08             	mov    0x8(%ebp),%edx
c000030d:	8b 4d 10             	mov    0x10(%ebp),%ecx
c0000310:	0f b7 45 f8          	movzwl -0x8(%ebp),%eax
c0000314:	89 d7                	mov    %edx,%edi
c0000316:	fc                   	cld    
c0000317:	66 f3 ab             	rep stos %ax,%es:(%edi)
c000031a:	83 c4 04             	add    $0x4,%esp
c000031d:	5f                   	pop    %edi
c000031e:	5d                   	pop    %ebp
c000031f:	c3                   	ret    

c0000320 <memset32>:
memset32():
c0000320:	55                   	push   %ebp
c0000321:	89 e5                	mov    %esp,%ebp
c0000323:	57                   	push   %edi
c0000324:	8b 55 08             	mov    0x8(%ebp),%edx
c0000327:	8b 4d 10             	mov    0x10(%ebp),%ecx
c000032a:	8b 45 0c             	mov    0xc(%ebp),%eax
c000032d:	89 d7                	mov    %edx,%edi
c000032f:	fc                   	cld    
c0000330:	f3 ab                	rep stos %eax,%es:(%edi)
c0000332:	5f                   	pop    %edi
c0000333:	5d                   	pop    %ebp
c0000334:	c3                   	ret    

c0000335 <memcpy8>:
memcpy8():
c0000335:	55                   	push   %ebp
c0000336:	89 e5                	mov    %esp,%ebp
c0000338:	57                   	push   %edi
c0000339:	56                   	push   %esi
c000033a:	8b 45 08             	mov    0x8(%ebp),%eax
c000033d:	8b 55 0c             	mov    0xc(%ebp),%edx
c0000340:	8b 4d 10             	mov    0x10(%ebp),%ecx
c0000343:	89 c7                	mov    %eax,%edi
c0000345:	89 d6                	mov    %edx,%esi
c0000347:	fc                   	cld    
c0000348:	f3 a4                	rep movsb %ds:(%esi),%es:(%edi)
c000034a:	5e                   	pop    %esi
c000034b:	5f                   	pop    %edi
c000034c:	5d                   	pop    %ebp
c000034d:	c3                   	ret    

c000034e <memcpy32>:
memcpy32():
c000034e:	55                   	push   %ebp
c000034f:	89 e5                	mov    %esp,%ebp
c0000351:	57                   	push   %edi
c0000352:	56                   	push   %esi
c0000353:	8b 45 08             	mov    0x8(%ebp),%eax
c0000356:	8b 55 0c             	mov    0xc(%ebp),%edx
c0000359:	8b 4d 10             	mov    0x10(%ebp),%ecx
c000035c:	89 c7                	mov    %eax,%edi
c000035e:	89 d6                	mov    %edx,%esi
c0000360:	fc                   	cld    
c0000361:	f3 a5                	rep movsl %ds:(%esi),%es:(%edi)
c0000363:	5e                   	pop    %esi
c0000364:	5f                   	pop    %edi
c0000365:	5d                   	pop    %ebp
c0000366:	c3                   	ret    

c0000367 <invlpg>:
invlpg():
c0000367:	55                   	push   %ebp
c0000368:	89 e5                	mov    %esp,%ebp
c000036a:	0f 01 7d 08          	invlpg 0x8(%ebp)
c000036e:	5d                   	pop    %ebp
c000036f:	c3                   	ret    

c0000370 <pop_frame>:
pop_frame():
c0000370:	55                   	push   %ebp
c0000371:	89 e5                	mov    %esp,%ebp
c0000373:	83 ec 10             	sub    $0x10,%esp
c0000376:	9c                   	pushf  
c0000377:	58                   	pop    %eax
c0000378:	fa                   	cli    
c0000379:	89 45 fc             	mov    %eax,-0x4(%ebp)
c000037c:	a1 60 24 00 c0       	mov    0xc0002460,%eax
c0000381:	8b 00                	mov    (%eax),%eax
c0000383:	85 c0                	test   %eax,%eax
c0000385:	74 2b                	je     c00003b2 <pop_frame+0x42>
c0000387:	a1 60 24 00 c0       	mov    0xc0002460,%eax
c000038c:	8b 00                	mov    (%eax),%eax
c000038e:	89 45 f8             	mov    %eax,-0x8(%ebp)
c0000391:	a1 60 24 00 c0       	mov    0xc0002460,%eax
c0000396:	c7 00 00 00 00 00    	movl   $0x0,(%eax)
c000039c:	a1 60 24 00 c0       	mov    0xc0002460,%eax
c00003a1:	83 c0 04             	add    $0x4,%eax
c00003a4:	a3 60 24 00 c0       	mov    %eax,0xc0002460
c00003a9:	ff 75 fc             	pushl  -0x4(%ebp)
c00003ac:	9d                   	popf   
c00003ad:	8b 45 f8             	mov    -0x8(%ebp),%eax
c00003b0:	eb 09                	jmp    c00003bb <pop_frame+0x4b>
c00003b2:	ff 75 fc             	pushl  -0x4(%ebp)
c00003b5:	9d                   	popf   
c00003b6:	b8 00 00 00 00       	mov    $0x0,%eax
c00003bb:	c9                   	leave  
c00003bc:	c3                   	ret    

c00003bd <push_frame>:
push_frame():
c00003bd:	55                   	push   %ebp
c00003be:	89 e5                	mov    %esp,%ebp
c00003c0:	83 ec 10             	sub    $0x10,%esp
c00003c3:	9c                   	pushf  
c00003c4:	58                   	pop    %eax
c00003c5:	fa                   	cli    
c00003c6:	89 45 fc             	mov    %eax,-0x4(%ebp)
c00003c9:	a1 60 24 00 c0       	mov    0xc0002460,%eax
c00003ce:	89 c2                	mov    %eax,%edx
c00003d0:	b8 00 50 01 c0       	mov    $0xc0015000,%eax
c00003d5:	39 c2                	cmp    %eax,%edx
c00003d7:	76 17                	jbe    c00003f0 <push_frame+0x33>
c00003d9:	a1 60 24 00 c0       	mov    0xc0002460,%eax
c00003de:	83 e8 04             	sub    $0x4,%eax
c00003e1:	a3 60 24 00 c0       	mov    %eax,0xc0002460
c00003e6:	a1 60 24 00 c0       	mov    0xc0002460,%eax
c00003eb:	8b 55 08             	mov    0x8(%ebp),%edx
c00003ee:	89 10                	mov    %edx,(%eax)
c00003f0:	ff 75 fc             	pushl  -0x4(%ebp)
c00003f3:	9d                   	popf   
c00003f4:	c9                   	leave  
c00003f5:	c3                   	ret    

c00003f6 <init_free_frames>:
init_free_frames():
c00003f6:	55                   	push   %ebp
c00003f7:	89 e5                	mov    %esp,%ebp
c00003f9:	83 ec 10             	sub    $0x10,%esp
c00003fc:	c7 45 fc 00 10 00 00 	movl   $0x1000,-0x4(%ebp)
c0000403:	a1 60 24 00 c0       	mov    0xc0002460,%eax
c0000408:	a3 20 30 01 c0       	mov    %eax,0xc0013020
c000040d:	eb 19                	jmp    c0000428 <init_free_frames+0x32>
c000040f:	a1 20 30 01 c0       	mov    0xc0013020,%eax
c0000414:	8d 50 04             	lea    0x4(%eax),%edx
c0000417:	89 15 20 30 01 c0    	mov    %edx,0xc0013020
c000041d:	8b 55 fc             	mov    -0x4(%ebp),%edx
c0000420:	8d 4a 01             	lea    0x1(%edx),%ecx
c0000423:	89 4d fc             	mov    %ecx,-0x4(%ebp)
c0000426:	89 10                	mov    %edx,(%eax)
c0000428:	a1 04 00 00 c0       	mov    0xc0000004,%eax
c000042d:	c1 e8 0c             	shr    $0xc,%eax
c0000430:	3b 45 fc             	cmp    -0x4(%ebp),%eax
c0000433:	77 da                	ja     c000040f <init_free_frames+0x19>
c0000435:	a1 20 30 01 c0       	mov    0xc0013020,%eax
c000043a:	c7 00 00 00 00 00    	movl   $0x0,(%eax)
c0000440:	c9                   	leave  
c0000441:	c3                   	ret    

c0000442 <map_page>:
map_page():
c0000442:	55                   	push   %ebp
c0000443:	89 e5                	mov    %esp,%ebp
c0000445:	83 ec 28             	sub    $0x28,%esp
c0000448:	8b 45 10             	mov    0x10(%ebp),%eax
c000044b:	66 89 45 e4          	mov    %ax,-0x1c(%ebp)
c000044f:	9c                   	pushf  
c0000450:	58                   	pop    %eax
c0000451:	fa                   	cli    
c0000452:	89 45 f0             	mov    %eax,-0x10(%ebp)
c0000455:	81 65 08 00 f0 ff ff 	andl   $0xfffff000,0x8(%ebp)
c000045c:	81 65 0c 00 f0 ff ff 	andl   $0xfffff000,0xc(%ebp)
c0000463:	66 81 65 e4 ff 0f    	andw   $0xfff,-0x1c(%ebp)
c0000469:	8b 45 08             	mov    0x8(%ebp),%eax
c000046c:	c1 e8 16             	shr    $0x16,%eax
c000046f:	05 00 fc ff 3f       	add    $0x3ffffc00,%eax
c0000474:	c1 e0 02             	shl    $0x2,%eax
c0000477:	8b 00                	mov    (%eax),%eax
c0000479:	85 c0                	test   %eax,%eax
c000047b:	0f 85 da 00 00 00    	jne    c000055b <map_page+0x119>
c0000481:	e8 ea fe ff ff       	call   c0000370 <pop_frame>
c0000486:	c1 e0 0c             	shl    $0xc,%eax
c0000489:	89 45 ec             	mov    %eax,-0x14(%ebp)
c000048c:	8b 45 ec             	mov    -0x14(%ebp),%eax
c000048f:	89 44 24 08          	mov    %eax,0x8(%esp)
c0000493:	c7 44 24 04 20 18 00 	movl   $0xc0001820,0x4(%esp)
c000049a:	c0 
c000049b:	c7 04 24 30 18 00 c0 	movl   $0xc0001830,(%esp)
c00004a2:	e8 d6 fc ff ff       	call   c000017d <kprintf>
c00004a7:	83 7d ec 00          	cmpl   $0x0,-0x14(%ebp)
c00004ab:	75 0e                	jne    c00004bb <map_page+0x79>
c00004ad:	ff 75 f0             	pushl  -0x10(%ebp)
c00004b0:	9d                   	popf   
c00004b1:	b8 00 00 00 00       	mov    $0x0,%eax
c00004b6:	e9 dd 00 00 00       	jmp    c0000598 <map_page+0x156>
c00004bb:	8b 45 08             	mov    0x8(%ebp),%eax
c00004be:	c1 e8 16             	shr    $0x16,%eax
c00004c1:	05 00 fc ff 3f       	add    $0x3ffffc00,%eax
c00004c6:	c1 e0 02             	shl    $0x2,%eax
c00004c9:	8b 55 ec             	mov    -0x14(%ebp),%edx
c00004cc:	83 ca 07             	or     $0x7,%edx
c00004cf:	89 10                	mov    %edx,(%eax)
c00004d1:	8b 45 08             	mov    0x8(%ebp),%eax
c00004d4:	c1 e8 0a             	shr    $0xa,%eax
c00004d7:	83 e0 fc             	and    $0xfffffffc,%eax
c00004da:	2d 00 00 40 00       	sub    $0x400000,%eax
c00004df:	89 04 24             	mov    %eax,(%esp)
c00004e2:	e8 80 fe ff ff       	call   c0000367 <invlpg>
c00004e7:	8b 45 08             	mov    0x8(%ebp),%eax
c00004ea:	25 00 00 c0 ff       	and    $0xffc00000,%eax
c00004ef:	89 45 f4             	mov    %eax,-0xc(%ebp)
c00004f2:	eb 2d                	jmp    c0000521 <map_page+0xdf>
c00004f4:	8b 45 f4             	mov    -0xc(%ebp),%eax
c00004f7:	c1 e8 16             	shr    $0x16,%eax
c00004fa:	05 00 fc 0f 00       	add    $0xffc00,%eax
c00004ff:	c1 e0 0a             	shl    $0xa,%eax
c0000502:	89 c2                	mov    %eax,%edx
c0000504:	8b 45 f4             	mov    -0xc(%ebp),%eax
c0000507:	25 ff ff 3f 00       	and    $0x3fffff,%eax
c000050c:	c1 e8 0c             	shr    $0xc,%eax
c000050f:	01 d0                	add    %edx,%eax
c0000511:	c1 e0 02             	shl    $0x2,%eax
c0000514:	c7 00 00 00 00 00    	movl   $0x0,(%eax)
c000051a:	81 45 f4 00 10 00 00 	addl   $0x1000,-0xc(%ebp)
c0000521:	8b 45 08             	mov    0x8(%ebp),%eax
c0000524:	25 00 00 c0 ff       	and    $0xffc00000,%eax
c0000529:	05 00 00 40 00       	add    $0x400000,%eax
c000052e:	3b 45 f4             	cmp    -0xc(%ebp),%eax
c0000531:	77 c1                	ja     c00004f4 <map_page+0xb2>
c0000533:	81 7d 08 ff ff ff bf 	cmpl   $0xbfffffff,0x8(%ebp)
c000053a:	76 1f                	jbe    c000055b <map_page+0x119>
c000053c:	8b 45 08             	mov    0x8(%ebp),%eax
c000053f:	c1 e8 16             	shr    $0x16,%eax
c0000542:	89 c2                	mov    %eax,%edx
c0000544:	8b 45 08             	mov    0x8(%ebp),%eax
c0000547:	c1 e8 16             	shr    $0x16,%eax
c000054a:	05 00 fc ff 3f       	add    $0x3ffffc00,%eax
c000054f:	c1 e0 02             	shl    $0x2,%eax
c0000552:	8b 00                	mov    (%eax),%eax
c0000554:	89 04 95 40 30 01 c0 	mov    %eax,-0x3ffecfc0(,%edx,4)
c000055b:	8b 45 08             	mov    0x8(%ebp),%eax
c000055e:	c1 e8 16             	shr    $0x16,%eax
c0000561:	05 00 fc 0f 00       	add    $0xffc00,%eax
c0000566:	c1 e0 0a             	shl    $0xa,%eax
c0000569:	89 c2                	mov    %eax,%edx
c000056b:	8b 45 08             	mov    0x8(%ebp),%eax
c000056e:	25 ff ff 3f 00       	and    $0x3fffff,%eax
c0000573:	c1 e8 0c             	shr    $0xc,%eax
c0000576:	01 d0                	add    %edx,%eax
c0000578:	c1 e0 02             	shl    $0x2,%eax
c000057b:	0f b7 55 e4          	movzwl -0x1c(%ebp),%edx
c000057f:	0b 55 0c             	or     0xc(%ebp),%edx
c0000582:	89 10                	mov    %edx,(%eax)
c0000584:	8b 45 08             	mov    0x8(%ebp),%eax
c0000587:	89 04 24             	mov    %eax,(%esp)
c000058a:	e8 d8 fd ff ff       	call   c0000367 <invlpg>
c000058f:	ff 75 f0             	pushl  -0x10(%ebp)
c0000592:	9d                   	popf   
c0000593:	b8 01 00 00 00       	mov    $0x1,%eax
c0000598:	c9                   	leave  
c0000599:	c3                   	ret    

c000059a <initialize_paging>:
initialize_paging():
c000059a:	55                   	push   %ebp
c000059b:	89 e5                	mov    %esp,%ebp
c000059d:	83 ec 28             	sub    $0x28,%esp
c00005a0:	c7 44 24 08 00 00 c0 	movl   $0xffc00000,0x8(%esp)
c00005a7:	ff 
c00005a8:	c7 44 24 04 20 18 00 	movl   $0xc0001820,0x4(%esp)
c00005af:	c0 
c00005b0:	c7 04 24 41 18 00 c0 	movl   $0xc0001841,(%esp)
c00005b7:	e8 c1 fb ff ff       	call   c000017d <kprintf>
c00005bc:	c7 44 24 08 00 00 c0 	movl   $0xffc00000,0x8(%esp)
c00005c3:	ff 
c00005c4:	c7 44 24 04 20 18 00 	movl   $0xc0001820,0x4(%esp)
c00005cb:	c0 
c00005cc:	c7 04 24 60 18 00 c0 	movl   $0xc0001860,(%esp)
c00005d3:	e8 a5 fb ff ff       	call   c000017d <kprintf>
c00005d8:	c7 44 24 08 00 00 c0 	movl   $0xffc00000,0x8(%esp)
c00005df:	ff 
c00005e0:	c7 44 24 04 20 18 00 	movl   $0xc0001820,0x4(%esp)
c00005e7:	c0 
c00005e8:	c7 04 24 84 18 00 c0 	movl   $0xc0001884,(%esp)
c00005ef:	e8 89 fb ff ff       	call   c000017d <kprintf>
c00005f4:	c7 44 24 08 00 00 c0 	movl   $0xffc00000,0x8(%esp)
c00005fb:	ff 
c00005fc:	c7 44 24 04 20 18 00 	movl   $0xc0001820,0x4(%esp)
c0000603:	c0 
c0000604:	c7 04 24 ac 18 00 c0 	movl   $0xc00018ac,(%esp)
c000060b:	e8 6d fb ff ff       	call   c000017d <kprintf>
c0000610:	c7 44 24 08 04 00 c0 	movl   $0xffc00004,0x8(%esp)
c0000617:	ff 
c0000618:	c7 44 24 04 20 18 00 	movl   $0xc0001820,0x4(%esp)
c000061f:	c0 
c0000620:	c7 04 24 d8 18 00 c0 	movl   $0xc00018d8,(%esp)
c0000627:	e8 51 fb ff ff       	call   c000017d <kprintf>
c000062c:	c7 44 24 08 04 00 c0 	movl   $0xffc00004,0x8(%esp)
c0000633:	ff 
c0000634:	c7 44 24 04 20 18 00 	movl   $0xc0001820,0x4(%esp)
c000063b:	c0 
c000063c:	c7 04 24 00 19 00 c0 	movl   $0xc0001900,(%esp)
c0000643:	e8 35 fb ff ff       	call   c000017d <kprintf>
c0000648:	c7 44 24 08 04 00 c0 	movl   $0xffc00004,0x8(%esp)
c000064f:	ff 
c0000650:	c7 44 24 04 20 18 00 	movl   $0xc0001820,0x4(%esp)
c0000657:	c0 
c0000658:	c7 04 24 2c 19 00 c0 	movl   $0xc000192c,(%esp)
c000065f:	e8 19 fb ff ff       	call   c000017d <kprintf>
c0000664:	c7 44 24 08 04 00 c0 	movl   $0xffc00004,0x8(%esp)
c000066b:	ff 
c000066c:	c7 44 24 04 20 18 00 	movl   $0xc0001820,0x4(%esp)
c0000673:	c0 
c0000674:	c7 04 24 54 19 00 c0 	movl   $0xc0001954,(%esp)
c000067b:	e8 fd fa ff ff       	call   c000017d <kprintf>
c0000680:	c7 44 24 08 00 00 f0 	movl   $0xfff00000,0x8(%esp)
c0000687:	ff 
c0000688:	c7 44 24 04 20 18 00 	movl   $0xc0001820,0x4(%esp)
c000068f:	c0 
c0000690:	c7 04 24 80 19 00 c0 	movl   $0xc0001980,(%esp)
c0000697:	e8 e1 fa ff ff       	call   c000017d <kprintf>
c000069c:	c7 44 24 08 00 00 f0 	movl   $0xfff00000,0x8(%esp)
c00006a3:	ff 
c00006a4:	c7 44 24 04 20 18 00 	movl   $0xc0001820,0x4(%esp)
c00006ab:	c0 
c00006ac:	c7 04 24 a8 19 00 c0 	movl   $0xc00019a8,(%esp)
c00006b3:	e8 c5 fa ff ff       	call   c000017d <kprintf>
c00006b8:	c7 44 24 08 00 f0 ff 	movl   $0xfffff000,0x8(%esp)
c00006bf:	ff 
c00006c0:	c7 44 24 04 20 18 00 	movl   $0xc0001820,0x4(%esp)
c00006c7:	c0 
c00006c8:	c7 04 24 d4 19 00 c0 	movl   $0xc00019d4,(%esp)
c00006cf:	e8 a9 fa ff ff       	call   c000017d <kprintf>
c00006d4:	c7 44 24 08 00 f0 ff 	movl   $0xfffff000,0x8(%esp)
c00006db:	ff 
c00006dc:	c7 44 24 04 20 18 00 	movl   $0xc0001820,0x4(%esp)
c00006e3:	c0 
c00006e4:	c7 04 24 fc 19 00 c0 	movl   $0xc00019fc,(%esp)
c00006eb:	e8 8d fa ff ff       	call   c000017d <kprintf>
c00006f0:	c7 44 24 08 00 c0 fb 	movl   $0xfffbc000,0x8(%esp)
c00006f7:	ff 
c00006f8:	c7 44 24 04 20 18 00 	movl   $0xc0001820,0x4(%esp)
c00006ff:	c0 
c0000700:	c7 04 24 28 1a 00 c0 	movl   $0xc0001a28,(%esp)
c0000707:	e8 71 fa ff ff       	call   c000017d <kprintf>
c000070c:	c7 44 24 08 00 c0 fb 	movl   $0xfffbc000,0x8(%esp)
c0000713:	ff 
c0000714:	c7 44 24 04 20 18 00 	movl   $0xc0001820,0x4(%esp)
c000071b:	c0 
c000071c:	c7 04 24 50 1a 00 c0 	movl   $0xc0001a50,(%esp)
c0000723:	e8 55 fa ff ff       	call   c000017d <kprintf>
c0000728:	c7 44 24 08 fc ff ff 	movl   $0xfffffffc,0x8(%esp)
c000072f:	ff 
c0000730:	c7 44 24 04 20 18 00 	movl   $0xc0001820,0x4(%esp)
c0000737:	c0 
c0000738:	c7 04 24 7c 1a 00 c0 	movl   $0xc0001a7c,(%esp)
c000073f:	e8 39 fa ff ff       	call   c000017d <kprintf>
c0000744:	c7 44 24 08 fc ff ff 	movl   $0xfffffffc,0x8(%esp)
c000074b:	ff 
c000074c:	c7 44 24 04 20 18 00 	movl   $0xc0001820,0x4(%esp)
c0000753:	c0 
c0000754:	c7 04 24 a4 1a 00 c0 	movl   $0xc0001aa4,(%esp)
c000075b:	e8 1d fa ff ff       	call   c000017d <kprintf>
c0000760:	e8 91 fc ff ff       	call   c00003f6 <init_free_frames>
c0000765:	b8 00 f0 ff ff       	mov    $0xfffff000,%eax
c000076a:	c7 00 00 00 00 00    	movl   $0x0,(%eax)
c0000770:	c7 45 f4 00 00 00 e0 	movl   $0xe0000000,-0xc(%ebp)
c0000777:	eb 26                	jmp    c000079f <initialize_paging+0x205>
c0000779:	8b 45 f4             	mov    -0xc(%ebp),%eax
c000077c:	05 00 00 00 20       	add    $0x20000000,%eax
c0000781:	c7 44 24 08 03 00 00 	movl   $0x3,0x8(%esp)
c0000788:	00 
c0000789:	89 44 24 04          	mov    %eax,0x4(%esp)
c000078d:	8b 45 f4             	mov    -0xc(%ebp),%eax
c0000790:	89 04 24             	mov    %eax,(%esp)
c0000793:	e8 aa fc ff ff       	call   c0000442 <map_page>
c0000798:	81 45 f4 00 10 00 00 	addl   $0x1000,-0xc(%ebp)
c000079f:	81 7d f4 ff ff ff e0 	cmpl   $0xe0ffffff,-0xc(%ebp)
c00007a6:	76 d1                	jbe    c0000779 <initialize_paging+0x1df>
c00007a8:	c9                   	leave  
c00007a9:	c3                   	ret    

c00007aa <dump_dirty_pages>:
dump_dirty_pages():
c00007aa:	55                   	push   %ebp
c00007ab:	89 e5                	mov    %esp,%ebp
c00007ad:	83 ec 28             	sub    $0x28,%esp
c00007b0:	c7 45 f0 01 00 00 00 	movl   $0x1,-0x10(%ebp)
c00007b7:	c7 04 24 ce 1a 00 c0 	movl   $0xc0001ace,(%esp)
c00007be:	e8 ba f9 ff ff       	call   c000017d <kprintf>
c00007c3:	c7 45 f4 00 00 00 00 	movl   $0x0,-0xc(%ebp)
c00007ca:	eb 77                	jmp    c0000843 <dump_dirty_pages+0x99>
c00007cc:	8b 45 f4             	mov    -0xc(%ebp),%eax
c00007cf:	c1 e8 14             	shr    $0x14,%eax
c00007d2:	83 e0 fc             	and    $0xfffffffc,%eax
c00007d5:	2d 00 10 00 00       	sub    $0x1000,%eax
c00007da:	8b 00                	mov    (%eax),%eax
c00007dc:	85 c0                	test   %eax,%eax
c00007de:	74 5c                	je     c000083c <dump_dirty_pages+0x92>
c00007e0:	8b 45 f4             	mov    -0xc(%ebp),%eax
c00007e3:	c1 e8 0a             	shr    $0xa,%eax
c00007e6:	83 e0 fc             	and    $0xfffffffc,%eax
c00007e9:	2d 00 00 40 00       	sub    $0x400000,%eax
c00007ee:	8b 00                	mov    (%eax),%eax
c00007f0:	83 e0 40             	and    $0x40,%eax
c00007f3:	85 c0                	test   %eax,%eax
c00007f5:	74 45                	je     c000083c <dump_dirty_pages+0x92>
c00007f7:	83 45 f0 01          	addl   $0x1,-0x10(%ebp)
c00007fb:	8b 4d f0             	mov    -0x10(%ebp),%ecx
c00007fe:	ba ab aa aa aa       	mov    $0xaaaaaaab,%edx
c0000803:	89 c8                	mov    %ecx,%eax
c0000805:	f7 e2                	mul    %edx
c0000807:	c1 ea 04             	shr    $0x4,%edx
c000080a:	89 d0                	mov    %edx,%eax
c000080c:	01 c0                	add    %eax,%eax
c000080e:	01 d0                	add    %edx,%eax
c0000810:	c1 e0 03             	shl    $0x3,%eax
c0000813:	29 c1                	sub    %eax,%ecx
c0000815:	8b 45 f4             	mov    -0xc(%ebp),%eax
c0000818:	c1 e8 0a             	shr    $0xa,%eax
c000081b:	83 e0 fc             	and    $0xfffffffc,%eax
c000081e:	2d 00 00 40 00       	sub    $0x400000,%eax
c0000823:	8b 00                	mov    (%eax),%eax
c0000825:	89 44 24 08          	mov    %eax,0x8(%esp)
c0000829:	8b 45 f4             	mov    -0xc(%ebp),%eax
c000082c:	89 44 24 04          	mov    %eax,0x4(%esp)
c0000830:	c7 04 24 e0 1a 00 c0 	movl   $0xc0001ae0,(%esp)
c0000837:	e8 41 f9 ff ff       	call   c000017d <kprintf>
c000083c:	81 45 f4 00 10 00 00 	addl   $0x1000,-0xc(%ebp)
c0000843:	81 7d f4 ff ff bf ff 	cmpl   $0xffbfffff,-0xc(%ebp)
c000084a:	76 80                	jbe    c00007cc <dump_dirty_pages+0x22>
c000084c:	c7 04 24 ff 1a 00 c0 	movl   $0xc0001aff,(%esp)
c0000853:	e8 25 f9 ff ff       	call   c000017d <kprintf>
c0000858:	c9                   	leave  
c0000859:	c3                   	ret    

c000085a <dump_free_frames>:
dump_free_frames():
c000085a:	55                   	push   %ebp
c000085b:	89 e5                	mov    %esp,%ebp
c000085d:	83 ec 28             	sub    $0x28,%esp
c0000860:	a1 60 24 00 c0       	mov    0xc0002460,%eax
c0000865:	89 45 f4             	mov    %eax,-0xc(%ebp)
c0000868:	c7 45 f0 01 00 00 00 	movl   $0x1,-0x10(%ebp)
c000086f:	b8 00 50 01 c0       	mov    $0xc0015000,%eax
c0000874:	89 44 24 04          	mov    %eax,0x4(%esp)
c0000878:	c7 04 24 04 1b 00 c0 	movl   $0xc0001b04,(%esp)
c000087f:	e8 f9 f8 ff ff       	call   c000017d <kprintf>
c0000884:	8b 45 f4             	mov    -0xc(%ebp),%eax
c0000887:	8b 00                	mov    (%eax),%eax
c0000889:	85 c0                	test   %eax,%eax
c000088b:	75 02                	jne    c000088f <dump_free_frames+0x35>
c000088d:	eb 40                	jmp    c00008cf <dump_free_frames+0x75>
c000088f:	83 45 f0 01          	addl   $0x1,-0x10(%ebp)
c0000893:	8b 4d f0             	mov    -0x10(%ebp),%ecx
c0000896:	ba ab aa aa aa       	mov    $0xaaaaaaab,%edx
c000089b:	89 c8                	mov    %ecx,%eax
c000089d:	f7 e2                	mul    %edx
c000089f:	c1 ea 04             	shr    $0x4,%edx
c00008a2:	89 d0                	mov    %edx,%eax
c00008a4:	01 c0                	add    %eax,%eax
c00008a6:	01 d0                	add    %edx,%eax
c00008a8:	c1 e0 03             	shl    $0x3,%eax
c00008ab:	29 c1                	sub    %eax,%ecx
c00008ad:	8b 55 f4             	mov    -0xc(%ebp),%edx
c00008b0:	8b 45 f4             	mov    -0xc(%ebp),%eax
c00008b3:	8b 00                	mov    (%eax),%eax
c00008b5:	89 54 24 08          	mov    %edx,0x8(%esp)
c00008b9:	89 44 24 04          	mov    %eax,0x4(%esp)
c00008bd:	c7 04 24 28 1b 00 c0 	movl   $0xc0001b28,(%esp)
c00008c4:	e8 b4 f8 ff ff       	call   c000017d <kprintf>
c00008c9:	83 45 f4 04          	addl   $0x4,-0xc(%ebp)
c00008cd:	eb b5                	jmp    c0000884 <dump_free_frames+0x2a>
c00008cf:	c7 04 24 ff 1a 00 c0 	movl   $0xc0001aff,(%esp)
c00008d6:	e8 a2 f8 ff ff       	call   c000017d <kprintf>
c00008db:	c9                   	leave  
c00008dc:	c3                   	ret    

c00008dd <outport8>:
outport8():
c00008dd:	55                   	push   %ebp
c00008de:	89 e5                	mov    %esp,%ebp
c00008e0:	83 ec 08             	sub    $0x8,%esp
c00008e3:	8b 55 08             	mov    0x8(%ebp),%edx
c00008e6:	8b 45 0c             	mov    0xc(%ebp),%eax
c00008e9:	66 89 55 fc          	mov    %dx,-0x4(%ebp)
c00008ed:	88 45 f8             	mov    %al,-0x8(%ebp)
c00008f0:	0f b7 55 fc          	movzwl -0x4(%ebp),%edx
c00008f4:	0f b6 45 f8          	movzbl -0x8(%ebp),%eax
c00008f8:	ee                   	out    %al,(%dx)
c00008f9:	c9                   	leave  
c00008fa:	c3                   	ret    

c00008fb <video_move_cursor>:
video_move_cursor():
c00008fb:	55                   	push   %ebp
c00008fc:	89 e5                	mov    %esp,%ebp
c00008fe:	83 ec 20             	sub    $0x20,%esp
c0000901:	8b 55 08             	mov    0x8(%ebp),%edx
c0000904:	8b 45 0c             	mov    0xc(%ebp),%eax
c0000907:	88 55 ec             	mov    %dl,-0x14(%ebp)
c000090a:	88 45 e8             	mov    %al,-0x18(%ebp)
c000090d:	0f b6 55 e8          	movzbl -0x18(%ebp),%edx
c0000911:	0f b7 05 64 24 00 c0 	movzwl 0xc0002464,%eax
c0000918:	0f af d0             	imul   %eax,%edx
c000091b:	0f b6 45 ec          	movzbl -0x14(%ebp),%eax
c000091f:	01 d0                	add    %edx,%eax
c0000921:	66 89 45 fe          	mov    %ax,-0x2(%ebp)
c0000925:	c7 44 24 04 0e 00 00 	movl   $0xe,0x4(%esp)
c000092c:	00 
c000092d:	c7 04 24 d4 03 00 00 	movl   $0x3d4,(%esp)
c0000934:	e8 a4 ff ff ff       	call   c00008dd <outport8>
c0000939:	0f b7 45 fe          	movzwl -0x2(%ebp),%eax
c000093d:	66 c1 e8 08          	shr    $0x8,%ax
c0000941:	0f b6 c0             	movzbl %al,%eax
c0000944:	89 44 24 04          	mov    %eax,0x4(%esp)
c0000948:	c7 04 24 d5 03 00 00 	movl   $0x3d5,(%esp)
c000094f:	e8 89 ff ff ff       	call   c00008dd <outport8>
c0000954:	c7 44 24 04 0f 00 00 	movl   $0xf,0x4(%esp)
c000095b:	00 
c000095c:	c7 04 24 d4 03 00 00 	movl   $0x3d4,(%esp)
c0000963:	e8 75 ff ff ff       	call   c00008dd <outport8>
c0000968:	0f b7 45 fe          	movzwl -0x2(%ebp),%eax
c000096c:	0f b6 c0             	movzbl %al,%eax
c000096f:	89 44 24 04          	mov    %eax,0x4(%esp)
c0000973:	c7 04 24 d5 03 00 00 	movl   $0x3d5,(%esp)
c000097a:	e8 5e ff ff ff       	call   c00008dd <outport8>
c000097f:	c9                   	leave  
c0000980:	c3                   	ret    

c0000981 <video_set_color>:
video_set_color():
c0000981:	55                   	push   %ebp
c0000982:	89 e5                	mov    %esp,%ebp
c0000984:	83 ec 04             	sub    $0x4,%esp
c0000987:	8b 45 0c             	mov    0xc(%ebp),%eax
c000098a:	88 45 fc             	mov    %al,-0x4(%ebp)
c000098d:	8b 45 08             	mov    0x8(%ebp),%eax
c0000990:	0f b6 55 fc          	movzbl -0x4(%ebp),%edx
c0000994:	88 50 06             	mov    %dl,0x6(%eax)
c0000997:	c9                   	leave  
c0000998:	c3                   	ret    

c0000999 <video_clrscr>:
video_clrscr():
c0000999:	55                   	push   %ebp
c000099a:	89 e5                	mov    %esp,%ebp
c000099c:	83 ec 28             	sub    $0x28,%esp
c000099f:	9c                   	pushf  
c00009a0:	58                   	pop    %eax
c00009a1:	fa                   	cli    
c00009a2:	89 45 f4             	mov    %eax,-0xc(%ebp)
c00009a5:	0f b7 05 64 24 00 c0 	movzwl 0xc0002464,%eax
c00009ac:	0f b7 d0             	movzwl %ax,%edx
c00009af:	0f b7 05 66 24 00 c0 	movzwl 0xc0002466,%eax
c00009b6:	0f b7 c0             	movzwl %ax,%eax
c00009b9:	0f af c2             	imul   %edx,%eax
c00009bc:	01 c0                	add    %eax,%eax
c00009be:	89 c2                	mov    %eax,%edx
c00009c0:	8b 45 08             	mov    0x8(%ebp),%eax
c00009c3:	8b 00                	mov    (%eax),%eax
c00009c5:	89 54 24 08          	mov    %edx,0x8(%esp)
c00009c9:	c7 44 24 04 20 0f 00 	movl   $0xf20,0x4(%esp)
c00009d0:	00 
c00009d1:	89 04 24             	mov    %eax,(%esp)
c00009d4:	e8 23 f9 ff ff       	call   c00002fc <memset16>
c00009d9:	8b 45 08             	mov    0x8(%ebp),%eax
c00009dc:	c6 40 04 00          	movb   $0x0,0x4(%eax)
c00009e0:	8b 45 08             	mov    0x8(%ebp),%eax
c00009e3:	c6 40 05 00          	movb   $0x0,0x5(%eax)
c00009e7:	c7 04 24 00 00 00 00 	movl   $0x0,(%esp)
c00009ee:	e8 0c f8 ff ff       	call   c00001ff <get_console_addr>
c00009f3:	3b 45 08             	cmp    0x8(%ebp),%eax
c00009f6:	75 20                	jne    c0000a18 <video_clrscr+0x7f>
c00009f8:	8b 45 08             	mov    0x8(%ebp),%eax
c00009fb:	0f b6 40 05          	movzbl 0x5(%eax),%eax
c00009ff:	0f b6 d0             	movzbl %al,%edx
c0000a02:	8b 45 08             	mov    0x8(%ebp),%eax
c0000a05:	0f b6 40 04          	movzbl 0x4(%eax),%eax
c0000a09:	0f b6 c0             	movzbl %al,%eax
c0000a0c:	89 54 24 04          	mov    %edx,0x4(%esp)
c0000a10:	89 04 24             	mov    %eax,(%esp)
c0000a13:	e8 e3 fe ff ff       	call   c00008fb <video_move_cursor>
c0000a18:	ff 75 f4             	pushl  -0xc(%ebp)
c0000a1b:	9d                   	popf   
c0000a1c:	c9                   	leave  
c0000a1d:	c3                   	ret    

c0000a1e <video_scroll_console>:
video_scroll_console():
c0000a1e:	55                   	push   %ebp
c0000a1f:	89 e5                	mov    %esp,%ebp
c0000a21:	53                   	push   %ebx
c0000a22:	83 ec 24             	sub    $0x24,%esp
c0000a25:	9c                   	pushf  
c0000a26:	58                   	pop    %eax
c0000a27:	fa                   	cli    
c0000a28:	89 45 f0             	mov    %eax,-0x10(%ebp)
c0000a2b:	8b 45 08             	mov    0x8(%ebp),%eax
c0000a2e:	0f b6 40 05          	movzbl 0x5(%eax),%eax
c0000a32:	0f b6 d0             	movzbl %al,%edx
c0000a35:	0f b7 05 66 24 00 c0 	movzwl 0xc0002466,%eax
c0000a3c:	66 39 c2             	cmp    %ax,%dx
c0000a3f:	0f 82 ad 00 00 00    	jb     c0000af2 <video_scroll_console+0xd4>
c0000a45:	c7 45 f4 00 00 00 00 	movl   $0x0,-0xc(%ebp)
c0000a4c:	eb 2e                	jmp    c0000a7c <video_scroll_console+0x5e>
c0000a4e:	8b 45 08             	mov    0x8(%ebp),%eax
c0000a51:	8b 00                	mov    (%eax),%eax
c0000a53:	8b 55 f4             	mov    -0xc(%ebp),%edx
c0000a56:	01 d2                	add    %edx,%edx
c0000a58:	01 c2                	add    %eax,%edx
c0000a5a:	8b 45 08             	mov    0x8(%ebp),%eax
c0000a5d:	8b 00                	mov    (%eax),%eax
c0000a5f:	0f b7 0d 64 24 00 c0 	movzwl 0xc0002464,%ecx
c0000a66:	0f b7 d9             	movzwl %cx,%ebx
c0000a69:	8b 4d f4             	mov    -0xc(%ebp),%ecx
c0000a6c:	01 d9                	add    %ebx,%ecx
c0000a6e:	01 c9                	add    %ecx,%ecx
c0000a70:	01 c8                	add    %ecx,%eax
c0000a72:	0f b7 00             	movzwl (%eax),%eax
c0000a75:	66 89 02             	mov    %ax,(%edx)
c0000a78:	83 45 f4 01          	addl   $0x1,-0xc(%ebp)
c0000a7c:	0f b7 05 66 24 00 c0 	movzwl 0xc0002466,%eax
c0000a83:	0f b7 c0             	movzwl %ax,%eax
c0000a86:	8d 50 ff             	lea    -0x1(%eax),%edx
c0000a89:	0f b7 05 64 24 00 c0 	movzwl 0xc0002464,%eax
c0000a90:	0f b7 c0             	movzwl %ax,%eax
c0000a93:	0f af c2             	imul   %edx,%eax
c0000a96:	3b 45 f4             	cmp    -0xc(%ebp),%eax
c0000a99:	7f b3                	jg     c0000a4e <video_scroll_console+0x30>
c0000a9b:	0f b7 05 66 24 00 c0 	movzwl 0xc0002466,%eax
c0000aa2:	8d 50 ff             	lea    -0x1(%eax),%edx
c0000aa5:	8b 45 08             	mov    0x8(%ebp),%eax
c0000aa8:	88 50 05             	mov    %dl,0x5(%eax)
c0000aab:	c7 45 f4 00 00 00 00 	movl   $0x0,-0xc(%ebp)
c0000ab2:	eb 2f                	jmp    c0000ae3 <video_scroll_console+0xc5>
c0000ab4:	8b 45 08             	mov    0x8(%ebp),%eax
c0000ab7:	0f b6 40 05          	movzbl 0x5(%eax),%eax
c0000abb:	0f b6 d0             	movzbl %al,%edx
c0000abe:	8b 45 f4             	mov    -0xc(%ebp),%eax
c0000ac1:	0f b6 c0             	movzbl %al,%eax
c0000ac4:	8b 4d 08             	mov    0x8(%ebp),%ecx
c0000ac7:	89 4c 24 0c          	mov    %ecx,0xc(%esp)
c0000acb:	c7 44 24 08 20 00 00 	movl   $0x20,0x8(%esp)
c0000ad2:	00 
c0000ad3:	89 54 24 04          	mov    %edx,0x4(%esp)
c0000ad7:	89 04 24             	mov    %eax,(%esp)
c0000ada:	e8 1d 00 00 00       	call   c0000afc <video_place_char>
c0000adf:	83 45 f4 01          	addl   $0x1,-0xc(%ebp)
c0000ae3:	0f b7 05 64 24 00 c0 	movzwl 0xc0002464,%eax
c0000aea:	0f b7 c0             	movzwl %ax,%eax
c0000aed:	3b 45 f4             	cmp    -0xc(%ebp),%eax
c0000af0:	7f c2                	jg     c0000ab4 <video_scroll_console+0x96>
c0000af2:	ff 75 f0             	pushl  -0x10(%ebp)
c0000af5:	9d                   	popf   
c0000af6:	83 c4 24             	add    $0x24,%esp
c0000af9:	5b                   	pop    %ebx
c0000afa:	5d                   	pop    %ebp
c0000afb:	c3                   	ret    

c0000afc <video_place_char>:
video_place_char():
c0000afc:	55                   	push   %ebp
c0000afd:	89 e5                	mov    %esp,%ebp
c0000aff:	83 ec 1c             	sub    $0x1c,%esp
c0000b02:	8b 4d 08             	mov    0x8(%ebp),%ecx
c0000b05:	8b 55 0c             	mov    0xc(%ebp),%edx
c0000b08:	8b 45 10             	mov    0x10(%ebp),%eax
c0000b0b:	88 4d ec             	mov    %cl,-0x14(%ebp)
c0000b0e:	88 55 e8             	mov    %dl,-0x18(%ebp)
c0000b11:	88 45 e4             	mov    %al,-0x1c(%ebp)
c0000b14:	0f b6 55 e8          	movzbl -0x18(%ebp),%edx
c0000b18:	0f b7 05 64 24 00 c0 	movzwl 0xc0002464,%eax
c0000b1f:	0f b7 c0             	movzwl %ax,%eax
c0000b22:	0f af d0             	imul   %eax,%edx
c0000b25:	0f b6 45 ec          	movzbl -0x14(%ebp),%eax
c0000b29:	01 d0                	add    %edx,%eax
c0000b2b:	89 45 fc             	mov    %eax,-0x4(%ebp)
c0000b2e:	8b 45 14             	mov    0x14(%ebp),%eax
c0000b31:	8b 00                	mov    (%eax),%eax
c0000b33:	8b 55 fc             	mov    -0x4(%ebp),%edx
c0000b36:	01 d2                	add    %edx,%edx
c0000b38:	01 c2                	add    %eax,%edx
c0000b3a:	8b 45 14             	mov    0x14(%ebp),%eax
c0000b3d:	0f b6 40 06          	movzbl 0x6(%eax),%eax
c0000b41:	0f b6 c0             	movzbl %al,%eax
c0000b44:	c1 e0 08             	shl    $0x8,%eax
c0000b47:	89 c1                	mov    %eax,%ecx
c0000b49:	0f b6 45 e4          	movzbl -0x1c(%ebp),%eax
c0000b4d:	09 c8                	or     %ecx,%eax
c0000b4f:	66 89 02             	mov    %ax,(%edx)
c0000b52:	c9                   	leave  
c0000b53:	c3                   	ret    

c0000b54 <video_put_char>:
video_put_char():
c0000b54:	55                   	push   %ebp
c0000b55:	89 e5                	mov    %esp,%ebp
c0000b57:	53                   	push   %ebx
c0000b58:	83 ec 34             	sub    $0x34,%esp
c0000b5b:	8b 45 08             	mov    0x8(%ebp),%eax
c0000b5e:	88 45 e4             	mov    %al,-0x1c(%ebp)
c0000b61:	9c                   	pushf  
c0000b62:	58                   	pop    %eax
c0000b63:	fa                   	cli    
c0000b64:	89 45 f4             	mov    %eax,-0xc(%ebp)
c0000b67:	0f b6 45 e4          	movzbl -0x1c(%ebp),%eax
c0000b6b:	83 e8 07             	sub    $0x7,%eax
c0000b6e:	83 f8 06             	cmp    $0x6,%eax
c0000b71:	0f 87 c8 00 00 00    	ja     c0000c3f <video_put_char+0xeb>
c0000b77:	8b 04 85 40 1b 00 c0 	mov    -0x3fffe4c0(,%eax,4),%eax
c0000b7e:	ff e0                	jmp    *%eax
c0000b80:	8b 45 0c             	mov    0xc(%ebp),%eax
c0000b83:	0f b6 40 05          	movzbl 0x5(%eax),%eax
c0000b87:	8d 50 01             	lea    0x1(%eax),%edx
c0000b8a:	8b 45 0c             	mov    0xc(%ebp),%eax
c0000b8d:	88 50 05             	mov    %dl,0x5(%eax)
c0000b90:	8b 45 0c             	mov    0xc(%ebp),%eax
c0000b93:	c6 40 04 00          	movb   $0x0,0x4(%eax)
c0000b97:	e9 e3 00 00 00       	jmp    c0000c7f <video_put_char+0x12b>
c0000b9c:	8b 45 0c             	mov    0xc(%ebp),%eax
c0000b9f:	c6 40 04 00          	movb   $0x0,0x4(%eax)
c0000ba3:	e9 d7 00 00 00       	jmp    c0000c7f <video_put_char+0x12b>
c0000ba8:	8b 45 0c             	mov    0xc(%ebp),%eax
c0000bab:	0f b6 40 04          	movzbl 0x4(%eax),%eax
c0000baf:	84 c0                	test   %al,%al
c0000bb1:	75 34                	jne    c0000be7 <video_put_char+0x93>
c0000bb3:	8b 45 0c             	mov    0xc(%ebp),%eax
c0000bb6:	0f b6 40 05          	movzbl 0x5(%eax),%eax
c0000bba:	84 c0                	test   %al,%al
c0000bbc:	75 05                	jne    c0000bc3 <video_put_char+0x6f>
c0000bbe:	e9 2c 01 00 00       	jmp    c0000cef <video_put_char+0x19b>
c0000bc3:	8b 45 0c             	mov    0xc(%ebp),%eax
c0000bc6:	0f b6 40 05          	movzbl 0x5(%eax),%eax
c0000bca:	8d 50 ff             	lea    -0x1(%eax),%edx
c0000bcd:	8b 45 0c             	mov    0xc(%ebp),%eax
c0000bd0:	88 50 05             	mov    %dl,0x5(%eax)
c0000bd3:	0f b7 05 64 24 00 c0 	movzwl 0xc0002464,%eax
c0000bda:	89 c2                	mov    %eax,%edx
c0000bdc:	8b 45 0c             	mov    0xc(%ebp),%eax
c0000bdf:	88 50 04             	mov    %dl,0x4(%eax)
c0000be2:	e9 98 00 00 00       	jmp    c0000c7f <video_put_char+0x12b>
c0000be7:	8b 45 0c             	mov    0xc(%ebp),%eax
c0000bea:	0f b6 40 04          	movzbl 0x4(%eax),%eax
c0000bee:	8d 50 01             	lea    0x1(%eax),%edx
c0000bf1:	8b 45 0c             	mov    0xc(%ebp),%eax
c0000bf4:	88 50 04             	mov    %dl,0x4(%eax)
c0000bf7:	8b 45 0c             	mov    0xc(%ebp),%eax
c0000bfa:	0f b6 40 05          	movzbl 0x5(%eax),%eax
c0000bfe:	0f b6 d0             	movzbl %al,%edx
c0000c01:	8b 45 0c             	mov    0xc(%ebp),%eax
c0000c04:	0f b6 40 04          	movzbl 0x4(%eax),%eax
c0000c08:	0f b6 c0             	movzbl %al,%eax
c0000c0b:	8b 4d 0c             	mov    0xc(%ebp),%ecx
c0000c0e:	89 4c 24 0c          	mov    %ecx,0xc(%esp)
c0000c12:	c7 44 24 08 20 00 00 	movl   $0x20,0x8(%esp)
c0000c19:	00 
c0000c1a:	89 54 24 04          	mov    %edx,0x4(%esp)
c0000c1e:	89 04 24             	mov    %eax,(%esp)
c0000c21:	e8 d6 fe ff ff       	call   c0000afc <video_place_char>
c0000c26:	eb 57                	jmp    c0000c7f <video_put_char+0x12b>
c0000c28:	8b 45 0c             	mov    0xc(%ebp),%eax
c0000c2b:	0f b6 40 04          	movzbl 0x4(%eax),%eax
c0000c2f:	83 c0 08             	add    $0x8,%eax
c0000c32:	83 e0 f8             	and    $0xfffffff8,%eax
c0000c35:	89 c2                	mov    %eax,%edx
c0000c37:	8b 45 0c             	mov    0xc(%ebp),%eax
c0000c3a:	88 50 04             	mov    %dl,0x4(%eax)
c0000c3d:	eb 40                	jmp    c0000c7f <video_put_char+0x12b>
c0000c3f:	0f b6 4d e4          	movzbl -0x1c(%ebp),%ecx
c0000c43:	8b 45 0c             	mov    0xc(%ebp),%eax
c0000c46:	0f b6 40 05          	movzbl 0x5(%eax),%eax
c0000c4a:	0f b6 d0             	movzbl %al,%edx
c0000c4d:	8b 45 0c             	mov    0xc(%ebp),%eax
c0000c50:	0f b6 40 04          	movzbl 0x4(%eax),%eax
c0000c54:	0f b6 c0             	movzbl %al,%eax
c0000c57:	8b 5d 0c             	mov    0xc(%ebp),%ebx
c0000c5a:	89 5c 24 0c          	mov    %ebx,0xc(%esp)
c0000c5e:	89 4c 24 08          	mov    %ecx,0x8(%esp)
c0000c62:	89 54 24 04          	mov    %edx,0x4(%esp)
c0000c66:	89 04 24             	mov    %eax,(%esp)
c0000c69:	e8 8e fe ff ff       	call   c0000afc <video_place_char>
c0000c6e:	8b 45 0c             	mov    0xc(%ebp),%eax
c0000c71:	0f b6 40 04          	movzbl 0x4(%eax),%eax
c0000c75:	8d 50 01             	lea    0x1(%eax),%edx
c0000c78:	8b 45 0c             	mov    0xc(%ebp),%eax
c0000c7b:	88 50 04             	mov    %dl,0x4(%eax)
c0000c7e:	90                   	nop
c0000c7f:	8b 45 0c             	mov    0xc(%ebp),%eax
c0000c82:	0f b6 40 04          	movzbl 0x4(%eax),%eax
c0000c86:	0f b6 d0             	movzbl %al,%edx
c0000c89:	0f b7 05 64 24 00 c0 	movzwl 0xc0002464,%eax
c0000c90:	66 39 c2             	cmp    %ax,%dx
c0000c93:	72 17                	jb     c0000cac <video_put_char+0x158>
c0000c95:	8b 45 0c             	mov    0xc(%ebp),%eax
c0000c98:	c6 40 04 00          	movb   $0x0,0x4(%eax)
c0000c9c:	8b 45 0c             	mov    0xc(%ebp),%eax
c0000c9f:	0f b6 40 05          	movzbl 0x5(%eax),%eax
c0000ca3:	8d 50 01             	lea    0x1(%eax),%edx
c0000ca6:	8b 45 0c             	mov    0xc(%ebp),%eax
c0000ca9:	88 50 05             	mov    %dl,0x5(%eax)
c0000cac:	8b 45 0c             	mov    0xc(%ebp),%eax
c0000caf:	89 04 24             	mov    %eax,(%esp)
c0000cb2:	e8 67 fd ff ff       	call   c0000a1e <video_scroll_console>
c0000cb7:	c7 04 24 00 00 00 00 	movl   $0x0,(%esp)
c0000cbe:	e8 3c f5 ff ff       	call   c00001ff <get_console_addr>
c0000cc3:	3b 45 0c             	cmp    0xc(%ebp),%eax
c0000cc6:	75 20                	jne    c0000ce8 <video_put_char+0x194>
c0000cc8:	8b 45 0c             	mov    0xc(%ebp),%eax
c0000ccb:	0f b6 40 05          	movzbl 0x5(%eax),%eax
c0000ccf:	0f b6 d0             	movzbl %al,%edx
c0000cd2:	8b 45 0c             	mov    0xc(%ebp),%eax
c0000cd5:	0f b6 40 04          	movzbl 0x4(%eax),%eax
c0000cd9:	0f b6 c0             	movzbl %al,%eax
c0000cdc:	89 54 24 04          	mov    %edx,0x4(%esp)
c0000ce0:	89 04 24             	mov    %eax,(%esp)
c0000ce3:	e8 13 fc ff ff       	call   c00008fb <video_move_cursor>
c0000ce8:	ff 75 f4             	pushl  -0xc(%ebp)
c0000ceb:	9d                   	popf   
c0000cec:	eb 01                	jmp    c0000cef <video_put_char+0x19b>
c0000cee:	90                   	nop
c0000cef:	83 c4 34             	add    $0x34,%esp
c0000cf2:	5b                   	pop    %ebx
c0000cf3:	5d                   	pop    %ebp
c0000cf4:	c3                   	ret    

c0000cf5 <initialize_video>:
initialize_video():
c0000cf5:	55                   	push   %ebp
c0000cf6:	89 e5                	mov    %esp,%ebp
c0000cf8:	66 c7 05 64 24 00 c0 	movw   $0x50,0xc0002464
c0000cff:	50 00 
c0000d01:	66 c7 05 66 24 00 c0 	movw   $0x19,0xc0002466
c0000d08:	19 00 
c0000d0a:	5d                   	pop    %ebp
c0000d0b:	c3                   	ret    

c0000d0c <strlen>:
strlen():
c0000d0c:	55                   	push   %ebp
c0000d0d:	89 e5                	mov    %esp,%ebp
c0000d0f:	83 ec 10             	sub    $0x10,%esp
c0000d12:	83 7d 08 00          	cmpl   $0x0,0x8(%ebp)
c0000d16:	75 07                	jne    c0000d1f <strlen+0x13>
c0000d18:	b8 00 00 00 00       	mov    $0x0,%eax
c0000d1d:	eb 20                	jmp    c0000d3f <strlen+0x33>
c0000d1f:	8b 45 08             	mov    0x8(%ebp),%eax
c0000d22:	89 45 fc             	mov    %eax,-0x4(%ebp)
c0000d25:	eb 04                	jmp    c0000d2b <strlen+0x1f>
c0000d27:	83 45 fc 01          	addl   $0x1,-0x4(%ebp)
c0000d2b:	8b 45 fc             	mov    -0x4(%ebp),%eax
c0000d2e:	0f b6 00             	movzbl (%eax),%eax
c0000d31:	84 c0                	test   %al,%al
c0000d33:	75 f2                	jne    c0000d27 <strlen+0x1b>
c0000d35:	8b 55 fc             	mov    -0x4(%ebp),%edx
c0000d38:	8b 45 08             	mov    0x8(%ebp),%eax
c0000d3b:	29 c2                	sub    %eax,%edx
c0000d3d:	89 d0                	mov    %edx,%eax
c0000d3f:	c9                   	leave  
c0000d40:	c3                   	ret    

c0000d41 <strnlen>:
strnlen():
c0000d41:	55                   	push   %ebp
c0000d42:	89 e5                	mov    %esp,%ebp
c0000d44:	83 ec 10             	sub    $0x10,%esp
c0000d47:	83 7d 08 00          	cmpl   $0x0,0x8(%ebp)
c0000d4b:	75 07                	jne    c0000d54 <strnlen+0x13>
c0000d4d:	b8 00 00 00 00       	mov    $0x0,%eax
c0000d52:	eb 2d                	jmp    c0000d81 <strnlen+0x40>
c0000d54:	8b 45 08             	mov    0x8(%ebp),%eax
c0000d57:	89 45 fc             	mov    %eax,-0x4(%ebp)
c0000d5a:	eb 04                	jmp    c0000d60 <strnlen+0x1f>
c0000d5c:	83 45 fc 01          	addl   $0x1,-0x4(%ebp)
c0000d60:	8b 45 0c             	mov    0xc(%ebp),%eax
c0000d63:	8d 50 ff             	lea    -0x1(%eax),%edx
c0000d66:	89 55 0c             	mov    %edx,0xc(%ebp)
c0000d69:	85 c0                	test   %eax,%eax
c0000d6b:	74 0a                	je     c0000d77 <strnlen+0x36>
c0000d6d:	8b 45 fc             	mov    -0x4(%ebp),%eax
c0000d70:	0f b6 00             	movzbl (%eax),%eax
c0000d73:	84 c0                	test   %al,%al
c0000d75:	75 e5                	jne    c0000d5c <strnlen+0x1b>
c0000d77:	8b 55 fc             	mov    -0x4(%ebp),%edx
c0000d7a:	8b 45 08             	mov    0x8(%ebp),%eax
c0000d7d:	29 c2                	sub    %eax,%edx
c0000d7f:	89 d0                	mov    %edx,%eax
c0000d81:	c9                   	leave  
c0000d82:	c3                   	ret    

c0000d83 <skip_atoi>:
skip_atoi():
c0000d83:	55                   	push   %ebp
c0000d84:	89 e5                	mov    %esp,%ebp
c0000d86:	53                   	push   %ebx
c0000d87:	83 ec 10             	sub    $0x10,%esp
c0000d8a:	c7 45 f8 00 00 00 00 	movl   $0x0,-0x8(%ebp)
c0000d91:	eb 29                	jmp    c0000dbc <skip_atoi+0x39>
c0000d93:	8b 55 f8             	mov    -0x8(%ebp),%edx
c0000d96:	89 d0                	mov    %edx,%eax
c0000d98:	c1 e0 02             	shl    $0x2,%eax
c0000d9b:	01 d0                	add    %edx,%eax
c0000d9d:	01 c0                	add    %eax,%eax
c0000d9f:	89 c3                	mov    %eax,%ebx
c0000da1:	8b 45 08             	mov    0x8(%ebp),%eax
c0000da4:	8b 00                	mov    (%eax),%eax
c0000da6:	8d 48 01             	lea    0x1(%eax),%ecx
c0000da9:	8b 55 08             	mov    0x8(%ebp),%edx
c0000dac:	89 0a                	mov    %ecx,(%edx)
c0000dae:	0f b6 00             	movzbl (%eax),%eax
c0000db1:	0f be c0             	movsbl %al,%eax
c0000db4:	01 d8                	add    %ebx,%eax
c0000db6:	83 e8 30             	sub    $0x30,%eax
c0000db9:	89 45 f8             	mov    %eax,-0x8(%ebp)
c0000dbc:	8b 45 08             	mov    0x8(%ebp),%eax
c0000dbf:	8b 00                	mov    (%eax),%eax
c0000dc1:	0f b6 00             	movzbl (%eax),%eax
c0000dc4:	0f b6 c0             	movzbl %al,%eax
c0000dc7:	0f b6 80 80 24 00 c0 	movzbl -0x3fffdb80(%eax),%eax
c0000dce:	0f b6 c0             	movzbl %al,%eax
c0000dd1:	83 e0 04             	and    $0x4,%eax
c0000dd4:	85 c0                	test   %eax,%eax
c0000dd6:	75 bb                	jne    c0000d93 <skip_atoi+0x10>
c0000dd8:	8b 45 f8             	mov    -0x8(%ebp),%eax
c0000ddb:	83 c4 10             	add    $0x10,%esp
c0000dde:	5b                   	pop    %ebx
c0000ddf:	5d                   	pop    %ebp
c0000de0:	c3                   	ret    

c0000de1 <number>:
number():
c0000de1:	55                   	push   %ebp
c0000de2:	89 e5                	mov    %esp,%ebp
c0000de4:	81 ec b8 00 00 00    	sub    $0xb8,%esp
c0000dea:	8b 45 10             	mov    0x10(%ebp),%eax
c0000ded:	89 85 48 ff ff ff    	mov    %eax,-0xb8(%ebp)
c0000df3:	8b 45 14             	mov    0x14(%ebp),%eax
c0000df6:	89 85 4c ff ff ff    	mov    %eax,-0xb4(%ebp)
c0000dfc:	c7 85 75 ff ff ff 30 	movl   $0x33323130,-0x8b(%ebp)
c0000e03:	31 32 33 
c0000e06:	c7 85 79 ff ff ff 34 	movl   $0x37363534,-0x87(%ebp)
c0000e0d:	35 36 37 
c0000e10:	c7 85 7d ff ff ff 38 	movl   $0x62613938,-0x83(%ebp)
c0000e17:	39 61 62 
c0000e1a:	c7 45 81 63 64 65 66 	movl   $0x66656463,-0x7f(%ebp)
c0000e21:	c7 45 85 67 68 69 6a 	movl   $0x6a696867,-0x7b(%ebp)
c0000e28:	c7 45 89 6b 6c 6d 6e 	movl   $0x6e6d6c6b,-0x77(%ebp)
c0000e2f:	c7 45 8d 6f 70 71 72 	movl   $0x7271706f,-0x73(%ebp)
c0000e36:	c7 45 91 73 74 75 76 	movl   $0x76757473,-0x6f(%ebp)
c0000e3d:	c7 45 95 77 78 79 7a 	movl   $0x7a797877,-0x6b(%ebp)
c0000e44:	c6 45 99 00          	movb   $0x0,-0x67(%ebp)
c0000e48:	c7 85 50 ff ff ff 30 	movl   $0x33323130,-0xb0(%ebp)
c0000e4f:	31 32 33 
c0000e52:	c7 85 54 ff ff ff 34 	movl   $0x37363534,-0xac(%ebp)
c0000e59:	35 36 37 
c0000e5c:	c7 85 58 ff ff ff 38 	movl   $0x42413938,-0xa8(%ebp)
c0000e63:	39 41 42 
c0000e66:	c7 85 5c ff ff ff 43 	movl   $0x46454443,-0xa4(%ebp)
c0000e6d:	44 45 46 
c0000e70:	c7 85 60 ff ff ff 47 	movl   $0x4a494847,-0xa0(%ebp)
c0000e77:	48 49 4a 
c0000e7a:	c7 85 64 ff ff ff 4b 	movl   $0x4e4d4c4b,-0x9c(%ebp)
c0000e81:	4c 4d 4e 
c0000e84:	c7 85 68 ff ff ff 4f 	movl   $0x5251504f,-0x98(%ebp)
c0000e8b:	50 51 52 
c0000e8e:	c7 85 6c ff ff ff 53 	movl   $0x56555453,-0x94(%ebp)
c0000e95:	54 55 56 
c0000e98:	c7 85 70 ff ff ff 57 	movl   $0x5a595857,-0x90(%ebp)
c0000e9f:	58 59 5a 
c0000ea2:	c6 85 74 ff ff ff 00 	movb   $0x0,-0x8c(%ebp)
c0000ea9:	8b 45 24             	mov    0x24(%ebp),%eax
c0000eac:	83 e0 40             	and    $0x40,%eax
c0000eaf:	85 c0                	test   %eax,%eax
c0000eb1:	74 08                	je     c0000ebb <number+0xda>
c0000eb3:	8d 85 50 ff ff ff    	lea    -0xb0(%ebp),%eax
c0000eb9:	eb 06                	jmp    c0000ec1 <number+0xe0>
c0000ebb:	8d 85 75 ff ff ff    	lea    -0x8b(%ebp),%eax
c0000ec1:	89 45 ec             	mov    %eax,-0x14(%ebp)
c0000ec4:	8b 45 24             	mov    0x24(%ebp),%eax
c0000ec7:	83 e0 10             	and    $0x10,%eax
c0000eca:	85 c0                	test   %eax,%eax
c0000ecc:	74 04                	je     c0000ed2 <number+0xf1>
c0000ece:	83 65 24 fe          	andl   $0xfffffffe,0x24(%ebp)
c0000ed2:	83 7d 18 01          	cmpl   $0x1,0x18(%ebp)
c0000ed6:	7e 06                	jle    c0000ede <number+0xfd>
c0000ed8:	83 7d 18 24          	cmpl   $0x24,0x18(%ebp)
c0000edc:	7e 0a                	jle    c0000ee8 <number+0x107>
c0000ede:	b8 00 00 00 00       	mov    $0x0,%eax
c0000ee3:	e9 9d 02 00 00       	jmp    c0001185 <number+0x3a4>
c0000ee8:	8b 45 24             	mov    0x24(%ebp),%eax
c0000eeb:	83 e0 01             	and    $0x1,%eax
c0000eee:	85 c0                	test   %eax,%eax
c0000ef0:	74 07                	je     c0000ef9 <number+0x118>
c0000ef2:	b8 30 00 00 00       	mov    $0x30,%eax
c0000ef7:	eb 05                	jmp    c0000efe <number+0x11d>
c0000ef9:	b8 20 00 00 00       	mov    $0x20,%eax
c0000efe:	88 45 eb             	mov    %al,-0x15(%ebp)
c0000f01:	c6 45 ff 00          	movb   $0x0,-0x1(%ebp)
c0000f05:	8b 45 24             	mov    0x24(%ebp),%eax
c0000f08:	83 e0 02             	and    $0x2,%eax
c0000f0b:	85 c0                	test   %eax,%eax
c0000f0d:	74 4c                	je     c0000f5b <number+0x17a>
c0000f0f:	83 bd 4c ff ff ff 00 	cmpl   $0x0,-0xb4(%ebp)
c0000f16:	79 1d                	jns    c0000f35 <number+0x154>
c0000f18:	c6 45 ff 2d          	movb   $0x2d,-0x1(%ebp)
c0000f1c:	f7 9d 48 ff ff ff    	negl   -0xb8(%ebp)
c0000f22:	83 95 4c ff ff ff 00 	adcl   $0x0,-0xb4(%ebp)
c0000f29:	f7 9d 4c ff ff ff    	negl   -0xb4(%ebp)
c0000f2f:	83 6d 1c 01          	subl   $0x1,0x1c(%ebp)
c0000f33:	eb 26                	jmp    c0000f5b <number+0x17a>
c0000f35:	8b 45 24             	mov    0x24(%ebp),%eax
c0000f38:	83 e0 04             	and    $0x4,%eax
c0000f3b:	85 c0                	test   %eax,%eax
c0000f3d:	74 0a                	je     c0000f49 <number+0x168>
c0000f3f:	c6 45 ff 2b          	movb   $0x2b,-0x1(%ebp)
c0000f43:	83 6d 1c 01          	subl   $0x1,0x1c(%ebp)
c0000f47:	eb 12                	jmp    c0000f5b <number+0x17a>
c0000f49:	8b 45 24             	mov    0x24(%ebp),%eax
c0000f4c:	83 e0 08             	and    $0x8,%eax
c0000f4f:	85 c0                	test   %eax,%eax
c0000f51:	74 08                	je     c0000f5b <number+0x17a>
c0000f53:	c6 45 ff 20          	movb   $0x20,-0x1(%ebp)
c0000f57:	83 6d 1c 01          	subl   $0x1,0x1c(%ebp)
c0000f5b:	8b 45 24             	mov    0x24(%ebp),%eax
c0000f5e:	83 e0 20             	and    $0x20,%eax
c0000f61:	85 c0                	test   %eax,%eax
c0000f63:	74 16                	je     c0000f7b <number+0x19a>
c0000f65:	83 7d 18 10          	cmpl   $0x10,0x18(%ebp)
c0000f69:	75 06                	jne    c0000f71 <number+0x190>
c0000f6b:	83 6d 1c 02          	subl   $0x2,0x1c(%ebp)
c0000f6f:	eb 0a                	jmp    c0000f7b <number+0x19a>
c0000f71:	83 7d 18 08          	cmpl   $0x8,0x18(%ebp)
c0000f75:	75 04                	jne    c0000f7b <number+0x19a>
c0000f77:	83 6d 1c 01          	subl   $0x1,0x1c(%ebp)
c0000f7b:	c7 45 f8 00 00 00 00 	movl   $0x0,-0x8(%ebp)
c0000f82:	8b 85 48 ff ff ff    	mov    -0xb8(%ebp),%eax
c0000f88:	8b 95 4c ff ff ff    	mov    -0xb4(%ebp),%edx
c0000f8e:	09 d0                	or     %edx,%eax
c0000f90:	85 c0                	test   %eax,%eax
c0000f92:	75 13                	jne    c0000fa7 <number+0x1c6>
c0000f94:	8b 45 f8             	mov    -0x8(%ebp),%eax
c0000f97:	8d 50 01             	lea    0x1(%eax),%edx
c0000f9a:	89 55 f8             	mov    %edx,-0x8(%ebp)
c0000f9d:	c6 44 05 9a 30       	movb   $0x30,-0x66(%ebp,%eax,1)
c0000fa2:	e9 91 00 00 00       	jmp    c0001038 <number+0x257>
c0000fa7:	eb 79                	jmp    c0001022 <number+0x241>
c0000fa9:	8b 4d f8             	mov    -0x8(%ebp),%ecx
c0000fac:	8d 41 01             	lea    0x1(%ecx),%eax
c0000faf:	89 45 f8             	mov    %eax,-0x8(%ebp)
c0000fb2:	8b 45 18             	mov    0x18(%ebp),%eax
c0000fb5:	89 45 e4             	mov    %eax,-0x1c(%ebp)
c0000fb8:	8b 85 48 ff ff ff    	mov    -0xb8(%ebp),%eax
c0000fbe:	8b 95 4c ff ff ff    	mov    -0xb4(%ebp),%edx
c0000fc4:	89 45 e0             	mov    %eax,-0x20(%ebp)
c0000fc7:	89 55 f0             	mov    %edx,-0x10(%ebp)
c0000fca:	8b 45 f0             	mov    -0x10(%ebp),%eax
c0000fcd:	89 45 f4             	mov    %eax,-0xc(%ebp)
c0000fd0:	83 7d f0 00          	cmpl   $0x0,-0x10(%ebp)
c0000fd4:	74 1c                	je     c0000ff2 <number+0x211>
c0000fd6:	8b 45 f0             	mov    -0x10(%ebp),%eax
c0000fd9:	ba 00 00 00 00       	mov    $0x0,%edx
c0000fde:	f7 75 e4             	divl   -0x1c(%ebp)
c0000fe1:	89 55 f4             	mov    %edx,-0xc(%ebp)
c0000fe4:	8b 45 f0             	mov    -0x10(%ebp),%eax
c0000fe7:	ba 00 00 00 00       	mov    $0x0,%edx
c0000fec:	f7 75 e4             	divl   -0x1c(%ebp)
c0000fef:	89 45 f0             	mov    %eax,-0x10(%ebp)
c0000ff2:	8b 45 e0             	mov    -0x20(%ebp),%eax
c0000ff5:	8b 55 f4             	mov    -0xc(%ebp),%edx
c0000ff8:	f7 75 e4             	divl   -0x1c(%ebp)
c0000ffb:	89 45 e0             	mov    %eax,-0x20(%ebp)
c0000ffe:	89 55 dc             	mov    %edx,-0x24(%ebp)
c0001001:	8b 45 e0             	mov    -0x20(%ebp),%eax
c0001004:	8b 55 f0             	mov    -0x10(%ebp),%edx
c0001007:	89 85 48 ff ff ff    	mov    %eax,-0xb8(%ebp)
c000100d:	89 95 4c ff ff ff    	mov    %edx,-0xb4(%ebp)
c0001013:	8b 55 dc             	mov    -0x24(%ebp),%edx
c0001016:	8b 45 ec             	mov    -0x14(%ebp),%eax
c0001019:	01 d0                	add    %edx,%eax
c000101b:	0f b6 00             	movzbl (%eax),%eax
c000101e:	88 44 0d 9a          	mov    %al,-0x66(%ebp,%ecx,1)
c0001022:	8b 85 48 ff ff ff    	mov    -0xb8(%ebp),%eax
c0001028:	8b 95 4c ff ff ff    	mov    -0xb4(%ebp),%edx
c000102e:	09 d0                	or     %edx,%eax
c0001030:	85 c0                	test   %eax,%eax
c0001032:	0f 85 71 ff ff ff    	jne    c0000fa9 <number+0x1c8>
c0001038:	8b 45 f8             	mov    -0x8(%ebp),%eax
c000103b:	3b 45 20             	cmp    0x20(%ebp),%eax
c000103e:	7e 06                	jle    c0001046 <number+0x265>
c0001040:	8b 45 f8             	mov    -0x8(%ebp),%eax
c0001043:	89 45 20             	mov    %eax,0x20(%ebp)
c0001046:	8b 45 20             	mov    0x20(%ebp),%eax
c0001049:	29 45 1c             	sub    %eax,0x1c(%ebp)
c000104c:	8b 45 24             	mov    0x24(%ebp),%eax
c000104f:	83 e0 11             	and    $0x11,%eax
c0001052:	85 c0                	test   %eax,%eax
c0001054:	75 21                	jne    c0001077 <number+0x296>
c0001056:	eb 12                	jmp    c000106a <number+0x289>
c0001058:	8b 45 08             	mov    0x8(%ebp),%eax
c000105b:	3b 45 0c             	cmp    0xc(%ebp),%eax
c000105e:	77 06                	ja     c0001066 <number+0x285>
c0001060:	8b 45 08             	mov    0x8(%ebp),%eax
c0001063:	c6 00 20             	movb   $0x20,(%eax)
c0001066:	83 45 08 01          	addl   $0x1,0x8(%ebp)
c000106a:	8b 45 1c             	mov    0x1c(%ebp),%eax
c000106d:	8d 50 ff             	lea    -0x1(%eax),%edx
c0001070:	89 55 1c             	mov    %edx,0x1c(%ebp)
c0001073:	85 c0                	test   %eax,%eax
c0001075:	7f e1                	jg     c0001058 <number+0x277>
c0001077:	80 7d ff 00          	cmpb   $0x0,-0x1(%ebp)
c000107b:	74 15                	je     c0001092 <number+0x2b1>
c000107d:	8b 45 08             	mov    0x8(%ebp),%eax
c0001080:	3b 45 0c             	cmp    0xc(%ebp),%eax
c0001083:	77 09                	ja     c000108e <number+0x2ad>
c0001085:	8b 45 08             	mov    0x8(%ebp),%eax
c0001088:	0f b6 55 ff          	movzbl -0x1(%ebp),%edx
c000108c:	88 10                	mov    %dl,(%eax)
c000108e:	83 45 08 01          	addl   $0x1,0x8(%ebp)
c0001092:	8b 45 24             	mov    0x24(%ebp),%eax
c0001095:	83 e0 20             	and    $0x20,%eax
c0001098:	85 c0                	test   %eax,%eax
c000109a:	74 4a                	je     c00010e6 <number+0x305>
c000109c:	83 7d 18 08          	cmpl   $0x8,0x18(%ebp)
c00010a0:	75 14                	jne    c00010b6 <number+0x2d5>
c00010a2:	8b 45 08             	mov    0x8(%ebp),%eax
c00010a5:	3b 45 0c             	cmp    0xc(%ebp),%eax
c00010a8:	77 06                	ja     c00010b0 <number+0x2cf>
c00010aa:	8b 45 08             	mov    0x8(%ebp),%eax
c00010ad:	c6 00 30             	movb   $0x30,(%eax)
c00010b0:	83 45 08 01          	addl   $0x1,0x8(%ebp)
c00010b4:	eb 30                	jmp    c00010e6 <number+0x305>
c00010b6:	83 7d 18 10          	cmpl   $0x10,0x18(%ebp)
c00010ba:	75 2a                	jne    c00010e6 <number+0x305>
c00010bc:	8b 45 08             	mov    0x8(%ebp),%eax
c00010bf:	3b 45 0c             	cmp    0xc(%ebp),%eax
c00010c2:	77 06                	ja     c00010ca <number+0x2e9>
c00010c4:	8b 45 08             	mov    0x8(%ebp),%eax
c00010c7:	c6 00 30             	movb   $0x30,(%eax)
c00010ca:	83 45 08 01          	addl   $0x1,0x8(%ebp)
c00010ce:	8b 45 08             	mov    0x8(%ebp),%eax
c00010d1:	3b 45 0c             	cmp    0xc(%ebp),%eax
c00010d4:	77 0c                	ja     c00010e2 <number+0x301>
c00010d6:	8b 45 ec             	mov    -0x14(%ebp),%eax
c00010d9:	0f b6 50 21          	movzbl 0x21(%eax),%edx
c00010dd:	8b 45 08             	mov    0x8(%ebp),%eax
c00010e0:	88 10                	mov    %dl,(%eax)
c00010e2:	83 45 08 01          	addl   $0x1,0x8(%ebp)
c00010e6:	8b 45 24             	mov    0x24(%ebp),%eax
c00010e9:	83 e0 10             	and    $0x10,%eax
c00010ec:	85 c0                	test   %eax,%eax
c00010ee:	75 24                	jne    c0001114 <number+0x333>
c00010f0:	eb 15                	jmp    c0001107 <number+0x326>
c00010f2:	8b 45 08             	mov    0x8(%ebp),%eax
c00010f5:	3b 45 0c             	cmp    0xc(%ebp),%eax
c00010f8:	77 09                	ja     c0001103 <number+0x322>
c00010fa:	8b 45 08             	mov    0x8(%ebp),%eax
c00010fd:	0f b6 55 eb          	movzbl -0x15(%ebp),%edx
c0001101:	88 10                	mov    %dl,(%eax)
c0001103:	83 45 08 01          	addl   $0x1,0x8(%ebp)
c0001107:	8b 45 1c             	mov    0x1c(%ebp),%eax
c000110a:	8d 50 ff             	lea    -0x1(%eax),%edx
c000110d:	89 55 1c             	mov    %edx,0x1c(%ebp)
c0001110:	85 c0                	test   %eax,%eax
c0001112:	7f de                	jg     c00010f2 <number+0x311>
c0001114:	eb 12                	jmp    c0001128 <number+0x347>
c0001116:	8b 45 08             	mov    0x8(%ebp),%eax
c0001119:	3b 45 0c             	cmp    0xc(%ebp),%eax
c000111c:	77 06                	ja     c0001124 <number+0x343>
c000111e:	8b 45 08             	mov    0x8(%ebp),%eax
c0001121:	c6 00 30             	movb   $0x30,(%eax)
c0001124:	83 45 08 01          	addl   $0x1,0x8(%ebp)
c0001128:	8b 45 20             	mov    0x20(%ebp),%eax
c000112b:	8d 50 ff             	lea    -0x1(%eax),%edx
c000112e:	89 55 20             	mov    %edx,0x20(%ebp)
c0001131:	3b 45 f8             	cmp    -0x8(%ebp),%eax
c0001134:	7f e0                	jg     c0001116 <number+0x335>
c0001136:	eb 1c                	jmp    c0001154 <number+0x373>
c0001138:	8b 45 08             	mov    0x8(%ebp),%eax
c000113b:	3b 45 0c             	cmp    0xc(%ebp),%eax
c000113e:	77 10                	ja     c0001150 <number+0x36f>
c0001140:	8d 55 9a             	lea    -0x66(%ebp),%edx
c0001143:	8b 45 f8             	mov    -0x8(%ebp),%eax
c0001146:	01 d0                	add    %edx,%eax
c0001148:	0f b6 10             	movzbl (%eax),%edx
c000114b:	8b 45 08             	mov    0x8(%ebp),%eax
c000114e:	88 10                	mov    %dl,(%eax)
c0001150:	83 45 08 01          	addl   $0x1,0x8(%ebp)
c0001154:	8b 45 f8             	mov    -0x8(%ebp),%eax
c0001157:	8d 50 ff             	lea    -0x1(%eax),%edx
c000115a:	89 55 f8             	mov    %edx,-0x8(%ebp)
c000115d:	85 c0                	test   %eax,%eax
c000115f:	7f d7                	jg     c0001138 <number+0x357>
c0001161:	eb 12                	jmp    c0001175 <number+0x394>
c0001163:	8b 45 08             	mov    0x8(%ebp),%eax
c0001166:	3b 45 0c             	cmp    0xc(%ebp),%eax
c0001169:	77 06                	ja     c0001171 <number+0x390>
c000116b:	8b 45 08             	mov    0x8(%ebp),%eax
c000116e:	c6 00 20             	movb   $0x20,(%eax)
c0001171:	83 45 08 01          	addl   $0x1,0x8(%ebp)
c0001175:	8b 45 1c             	mov    0x1c(%ebp),%eax
c0001178:	8d 50 ff             	lea    -0x1(%eax),%edx
c000117b:	89 55 1c             	mov    %edx,0x1c(%ebp)
c000117e:	85 c0                	test   %eax,%eax
c0001180:	7f e1                	jg     c0001163 <number+0x382>
c0001182:	8b 45 08             	mov    0x8(%ebp),%eax
c0001185:	c9                   	leave  
c0001186:	c3                   	ret    

c0001187 <vsnprintf>:
vsnprintf():
c0001187:	55                   	push   %ebp
c0001188:	89 e5                	mov    %esp,%ebp
c000118a:	83 ec 68             	sub    $0x68,%esp
c000118d:	8b 45 08             	mov    0x8(%ebp),%eax
c0001190:	89 45 e4             	mov    %eax,-0x1c(%ebp)
c0001193:	8b 45 0c             	mov    0xc(%ebp),%eax
c0001196:	8d 50 ff             	lea    -0x1(%eax),%edx
c0001199:	8b 45 08             	mov    0x8(%ebp),%eax
c000119c:	01 d0                	add    %edx,%eax
c000119e:	89 45 e0             	mov    %eax,-0x20(%ebp)
c00011a1:	8b 45 08             	mov    0x8(%ebp),%eax
c00011a4:	83 e8 01             	sub    $0x1,%eax
c00011a7:	3b 45 e0             	cmp    -0x20(%ebp),%eax
c00011aa:	76 1c                	jbe    c00011c8 <vsnprintf+0x41>
c00011ac:	c7 45 e0 ff ff ff ff 	movl   $0xffffffff,-0x20(%ebp)
c00011b3:	8b 55 e0             	mov    -0x20(%ebp),%edx
c00011b6:	8b 45 08             	mov    0x8(%ebp),%eax
c00011b9:	29 c2                	sub    %eax,%edx
c00011bb:	89 d0                	mov    %edx,%eax
c00011bd:	83 c0 01             	add    $0x1,%eax
c00011c0:	89 45 0c             	mov    %eax,0xc(%ebp)
c00011c3:	e9 58 05 00 00       	jmp    c0001720 <vsnprintf+0x599>
c00011c8:	e9 53 05 00 00       	jmp    c0001720 <vsnprintf+0x599>
c00011cd:	8b 45 10             	mov    0x10(%ebp),%eax
c00011d0:	0f b6 00             	movzbl (%eax),%eax
c00011d3:	3c 25                	cmp    $0x25,%al
c00011d5:	74 1c                	je     c00011f3 <vsnprintf+0x6c>
c00011d7:	8b 45 e4             	mov    -0x1c(%ebp),%eax
c00011da:	3b 45 e0             	cmp    -0x20(%ebp),%eax
c00011dd:	77 0b                	ja     c00011ea <vsnprintf+0x63>
c00011df:	8b 45 10             	mov    0x10(%ebp),%eax
c00011e2:	0f b6 10             	movzbl (%eax),%edx
c00011e5:	8b 45 e4             	mov    -0x1c(%ebp),%eax
c00011e8:	88 10                	mov    %dl,(%eax)
c00011ea:	83 45 e4 01          	addl   $0x1,-0x1c(%ebp)
c00011ee:	e9 24 05 00 00       	jmp    c0001717 <vsnprintf+0x590>
c00011f3:	c7 45 d8 00 00 00 00 	movl   $0x0,-0x28(%ebp)
c00011fa:	8b 45 10             	mov    0x10(%ebp),%eax
c00011fd:	83 c0 01             	add    $0x1,%eax
c0001200:	89 45 10             	mov    %eax,0x10(%ebp)
c0001203:	8b 45 10             	mov    0x10(%ebp),%eax
c0001206:	0f b6 00             	movzbl (%eax),%eax
c0001209:	0f be c0             	movsbl %al,%eax
c000120c:	83 e8 20             	sub    $0x20,%eax
c000120f:	83 f8 10             	cmp    $0x10,%eax
c0001212:	77 27                	ja     c000123b <vsnprintf+0xb4>
c0001214:	8b 04 85 64 1b 00 c0 	mov    -0x3fffe49c(,%eax,4),%eax
c000121b:	ff e0                	jmp    *%eax
c000121d:	83 4d d8 10          	orl    $0x10,-0x28(%ebp)
c0001221:	eb d7                	jmp    c00011fa <vsnprintf+0x73>
c0001223:	83 4d d8 04          	orl    $0x4,-0x28(%ebp)
c0001227:	eb d1                	jmp    c00011fa <vsnprintf+0x73>
c0001229:	83 4d d8 08          	orl    $0x8,-0x28(%ebp)
c000122d:	eb cb                	jmp    c00011fa <vsnprintf+0x73>
c000122f:	83 4d d8 20          	orl    $0x20,-0x28(%ebp)
c0001233:	eb c5                	jmp    c00011fa <vsnprintf+0x73>
c0001235:	83 4d d8 01          	orl    $0x1,-0x28(%ebp)
c0001239:	eb bf                	jmp    c00011fa <vsnprintf+0x73>
c000123b:	c7 45 d4 ff ff ff ff 	movl   $0xffffffff,-0x2c(%ebp)
c0001242:	8b 45 10             	mov    0x10(%ebp),%eax
c0001245:	0f b6 00             	movzbl (%eax),%eax
c0001248:	0f b6 c0             	movzbl %al,%eax
c000124b:	0f b6 80 80 24 00 c0 	movzbl -0x3fffdb80(%eax),%eax
c0001252:	0f b6 c0             	movzbl %al,%eax
c0001255:	83 e0 04             	and    $0x4,%eax
c0001258:	85 c0                	test   %eax,%eax
c000125a:	74 10                	je     c000126c <vsnprintf+0xe5>
c000125c:	8d 45 10             	lea    0x10(%ebp),%eax
c000125f:	89 04 24             	mov    %eax,(%esp)
c0001262:	e8 1c fb ff ff       	call   c0000d83 <skip_atoi>
c0001267:	89 45 d4             	mov    %eax,-0x2c(%ebp)
c000126a:	eb 2d                	jmp    c0001299 <vsnprintf+0x112>
c000126c:	8b 45 10             	mov    0x10(%ebp),%eax
c000126f:	0f b6 00             	movzbl (%eax),%eax
c0001272:	3c 2a                	cmp    $0x2a,%al
c0001274:	75 23                	jne    c0001299 <vsnprintf+0x112>
c0001276:	8b 45 10             	mov    0x10(%ebp),%eax
c0001279:	83 c0 01             	add    $0x1,%eax
c000127c:	89 45 10             	mov    %eax,0x10(%ebp)
c000127f:	83 45 14 04          	addl   $0x4,0x14(%ebp)
c0001283:	8b 45 14             	mov    0x14(%ebp),%eax
c0001286:	8b 40 fc             	mov    -0x4(%eax),%eax
c0001289:	89 45 d4             	mov    %eax,-0x2c(%ebp)
c000128c:	83 7d d4 00          	cmpl   $0x0,-0x2c(%ebp)
c0001290:	79 07                	jns    c0001299 <vsnprintf+0x112>
c0001292:	f7 5d d4             	negl   -0x2c(%ebp)
c0001295:	83 4d d8 10          	orl    $0x10,-0x28(%ebp)
c0001299:	c7 45 d0 ff ff ff ff 	movl   $0xffffffff,-0x30(%ebp)
c00012a0:	8b 45 10             	mov    0x10(%ebp),%eax
c00012a3:	0f b6 00             	movzbl (%eax),%eax
c00012a6:	3c 2e                	cmp    $0x2e,%al
c00012a8:	75 60                	jne    c000130a <vsnprintf+0x183>
c00012aa:	8b 45 10             	mov    0x10(%ebp),%eax
c00012ad:	83 c0 01             	add    $0x1,%eax
c00012b0:	89 45 10             	mov    %eax,0x10(%ebp)
c00012b3:	8b 45 10             	mov    0x10(%ebp),%eax
c00012b6:	0f b6 00             	movzbl (%eax),%eax
c00012b9:	0f b6 c0             	movzbl %al,%eax
c00012bc:	0f b6 80 80 24 00 c0 	movzbl -0x3fffdb80(%eax),%eax
c00012c3:	0f b6 c0             	movzbl %al,%eax
c00012c6:	83 e0 04             	and    $0x4,%eax
c00012c9:	85 c0                	test   %eax,%eax
c00012cb:	74 10                	je     c00012dd <vsnprintf+0x156>
c00012cd:	8d 45 10             	lea    0x10(%ebp),%eax
c00012d0:	89 04 24             	mov    %eax,(%esp)
c00012d3:	e8 ab fa ff ff       	call   c0000d83 <skip_atoi>
c00012d8:	89 45 d0             	mov    %eax,-0x30(%ebp)
c00012db:	eb 20                	jmp    c00012fd <vsnprintf+0x176>
c00012dd:	8b 45 10             	mov    0x10(%ebp),%eax
c00012e0:	0f b6 00             	movzbl (%eax),%eax
c00012e3:	3c 2a                	cmp    $0x2a,%al
c00012e5:	75 16                	jne    c00012fd <vsnprintf+0x176>
c00012e7:	8b 45 10             	mov    0x10(%ebp),%eax
c00012ea:	83 c0 01             	add    $0x1,%eax
c00012ed:	89 45 10             	mov    %eax,0x10(%ebp)
c00012f0:	83 45 14 04          	addl   $0x4,0x14(%ebp)
c00012f4:	8b 45 14             	mov    0x14(%ebp),%eax
c00012f7:	8b 40 fc             	mov    -0x4(%eax),%eax
c00012fa:	89 45 d0             	mov    %eax,-0x30(%ebp)
c00012fd:	83 7d d0 00          	cmpl   $0x0,-0x30(%ebp)
c0001301:	79 07                	jns    c000130a <vsnprintf+0x183>
c0001303:	c7 45 d0 00 00 00 00 	movl   $0x0,-0x30(%ebp)
c000130a:	c7 45 cc ff ff ff ff 	movl   $0xffffffff,-0x34(%ebp)
c0001311:	8b 45 10             	mov    0x10(%ebp),%eax
c0001314:	0f b6 00             	movzbl (%eax),%eax
c0001317:	3c 68                	cmp    $0x68,%al
c0001319:	74 1e                	je     c0001339 <vsnprintf+0x1b2>
c000131b:	8b 45 10             	mov    0x10(%ebp),%eax
c000131e:	0f b6 00             	movzbl (%eax),%eax
c0001321:	3c 6c                	cmp    $0x6c,%al
c0001323:	74 14                	je     c0001339 <vsnprintf+0x1b2>
c0001325:	8b 45 10             	mov    0x10(%ebp),%eax
c0001328:	0f b6 00             	movzbl (%eax),%eax
c000132b:	3c 4c                	cmp    $0x4c,%al
c000132d:	74 0a                	je     c0001339 <vsnprintf+0x1b2>
c000132f:	8b 45 10             	mov    0x10(%ebp),%eax
c0001332:	0f b6 00             	movzbl (%eax),%eax
c0001335:	3c 5a                	cmp    $0x5a,%al
c0001337:	75 35                	jne    c000136e <vsnprintf+0x1e7>
c0001339:	8b 45 10             	mov    0x10(%ebp),%eax
c000133c:	0f b6 00             	movzbl (%eax),%eax
c000133f:	0f be c0             	movsbl %al,%eax
c0001342:	89 45 cc             	mov    %eax,-0x34(%ebp)
c0001345:	8b 45 10             	mov    0x10(%ebp),%eax
c0001348:	83 c0 01             	add    $0x1,%eax
c000134b:	89 45 10             	mov    %eax,0x10(%ebp)
c000134e:	83 7d cc 6c          	cmpl   $0x6c,-0x34(%ebp)
c0001352:	75 1a                	jne    c000136e <vsnprintf+0x1e7>
c0001354:	8b 45 10             	mov    0x10(%ebp),%eax
c0001357:	0f b6 00             	movzbl (%eax),%eax
c000135a:	3c 6c                	cmp    $0x6c,%al
c000135c:	75 10                	jne    c000136e <vsnprintf+0x1e7>
c000135e:	c7 45 cc 4c 00 00 00 	movl   $0x4c,-0x34(%ebp)
c0001365:	8b 45 10             	mov    0x10(%ebp),%eax
c0001368:	83 c0 01             	add    $0x1,%eax
c000136b:	89 45 10             	mov    %eax,0x10(%ebp)
c000136e:	c7 45 e8 0a 00 00 00 	movl   $0xa,-0x18(%ebp)
c0001375:	8b 45 10             	mov    0x10(%ebp),%eax
c0001378:	0f b6 00             	movzbl (%eax),%eax
c000137b:	0f be c0             	movsbl %al,%eax
c000137e:	83 e8 25             	sub    $0x25,%eax
c0001381:	83 f8 53             	cmp    $0x53,%eax
c0001384:	0f 87 33 02 00 00    	ja     c00015bd <vsnprintf+0x436>
c000138a:	8b 04 85 a8 1b 00 c0 	mov    -0x3fffe458(,%eax,4),%eax
c0001391:	ff e0                	jmp    *%eax
c0001393:	8b 45 d8             	mov    -0x28(%ebp),%eax
c0001396:	83 e0 10             	and    $0x10,%eax
c0001399:	85 c0                	test   %eax,%eax
c000139b:	75 1e                	jne    c00013bb <vsnprintf+0x234>
c000139d:	eb 12                	jmp    c00013b1 <vsnprintf+0x22a>
c000139f:	8b 45 e4             	mov    -0x1c(%ebp),%eax
c00013a2:	3b 45 e0             	cmp    -0x20(%ebp),%eax
c00013a5:	77 06                	ja     c00013ad <vsnprintf+0x226>
c00013a7:	8b 45 e4             	mov    -0x1c(%ebp),%eax
c00013aa:	c6 00 20             	movb   $0x20,(%eax)
c00013ad:	83 45 e4 01          	addl   $0x1,-0x1c(%ebp)
c00013b1:	83 6d d4 01          	subl   $0x1,-0x2c(%ebp)
c00013b5:	83 7d d4 00          	cmpl   $0x0,-0x2c(%ebp)
c00013b9:	7f e4                	jg     c000139f <vsnprintf+0x218>
c00013bb:	83 45 14 04          	addl   $0x4,0x14(%ebp)
c00013bf:	8b 45 14             	mov    0x14(%ebp),%eax
c00013c2:	83 e8 04             	sub    $0x4,%eax
c00013c5:	8b 00                	mov    (%eax),%eax
c00013c7:	88 45 cb             	mov    %al,-0x35(%ebp)
c00013ca:	8b 45 e4             	mov    -0x1c(%ebp),%eax
c00013cd:	3b 45 e0             	cmp    -0x20(%ebp),%eax
c00013d0:	77 09                	ja     c00013db <vsnprintf+0x254>
c00013d2:	8b 45 e4             	mov    -0x1c(%ebp),%eax
c00013d5:	0f b6 55 cb          	movzbl -0x35(%ebp),%edx
c00013d9:	88 10                	mov    %dl,(%eax)
c00013db:	83 45 e4 01          	addl   $0x1,-0x1c(%ebp)
c00013df:	eb 12                	jmp    c00013f3 <vsnprintf+0x26c>
c00013e1:	8b 45 e4             	mov    -0x1c(%ebp),%eax
c00013e4:	3b 45 e0             	cmp    -0x20(%ebp),%eax
c00013e7:	77 06                	ja     c00013ef <vsnprintf+0x268>
c00013e9:	8b 45 e4             	mov    -0x1c(%ebp),%eax
c00013ec:	c6 00 20             	movb   $0x20,(%eax)
c00013ef:	83 45 e4 01          	addl   $0x1,-0x1c(%ebp)
c00013f3:	83 6d d4 01          	subl   $0x1,-0x2c(%ebp)
c00013f7:	83 7d d4 00          	cmpl   $0x0,-0x2c(%ebp)
c00013fb:	7f e4                	jg     c00013e1 <vsnprintf+0x25a>
c00013fd:	e9 15 03 00 00       	jmp    c0001717 <vsnprintf+0x590>
c0001402:	83 45 14 04          	addl   $0x4,0x14(%ebp)
c0001406:	8b 45 14             	mov    0x14(%ebp),%eax
c0001409:	8b 40 fc             	mov    -0x4(%eax),%eax
c000140c:	89 45 dc             	mov    %eax,-0x24(%ebp)
c000140f:	83 7d dc 00          	cmpl   $0x0,-0x24(%ebp)
c0001413:	75 07                	jne    c000141c <vsnprintf+0x295>
c0001415:	c7 45 dc 5c 1b 00 c0 	movl   $0xc0001b5c,-0x24(%ebp)
c000141c:	8b 45 d0             	mov    -0x30(%ebp),%eax
c000141f:	89 44 24 04          	mov    %eax,0x4(%esp)
c0001423:	8b 45 dc             	mov    -0x24(%ebp),%eax
c0001426:	89 04 24             	mov    %eax,(%esp)
c0001429:	e8 13 f9 ff ff       	call   c0000d41 <strnlen>
c000142e:	89 45 c4             	mov    %eax,-0x3c(%ebp)
c0001431:	8b 45 d8             	mov    -0x28(%ebp),%eax
c0001434:	83 e0 10             	and    $0x10,%eax
c0001437:	85 c0                	test   %eax,%eax
c0001439:	75 22                	jne    c000145d <vsnprintf+0x2d6>
c000143b:	eb 12                	jmp    c000144f <vsnprintf+0x2c8>
c000143d:	8b 45 e4             	mov    -0x1c(%ebp),%eax
c0001440:	3b 45 e0             	cmp    -0x20(%ebp),%eax
c0001443:	77 06                	ja     c000144b <vsnprintf+0x2c4>
c0001445:	8b 45 e4             	mov    -0x1c(%ebp),%eax
c0001448:	c6 00 20             	movb   $0x20,(%eax)
c000144b:	83 45 e4 01          	addl   $0x1,-0x1c(%ebp)
c000144f:	8b 45 d4             	mov    -0x2c(%ebp),%eax
c0001452:	8d 50 ff             	lea    -0x1(%eax),%edx
c0001455:	89 55 d4             	mov    %edx,-0x2c(%ebp)
c0001458:	3b 45 c4             	cmp    -0x3c(%ebp),%eax
c000145b:	7f e0                	jg     c000143d <vsnprintf+0x2b6>
c000145d:	c7 45 ec 00 00 00 00 	movl   $0x0,-0x14(%ebp)
c0001464:	eb 1f                	jmp    c0001485 <vsnprintf+0x2fe>
c0001466:	8b 45 e4             	mov    -0x1c(%ebp),%eax
c0001469:	3b 45 e0             	cmp    -0x20(%ebp),%eax
c000146c:	77 0b                	ja     c0001479 <vsnprintf+0x2f2>
c000146e:	8b 45 dc             	mov    -0x24(%ebp),%eax
c0001471:	0f b6 10             	movzbl (%eax),%edx
c0001474:	8b 45 e4             	mov    -0x1c(%ebp),%eax
c0001477:	88 10                	mov    %dl,(%eax)
c0001479:	83 45 e4 01          	addl   $0x1,-0x1c(%ebp)
c000147d:	83 45 dc 01          	addl   $0x1,-0x24(%ebp)
c0001481:	83 45 ec 01          	addl   $0x1,-0x14(%ebp)
c0001485:	8b 45 ec             	mov    -0x14(%ebp),%eax
c0001488:	3b 45 c4             	cmp    -0x3c(%ebp),%eax
c000148b:	7c d9                	jl     c0001466 <vsnprintf+0x2df>
c000148d:	eb 12                	jmp    c00014a1 <vsnprintf+0x31a>
c000148f:	8b 45 e4             	mov    -0x1c(%ebp),%eax
c0001492:	3b 45 e0             	cmp    -0x20(%ebp),%eax
c0001495:	77 06                	ja     c000149d <vsnprintf+0x316>
c0001497:	8b 45 e4             	mov    -0x1c(%ebp),%eax
c000149a:	c6 00 20             	movb   $0x20,(%eax)
c000149d:	83 45 e4 01          	addl   $0x1,-0x1c(%ebp)
c00014a1:	8b 45 d4             	mov    -0x2c(%ebp),%eax
c00014a4:	8d 50 ff             	lea    -0x1(%eax),%edx
c00014a7:	89 55 d4             	mov    %edx,-0x2c(%ebp)
c00014aa:	3b 45 c4             	cmp    -0x3c(%ebp),%eax
c00014ad:	7f e0                	jg     c000148f <vsnprintf+0x308>
c00014af:	e9 63 02 00 00       	jmp    c0001717 <vsnprintf+0x590>
c00014b4:	83 7d d4 ff          	cmpl   $0xffffffff,-0x2c(%ebp)
c00014b8:	75 0b                	jne    c00014c5 <vsnprintf+0x33e>
c00014ba:	c7 45 d4 08 00 00 00 	movl   $0x8,-0x2c(%ebp)
c00014c1:	83 4d d8 01          	orl    $0x1,-0x28(%ebp)
c00014c5:	83 45 14 04          	addl   $0x4,0x14(%ebp)
c00014c9:	8b 45 14             	mov    0x14(%ebp),%eax
c00014cc:	83 e8 04             	sub    $0x4,%eax
c00014cf:	8b 00                	mov    (%eax),%eax
c00014d1:	ba 00 00 00 00       	mov    $0x0,%edx
c00014d6:	8b 4d d8             	mov    -0x28(%ebp),%ecx
c00014d9:	89 4c 24 1c          	mov    %ecx,0x1c(%esp)
c00014dd:	8b 4d d0             	mov    -0x30(%ebp),%ecx
c00014e0:	89 4c 24 18          	mov    %ecx,0x18(%esp)
c00014e4:	8b 4d d4             	mov    -0x2c(%ebp),%ecx
c00014e7:	89 4c 24 14          	mov    %ecx,0x14(%esp)
c00014eb:	c7 44 24 10 10 00 00 	movl   $0x10,0x10(%esp)
c00014f2:	00 
c00014f3:	89 44 24 08          	mov    %eax,0x8(%esp)
c00014f7:	89 54 24 0c          	mov    %edx,0xc(%esp)
c00014fb:	8b 45 e0             	mov    -0x20(%ebp),%eax
c00014fe:	89 44 24 04          	mov    %eax,0x4(%esp)
c0001502:	8b 45 e4             	mov    -0x1c(%ebp),%eax
c0001505:	89 04 24             	mov    %eax,(%esp)
c0001508:	e8 d4 f8 ff ff       	call   c0000de1 <number>
c000150d:	89 45 e4             	mov    %eax,-0x1c(%ebp)
c0001510:	e9 02 02 00 00       	jmp    c0001717 <vsnprintf+0x590>
c0001515:	83 7d cc 6c          	cmpl   $0x6c,-0x34(%ebp)
c0001519:	75 1c                	jne    c0001537 <vsnprintf+0x3b0>
c000151b:	83 45 14 04          	addl   $0x4,0x14(%ebp)
c000151f:	8b 45 14             	mov    0x14(%ebp),%eax
c0001522:	8b 40 fc             	mov    -0x4(%eax),%eax
c0001525:	89 45 c0             	mov    %eax,-0x40(%ebp)
c0001528:	8b 55 e4             	mov    -0x1c(%ebp),%edx
c000152b:	8b 45 08             	mov    0x8(%ebp),%eax
c000152e:	29 c2                	sub    %eax,%edx
c0001530:	8b 45 c0             	mov    -0x40(%ebp),%eax
c0001533:	89 10                	mov    %edx,(%eax)
c0001535:	eb 45                	jmp    c000157c <vsnprintf+0x3f5>
c0001537:	83 7d cc 5a          	cmpl   $0x5a,-0x34(%ebp)
c000153b:	75 20                	jne    c000155d <vsnprintf+0x3d6>
c000153d:	83 45 14 04          	addl   $0x4,0x14(%ebp)
c0001541:	8b 45 14             	mov    0x14(%ebp),%eax
c0001544:	8b 40 fc             	mov    -0x4(%eax),%eax
c0001547:	89 45 bc             	mov    %eax,-0x44(%ebp)
c000154a:	8b 55 e4             	mov    -0x1c(%ebp),%edx
c000154d:	8b 45 08             	mov    0x8(%ebp),%eax
c0001550:	29 c2                	sub    %eax,%edx
c0001552:	89 d0                	mov    %edx,%eax
c0001554:	89 c2                	mov    %eax,%edx
c0001556:	8b 45 bc             	mov    -0x44(%ebp),%eax
c0001559:	89 10                	mov    %edx,(%eax)
c000155b:	eb 1f                	jmp    c000157c <vsnprintf+0x3f5>
c000155d:	83 45 14 04          	addl   $0x4,0x14(%ebp)
c0001561:	8b 45 14             	mov    0x14(%ebp),%eax
c0001564:	8b 40 fc             	mov    -0x4(%eax),%eax
c0001567:	89 45 b8             	mov    %eax,-0x48(%ebp)
c000156a:	8b 55 e4             	mov    -0x1c(%ebp),%edx
c000156d:	8b 45 08             	mov    0x8(%ebp),%eax
c0001570:	29 c2                	sub    %eax,%edx
c0001572:	8b 45 b8             	mov    -0x48(%ebp),%eax
c0001575:	89 10                	mov    %edx,(%eax)
c0001577:	e9 9b 01 00 00       	jmp    c0001717 <vsnprintf+0x590>
c000157c:	e9 96 01 00 00       	jmp    c0001717 <vsnprintf+0x590>
c0001581:	8b 45 e4             	mov    -0x1c(%ebp),%eax
c0001584:	3b 45 e0             	cmp    -0x20(%ebp),%eax
c0001587:	77 06                	ja     c000158f <vsnprintf+0x408>
c0001589:	8b 45 e4             	mov    -0x1c(%ebp),%eax
c000158c:	c6 00 25             	movb   $0x25,(%eax)
c000158f:	83 45 e4 01          	addl   $0x1,-0x1c(%ebp)
c0001593:	e9 7f 01 00 00       	jmp    c0001717 <vsnprintf+0x590>
c0001598:	c7 45 e8 08 00 00 00 	movl   $0x8,-0x18(%ebp)
c000159f:	eb 63                	jmp    c0001604 <vsnprintf+0x47d>
c00015a1:	83 4d d8 40          	orl    $0x40,-0x28(%ebp)
c00015a5:	c7 45 e8 10 00 00 00 	movl   $0x10,-0x18(%ebp)
c00015ac:	eb 56                	jmp    c0001604 <vsnprintf+0x47d>
c00015ae:	c7 45 e8 10 00 00 00 	movl   $0x10,-0x18(%ebp)
c00015b5:	eb 4d                	jmp    c0001604 <vsnprintf+0x47d>
c00015b7:	83 4d d8 02          	orl    $0x2,-0x28(%ebp)
c00015bb:	eb 47                	jmp    c0001604 <vsnprintf+0x47d>
c00015bd:	8b 45 e4             	mov    -0x1c(%ebp),%eax
c00015c0:	3b 45 e0             	cmp    -0x20(%ebp),%eax
c00015c3:	77 06                	ja     c00015cb <vsnprintf+0x444>
c00015c5:	8b 45 e4             	mov    -0x1c(%ebp),%eax
c00015c8:	c6 00 25             	movb   $0x25,(%eax)
c00015cb:	83 45 e4 01          	addl   $0x1,-0x1c(%ebp)
c00015cf:	8b 45 10             	mov    0x10(%ebp),%eax
c00015d2:	0f b6 00             	movzbl (%eax),%eax
c00015d5:	84 c0                	test   %al,%al
c00015d7:	74 1c                	je     c00015f5 <vsnprintf+0x46e>
c00015d9:	8b 45 e4             	mov    -0x1c(%ebp),%eax
c00015dc:	3b 45 e0             	cmp    -0x20(%ebp),%eax
c00015df:	77 0b                	ja     c00015ec <vsnprintf+0x465>
c00015e1:	8b 45 10             	mov    0x10(%ebp),%eax
c00015e4:	0f b6 10             	movzbl (%eax),%edx
c00015e7:	8b 45 e4             	mov    -0x1c(%ebp),%eax
c00015ea:	88 10                	mov    %dl,(%eax)
c00015ec:	83 45 e4 01          	addl   $0x1,-0x1c(%ebp)
c00015f0:	e9 22 01 00 00       	jmp    c0001717 <vsnprintf+0x590>
c00015f5:	8b 45 10             	mov    0x10(%ebp),%eax
c00015f8:	83 e8 01             	sub    $0x1,%eax
c00015fb:	89 45 10             	mov    %eax,0x10(%ebp)
c00015fe:	e9 14 01 00 00       	jmp    c0001717 <vsnprintf+0x590>
c0001603:	90                   	nop
c0001604:	83 7d cc 4c          	cmpl   $0x4c,-0x34(%ebp)
c0001608:	75 1a                	jne    c0001624 <vsnprintf+0x49d>
c000160a:	83 45 14 08          	addl   $0x8,0x14(%ebp)
c000160e:	8b 45 14             	mov    0x14(%ebp),%eax
c0001611:	83 e8 08             	sub    $0x8,%eax
c0001614:	8b 50 04             	mov    0x4(%eax),%edx
c0001617:	8b 00                	mov    (%eax),%eax
c0001619:	89 45 f0             	mov    %eax,-0x10(%ebp)
c000161c:	89 55 f4             	mov    %edx,-0xc(%ebp)
c000161f:	e9 b4 00 00 00       	jmp    c00016d8 <vsnprintf+0x551>
c0001624:	83 7d cc 6c          	cmpl   $0x6c,-0x34(%ebp)
c0001628:	75 30                	jne    c000165a <vsnprintf+0x4d3>
c000162a:	83 45 14 04          	addl   $0x4,0x14(%ebp)
c000162e:	8b 45 14             	mov    0x14(%ebp),%eax
c0001631:	83 e8 04             	sub    $0x4,%eax
c0001634:	8b 00                	mov    (%eax),%eax
c0001636:	89 45 f0             	mov    %eax,-0x10(%ebp)
c0001639:	c7 45 f4 00 00 00 00 	movl   $0x0,-0xc(%ebp)
c0001640:	8b 45 d8             	mov    -0x28(%ebp),%eax
c0001643:	83 e0 02             	and    $0x2,%eax
c0001646:	85 c0                	test   %eax,%eax
c0001648:	0f 84 8a 00 00 00    	je     c00016d8 <vsnprintf+0x551>
c000164e:	8b 45 f0             	mov    -0x10(%ebp),%eax
c0001651:	99                   	cltd   
c0001652:	89 45 f0             	mov    %eax,-0x10(%ebp)
c0001655:	89 55 f4             	mov    %edx,-0xc(%ebp)
c0001658:	eb 7e                	jmp    c00016d8 <vsnprintf+0x551>
c000165a:	83 7d cc 5a          	cmpl   $0x5a,-0x34(%ebp)
c000165e:	75 18                	jne    c0001678 <vsnprintf+0x4f1>
c0001660:	83 45 14 04          	addl   $0x4,0x14(%ebp)
c0001664:	8b 45 14             	mov    0x14(%ebp),%eax
c0001667:	83 e8 04             	sub    $0x4,%eax
c000166a:	8b 00                	mov    (%eax),%eax
c000166c:	89 45 f0             	mov    %eax,-0x10(%ebp)
c000166f:	c7 45 f4 00 00 00 00 	movl   $0x0,-0xc(%ebp)
c0001676:	eb 60                	jmp    c00016d8 <vsnprintf+0x551>
c0001678:	83 7d cc 68          	cmpl   $0x68,-0x34(%ebp)
c000167c:	75 30                	jne    c00016ae <vsnprintf+0x527>
c000167e:	83 45 14 04          	addl   $0x4,0x14(%ebp)
c0001682:	8b 45 14             	mov    0x14(%ebp),%eax
c0001685:	83 e8 04             	sub    $0x4,%eax
c0001688:	8b 00                	mov    (%eax),%eax
c000168a:	0f b7 c0             	movzwl %ax,%eax
c000168d:	89 45 f0             	mov    %eax,-0x10(%ebp)
c0001690:	c7 45 f4 00 00 00 00 	movl   $0x0,-0xc(%ebp)
c0001697:	8b 45 d8             	mov    -0x28(%ebp),%eax
c000169a:	83 e0 02             	and    $0x2,%eax
c000169d:	85 c0                	test   %eax,%eax
c000169f:	74 37                	je     c00016d8 <vsnprintf+0x551>
c00016a1:	8b 45 f0             	mov    -0x10(%ebp),%eax
c00016a4:	98                   	cwtl   
c00016a5:	99                   	cltd   
c00016a6:	89 45 f0             	mov    %eax,-0x10(%ebp)
c00016a9:	89 55 f4             	mov    %edx,-0xc(%ebp)
c00016ac:	eb 2a                	jmp    c00016d8 <vsnprintf+0x551>
c00016ae:	83 45 14 04          	addl   $0x4,0x14(%ebp)
c00016b2:	8b 45 14             	mov    0x14(%ebp),%eax
c00016b5:	83 e8 04             	sub    $0x4,%eax
c00016b8:	8b 00                	mov    (%eax),%eax
c00016ba:	89 45 f0             	mov    %eax,-0x10(%ebp)
c00016bd:	c7 45 f4 00 00 00 00 	movl   $0x0,-0xc(%ebp)
c00016c4:	8b 45 d8             	mov    -0x28(%ebp),%eax
c00016c7:	83 e0 02             	and    $0x2,%eax
c00016ca:	85 c0                	test   %eax,%eax
c00016cc:	74 0a                	je     c00016d8 <vsnprintf+0x551>
c00016ce:	8b 45 f0             	mov    -0x10(%ebp),%eax
c00016d1:	99                   	cltd   
c00016d2:	89 45 f0             	mov    %eax,-0x10(%ebp)
c00016d5:	89 55 f4             	mov    %edx,-0xc(%ebp)
c00016d8:	8b 45 f0             	mov    -0x10(%ebp),%eax
c00016db:	8b 55 f4             	mov    -0xc(%ebp),%edx
c00016de:	8b 4d d8             	mov    -0x28(%ebp),%ecx
c00016e1:	89 4c 24 1c          	mov    %ecx,0x1c(%esp)
c00016e5:	8b 4d d0             	mov    -0x30(%ebp),%ecx
c00016e8:	89 4c 24 18          	mov    %ecx,0x18(%esp)
c00016ec:	8b 4d d4             	mov    -0x2c(%ebp),%ecx
c00016ef:	89 4c 24 14          	mov    %ecx,0x14(%esp)
c00016f3:	8b 4d e8             	mov    -0x18(%ebp),%ecx
c00016f6:	89 4c 24 10          	mov    %ecx,0x10(%esp)
c00016fa:	89 44 24 08          	mov    %eax,0x8(%esp)
c00016fe:	89 54 24 0c          	mov    %edx,0xc(%esp)
c0001702:	8b 45 e0             	mov    -0x20(%ebp),%eax
c0001705:	89 44 24 04          	mov    %eax,0x4(%esp)
c0001709:	8b 45 e4             	mov    -0x1c(%ebp),%eax
c000170c:	89 04 24             	mov    %eax,(%esp)
c000170f:	e8 cd f6 ff ff       	call   c0000de1 <number>
c0001714:	89 45 e4             	mov    %eax,-0x1c(%ebp)
c0001717:	8b 45 10             	mov    0x10(%ebp),%eax
c000171a:	83 c0 01             	add    $0x1,%eax
c000171d:	89 45 10             	mov    %eax,0x10(%ebp)
c0001720:	8b 45 10             	mov    0x10(%ebp),%eax
c0001723:	0f b6 00             	movzbl (%eax),%eax
c0001726:	84 c0                	test   %al,%al
c0001728:	0f 85 9f fa ff ff    	jne    c00011cd <vsnprintf+0x46>
c000172e:	8b 45 e4             	mov    -0x1c(%ebp),%eax
c0001731:	3b 45 e0             	cmp    -0x20(%ebp),%eax
c0001734:	77 08                	ja     c000173e <vsnprintf+0x5b7>
c0001736:	8b 45 e4             	mov    -0x1c(%ebp),%eax
c0001739:	c6 00 00             	movb   $0x0,(%eax)
c000173c:	eb 0c                	jmp    c000174a <vsnprintf+0x5c3>
c000173e:	83 7d 0c 00          	cmpl   $0x0,0xc(%ebp)
c0001742:	74 06                	je     c000174a <vsnprintf+0x5c3>
c0001744:	8b 45 e0             	mov    -0x20(%ebp),%eax
c0001747:	c6 00 00             	movb   $0x0,(%eax)
c000174a:	8b 55 e4             	mov    -0x1c(%ebp),%edx
c000174d:	8b 45 08             	mov    0x8(%ebp),%eax
c0001750:	29 c2                	sub    %eax,%edx
c0001752:	89 d0                	mov    %edx,%eax
c0001754:	c9                   	leave  
c0001755:	c3                   	ret    
c0001756:	66 90                	xchg   %ax,%ax
c0001758:	57                   	push   %edi
c0001759:	65                   	gs
c000175a:	6c                   	insb   (%dx),%es:(%edi)
c000175b:	63 6f 6d             	arpl   %bp,0x6d(%edi)
c000175e:	65 20 54 6f 20       	and    %dl,%gs:0x20(%edi,%ebp,2)
c0001763:	00 42 6c             	add    %al,0x6c(%edx)
c0001766:	75 65                	jne    c00017cd <vsnprintf+0x646>
c0001768:	20 46 69             	and    %al,0x69(%esi)
c000176b:	72 65                	jb     c00017d2 <vsnprintf+0x64b>
c000176d:	20 4f 53             	and    %cl,0x53(%edi)
c0001770:	2e 0a 00             	or     %cs:(%eax),%al
c0001773:	00 4b 65             	add    %cl,0x65(%ebx)
c0001776:	72 6e                	jb     c00017e6 <vsnprintf+0x65f>
c0001778:	65                   	gs
c0001779:	6c                   	insb   (%dx),%es:(%edi)
c000177a:	20 69 73             	and    %ch,0x73(%ecx)
c000177d:	20 72 75             	and    %dh,0x75(%edx)
c0001780:	6e                   	outsb  %ds:(%esi),(%dx)
c0001781:	6e                   	outsb  %ds:(%esi),(%dx)
c0001782:	69 6e 67 20 61 74 20 	imul   $0x20746120,0x67(%esi),%ebp
c0001789:	76 69                	jbe    c00017f4 <vsnprintf+0x66d>
c000178b:	72 74                	jb     c0001801 <vsnprintf+0x67a>
c000178d:	75 61                	jne    c00017f0 <vsnprintf+0x669>
c000178f:	6c                   	insb   (%dx),%es:(%edi)
c0001790:	20 61 64             	and    %ah,0x64(%ecx)
c0001793:	64                   	fs
c0001794:	72 65                	jb     c00017fb <vsnprintf+0x674>
c0001796:	73 73                	jae    c000180b <vsnprintf+0x684>
c0001798:	3a 20                	cmp    (%eax),%ah
c000179a:	25 23 30 31 30       	and    $0x30313023,%eax
c000179f:	78 0a                	js     c00017ab <vsnprintf+0x624>
c00017a1:	00 00                	add    %al,(%eax)
c00017a3:	00 54 6f 74          	add    %dl,0x74(%edi,%ebp,2)
c00017a7:	61                   	popa   
c00017a8:	6c                   	insb   (%dx),%es:(%edi)
c00017a9:	20 53 79             	and    %dl,0x79(%ebx)
c00017ac:	73 74                	jae    c0001822 <vsnprintf+0x69b>
c00017ae:	65                   	gs
c00017af:	6d                   	insl   (%dx),%es:(%edi)
c00017b0:	20 6d 65             	and    %ch,0x65(%ebp)
c00017b3:	6d                   	insl   (%dx),%es:(%edi)
c00017b4:	6f                   	outsl  %ds:(%esi),(%dx)
c00017b5:	72 79                	jb     c0001830 <vsnprintf+0x6a9>
c00017b7:	20 69 73             	and    %ch,0x73(%ecx)
c00017ba:	3a 20                	cmp    (%eax),%ah
c00017bc:	25 64 20 4d 42       	and    $0x424d2064,%eax
c00017c1:	0a 00                	or     (%eax),%al
c00017c3:	30 30                	xor    %dh,(%eax)
c00017c5:	2e 30 30             	xor    %dh,%cs:(%eax)
c00017c8:	2e 30 34 20          	xor    %dh,%cs:(%eax,%eiz,1)
c00017cc:	2d 3e 20 30 30       	sub    $0x3030203e,%eax
c00017d1:	30 36                	xor    %dh,(%esi)
c00017d3:	00 6b 65             	add    %ch,0x65(%ebx)
c00017d6:	72 6e                	jb     c0001846 <vsnprintf+0x6bf>
c00017d8:	65                   	gs
c00017d9:	6c                   	insb   (%dx),%es:(%edi)
c00017da:	2f                   	das    
c00017db:	6d                   	insl   (%dx),%es:(%edi)
c00017dc:	61                   	popa   
c00017dd:	69 6e 2e 63 00 00 00 	imul   $0x63,0x2e(%esi),%ebp
c00017e4:	2d 3e 25 73 20       	sub    $0x2073253e,%eax
c00017e9:	22 30                	and    (%eax),%dh
c00017eb:	30 2e                	xor    %ch,(%esi)
c00017ed:	30 30                	xor    %dh,(%eax)
c00017ef:	2e 30 34 20          	xor    %dh,%cs:(%eax,%eiz,1)
c00017f3:	2d 3e 20 30 30       	sub    $0x3030203e,%eax
c00017f8:	30 36                	xor    %dh,(%esi)
c00017fa:	22 2d 3e 20 30 78    	and    0x7830203e,%ch
c0001800:	25 78 0a 00 0a       	and    $0xa000a78,%eax
c0001805:	48                   	dec    %eax
c0001806:	61                   	popa   
c0001807:	6c                   	insb   (%dx),%es:(%edi)
c0001808:	74 65                	je     c000186f <vsnprintf+0x6e8>
c000180a:	64 20 69 6e          	and    %ch,%fs:0x6e(%ecx)
c000180e:	20 2d 3e 25 73 20    	and    %ch,0x2073253e
c0001814:	61                   	popa   
c0001815:	74 20                	je     c0001837 <vsnprintf+0x6b0>
c0001817:	6c                   	insb   (%dx),%es:(%edi)
c0001818:	69 6e 65 20 25 64 00 	imul   $0x642520,0x65(%esi),%ebp
c000181f:	90                   	nop
c0001820:	6b 65 72 6e          	imul   $0x6e,0x72(%ebp),%esp
c0001824:	65                   	gs
c0001825:	6c                   	insb   (%dx),%es:(%edi)
c0001826:	2f                   	das    
c0001827:	70 61                	jo     c000188a <vsnprintf+0x703>
c0001829:	67 69 6e 67 2e 63 00 	imul   $0x2d00632e,0x67(%bp),%ebp
c0001830:	2d 
c0001831:	3e                   	ds
c0001832:	25 73 20 50 54       	and    $0x54502073,%eax
c0001837:	45                   	inc    %ebp
c0001838:	2d 3e 20 30 78       	sub    $0x7830203e,%eax
c000183d:	25 78 0a 00 2d       	and    $0x2d000a78,%eax
c0001842:	3e                   	ds
c0001843:	25 73 20 41 44       	and    $0x44412073,%eax
c0001848:	44                   	inc    %esp
c0001849:	52                   	push   %edx
c000184a:	5f                   	pop    %edi
c000184b:	54                   	push   %esp
c000184c:	4f                   	dec    %edi
c000184d:	5f                   	pop    %edi
c000184e:	50                   	push   %eax
c000184f:	54                   	push   %esp
c0001850:	45                   	inc    %ebp
c0001851:	28 30                	sub    %dh,(%eax)
c0001853:	29 2d 3e 20 30 78    	sub    %ebp,0x7830203e
c0001859:	25 78 0a 00 00       	and    $0xa78,%eax
c000185e:	00 00                	add    %al,(%eax)
c0001860:	2d 3e 25 73 20       	sub    $0x2073253e,%eax
c0001865:	56                   	push   %esi
c0001866:	49                   	dec    %ecx
c0001867:	52                   	push   %edx
c0001868:	54                   	push   %esp
c0001869:	5f                   	pop    %edi
c000186a:	54                   	push   %esp
c000186b:	4f                   	dec    %edi
c000186c:	5f                   	pop    %edi
c000186d:	50                   	push   %eax
c000186e:	54                   	push   %esp
c000186f:	45                   	inc    %ebp
c0001870:	5f                   	pop    %edi
c0001871:	41                   	inc    %ecx
c0001872:	44                   	inc    %esp
c0001873:	44                   	inc    %esp
c0001874:	52                   	push   %edx
c0001875:	28 30                	sub    %dh,(%eax)
c0001877:	29 2d 3e 20 30 78    	sub    %ebp,0x7830203e
c000187d:	25 78 0a 00 00       	and    $0xa78,%eax
c0001882:	00 00                	add    %al,(%eax)
c0001884:	2d 3e 25 73 20       	sub    $0x2073253e,%eax
c0001889:	41                   	inc    %ecx
c000188a:	44                   	inc    %esp
c000188b:	44                   	inc    %esp
c000188c:	52                   	push   %edx
c000188d:	5f                   	pop    %edi
c000188e:	54                   	push   %esp
c000188f:	4f                   	dec    %edi
c0001890:	5f                   	pop    %edi
c0001891:	50                   	push   %eax
c0001892:	54                   	push   %esp
c0001893:	45                   	inc    %ebp
c0001894:	28 30                	sub    %dh,(%eax)
c0001896:	78 30                	js     c00018c8 <vsnprintf+0x741>
c0001898:	30 30                	xor    %dh,(%eax)
c000189a:	30 30                	xor    %dh,(%eax)
c000189c:	35 30 30 29 2d       	xor    $0x2d293030,%eax
c00018a1:	3e 20 30             	and    %dh,%ds:(%eax)
c00018a4:	78 25                	js     c00018cb <vsnprintf+0x744>
c00018a6:	78 0a                	js     c00018b2 <vsnprintf+0x72b>
c00018a8:	00 00                	add    %al,(%eax)
c00018aa:	00 00                	add    %al,(%eax)
c00018ac:	2d 3e 25 73 20       	sub    $0x2073253e,%eax
c00018b1:	56                   	push   %esi
c00018b2:	49                   	dec    %ecx
c00018b3:	52                   	push   %edx
c00018b4:	54                   	push   %esp
c00018b5:	5f                   	pop    %edi
c00018b6:	54                   	push   %esp
c00018b7:	4f                   	dec    %edi
c00018b8:	5f                   	pop    %edi
c00018b9:	50                   	push   %eax
c00018ba:	54                   	push   %esp
c00018bb:	45                   	inc    %ebp
c00018bc:	5f                   	pop    %edi
c00018bd:	41                   	inc    %ecx
c00018be:	44                   	inc    %esp
c00018bf:	44                   	inc    %esp
c00018c0:	52                   	push   %edx
c00018c1:	28 30                	sub    %dh,(%eax)
c00018c3:	78 30                	js     c00018f5 <vsnprintf+0x76e>
c00018c5:	30 30                	xor    %dh,(%eax)
c00018c7:	30 30                	xor    %dh,(%eax)
c00018c9:	35 30 30 29 2d       	xor    $0x2d293030,%eax
c00018ce:	3e 20 30             	and    %dh,%ds:(%eax)
c00018d1:	78 25                	js     c00018f8 <vsnprintf+0x771>
c00018d3:	78 0a                	js     c00018df <vsnprintf+0x758>
c00018d5:	00 00                	add    %al,(%eax)
c00018d7:	00 2d 3e 25 73 20    	add    %ch,0x2073253e
c00018dd:	41                   	inc    %ecx
c00018de:	44                   	inc    %esp
c00018df:	44                   	inc    %esp
c00018e0:	52                   	push   %edx
c00018e1:	5f                   	pop    %edi
c00018e2:	54                   	push   %esp
c00018e3:	4f                   	dec    %edi
c00018e4:	5f                   	pop    %edi
c00018e5:	50                   	push   %eax
c00018e6:	54                   	push   %esp
c00018e7:	45                   	inc    %ebp
c00018e8:	28 30                	sub    %dh,(%eax)
c00018ea:	78 30                	js     c000191c <vsnprintf+0x795>
c00018ec:	30 30                	xor    %dh,(%eax)
c00018ee:	30 31                	xor    %dh,(%ecx)
c00018f0:	30 30                	xor    %dh,(%eax)
c00018f2:	30 29                	xor    %ch,(%ecx)
c00018f4:	2d 3e 20 30 78       	sub    $0x7830203e,%eax
c00018f9:	25 78 0a 00 00       	and    $0xa78,%eax
c00018fe:	00 00                	add    %al,(%eax)
c0001900:	2d 3e 25 73 20       	sub    $0x2073253e,%eax
c0001905:	56                   	push   %esi
c0001906:	49                   	dec    %ecx
c0001907:	52                   	push   %edx
c0001908:	54                   	push   %esp
c0001909:	5f                   	pop    %edi
c000190a:	54                   	push   %esp
c000190b:	4f                   	dec    %edi
c000190c:	5f                   	pop    %edi
c000190d:	50                   	push   %eax
c000190e:	54                   	push   %esp
c000190f:	45                   	inc    %ebp
c0001910:	5f                   	pop    %edi
c0001911:	41                   	inc    %ecx
c0001912:	44                   	inc    %esp
c0001913:	44                   	inc    %esp
c0001914:	52                   	push   %edx
c0001915:	28 30                	sub    %dh,(%eax)
c0001917:	78 30                	js     c0001949 <vsnprintf+0x7c2>
c0001919:	30 30                	xor    %dh,(%eax)
c000191b:	30 31                	xor    %dh,(%ecx)
c000191d:	30 30                	xor    %dh,(%eax)
c000191f:	30 29                	xor    %ch,(%ecx)
c0001921:	2d 3e 20 30 78       	sub    $0x7830203e,%eax
c0001926:	25 78 0a 00 00       	and    $0xa78,%eax
c000192b:	00 2d 3e 25 73 20    	add    %ch,0x2073253e
c0001931:	41                   	inc    %ecx
c0001932:	44                   	inc    %esp
c0001933:	44                   	inc    %esp
c0001934:	52                   	push   %edx
c0001935:	5f                   	pop    %edi
c0001936:	54                   	push   %esp
c0001937:	4f                   	dec    %edi
c0001938:	5f                   	pop    %edi
c0001939:	50                   	push   %eax
c000193a:	54                   	push   %esp
c000193b:	45                   	inc    %ebp
c000193c:	28 30                	sub    %dh,(%eax)
c000193e:	78 30                	js     c0001970 <vsnprintf+0x7e9>
c0001940:	30 30                	xor    %dh,(%eax)
c0001942:	30 31                	xor    %dh,(%ecx)
c0001944:	30 30                	xor    %dh,(%eax)
c0001946:	31 29                	xor    %ebp,(%ecx)
c0001948:	2d 3e 20 30 78       	sub    $0x7830203e,%eax
c000194d:	25 78 0a 00 00       	and    $0xa78,%eax
c0001952:	00 00                	add    %al,(%eax)
c0001954:	2d 3e 25 73 20       	sub    $0x2073253e,%eax
c0001959:	56                   	push   %esi
c000195a:	49                   	dec    %ecx
c000195b:	52                   	push   %edx
c000195c:	54                   	push   %esp
c000195d:	5f                   	pop    %edi
c000195e:	54                   	push   %esp
c000195f:	4f                   	dec    %edi
c0001960:	5f                   	pop    %edi
c0001961:	50                   	push   %eax
c0001962:	54                   	push   %esp
c0001963:	45                   	inc    %ebp
c0001964:	5f                   	pop    %edi
c0001965:	41                   	inc    %ecx
c0001966:	44                   	inc    %esp
c0001967:	44                   	inc    %esp
c0001968:	52                   	push   %edx
c0001969:	28 30                	sub    %dh,(%eax)
c000196b:	78 30                	js     c000199d <vsnprintf+0x816>
c000196d:	30 30                	xor    %dh,(%eax)
c000196f:	30 31                	xor    %dh,(%ecx)
c0001971:	30 30                	xor    %dh,(%eax)
c0001973:	31 29                	xor    %ebp,(%ecx)
c0001975:	2d 3e 20 30 78       	sub    $0x7830203e,%eax
c000197a:	25 78 0a 00 00       	and    $0xa78,%eax
c000197f:	00 2d 3e 25 73 20    	add    %ch,0x2073253e
c0001985:	41                   	inc    %ecx
c0001986:	44                   	inc    %esp
c0001987:	44                   	inc    %esp
c0001988:	52                   	push   %edx
c0001989:	5f                   	pop    %edi
c000198a:	54                   	push   %esp
c000198b:	4f                   	dec    %edi
c000198c:	5f                   	pop    %edi
c000198d:	50                   	push   %eax
c000198e:	54                   	push   %esp
c000198f:	45                   	inc    %ebp
c0001990:	28 30                	sub    %dh,(%eax)
c0001992:	78 43                	js     c00019d7 <vsnprintf+0x850>
c0001994:	30 30                	xor    %dh,(%eax)
c0001996:	30 30                	xor    %dh,(%eax)
c0001998:	30 30                	xor    %dh,(%eax)
c000199a:	30 29                	xor    %ch,(%ecx)
c000199c:	2d 3e 20 30 78       	sub    $0x7830203e,%eax
c00019a1:	25 78 0a 00 00       	and    $0xa78,%eax
c00019a6:	00 00                	add    %al,(%eax)
c00019a8:	2d 3e 25 73 20       	sub    $0x2073253e,%eax
c00019ad:	56                   	push   %esi
c00019ae:	49                   	dec    %ecx
c00019af:	52                   	push   %edx
c00019b0:	54                   	push   %esp
c00019b1:	5f                   	pop    %edi
c00019b2:	54                   	push   %esp
c00019b3:	4f                   	dec    %edi
c00019b4:	5f                   	pop    %edi
c00019b5:	50                   	push   %eax
c00019b6:	54                   	push   %esp
c00019b7:	45                   	inc    %ebp
c00019b8:	5f                   	pop    %edi
c00019b9:	41                   	inc    %ecx
c00019ba:	44                   	inc    %esp
c00019bb:	44                   	inc    %esp
c00019bc:	52                   	push   %edx
c00019bd:	28 30                	sub    %dh,(%eax)
c00019bf:	78 43                	js     c0001a04 <vsnprintf+0x87d>
c00019c1:	30 30                	xor    %dh,(%eax)
c00019c3:	30 30                	xor    %dh,(%eax)
c00019c5:	30 30                	xor    %dh,(%eax)
c00019c7:	30 29                	xor    %ch,(%ecx)
c00019c9:	2d 3e 20 30 78       	sub    $0x7830203e,%eax
c00019ce:	25 78 0a 00 00       	and    $0xa78,%eax
c00019d3:	00 2d 3e 25 73 20    	add    %ch,0x2073253e
c00019d9:	41                   	inc    %ecx
c00019da:	44                   	inc    %esp
c00019db:	44                   	inc    %esp
c00019dc:	52                   	push   %edx
c00019dd:	5f                   	pop    %edi
c00019de:	54                   	push   %esp
c00019df:	4f                   	dec    %edi
c00019e0:	5f                   	pop    %edi
c00019e1:	50                   	push   %eax
c00019e2:	54                   	push   %esp
c00019e3:	45                   	inc    %ebp
c00019e4:	28 30                	sub    %dh,(%eax)
c00019e6:	78 46                	js     c0001a2e <vsnprintf+0x8a7>
c00019e8:	46                   	inc    %esi
c00019e9:	43                   	inc    %ebx
c00019ea:	30 30                	xor    %dh,(%eax)
c00019ec:	30 30                	xor    %dh,(%eax)
c00019ee:	30 29                	xor    %ch,(%ecx)
c00019f0:	2d 3e 20 30 78       	sub    $0x7830203e,%eax
c00019f5:	25 78 0a 00 00       	and    $0xa78,%eax
c00019fa:	00 00                	add    %al,(%eax)
c00019fc:	2d 3e 25 73 20       	sub    $0x2073253e,%eax
c0001a01:	56                   	push   %esi
c0001a02:	49                   	dec    %ecx
c0001a03:	52                   	push   %edx
c0001a04:	54                   	push   %esp
c0001a05:	5f                   	pop    %edi
c0001a06:	54                   	push   %esp
c0001a07:	4f                   	dec    %edi
c0001a08:	5f                   	pop    %edi
c0001a09:	50                   	push   %eax
c0001a0a:	54                   	push   %esp
c0001a0b:	45                   	inc    %ebp
c0001a0c:	5f                   	pop    %edi
c0001a0d:	41                   	inc    %ecx
c0001a0e:	44                   	inc    %esp
c0001a0f:	44                   	inc    %esp
c0001a10:	52                   	push   %edx
c0001a11:	28 30                	sub    %dh,(%eax)
c0001a13:	78 46                	js     c0001a5b <vsnprintf+0x8d4>
c0001a15:	46                   	inc    %esi
c0001a16:	43                   	inc    %ebx
c0001a17:	30 30                	xor    %dh,(%eax)
c0001a19:	30 30                	xor    %dh,(%eax)
c0001a1b:	30 29                	xor    %ch,(%ecx)
c0001a1d:	2d 3e 20 30 78       	sub    $0x7830203e,%eax
c0001a22:	25 78 0a 00 00       	and    $0xa78,%eax
c0001a27:	00 2d 3e 25 73 20    	add    %ch,0x2073253e
c0001a2d:	41                   	inc    %ecx
c0001a2e:	44                   	inc    %esp
c0001a2f:	44                   	inc    %esp
c0001a30:	52                   	push   %edx
c0001a31:	5f                   	pop    %edi
c0001a32:	54                   	push   %esp
c0001a33:	4f                   	dec    %edi
c0001a34:	5f                   	pop    %edi
c0001a35:	50                   	push   %eax
c0001a36:	54                   	push   %esp
c0001a37:	45                   	inc    %ebp
c0001a38:	28 30                	sub    %dh,(%eax)
c0001a3a:	78 45                	js     c0001a81 <vsnprintf+0x8fa>
c0001a3c:	46                   	inc    %esi
c0001a3d:	30 30                	xor    %dh,(%eax)
c0001a3f:	30 30                	xor    %dh,(%eax)
c0001a41:	30 30                	xor    %dh,(%eax)
c0001a43:	29 2d 3e 20 30 78    	sub    %ebp,0x7830203e
c0001a49:	25 78 0a 00 00       	and    $0xa78,%eax
c0001a4e:	00 00                	add    %al,(%eax)
c0001a50:	2d 3e 25 73 20       	sub    $0x2073253e,%eax
c0001a55:	56                   	push   %esi
c0001a56:	49                   	dec    %ecx
c0001a57:	52                   	push   %edx
c0001a58:	54                   	push   %esp
c0001a59:	5f                   	pop    %edi
c0001a5a:	54                   	push   %esp
c0001a5b:	4f                   	dec    %edi
c0001a5c:	5f                   	pop    %edi
c0001a5d:	50                   	push   %eax
c0001a5e:	54                   	push   %esp
c0001a5f:	45                   	inc    %ebp
c0001a60:	5f                   	pop    %edi
c0001a61:	41                   	inc    %ecx
c0001a62:	44                   	inc    %esp
c0001a63:	44                   	inc    %esp
c0001a64:	52                   	push   %edx
c0001a65:	28 30                	sub    %dh,(%eax)
c0001a67:	78 45                	js     c0001aae <vsnprintf+0x927>
c0001a69:	46                   	inc    %esi
c0001a6a:	30 30                	xor    %dh,(%eax)
c0001a6c:	30 30                	xor    %dh,(%eax)
c0001a6e:	30 30                	xor    %dh,(%eax)
c0001a70:	29 2d 3e 20 30 78    	sub    %ebp,0x7830203e
c0001a76:	25 78 0a 00 00       	and    $0xa78,%eax
c0001a7b:	00 2d 3e 25 73 20    	add    %ch,0x2073253e
c0001a81:	41                   	inc    %ecx
c0001a82:	44                   	inc    %esp
c0001a83:	44                   	inc    %esp
c0001a84:	52                   	push   %edx
c0001a85:	5f                   	pop    %edi
c0001a86:	54                   	push   %esp
c0001a87:	4f                   	dec    %edi
c0001a88:	5f                   	pop    %edi
c0001a89:	50                   	push   %eax
c0001a8a:	54                   	push   %esp
c0001a8b:	45                   	inc    %ebp
c0001a8c:	28 30                	sub    %dh,(%eax)
c0001a8e:	78 46                	js     c0001ad6 <vsnprintf+0x94f>
c0001a90:	46                   	inc    %esi
c0001a91:	46                   	inc    %esi
c0001a92:	46                   	inc    %esi
c0001a93:	46                   	inc    %esi
c0001a94:	30 30                	xor    %dh,(%eax)
c0001a96:	30 29                	xor    %ch,(%ecx)
c0001a98:	2d 3e 20 30 78       	sub    $0x7830203e,%eax
c0001a9d:	25 78 0a 00 00       	and    $0xa78,%eax
c0001aa2:	00 00                	add    %al,(%eax)
c0001aa4:	2d 3e 25 73 20       	sub    $0x2073253e,%eax
c0001aa9:	56                   	push   %esi
c0001aaa:	49                   	dec    %ecx
c0001aab:	52                   	push   %edx
c0001aac:	54                   	push   %esp
c0001aad:	5f                   	pop    %edi
c0001aae:	54                   	push   %esp
c0001aaf:	4f                   	dec    %edi
c0001ab0:	5f                   	pop    %edi
c0001ab1:	50                   	push   %eax
c0001ab2:	54                   	push   %esp
c0001ab3:	45                   	inc    %ebp
c0001ab4:	5f                   	pop    %edi
c0001ab5:	41                   	inc    %ecx
c0001ab6:	44                   	inc    %esp
c0001ab7:	44                   	inc    %esp
c0001ab8:	52                   	push   %edx
c0001ab9:	28 30                	sub    %dh,(%eax)
c0001abb:	78 46                	js     c0001b03 <vsnprintf+0x97c>
c0001abd:	46                   	inc    %esi
c0001abe:	46                   	inc    %esi
c0001abf:	46                   	inc    %esi
c0001ac0:	46                   	inc    %esi
c0001ac1:	30 30                	xor    %dh,(%eax)
c0001ac3:	30 29                	xor    %ch,(%ecx)
c0001ac5:	2d 3e 20 30 78       	sub    $0x7830203e,%eax
c0001aca:	25 78 0a 00 0a       	and    $0xa000a78,%eax
c0001acf:	44                   	inc    %esp
c0001ad0:	69 72 74 79 20 70 61 	imul   $0x61702079,0x74(%edx),%esi
c0001ad7:	67                   	addr16
c0001ad8:	65                   	gs
c0001ad9:	73 3a                	jae    c0001b15 <vsnprintf+0x98e>
c0001adb:	0a 00                	or     (%eax),%al
c0001add:	00 00                	add    %al,(%eax)
c0001adf:	00 0a                	add    %cl,(%edx)
c0001ae1:	76 69                	jbe    c0001b4c <vsnprintf+0x9c5>
c0001ae3:	72 5f                	jb     c0001b44 <vsnprintf+0x9bd>
c0001ae5:	61                   	popa   
c0001ae6:	64                   	fs
c0001ae7:	64                   	fs
c0001ae8:	72 20                	jb     c0001b0a <vsnprintf+0x983>
c0001aea:	3d 20 25 58 09       	cmp    $0x9582520,%eax
c0001aef:	70 61                	jo     c0001b52 <vsnprintf+0x9cb>
c0001af1:	67                   	addr16
c0001af2:	65                   	gs
c0001af3:	5f                   	pop    %edi
c0001af4:	65 6e                	outsb  %gs:(%esi),(%dx)
c0001af6:	74 72                	je     c0001b6a <vsnprintf+0x9e3>
c0001af8:	79 20                	jns    c0001b1a <vsnprintf+0x993>
c0001afa:	3d 20 25 58 00       	cmp    $0x582520,%eax
c0001aff:	0a 00                	or     (%eax),%al
c0001b01:	00 00                	add    %al,(%eax)
c0001b03:	00 0a                	add    %cl,(%edx)
c0001b05:	46                   	inc    %esi
c0001b06:	72 65                	jb     c0001b6d <vsnprintf+0x9e6>
c0001b08:	65 20 66 72          	and    %ah,%gs:0x72(%esi)
c0001b0c:	61                   	popa   
c0001b0d:	6d                   	insl   (%dx),%es:(%edi)
c0001b0e:	65                   	gs
c0001b0f:	73 20                	jae    c0001b31 <vsnprintf+0x9aa>
c0001b11:	6c                   	insb   (%dx),%es:(%edi)
c0001b12:	69 73 74 3a 20 28 4b 	imul   $0x4b28203a,0x74(%ebx),%esi
c0001b19:	45                   	inc    %ebp
c0001b1a:	52                   	push   %edx
c0001b1b:	4e                   	dec    %esi
c0001b1c:	45                   	inc    %ebp
c0001b1d:	4c                   	dec    %esp
c0001b1e:	5f                   	pop    %edi
c0001b1f:	54                   	push   %esp
c0001b20:	4f                   	dec    %edi
c0001b21:	50                   	push   %eax
c0001b22:	3d 25 58 29 0a       	cmp    $0xa295825,%eax
c0001b27:	00 0a                	add    %cl,(%edx)
c0001b29:	66                   	data16
c0001b2a:	72 61                	jb     c0001b8d <vsnprintf+0xa06>
c0001b2c:	6d                   	insl   (%dx),%es:(%edi)
c0001b2d:	65 20 23             	and    %ah,%gs:(%ebx)
c0001b30:	25 58 20 26 66       	and    $0x66262058,%eax
c0001b35:	72 61                	jb     c0001b98 <vsnprintf+0xa11>
c0001b37:	6d                   	insl   (%dx),%es:(%edi)
c0001b38:	65                   	gs
c0001b39:	3d 25 58 00 66       	cmp    $0x66005825,%eax
c0001b3e:	90                   	nop
c0001b3f:	90                   	nop
c0001b40:	ee                   	out    %al,(%dx)
c0001b41:	0c 00                	or     $0x0,%al
c0001b43:	c0 a8 0b 00 c0 28 0c 	shrb   $0xc,0x28c0000b(%eax)
c0001b4a:	00 c0                	add    %al,%al
c0001b4c:	80 0b 00             	orb    $0x0,(%ebx)
c0001b4f:	c0 3f 0c             	sarb   $0xc,(%edi)
c0001b52:	00 c0                	add    %al,%al
c0001b54:	3f                   	aas    
c0001b55:	0c 00                	or     $0x0,%al
c0001b57:	c0 9c 0b 00 c0 3c 4e 	rcrb   $0x55,0x4e3cc000(%ebx,%ecx,1)
c0001b5e:	55 
c0001b5f:	4c                   	dec    %esp
c0001b60:	4c                   	dec    %esp
c0001b61:	3e 00 00             	add    %al,%ds:(%eax)
c0001b64:	29 12                	sub    %edx,(%edx)
c0001b66:	00 c0                	add    %al,%al
c0001b68:	3b 12                	cmp    (%edx),%edx
c0001b6a:	00 c0                	add    %al,%al
c0001b6c:	3b 12                	cmp    (%edx),%edx
c0001b6e:	00 c0                	add    %al,%al
c0001b70:	2f                   	das    
c0001b71:	12 00                	adc    (%eax),%al
c0001b73:	c0 3b 12             	sarb   $0x12,(%ebx)
c0001b76:	00 c0                	add    %al,%al
c0001b78:	3b 12                	cmp    (%edx),%edx
c0001b7a:	00 c0                	add    %al,%al
c0001b7c:	3b 12                	cmp    (%edx),%edx
c0001b7e:	00 c0                	add    %al,%al
c0001b80:	3b 12                	cmp    (%edx),%edx
c0001b82:	00 c0                	add    %al,%al
c0001b84:	3b 12                	cmp    (%edx),%edx
c0001b86:	00 c0                	add    %al,%al
c0001b88:	3b 12                	cmp    (%edx),%edx
c0001b8a:	00 c0                	add    %al,%al
c0001b8c:	3b 12                	cmp    (%edx),%edx
c0001b8e:	00 c0                	add    %al,%al
c0001b90:	23 12                	and    (%edx),%edx
c0001b92:	00 c0                	add    %al,%al
c0001b94:	3b 12                	cmp    (%edx),%edx
c0001b96:	00 c0                	add    %al,%al
c0001b98:	1d 12 00 c0 3b       	sbb    $0x3bc00012,%eax
c0001b9d:	12 00                	adc    (%eax),%al
c0001b9f:	c0 3b 12             	sarb   $0x12,(%ebx)
c0001ba2:	00 c0                	add    %al,%al
c0001ba4:	35 12 00 c0 81       	xor    $0x81c00012,%eax
c0001ba9:	15 00 c0 bd 15       	adc    $0x15bdc000,%eax
c0001bae:	00 c0                	add    %al,%al
c0001bb0:	bd 15 00 c0 bd       	mov    $0xbdc00015,%ebp
c0001bb5:	15 00 c0 bd 15       	adc    $0x15bdc000,%eax
c0001bba:	00 c0                	add    %al,%al
c0001bbc:	bd 15 00 c0 bd       	mov    $0xbdc00015,%ebp
c0001bc1:	15 00 c0 bd 15       	adc    $0x15bdc000,%eax
c0001bc6:	00 c0                	add    %al,%al
c0001bc8:	bd 15 00 c0 bd       	mov    $0xbdc00015,%ebp
c0001bcd:	15 00 c0 bd 15       	adc    $0x15bdc000,%eax
c0001bd2:	00 c0                	add    %al,%al
c0001bd4:	bd 15 00 c0 bd       	mov    $0xbdc00015,%ebp
c0001bd9:	15 00 c0 bd 15       	adc    $0x15bdc000,%eax
c0001bde:	00 c0                	add    %al,%al
c0001be0:	bd 15 00 c0 bd       	mov    $0xbdc00015,%ebp
c0001be5:	15 00 c0 bd 15       	adc    $0x15bdc000,%eax
c0001bea:	00 c0                	add    %al,%al
c0001bec:	bd 15 00 c0 bd       	mov    $0xbdc00015,%ebp
c0001bf1:	15 00 c0 bd 15       	adc    $0x15bdc000,%eax
c0001bf6:	00 c0                	add    %al,%al
c0001bf8:	bd 15 00 c0 bd       	mov    $0xbdc00015,%ebp
c0001bfd:	15 00 c0 bd 15       	adc    $0x15bdc000,%eax
c0001c02:	00 c0                	add    %al,%al
c0001c04:	bd 15 00 c0 bd       	mov    $0xbdc00015,%ebp
c0001c09:	15 00 c0 bd 15       	adc    $0x15bdc000,%eax
c0001c0e:	00 c0                	add    %al,%al
c0001c10:	bd 15 00 c0 bd       	mov    $0xbdc00015,%ebp
c0001c15:	15 00 c0 bd 15       	adc    $0x15bdc000,%eax
c0001c1a:	00 c0                	add    %al,%al
c0001c1c:	bd 15 00 c0 bd       	mov    $0xbdc00015,%ebp
c0001c21:	15 00 c0 bd 15       	adc    $0x15bdc000,%eax
c0001c26:	00 c0                	add    %al,%al
c0001c28:	bd 15 00 c0 bd       	mov    $0xbdc00015,%ebp
c0001c2d:	15 00 c0 bd 15       	adc    $0x15bdc000,%eax
c0001c32:	00 c0                	add    %al,%al
c0001c34:	bd 15 00 c0 bd       	mov    $0xbdc00015,%ebp
c0001c39:	15 00 c0 bd 15       	adc    $0x15bdc000,%eax
c0001c3e:	00 c0                	add    %al,%al
c0001c40:	bd 15 00 c0 bd       	mov    $0xbdc00015,%ebp
c0001c45:	15 00 c0 bd 15       	adc    $0x15bdc000,%eax
c0001c4a:	00 c0                	add    %al,%al
c0001c4c:	bd 15 00 c0 bd       	mov    $0xbdc00015,%ebp
c0001c51:	15 00 c0 bd 15       	adc    $0x15bdc000,%eax
c0001c56:	00 c0                	add    %al,%al
c0001c58:	bd 15 00 c0 bd       	mov    $0xbdc00015,%ebp
c0001c5d:	15 00 c0 bd 15       	adc    $0x15bdc000,%eax
c0001c62:	00 c0                	add    %al,%al
c0001c64:	bd 15 00 c0 bd       	mov    $0xbdc00015,%ebp
c0001c69:	15 00 c0 bd 15       	adc    $0x15bdc000,%eax
c0001c6e:	00 c0                	add    %al,%al
c0001c70:	bd 15 00 c0 a1       	mov    $0xa1c00015,%ebp
c0001c75:	15 00 c0 bd 15       	adc    $0x15bdc000,%eax
c0001c7a:	00 c0                	add    %al,%al
c0001c7c:	bd 15 00 c0 bd       	mov    $0xbdc00015,%ebp
c0001c81:	15 00 c0 bd 15       	adc    $0x15bdc000,%eax
c0001c86:	00 c0                	add    %al,%al
c0001c88:	bd 15 00 c0 bd       	mov    $0xbdc00015,%ebp
c0001c8d:	15 00 c0 bd 15       	adc    $0x15bdc000,%eax
c0001c92:	00 c0                	add    %al,%al
c0001c94:	bd 15 00 c0 bd       	mov    $0xbdc00015,%ebp
c0001c99:	15 00 c0 bd 15       	adc    $0x15bdc000,%eax
c0001c9e:	00 c0                	add    %al,%al
c0001ca0:	93                   	xchg   %eax,%ebx
c0001ca1:	13 00                	adc    (%eax),%eax
c0001ca3:	c0                   	(bad)  
c0001ca4:	b7 15                	mov    $0x15,%bh
c0001ca6:	00 c0                	add    %al,%al
c0001ca8:	bd 15 00 c0 bd       	mov    $0xbdc00015,%ebp
c0001cad:	15 00 c0 bd 15       	adc    $0x15bdc000,%eax
c0001cb2:	00 c0                	add    %al,%al
c0001cb4:	bd 15 00 c0 b7       	mov    $0xb7c00015,%ebp
c0001cb9:	15 00 c0 bd 15       	adc    $0x15bdc000,%eax
c0001cbe:	00 c0                	add    %al,%al
c0001cc0:	bd 15 00 c0 bd       	mov    $0xbdc00015,%ebp
c0001cc5:	15 00 c0 bd 15       	adc    $0x15bdc000,%eax
c0001cca:	00 c0                	add    %al,%al
c0001ccc:	15 15 00 c0 98       	adc    $0x98c00015,%eax
c0001cd1:	15 00 c0 b4 14       	adc    $0x14b4c000,%eax
c0001cd6:	00 c0                	add    %al,%al
c0001cd8:	bd 15 00 c0 bd       	mov    $0xbdc00015,%ebp
c0001cdd:	15 00 c0 02 14       	adc    $0x1402c000,%eax
c0001ce2:	00 c0                	add    %al,%al
c0001ce4:	bd 15 00 c0 03       	mov    $0x3c00015,%ebp
c0001ce9:	16                   	push   %ss
c0001cea:	00 c0                	add    %al,%al
c0001cec:	bd 15 00 c0 bd       	mov    $0xbdc00015,%ebp
c0001cf1:	15 00 c0 ae 15       	adc    $0x15aec000,%eax
c0001cf6:	00 c0                	add    %al,%al
c0001cf8:	66 90                	xchg   %ax,%ax
c0001cfa:	66 90                	xchg   %ax,%ax
c0001cfc:	66 90                	xchg   %ax,%ax
c0001cfe:	66 90                	xchg   %ax,%ax
c0001d00:	66 90                	xchg   %ax,%ax
c0001d02:	66 90                	xchg   %ax,%ax
c0001d04:	66 90                	xchg   %ax,%ax
c0001d06:	66 90                	xchg   %ax,%ax
c0001d08:	66 90                	xchg   %ax,%ax
c0001d0a:	66 90                	xchg   %ax,%ax
c0001d0c:	66 90                	xchg   %ax,%ax
c0001d0e:	66 90                	xchg   %ax,%ax
c0001d10:	66 90                	xchg   %ax,%ax
c0001d12:	66 90                	xchg   %ax,%ax
c0001d14:	66 90                	xchg   %ax,%ax
c0001d16:	66 90                	xchg   %ax,%ax
c0001d18:	66 90                	xchg   %ax,%ax
c0001d1a:	66 90                	xchg   %ax,%ax
c0001d1c:	66 90                	xchg   %ax,%ax
c0001d1e:	66 90                	xchg   %ax,%ax
c0001d20:	66 90                	xchg   %ax,%ax
c0001d22:	66 90                	xchg   %ax,%ax
c0001d24:	66 90                	xchg   %ax,%ax
c0001d26:	66 90                	xchg   %ax,%ax
c0001d28:	66 90                	xchg   %ax,%ax
c0001d2a:	66 90                	xchg   %ax,%ax
c0001d2c:	66 90                	xchg   %ax,%ax
c0001d2e:	66 90                	xchg   %ax,%ax
c0001d30:	66 90                	xchg   %ax,%ax
c0001d32:	66 90                	xchg   %ax,%ax
c0001d34:	66 90                	xchg   %ax,%ax
c0001d36:	66 90                	xchg   %ax,%ax
c0001d38:	66 90                	xchg   %ax,%ax
c0001d3a:	66 90                	xchg   %ax,%ax
c0001d3c:	66 90                	xchg   %ax,%ax
c0001d3e:	66 90                	xchg   %ax,%ax
c0001d40:	66 90                	xchg   %ax,%ax
c0001d42:	66 90                	xchg   %ax,%ax
c0001d44:	66 90                	xchg   %ax,%ax
c0001d46:	66 90                	xchg   %ax,%ax
c0001d48:	66 90                	xchg   %ax,%ax
c0001d4a:	66 90                	xchg   %ax,%ax
c0001d4c:	66 90                	xchg   %ax,%ax
c0001d4e:	66 90                	xchg   %ax,%ax
c0001d50:	66 90                	xchg   %ax,%ax
c0001d52:	66 90                	xchg   %ax,%ax
c0001d54:	66 90                	xchg   %ax,%ax
c0001d56:	66 90                	xchg   %ax,%ax
c0001d58:	66 90                	xchg   %ax,%ax
c0001d5a:	66 90                	xchg   %ax,%ax
c0001d5c:	66 90                	xchg   %ax,%ax
c0001d5e:	66 90                	xchg   %ax,%ax
c0001d60:	66 90                	xchg   %ax,%ax
c0001d62:	66 90                	xchg   %ax,%ax
c0001d64:	66 90                	xchg   %ax,%ax
c0001d66:	66 90                	xchg   %ax,%ax
c0001d68:	66 90                	xchg   %ax,%ax
c0001d6a:	66 90                	xchg   %ax,%ax
c0001d6c:	66 90                	xchg   %ax,%ax
c0001d6e:	66 90                	xchg   %ax,%ax
c0001d70:	66 90                	xchg   %ax,%ax
c0001d72:	66 90                	xchg   %ax,%ax
c0001d74:	66 90                	xchg   %ax,%ax
c0001d76:	66 90                	xchg   %ax,%ax
c0001d78:	66 90                	xchg   %ax,%ax
c0001d7a:	66 90                	xchg   %ax,%ax
c0001d7c:	66 90                	xchg   %ax,%ax
c0001d7e:	66 90                	xchg   %ax,%ax
c0001d80:	66 90                	xchg   %ax,%ax
c0001d82:	66 90                	xchg   %ax,%ax
c0001d84:	66 90                	xchg   %ax,%ax
c0001d86:	66 90                	xchg   %ax,%ax
c0001d88:	66 90                	xchg   %ax,%ax
c0001d8a:	66 90                	xchg   %ax,%ax
c0001d8c:	66 90                	xchg   %ax,%ax
c0001d8e:	66 90                	xchg   %ax,%ax
c0001d90:	66 90                	xchg   %ax,%ax
c0001d92:	66 90                	xchg   %ax,%ax
c0001d94:	66 90                	xchg   %ax,%ax
c0001d96:	66 90                	xchg   %ax,%ax
c0001d98:	66 90                	xchg   %ax,%ax
c0001d9a:	66 90                	xchg   %ax,%ax
c0001d9c:	66 90                	xchg   %ax,%ax
c0001d9e:	66 90                	xchg   %ax,%ax
c0001da0:	66 90                	xchg   %ax,%ax
c0001da2:	66 90                	xchg   %ax,%ax
c0001da4:	66 90                	xchg   %ax,%ax
c0001da6:	66 90                	xchg   %ax,%ax
c0001da8:	66 90                	xchg   %ax,%ax
c0001daa:	66 90                	xchg   %ax,%ax
c0001dac:	66 90                	xchg   %ax,%ax
c0001dae:	66 90                	xchg   %ax,%ax
c0001db0:	66 90                	xchg   %ax,%ax
c0001db2:	66 90                	xchg   %ax,%ax
c0001db4:	66 90                	xchg   %ax,%ax
c0001db6:	66 90                	xchg   %ax,%ax
c0001db8:	66 90                	xchg   %ax,%ax
c0001dba:	66 90                	xchg   %ax,%ax
c0001dbc:	66 90                	xchg   %ax,%ax
c0001dbe:	66 90                	xchg   %ax,%ax
c0001dc0:	66 90                	xchg   %ax,%ax
c0001dc2:	66 90                	xchg   %ax,%ax
c0001dc4:	66 90                	xchg   %ax,%ax
c0001dc6:	66 90                	xchg   %ax,%ax
c0001dc8:	66 90                	xchg   %ax,%ax
c0001dca:	66 90                	xchg   %ax,%ax
c0001dcc:	66 90                	xchg   %ax,%ax
c0001dce:	66 90                	xchg   %ax,%ax
c0001dd0:	66 90                	xchg   %ax,%ax
c0001dd2:	66 90                	xchg   %ax,%ax
c0001dd4:	66 90                	xchg   %ax,%ax
c0001dd6:	66 90                	xchg   %ax,%ax
c0001dd8:	66 90                	xchg   %ax,%ax
c0001dda:	66 90                	xchg   %ax,%ax
c0001ddc:	66 90                	xchg   %ax,%ax
c0001dde:	66 90                	xchg   %ax,%ax
c0001de0:	66 90                	xchg   %ax,%ax
c0001de2:	66 90                	xchg   %ax,%ax
c0001de4:	66 90                	xchg   %ax,%ax
c0001de6:	66 90                	xchg   %ax,%ax
c0001de8:	66 90                	xchg   %ax,%ax
c0001dea:	66 90                	xchg   %ax,%ax
c0001dec:	66 90                	xchg   %ax,%ax
c0001dee:	66 90                	xchg   %ax,%ax
c0001df0:	66 90                	xchg   %ax,%ax
c0001df2:	66 90                	xchg   %ax,%ax
c0001df4:	66 90                	xchg   %ax,%ax
c0001df6:	66 90                	xchg   %ax,%ax
c0001df8:	66 90                	xchg   %ax,%ax
c0001dfa:	66 90                	xchg   %ax,%ax
c0001dfc:	66 90                	xchg   %ax,%ax
c0001dfe:	66 90                	xchg   %ax,%ax
c0001e00:	66 90                	xchg   %ax,%ax
c0001e02:	66 90                	xchg   %ax,%ax
c0001e04:	66 90                	xchg   %ax,%ax
c0001e06:	66 90                	xchg   %ax,%ax
c0001e08:	66 90                	xchg   %ax,%ax
c0001e0a:	66 90                	xchg   %ax,%ax
c0001e0c:	66 90                	xchg   %ax,%ax
c0001e0e:	66 90                	xchg   %ax,%ax
c0001e10:	66 90                	xchg   %ax,%ax
c0001e12:	66 90                	xchg   %ax,%ax
c0001e14:	66 90                	xchg   %ax,%ax
c0001e16:	66 90                	xchg   %ax,%ax
c0001e18:	66 90                	xchg   %ax,%ax
c0001e1a:	66 90                	xchg   %ax,%ax
c0001e1c:	66 90                	xchg   %ax,%ax
c0001e1e:	66 90                	xchg   %ax,%ax
c0001e20:	66 90                	xchg   %ax,%ax
c0001e22:	66 90                	xchg   %ax,%ax
c0001e24:	66 90                	xchg   %ax,%ax
c0001e26:	66 90                	xchg   %ax,%ax
c0001e28:	66 90                	xchg   %ax,%ax
c0001e2a:	66 90                	xchg   %ax,%ax
c0001e2c:	66 90                	xchg   %ax,%ax
c0001e2e:	66 90                	xchg   %ax,%ax
c0001e30:	66 90                	xchg   %ax,%ax
c0001e32:	66 90                	xchg   %ax,%ax
c0001e34:	66 90                	xchg   %ax,%ax
c0001e36:	66 90                	xchg   %ax,%ax
c0001e38:	66 90                	xchg   %ax,%ax
c0001e3a:	66 90                	xchg   %ax,%ax
c0001e3c:	66 90                	xchg   %ax,%ax
c0001e3e:	66 90                	xchg   %ax,%ax
c0001e40:	66 90                	xchg   %ax,%ax
c0001e42:	66 90                	xchg   %ax,%ax
c0001e44:	66 90                	xchg   %ax,%ax
c0001e46:	66 90                	xchg   %ax,%ax
c0001e48:	66 90                	xchg   %ax,%ax
c0001e4a:	66 90                	xchg   %ax,%ax
c0001e4c:	66 90                	xchg   %ax,%ax
c0001e4e:	66 90                	xchg   %ax,%ax
c0001e50:	66 90                	xchg   %ax,%ax
c0001e52:	66 90                	xchg   %ax,%ax
c0001e54:	66 90                	xchg   %ax,%ax
c0001e56:	66 90                	xchg   %ax,%ax
c0001e58:	66 90                	xchg   %ax,%ax
c0001e5a:	66 90                	xchg   %ax,%ax
c0001e5c:	66 90                	xchg   %ax,%ax
c0001e5e:	66 90                	xchg   %ax,%ax
c0001e60:	66 90                	xchg   %ax,%ax
c0001e62:	66 90                	xchg   %ax,%ax
c0001e64:	66 90                	xchg   %ax,%ax
c0001e66:	66 90                	xchg   %ax,%ax
c0001e68:	66 90                	xchg   %ax,%ax
c0001e6a:	66 90                	xchg   %ax,%ax
c0001e6c:	66 90                	xchg   %ax,%ax
c0001e6e:	66 90                	xchg   %ax,%ax
c0001e70:	66 90                	xchg   %ax,%ax
c0001e72:	66 90                	xchg   %ax,%ax
c0001e74:	66 90                	xchg   %ax,%ax
c0001e76:	66 90                	xchg   %ax,%ax
c0001e78:	66 90                	xchg   %ax,%ax
c0001e7a:	66 90                	xchg   %ax,%ax
c0001e7c:	66 90                	xchg   %ax,%ax
c0001e7e:	66 90                	xchg   %ax,%ax
c0001e80:	66 90                	xchg   %ax,%ax
c0001e82:	66 90                	xchg   %ax,%ax
c0001e84:	66 90                	xchg   %ax,%ax
c0001e86:	66 90                	xchg   %ax,%ax
c0001e88:	66 90                	xchg   %ax,%ax
c0001e8a:	66 90                	xchg   %ax,%ax
c0001e8c:	66 90                	xchg   %ax,%ax
c0001e8e:	66 90                	xchg   %ax,%ax
c0001e90:	66 90                	xchg   %ax,%ax
c0001e92:	66 90                	xchg   %ax,%ax
c0001e94:	66 90                	xchg   %ax,%ax
c0001e96:	66 90                	xchg   %ax,%ax
c0001e98:	66 90                	xchg   %ax,%ax
c0001e9a:	66 90                	xchg   %ax,%ax
c0001e9c:	66 90                	xchg   %ax,%ax
c0001e9e:	66 90                	xchg   %ax,%ax
c0001ea0:	66 90                	xchg   %ax,%ax
c0001ea2:	66 90                	xchg   %ax,%ax
c0001ea4:	66 90                	xchg   %ax,%ax
c0001ea6:	66 90                	xchg   %ax,%ax
c0001ea8:	66 90                	xchg   %ax,%ax
c0001eaa:	66 90                	xchg   %ax,%ax
c0001eac:	66 90                	xchg   %ax,%ax
c0001eae:	66 90                	xchg   %ax,%ax
c0001eb0:	66 90                	xchg   %ax,%ax
c0001eb2:	66 90                	xchg   %ax,%ax
c0001eb4:	66 90                	xchg   %ax,%ax
c0001eb6:	66 90                	xchg   %ax,%ax
c0001eb8:	66 90                	xchg   %ax,%ax
c0001eba:	66 90                	xchg   %ax,%ax
c0001ebc:	66 90                	xchg   %ax,%ax
c0001ebe:	66 90                	xchg   %ax,%ax
c0001ec0:	66 90                	xchg   %ax,%ax
c0001ec2:	66 90                	xchg   %ax,%ax
c0001ec4:	66 90                	xchg   %ax,%ax
c0001ec6:	66 90                	xchg   %ax,%ax
c0001ec8:	66 90                	xchg   %ax,%ax
c0001eca:	66 90                	xchg   %ax,%ax
c0001ecc:	66 90                	xchg   %ax,%ax
c0001ece:	66 90                	xchg   %ax,%ax
c0001ed0:	66 90                	xchg   %ax,%ax
c0001ed2:	66 90                	xchg   %ax,%ax
c0001ed4:	66 90                	xchg   %ax,%ax
c0001ed6:	66 90                	xchg   %ax,%ax
c0001ed8:	66 90                	xchg   %ax,%ax
c0001eda:	66 90                	xchg   %ax,%ax
c0001edc:	66 90                	xchg   %ax,%ax
c0001ede:	66 90                	xchg   %ax,%ax
c0001ee0:	66 90                	xchg   %ax,%ax
c0001ee2:	66 90                	xchg   %ax,%ax
c0001ee4:	66 90                	xchg   %ax,%ax
c0001ee6:	66 90                	xchg   %ax,%ax
c0001ee8:	66 90                	xchg   %ax,%ax
c0001eea:	66 90                	xchg   %ax,%ax
c0001eec:	66 90                	xchg   %ax,%ax
c0001eee:	66 90                	xchg   %ax,%ax
c0001ef0:	66 90                	xchg   %ax,%ax
c0001ef2:	66 90                	xchg   %ax,%ax
c0001ef4:	66 90                	xchg   %ax,%ax
c0001ef6:	66 90                	xchg   %ax,%ax
c0001ef8:	66 90                	xchg   %ax,%ax
c0001efa:	66 90                	xchg   %ax,%ax
c0001efc:	66 90                	xchg   %ax,%ax
c0001efe:	66 90                	xchg   %ax,%ax
c0001f00:	66 90                	xchg   %ax,%ax
c0001f02:	66 90                	xchg   %ax,%ax
c0001f04:	66 90                	xchg   %ax,%ax
c0001f06:	66 90                	xchg   %ax,%ax
c0001f08:	66 90                	xchg   %ax,%ax
c0001f0a:	66 90                	xchg   %ax,%ax
c0001f0c:	66 90                	xchg   %ax,%ax
c0001f0e:	66 90                	xchg   %ax,%ax
c0001f10:	66 90                	xchg   %ax,%ax
c0001f12:	66 90                	xchg   %ax,%ax
c0001f14:	66 90                	xchg   %ax,%ax
c0001f16:	66 90                	xchg   %ax,%ax
c0001f18:	66 90                	xchg   %ax,%ax
c0001f1a:	66 90                	xchg   %ax,%ax
c0001f1c:	66 90                	xchg   %ax,%ax
c0001f1e:	66 90                	xchg   %ax,%ax
c0001f20:	66 90                	xchg   %ax,%ax
c0001f22:	66 90                	xchg   %ax,%ax
c0001f24:	66 90                	xchg   %ax,%ax
c0001f26:	66 90                	xchg   %ax,%ax
c0001f28:	66 90                	xchg   %ax,%ax
c0001f2a:	66 90                	xchg   %ax,%ax
c0001f2c:	66 90                	xchg   %ax,%ax
c0001f2e:	66 90                	xchg   %ax,%ax
c0001f30:	66 90                	xchg   %ax,%ax
c0001f32:	66 90                	xchg   %ax,%ax
c0001f34:	66 90                	xchg   %ax,%ax
c0001f36:	66 90                	xchg   %ax,%ax
c0001f38:	66 90                	xchg   %ax,%ax
c0001f3a:	66 90                	xchg   %ax,%ax
c0001f3c:	66 90                	xchg   %ax,%ax
c0001f3e:	66 90                	xchg   %ax,%ax
c0001f40:	66 90                	xchg   %ax,%ax
c0001f42:	66 90                	xchg   %ax,%ax
c0001f44:	66 90                	xchg   %ax,%ax
c0001f46:	66 90                	xchg   %ax,%ax
c0001f48:	66 90                	xchg   %ax,%ax
c0001f4a:	66 90                	xchg   %ax,%ax
c0001f4c:	66 90                	xchg   %ax,%ax
c0001f4e:	66 90                	xchg   %ax,%ax
c0001f50:	66 90                	xchg   %ax,%ax
c0001f52:	66 90                	xchg   %ax,%ax
c0001f54:	66 90                	xchg   %ax,%ax
c0001f56:	66 90                	xchg   %ax,%ax
c0001f58:	66 90                	xchg   %ax,%ax
c0001f5a:	66 90                	xchg   %ax,%ax
c0001f5c:	66 90                	xchg   %ax,%ax
c0001f5e:	66 90                	xchg   %ax,%ax
c0001f60:	66 90                	xchg   %ax,%ax
c0001f62:	66 90                	xchg   %ax,%ax
c0001f64:	66 90                	xchg   %ax,%ax
c0001f66:	66 90                	xchg   %ax,%ax
c0001f68:	66 90                	xchg   %ax,%ax
c0001f6a:	66 90                	xchg   %ax,%ax
c0001f6c:	66 90                	xchg   %ax,%ax
c0001f6e:	66 90                	xchg   %ax,%ax
c0001f70:	66 90                	xchg   %ax,%ax
c0001f72:	66 90                	xchg   %ax,%ax
c0001f74:	66 90                	xchg   %ax,%ax
c0001f76:	66 90                	xchg   %ax,%ax
c0001f78:	66 90                	xchg   %ax,%ax
c0001f7a:	66 90                	xchg   %ax,%ax
c0001f7c:	66 90                	xchg   %ax,%ax
c0001f7e:	66 90                	xchg   %ax,%ax
c0001f80:	66 90                	xchg   %ax,%ax
c0001f82:	66 90                	xchg   %ax,%ax
c0001f84:	66 90                	xchg   %ax,%ax
c0001f86:	66 90                	xchg   %ax,%ax
c0001f88:	66 90                	xchg   %ax,%ax
c0001f8a:	66 90                	xchg   %ax,%ax
c0001f8c:	66 90                	xchg   %ax,%ax
c0001f8e:	66 90                	xchg   %ax,%ax
c0001f90:	66 90                	xchg   %ax,%ax
c0001f92:	66 90                	xchg   %ax,%ax
c0001f94:	66 90                	xchg   %ax,%ax
c0001f96:	66 90                	xchg   %ax,%ax
c0001f98:	66 90                	xchg   %ax,%ax
c0001f9a:	66 90                	xchg   %ax,%ax
c0001f9c:	66 90                	xchg   %ax,%ax
c0001f9e:	66 90                	xchg   %ax,%ax
c0001fa0:	66 90                	xchg   %ax,%ax
c0001fa2:	66 90                	xchg   %ax,%ax
c0001fa4:	66 90                	xchg   %ax,%ax
c0001fa6:	66 90                	xchg   %ax,%ax
c0001fa8:	66 90                	xchg   %ax,%ax
c0001faa:	66 90                	xchg   %ax,%ax
c0001fac:	66 90                	xchg   %ax,%ax
c0001fae:	66 90                	xchg   %ax,%ax
c0001fb0:	66 90                	xchg   %ax,%ax
c0001fb2:	66 90                	xchg   %ax,%ax
c0001fb4:	66 90                	xchg   %ax,%ax
c0001fb6:	66 90                	xchg   %ax,%ax
c0001fb8:	66 90                	xchg   %ax,%ax
c0001fba:	66 90                	xchg   %ax,%ax
c0001fbc:	66 90                	xchg   %ax,%ax
c0001fbe:	66 90                	xchg   %ax,%ax
c0001fc0:	66 90                	xchg   %ax,%ax
c0001fc2:	66 90                	xchg   %ax,%ax
c0001fc4:	66 90                	xchg   %ax,%ax
c0001fc6:	66 90                	xchg   %ax,%ax
c0001fc8:	66 90                	xchg   %ax,%ax
c0001fca:	66 90                	xchg   %ax,%ax
c0001fcc:	66 90                	xchg   %ax,%ax
c0001fce:	66 90                	xchg   %ax,%ax
c0001fd0:	66 90                	xchg   %ax,%ax
c0001fd2:	66 90                	xchg   %ax,%ax
c0001fd4:	66 90                	xchg   %ax,%ax
c0001fd6:	66 90                	xchg   %ax,%ax
c0001fd8:	66 90                	xchg   %ax,%ax
c0001fda:	66 90                	xchg   %ax,%ax
c0001fdc:	66 90                	xchg   %ax,%ax
c0001fde:	66 90                	xchg   %ax,%ax
c0001fe0:	66 90                	xchg   %ax,%ax
c0001fe2:	66 90                	xchg   %ax,%ax
c0001fe4:	66 90                	xchg   %ax,%ax
c0001fe6:	66 90                	xchg   %ax,%ax
c0001fe8:	66 90                	xchg   %ax,%ax
c0001fea:	66 90                	xchg   %ax,%ax
c0001fec:	66 90                	xchg   %ax,%ax
c0001fee:	66 90                	xchg   %ax,%ax
c0001ff0:	66 90                	xchg   %ax,%ax
c0001ff2:	66 90                	xchg   %ax,%ax
c0001ff4:	66 90                	xchg   %ax,%ax
c0001ff6:	66 90                	xchg   %ax,%ax
c0001ff8:	66 90                	xchg   %ax,%ax
c0001ffa:	66 90                	xchg   %ax,%ax
c0001ffc:	66 90                	xchg   %ax,%ax
c0001ffe:	66 90                	xchg   %ax,%ax

Disassembly of section .eh_frame:

c0002000 <.eh_frame>:
c0002000:	14 00                	adc    $0x0,%al
c0002002:	00 00                	add    %al,(%eax)
c0002004:	00 00                	add    %al,(%eax)
c0002006:	00 00                	add    %al,(%eax)
c0002008:	01 7a 52             	add    %edi,0x52(%edx)
c000200b:	00 01                	add    %al,(%ecx)
c000200d:	7c 08                	jl     c0002017 <KERNEL_END_TEXT+0x17>
c000200f:	01 1b                	add    %ebx,(%ebx)
c0002011:	0c 04                	or     $0x4,%al
c0002013:	04 88                	add    $0x88,%al
c0002015:	01 00                	add    %eax,(%eax)
c0002017:	00 1c 00             	add    %bl,(%eax,%eax,1)
c000201a:	00 00                	add    %al,(%eax)
c000201c:	1c 00                	sbb    $0x0,%al
c000201e:	00 00                	add    %al,(%eax)
c0002020:	92                   	xchg   %eax,%edx
c0002021:	e0 ff                	loopne c0002022 <KERNEL_END_TEXT+0x22>
c0002023:	ff 33                	pushl  (%ebx)
c0002025:	00 00                	add    %al,(%eax)
c0002027:	00 00                	add    %al,(%eax)
c0002029:	41                   	inc    %ecx
c000202a:	0e                   	push   %cs
c000202b:	08 85 02 42 0d 05    	or     %al,0x50d4202(%ebp)
c0002031:	6f                   	outsl  %ds:(%esi),(%dx)
c0002032:	c5 0c 04             	lds    (%esp,%eax,1),%ecx
c0002035:	04 00                	add    $0x0,%al
c0002037:	00 1c 00             	add    %bl,(%eax,%eax,1)
c000203a:	00 00                	add    %al,(%eax)
c000203c:	3c 00                	cmp    $0x0,%al
c000203e:	00 00                	add    %al,(%eax)
c0002040:	a5                   	movsl  %ds:(%esi),%es:(%edi)
c0002041:	e0 ff                	loopne c0002042 <KERNEL_END_TEXT+0x42>
c0002043:	ff 2d 00 00 00 00    	ljmp   *0x0
c0002049:	41                   	inc    %ecx
c000204a:	0e                   	push   %cs
c000204b:	08 85 02 42 0d 05    	or     %al,0x50d4202(%ebp)
c0002051:	69 c5 0c 04 04 00    	imul   $0x4040c,%ebp,%eax
c0002057:	00 1c 00             	add    %bl,(%eax,%eax,1)
c000205a:	00 00                	add    %al,(%eax)
c000205c:	5c                   	pop    %esp
c000205d:	00 00                	add    %al,(%eax)
c000205f:	00 b2 e0 ff ff 49    	add    %dh,0x49ffffe0(%edx)
c0002065:	00 00                	add    %al,(%eax)
c0002067:	00 00                	add    %al,(%eax)
c0002069:	41                   	inc    %ecx
c000206a:	0e                   	push   %cs
c000206b:	08 85 02 42 0d 05    	or     %al,0x50d4202(%ebp)
c0002071:	02 45 c5             	add    -0x3b(%ebp),%al
c0002074:	0c 04                	or     $0x4,%al
c0002076:	04 00                	add    $0x0,%al
c0002078:	1c 00                	sbb    $0x0,%al
c000207a:	00 00                	add    %al,(%eax)
c000207c:	7c 00                	jl     c000207e <KERNEL_END_TEXT+0x7e>
c000207e:	00 00                	add    %al,(%eax)
c0002080:	db e0                	fneni(8087 only) 
c0002082:	ff                   	(bad)  
c0002083:	ff 22                	jmp    *(%edx)
c0002085:	00 00                	add    %al,(%eax)
c0002087:	00 00                	add    %al,(%eax)
c0002089:	41                   	inc    %ecx
c000208a:	0e                   	push   %cs
c000208b:	08 85 02 42 0d 05    	or     %al,0x50d4202(%ebp)
c0002091:	5e                   	pop    %esi
c0002092:	c5 0c 04             	lds    (%esp,%eax,1),%ecx
c0002095:	04 00                	add    $0x0,%al
c0002097:	00 1c 00             	add    %bl,(%eax,%eax,1)
c000209a:	00 00                	add    %al,(%eax)
c000209c:	9c                   	pushf  
c000209d:	00 00                	add    %al,(%eax)
c000209f:	00 dd                	add    %bl,%ch
c00020a1:	e0 ff                	loopne c00020a2 <KERNEL_END_TEXT+0xa2>
c00020a3:	ff 82 00 00 00 00    	incl   0x0(%edx)
c00020a9:	41                   	inc    %ecx
c00020aa:	0e                   	push   %cs
c00020ab:	08 85 02 42 0d 05    	or     %al,0x50d4202(%ebp)
c00020b1:	02 7e c5             	add    -0x3b(%esi),%bh
c00020b4:	0c 04                	or     $0x4,%al
c00020b6:	04 00                	add    $0x0,%al
c00020b8:	1c 00                	sbb    $0x0,%al
c00020ba:	00 00                	add    %al,(%eax)
c00020bc:	bc 00 00 00 3f       	mov    $0x3f000000,%esp
c00020c1:	e1 ff                	loope  c00020c2 <KERNEL_END_TEXT+0xc2>
c00020c3:	ff 23                	jmp    *(%ebx)
c00020c5:	00 00                	add    %al,(%eax)
c00020c7:	00 00                	add    %al,(%eax)
c00020c9:	41                   	inc    %ecx
c00020ca:	0e                   	push   %cs
c00020cb:	08 85 02 42 0d 05    	or     %al,0x50d4202(%ebp)
c00020d1:	5f                   	pop    %edi
c00020d2:	c5 0c 04             	lds    (%esp,%eax,1),%ecx
c00020d5:	04 00                	add    $0x0,%al
c00020d7:	00 18                	add    %bl,(%eax)
c00020d9:	00 00                	add    %al,(%eax)
c00020db:	00 dc                	add    %bl,%ah
c00020dd:	00 00                	add    %al,(%eax)
c00020df:	00 42 e1             	add    %al,-0x1f(%edx)
c00020e2:	ff                   	(bad)  
c00020e3:	ff                   	(bad)  
c00020e4:	b8 00 00 00 00       	mov    $0x0,%eax
c00020e9:	41                   	inc    %ecx
c00020ea:	0e                   	push   %cs
c00020eb:	08 85 02 42 0d 05    	or     %al,0x50d4202(%ebp)
c00020f1:	00 00                	add    %al,(%eax)
c00020f3:	00 20                	add    %ah,(%eax)
c00020f5:	00 00                	add    %al,(%eax)
c00020f7:	00 f8                	add    %bh,%al
c00020f9:	00 00                	add    %al,(%eax)
c00020fb:	00 de                	add    %bl,%dh
c00020fd:	e1 ff                	loope  c00020fe <KERNEL_END_TEXT+0xfe>
c00020ff:	ff 22                	jmp    *(%edx)
c0002101:	00 00                	add    %al,(%eax)
c0002103:	00 00                	add    %al,(%eax)
c0002105:	41                   	inc    %ecx
c0002106:	0e                   	push   %cs
c0002107:	08 85 02 42 0d 05    	or     %al,0x50d4202(%ebp)
c000210d:	44                   	inc    %esp
c000210e:	87 03                	xchg   %eax,(%ebx)
c0002110:	59                   	pop    %ecx
c0002111:	c7 41 c5 0c 04 04 00 	movl   $0x4040c,-0x3b(%ecx)
c0002118:	20 00                	and    %al,(%eax)
c000211a:	00 00                	add    %al,(%eax)
c000211c:	1c 01                	sbb    $0x1,%al
c000211e:	00 00                	add    %al,(%eax)
c0002120:	dc e1                	fsub   %st,%st(1)
c0002122:	ff                   	(bad)  
c0002123:	ff 24 00             	jmp    *(%eax,%eax,1)
c0002126:	00 00                	add    %al,(%eax)
c0002128:	00 41 0e             	add    %al,0xe(%ecx)
c000212b:	08 85 02 42 0d 05    	or     %al,0x50d4202(%ebp)
c0002131:	44                   	inc    %esp
c0002132:	87 03                	xchg   %eax,(%ebx)
c0002134:	5b                   	pop    %ebx
c0002135:	c7 41 c5 0c 04 04 00 	movl   $0x4040c,-0x3b(%ecx)
c000213c:	20 00                	and    %al,(%eax)
c000213e:	00 00                	add    %al,(%eax)
c0002140:	40                   	inc    %eax
c0002141:	01 00                	add    %eax,(%eax)
c0002143:	00 dc                	add    %bl,%ah
c0002145:	e1 ff                	loope  c0002146 <KERNEL_END_TEXT+0x146>
c0002147:	ff 15 00 00 00 00    	call   *0x0
c000214d:	41                   	inc    %ecx
c000214e:	0e                   	push   %cs
c000214f:	08 85 02 42 0d 05    	or     %al,0x50d4202(%ebp)
c0002155:	41                   	inc    %ecx
c0002156:	87 03                	xchg   %eax,(%ebx)
c0002158:	4f                   	dec    %edi
c0002159:	c7 41 c5 0c 04 04 00 	movl   $0x4040c,-0x3b(%ecx)
c0002160:	24 00                	and    $0x0,%al
c0002162:	00 00                	add    %al,(%eax)
c0002164:	64 01 00             	add    %eax,%fs:(%eax)
c0002167:	00 cd                	add    %cl,%ch
c0002169:	e1 ff                	loope  c000216a <KERNEL_END_TEXT+0x16a>
c000216b:	ff 19                	lcall  *(%ecx)
c000216d:	00 00                	add    %al,(%eax)
c000216f:	00 00                	add    %al,(%eax)
c0002171:	41                   	inc    %ecx
c0002172:	0e                   	push   %cs
c0002173:	08 85 02 42 0d 05    	or     %al,0x50d4202(%ebp)
c0002179:	42                   	inc    %edx
c000217a:	87 03                	xchg   %eax,(%ebx)
c000217c:	86 04 51             	xchg   %al,(%ecx,%edx,2)
c000217f:	c6 41 c7 41          	movb   $0x41,-0x39(%ecx)
c0002183:	c5 0c 04             	lds    (%esp,%eax,1),%ecx
c0002186:	04 00                	add    $0x0,%al
c0002188:	24 00                	and    $0x0,%al
c000218a:	00 00                	add    %al,(%eax)
c000218c:	8c 01                	mov    %es,(%ecx)
c000218e:	00 00                	add    %al,(%eax)
c0002190:	be e1 ff ff 19       	mov    $0x19ffffe1,%esi
c0002195:	00 00                	add    %al,(%eax)
c0002197:	00 00                	add    %al,(%eax)
c0002199:	41                   	inc    %ecx
c000219a:	0e                   	push   %cs
c000219b:	08 85 02 42 0d 05    	or     %al,0x50d4202(%ebp)
c00021a1:	42                   	inc    %edx
c00021a2:	87 03                	xchg   %eax,(%ebx)
c00021a4:	86 04 51             	xchg   %al,(%ecx,%edx,2)
c00021a7:	c6 41 c7 41          	movb   $0x41,-0x39(%ecx)
c00021ab:	c5 0c 04             	lds    (%esp,%eax,1),%ecx
c00021ae:	04 00                	add    $0x0,%al
c00021b0:	1c 00                	sbb    $0x0,%al
c00021b2:	00 00                	add    %al,(%eax)
c00021b4:	b4 01                	mov    $0x1,%ah
c00021b6:	00 00                	add    %al,(%eax)
c00021b8:	af                   	scas   %es:(%edi),%eax
c00021b9:	e1 ff                	loope  c00021ba <KERNEL_END_TEXT+0x1ba>
c00021bb:	ff 09                	decl   (%ecx)
c00021bd:	00 00                	add    %al,(%eax)
c00021bf:	00 00                	add    %al,(%eax)
c00021c1:	41                   	inc    %ecx
c00021c2:	0e                   	push   %cs
c00021c3:	08 85 02 42 0d 05    	or     %al,0x50d4202(%ebp)
c00021c9:	45                   	inc    %ebp
c00021ca:	c5 0c 04             	lds    (%esp,%eax,1),%ecx
c00021cd:	04 00                	add    $0x0,%al
c00021cf:	00 1c 00             	add    %bl,(%eax,%eax,1)
c00021d2:	00 00                	add    %al,(%eax)
c00021d4:	d4 01                	aam    $0x1
c00021d6:	00 00                	add    %al,(%eax)
c00021d8:	98                   	cwtl   
c00021d9:	e1 ff                	loope  c00021da <KERNEL_END_TEXT+0x1da>
c00021db:	ff 4d 00             	decl   0x0(%ebp)
c00021de:	00 00                	add    %al,(%eax)
c00021e0:	00 41 0e             	add    %al,0xe(%ecx)
c00021e3:	08 85 02 42 0d 05    	or     %al,0x50d4202(%ebp)
c00021e9:	02 49 c5             	add    -0x3b(%ecx),%cl
c00021ec:	0c 04                	or     $0x4,%al
c00021ee:	04 00                	add    $0x0,%al
c00021f0:	1c 00                	sbb    $0x0,%al
c00021f2:	00 00                	add    %al,(%eax)
c00021f4:	f4                   	hlt    
c00021f5:	01 00                	add    %eax,(%eax)
c00021f7:	00 c5                	add    %al,%ch
c00021f9:	e1 ff                	loope  c00021fa <KERNEL_END_TEXT+0x1fa>
c00021fb:	ff                   	(bad)  
c00021fc:	39 00                	cmp    %eax,(%eax)
c00021fe:	00 00                	add    %al,(%eax)
c0002200:	00 41 0e             	add    %al,0xe(%ecx)
c0002203:	08 85 02 42 0d 05    	or     %al,0x50d4202(%ebp)
c0002209:	75 c5                	jne    c00021d0 <KERNEL_END_TEXT+0x1d0>
c000220b:	0c 04                	or     $0x4,%al
c000220d:	04 00                	add    $0x0,%al
c000220f:	00 1c 00             	add    %bl,(%eax,%eax,1)
c0002212:	00 00                	add    %al,(%eax)
c0002214:	14 02                	adc    $0x2,%al
c0002216:	00 00                	add    %al,(%eax)
c0002218:	de e1                	fsubp  %st,%st(1)
c000221a:	ff                   	(bad)  
c000221b:	ff 4c 00 00          	decl   0x0(%eax,%eax,1)
c000221f:	00 00                	add    %al,(%eax)
c0002221:	41                   	inc    %ecx
c0002222:	0e                   	push   %cs
c0002223:	08 85 02 42 0d 05    	or     %al,0x50d4202(%ebp)
c0002229:	02 48 c5             	add    -0x3b(%eax),%cl
c000222c:	0c 04                	or     $0x4,%al
c000222e:	04 00                	add    $0x0,%al
c0002230:	1c 00                	sbb    $0x0,%al
c0002232:	00 00                	add    %al,(%eax)
c0002234:	34 02                	xor    $0x2,%al
c0002236:	00 00                	add    %al,(%eax)
c0002238:	0a e2                	or     %dl,%ah
c000223a:	ff                   	(bad)  
c000223b:	ff 58 01             	lcall  *0x1(%eax)
c000223e:	00 00                	add    %al,(%eax)
c0002240:	00 41 0e             	add    %al,0xe(%ecx)
c0002243:	08 85 02 42 0d 05    	or     %al,0x50d4202(%ebp)
c0002249:	03 54 01 c5          	add    -0x3b(%ecx,%eax,1),%edx
c000224d:	0c 04                	or     $0x4,%al
c000224f:	04 1c                	add    $0x1c,%al
c0002251:	00 00                	add    %al,(%eax)
c0002253:	00 54 02 00          	add    %dl,0x0(%edx,%eax,1)
c0002257:	00 42 e3             	add    %al,-0x1d(%edx)
c000225a:	ff                   	(bad)  
c000225b:	ff 10                	call   *(%eax)
c000225d:	02 00                	add    (%eax),%al
c000225f:	00 00                	add    %al,(%eax)
c0002261:	41                   	inc    %ecx
c0002262:	0e                   	push   %cs
c0002263:	08 85 02 42 0d 05    	or     %al,0x50d4202(%ebp)
c0002269:	03 0c 02             	add    (%edx,%eax,1),%ecx
c000226c:	c5 0c 04             	lds    (%esp,%eax,1),%ecx
c000226f:	04 1c                	add    $0x1c,%al
c0002271:	00 00                	add    %al,(%eax)
c0002273:	00 74 02 00          	add    %dh,0x0(%edx,%eax,1)
c0002277:	00 32                	add    %dh,(%edx)
c0002279:	e5 ff                	in     $0xff,%eax
c000227b:	ff b0 00 00 00 00    	pushl  0x0(%eax)
c0002281:	41                   	inc    %ecx
c0002282:	0e                   	push   %cs
c0002283:	08 85 02 42 0d 05    	or     %al,0x50d4202(%ebp)
c0002289:	02 ac c5 0c 04 04 00 	add    0x4040c(%ebp,%eax,8),%ch
c0002290:	1c 00                	sbb    $0x0,%al
c0002292:	00 00                	add    %al,(%eax)
c0002294:	94                   	xchg   %eax,%esp
c0002295:	02 00                	add    (%eax),%al
c0002297:	00 c2                	add    %al,%dl
c0002299:	e5 ff                	in     $0xff,%eax
c000229b:	ff 83 00 00 00 00    	incl   0x0(%ebx)
c00022a1:	41                   	inc    %ecx
c00022a2:	0e                   	push   %cs
c00022a3:	08 85 02 42 0d 05    	or     %al,0x50d4202(%ebp)
c00022a9:	02 7f c5             	add    -0x3b(%edi),%bh
c00022ac:	0c 04                	or     $0x4,%al
c00022ae:	04 00                	add    $0x0,%al
c00022b0:	1c 00                	sbb    $0x0,%al
c00022b2:	00 00                	add    %al,(%eax)
c00022b4:	b4 02                	mov    $0x2,%ah
c00022b6:	00 00                	add    %al,(%eax)
c00022b8:	25 e6 ff ff 1e       	and    $0x1effffe6,%eax
c00022bd:	00 00                	add    %al,(%eax)
c00022bf:	00 00                	add    %al,(%eax)
c00022c1:	41                   	inc    %ecx
c00022c2:	0e                   	push   %cs
c00022c3:	08 85 02 42 0d 05    	or     %al,0x50d4202(%ebp)
c00022c9:	5a                   	pop    %edx
c00022ca:	c5 0c 04             	lds    (%esp,%eax,1),%ecx
c00022cd:	04 00                	add    $0x0,%al
c00022cf:	00 1c 00             	add    %bl,(%eax,%eax,1)
c00022d2:	00 00                	add    %al,(%eax)
c00022d4:	d4 02                	aam    $0x2
c00022d6:	00 00                	add    %al,(%eax)
c00022d8:	23 e6                	and    %esi,%esp
c00022da:	ff                   	(bad)  
c00022db:	ff 86 00 00 00 00    	incl   0x0(%esi)
c00022e1:	41                   	inc    %ecx
c00022e2:	0e                   	push   %cs
c00022e3:	08 85 02 42 0d 05    	or     %al,0x50d4202(%ebp)
c00022e9:	02 82 c5 0c 04 04    	add    0x4040cc5(%edx),%al
c00022ef:	00 1c 00             	add    %bl,(%eax,%eax,1)
c00022f2:	00 00                	add    %al,(%eax)
c00022f4:	f4                   	hlt    
c00022f5:	02 00                	add    (%eax),%al
c00022f7:	00 89 e6 ff ff 18    	add    %cl,0x18ffffe6(%ecx)
c00022fd:	00 00                	add    %al,(%eax)
c00022ff:	00 00                	add    %al,(%eax)
c0002301:	41                   	inc    %ecx
c0002302:	0e                   	push   %cs
c0002303:	08 85 02 42 0d 05    	or     %al,0x50d4202(%ebp)
c0002309:	54                   	push   %esp
c000230a:	c5 0c 04             	lds    (%esp,%eax,1),%ecx
c000230d:	04 00                	add    $0x0,%al
c000230f:	00 1c 00             	add    %bl,(%eax,%eax,1)
c0002312:	00 00                	add    %al,(%eax)
c0002314:	14 03                	adc    $0x3,%al
c0002316:	00 00                	add    %al,(%eax)
c0002318:	81 e6 ff ff 85 00    	and    $0x85ffff,%esi
c000231e:	00 00                	add    %al,(%eax)
c0002320:	00 41 0e             	add    %al,0xe(%ecx)
c0002323:	08 85 02 42 0d 05    	or     %al,0x50d4202(%ebp)
c0002329:	02 81 c5 0c 04 04    	add    0x4040cc5(%ecx),%al
c000232f:	00 20                	add    %ah,(%eax)
c0002331:	00 00                	add    %al,(%eax)
c0002333:	00 34 03             	add    %dh,(%ebx,%eax,1)
c0002336:	00 00                	add    %al,(%eax)
c0002338:	e6 e6                	out    %al,$0xe6
c000233a:	ff                   	(bad)  
c000233b:	ff                   	(bad)  
c000233c:	de 00                	fiadd  (%eax)
c000233e:	00 00                	add    %al,(%eax)
c0002340:	00 41 0e             	add    %al,0xe(%ecx)
c0002343:	08 85 02 42 0d 05    	or     %al,0x50d4202(%ebp)
c0002349:	44                   	inc    %esp
c000234a:	83 03 02             	addl   $0x2,(%ebx)
c000234d:	d5 c3                	aad    $0xc3
c000234f:	41                   	inc    %ecx
c0002350:	c5 0c 04             	lds    (%esp,%eax,1),%ecx
c0002353:	04 1c                	add    $0x1c,%al
c0002355:	00 00                	add    %al,(%eax)
c0002357:	00 58 03             	add    %bl,0x3(%eax)
c000235a:	00 00                	add    %al,(%eax)
c000235c:	a0 e7 ff ff 58       	mov    0x58ffffe7,%al
c0002361:	00 00                	add    %al,(%eax)
c0002363:	00 00                	add    %al,(%eax)
c0002365:	41                   	inc    %ecx
c0002366:	0e                   	push   %cs
c0002367:	08 85 02 42 0d 05    	or     %al,0x50d4202(%ebp)
c000236d:	02 54 c5 0c          	add    0xc(%ebp,%eax,8),%dl
c0002371:	04 04                	add    $0x4,%al
c0002373:	00 24 00             	add    %ah,(%eax,%eax,1)
c0002376:	00 00                	add    %al,(%eax)
c0002378:	78 03                	js     c000237d <KERNEL_END_TEXT+0x37d>
c000237a:	00 00                	add    %al,(%eax)
c000237c:	d8 e7                	fsub   %st(7),%st
c000237e:	ff                   	(bad)  
c000237f:	ff a1 01 00 00 00    	jmp    *0x1(%ecx)
c0002385:	41                   	inc    %ecx
c0002386:	0e                   	push   %cs
c0002387:	08 85 02 42 0d 05    	or     %al,0x50d4202(%ebp)
c000238d:	44                   	inc    %esp
c000238e:	83 03 03             	addl   $0x3,(%ebx)
c0002391:	98                   	cwtl   
c0002392:	01 c3                	add    %eax,%ebx
c0002394:	41                   	inc    %ecx
c0002395:	c5 0c 04             	lds    (%esp,%eax,1),%ecx
c0002398:	04 00                	add    $0x0,%al
c000239a:	00 00                	add    %al,(%eax)
c000239c:	1c 00                	sbb    $0x0,%al
c000239e:	00 00                	add    %al,(%eax)
c00023a0:	a0 03 00 00 51       	mov    0x51000003,%al
c00023a5:	e9 ff ff 17 00       	jmp    c01823a9 <KERNEL_END_BSS+0x16d3a9>
c00023aa:	00 00                	add    %al,(%eax)
c00023ac:	00 41 0e             	add    %al,0xe(%ecx)
c00023af:	08 85 02 42 0d 05    	or     %al,0x50d4202(%ebp)
c00023b5:	53                   	push   %ebx
c00023b6:	c5 0c 04             	lds    (%esp,%eax,1),%ecx
c00023b9:	04 00                	add    $0x0,%al
c00023bb:	00 1c 00             	add    %bl,(%eax,%eax,1)
c00023be:	00 00                	add    %al,(%eax)
c00023c0:	c0 03 00             	rolb   $0x0,(%ebx)
c00023c3:	00 48 e9             	add    %cl,-0x17(%eax)
c00023c6:	ff                   	(bad)  
c00023c7:	ff 35 00 00 00 00    	pushl  0x0
c00023cd:	41                   	inc    %ecx
c00023ce:	0e                   	push   %cs
c00023cf:	08 85 02 42 0d 05    	or     %al,0x50d4202(%ebp)
c00023d5:	71 c5                	jno    c000239c <KERNEL_END_TEXT+0x39c>
c00023d7:	0c 04                	or     $0x4,%al
c00023d9:	04 00                	add    $0x0,%al
c00023db:	00 1c 00             	add    %bl,(%eax,%eax,1)
c00023de:	00 00                	add    %al,(%eax)
c00023e0:	e0 03                	loopne c00023e5 <KERNEL_END_TEXT+0x3e5>
c00023e2:	00 00                	add    %al,(%eax)
c00023e4:	5d                   	pop    %ebp
c00023e5:	e9 ff ff 42 00       	jmp    c04323e9 <KERNEL_END_BSS+0x41d3e9>
c00023ea:	00 00                	add    %al,(%eax)
c00023ec:	00 41 0e             	add    %al,0xe(%ecx)
c00023ef:	08 85 02 42 0d 05    	or     %al,0x50d4202(%ebp)
c00023f5:	7e c5                	jle    c00023bc <KERNEL_END_TEXT+0x3bc>
c00023f7:	0c 04                	or     $0x4,%al
c00023f9:	04 00                	add    $0x0,%al
c00023fb:	00 20                	add    %ah,(%eax)
c00023fd:	00 00                	add    %al,(%eax)
c00023ff:	00 00                	add    %al,(%eax)
c0002401:	04 00                	add    $0x0,%al
c0002403:	00 7f e9             	add    %bh,-0x17(%edi)
c0002406:	ff                   	(bad)  
c0002407:	ff 5e 00             	lcall  *0x0(%esi)
c000240a:	00 00                	add    %al,(%eax)
c000240c:	00 41 0e             	add    %al,0xe(%ecx)
c000240f:	08 85 02 42 0d 05    	or     %al,0x50d4202(%ebp)
c0002415:	44                   	inc    %esp
c0002416:	83 03 02             	addl   $0x2,(%ebx)
c0002419:	55                   	push   %ebp
c000241a:	c3                   	ret    
c000241b:	41                   	inc    %ecx
c000241c:	c5 0c 04             	lds    (%esp,%eax,1),%ecx
c000241f:	04 1c                	add    $0x1c,%al
c0002421:	00 00                	add    %al,(%eax)
c0002423:	00 24 04             	add    %ah,(%esp,%eax,1)
c0002426:	00 00                	add    %al,(%eax)
c0002428:	b9 e9 ff ff a6       	mov    $0xa6ffffe9,%ecx
c000242d:	03 00                	add    (%eax),%eax
c000242f:	00 00                	add    %al,(%eax)
c0002431:	41                   	inc    %ecx
c0002432:	0e                   	push   %cs
c0002433:	08 85 02 42 0d 05    	or     %al,0x50d4202(%ebp)
c0002439:	03 a2 03 c5 0c 04    	add    0x40cc503(%edx),%esp
c000243f:	04 1c                	add    $0x1c,%al
c0002441:	00 00                	add    %al,(%eax)
c0002443:	00 44 04 00          	add    %al,0x0(%esp,%eax,1)
c0002447:	00 3f                	add    %bh,(%edi)
c0002449:	ed                   	in     (%dx),%eax
c000244a:	ff                   	(bad)  
c000244b:	ff cf                	dec    %edi
c000244d:	05 00 00 00 41       	add    $0x41000000,%eax
c0002452:	0e                   	push   %cs
c0002453:	08 85 02 42 0d 05    	or     %al,0x50d4202(%ebp)
c0002459:	03 cb                	add    %ebx,%ecx
c000245b:	05 c5 0c 04 04       	add    $0x4040cc5,%eax

Disassembly of section .data:

c0002460 <KERNEL_DATA>:
KERNEL_DATA():
c0002460:	00 50 01             	add    %dl,0x1(%eax)
c0002463:	c0 50 00 19          	rclb   $0x19,0x0(%eax)

c0002464 <crt_width>:
c0002464:	50                   	push   %eax
	...

c0002466 <crt_height>:
c0002466:	19 00                	sbb    %eax,(%eax)
	...

c0002480 <_ctype>:
c0002480:	08 08                	or     %cl,(%eax)
c0002482:	08 08                	or     %cl,(%eax)
c0002484:	08 08                	or     %cl,(%eax)
c0002486:	08 08                	or     %cl,(%eax)
c0002488:	08 28                	or     %ch,(%eax)
c000248a:	28 28                	sub    %ch,(%eax)
c000248c:	28 28                	sub    %ch,(%eax)
c000248e:	08 08                	or     %cl,(%eax)
c0002490:	08 08                	or     %cl,(%eax)
c0002492:	08 08                	or     %cl,(%eax)
c0002494:	08 08                	or     %cl,(%eax)
c0002496:	08 08                	or     %cl,(%eax)
c0002498:	08 08                	or     %cl,(%eax)
c000249a:	08 08                	or     %cl,(%eax)
c000249c:	08 08                	or     %cl,(%eax)
c000249e:	08 08                	or     %cl,(%eax)
c00024a0:	a0 10 10 10 10       	mov    0x10101010,%al
c00024a5:	10 10                	adc    %dl,(%eax)
c00024a7:	10 10                	adc    %dl,(%eax)
c00024a9:	10 10                	adc    %dl,(%eax)
c00024ab:	10 10                	adc    %dl,(%eax)
c00024ad:	10 10                	adc    %dl,(%eax)
c00024af:	10 04 04             	adc    %al,(%esp,%eax,1)
c00024b2:	04 04                	add    $0x4,%al
c00024b4:	04 04                	add    $0x4,%al
c00024b6:	04 04                	add    $0x4,%al
c00024b8:	04 04                	add    $0x4,%al
c00024ba:	10 10                	adc    %dl,(%eax)
c00024bc:	10 10                	adc    %dl,(%eax)
c00024be:	10 10                	adc    %dl,(%eax)
c00024c0:	10 41 41             	adc    %al,0x41(%ecx)
c00024c3:	41                   	inc    %ecx
c00024c4:	41                   	inc    %ecx
c00024c5:	41                   	inc    %ecx
c00024c6:	41                   	inc    %ecx
c00024c7:	01 01                	add    %eax,(%ecx)
c00024c9:	01 01                	add    %eax,(%ecx)
c00024cb:	01 01                	add    %eax,(%ecx)
c00024cd:	01 01                	add    %eax,(%ecx)
c00024cf:	01 01                	add    %eax,(%ecx)
c00024d1:	01 01                	add    %eax,(%ecx)
c00024d3:	01 01                	add    %eax,(%ecx)
c00024d5:	01 01                	add    %eax,(%ecx)
c00024d7:	01 01                	add    %eax,(%ecx)
c00024d9:	01 01                	add    %eax,(%ecx)
c00024db:	10 10                	adc    %dl,(%eax)
c00024dd:	10 10                	adc    %dl,(%eax)
c00024df:	10 10                	adc    %dl,(%eax)
c00024e1:	42                   	inc    %edx
c00024e2:	42                   	inc    %edx
c00024e3:	42                   	inc    %edx
c00024e4:	42                   	inc    %edx
c00024e5:	42                   	inc    %edx
c00024e6:	42                   	inc    %edx
c00024e7:	02 02                	add    (%edx),%al
c00024e9:	02 02                	add    (%edx),%al
c00024eb:	02 02                	add    (%edx),%al
c00024ed:	02 02                	add    (%edx),%al
c00024ef:	02 02                	add    (%edx),%al
c00024f1:	02 02                	add    (%edx),%al
c00024f3:	02 02                	add    (%edx),%al
c00024f5:	02 02                	add    (%edx),%al
c00024f7:	02 02                	add    (%edx),%al
c00024f9:	02 02                	add    (%edx),%al
c00024fb:	10 10                	adc    %dl,(%eax)
c00024fd:	10 10                	adc    %dl,(%eax)
c00024ff:	08 00                	or     %al,(%eax)
	...
c000251d:	00 00                	add    %al,(%eax)
c000251f:	00 a0 10 10 10 10    	add    %ah,0x10101010(%eax)
c0002525:	10 10                	adc    %dl,(%eax)
c0002527:	10 10                	adc    %dl,(%eax)
c0002529:	10 10                	adc    %dl,(%eax)
c000252b:	10 10                	adc    %dl,(%eax)
c000252d:	10 10                	adc    %dl,(%eax)
c000252f:	10 10                	adc    %dl,(%eax)
c0002531:	10 10                	adc    %dl,(%eax)
c0002533:	10 10                	adc    %dl,(%eax)
c0002535:	10 10                	adc    %dl,(%eax)
c0002537:	10 10                	adc    %dl,(%eax)
c0002539:	10 10                	adc    %dl,(%eax)
c000253b:	10 10                	adc    %dl,(%eax)
c000253d:	10 10                	adc    %dl,(%eax)
c000253f:	10 01                	adc    %al,(%ecx)
c0002541:	01 01                	add    %eax,(%ecx)
c0002543:	01 01                	add    %eax,(%ecx)
c0002545:	01 01                	add    %eax,(%ecx)
c0002547:	01 01                	add    %eax,(%ecx)
c0002549:	01 01                	add    %eax,(%ecx)
c000254b:	01 01                	add    %eax,(%ecx)
c000254d:	01 01                	add    %eax,(%ecx)
c000254f:	01 01                	add    %eax,(%ecx)
c0002551:	01 01                	add    %eax,(%ecx)
c0002553:	01 01                	add    %eax,(%ecx)
c0002555:	01 01                	add    %eax,(%ecx)
c0002557:	01 01                	add    %eax,(%ecx)
c0002559:	01 01                	add    %eax,(%ecx)
c000255b:	01 01                	add    %eax,(%ecx)
c000255d:	01 01                	add    %eax,(%ecx)
c000255f:	02 02                	add    (%edx),%al
c0002561:	02 02                	add    (%edx),%al
c0002563:	02 02                	add    (%edx),%al
c0002565:	02 02                	add    (%edx),%al
c0002567:	02 02                	add    (%edx),%al
c0002569:	02 02                	add    (%edx),%al
c000256b:	02 02                	add    (%edx),%al
c000256d:	02 02                	add    (%edx),%al
c000256f:	02 02                	add    (%edx),%al
c0002571:	02 02                	add    (%edx),%al
c0002573:	02 02                	add    (%edx),%al
c0002575:	02 02                	add    (%edx),%al
c0002577:	10 02                	adc    %al,(%edx)
c0002579:	02 02                	add    (%edx),%al
c000257b:	02 02                	add    (%edx),%al
c000257d:	02 02                	add    (%edx),%al
c000257f:	02 00                	add    (%eax),%al
	...

Disassembly of section .bss:

c0003000 <_stack>:
	...

c0013000 <KERNEL_BSS>:
	...

c0013020 <K_VIR_END>:
	...

c0013040 <K_PDBR>:
	...

Disassembly of section .comment:

00000000 <.comment>:
   0:	47                   	inc    %edi
   1:	43                   	inc    %ebx
   2:	43                   	inc    %ebx
   3:	3a 20                	cmp    (%eax),%ah
   5:	28 55 62             	sub    %dl,0x62(%ebp)
   8:	75 6e                	jne    78 <PAGE_SIZE-0xf88>
   a:	74 75                	je     81 <PAGE_SIZE-0xf7f>
   c:	20 34 2e             	and    %dh,(%esi,%ebp,1)
   f:	38 2e                	cmp    %ch,(%esi)
  11:	34 2d                	xor    $0x2d,%al
  13:	32 75 62             	xor    0x62(%ebp),%dh
  16:	75 6e                	jne    86 <PAGE_SIZE-0xf7a>
  18:	74 75                	je     8f <PAGE_SIZE-0xf71>
  1a:	31 7e 31             	xor    %edi,0x31(%esi)
  1d:	34 2e                	xor    $0x2e,%al
  1f:	30 34 29             	xor    %dh,(%ecx,%ebp,1)
  22:	20 34 2e             	and    %dh,(%esi,%ebp,1)
  25:	38 2e                	cmp    %ch,(%esi)
  27:	34 00                	xor    $0x0,%al
